ARM GAS  C:\Users\embedded\AppData\Local\Temp\cchfljt7.s 			page 1


   1              		.cpu arm7tdmi
   2              		.eabi_attribute 20, 1
   3              		.eabi_attribute 21, 1
   4              		.eabi_attribute 23, 3
   5              		.eabi_attribute 24, 1
   6              		.eabi_attribute 25, 1
   7              		.eabi_attribute 26, 1
   8              		.eabi_attribute 30, 6
   9              		.eabi_attribute 34, 0
  10              		.eabi_attribute 18, 4
  11              		.file	"htu21df.c"
  12              		.text
  13              	.Ltext0:
  14              		.cfi_sections	.debug_frame
  15              		.align	1
  16              		.global	measureHumidity
  17              		.syntax unified
  18              		.code	16
  19              		.thumb_func
  20              		.fpu softvfp
  21              		.type	measureHumidity, %function
  22              	measureHumidity:
  23              	.LFB0:
  24              		.file 1 "htu21df.c"
   1:htu21df.c     **** /******************************************************************************
   2:htu21df.c     ****  *  Obsługa pomiaru wilgotności przy pomocy czujnika wilgotności HTU21D(F).
   3:htu21df.c     ****  * 
   4:htu21df.c     ****  *  Plik z kodem źródłowym funkcji.
   5:htu21df.c     ****  *****************************************************************************/
   6:htu21df.c     **** 
   7:htu21df.c     **** /******************************************************************************
   8:htu21df.c     ****  * Includes
   9:htu21df.c     ****  *****************************************************************************/
  10:htu21df.c     **** 
  11:htu21df.c     **** #include "htu21df.h"
  12:htu21df.c     **** 
  13:htu21df.c     **** /******************************************************************************
  14:htu21df.c     ****  * Defines and typedefs
  15:htu21df.c     ****  *****************************************************************************/
  16:htu21df.c     **** 
  17:htu21df.c     **** #define htu21Address        0x40 // 0x40 = 0b 0100 0000
  18:htu21df.c     **** #define htu21ReadAddress    0x81 // 0x81 = 0b 1000 0001
  19:htu21df.c     **** #define htu21WriteAddress   0x80 // 0x80 = 0b 1000 0000
  20:htu21df.c     **** 
  21:htu21df.c     **** /*****************************************************************************
  22:htu21df.c     ****  * Global variables
  23:htu21df.c     ****  ****************************************************************************/
  24:htu21df.c     **** 
  25:htu21df.c     **** /*****************************************************************************
  26:htu21df.c     ****  * Local variables
  27:htu21df.c     ****  ****************************************************************************/
  28:htu21df.c     **** 
  29:htu21df.c     **** /*****************************************************************************
  30:htu21df.c     ****  * Local prototypes
  31:htu21df.c     ****  ****************************************************************************/
  32:htu21df.c     **** 
  33:htu21df.c     **** /*
ARM GAS  C:\Users\embedded\AppData\Local\Temp\cchfljt7.s 			page 2


  34:htu21df.c     ****  * @brief   Funkcja measureHumidity() wykorzystywana jest do odczytania z czujnika wilgotności
  35:htu21df.c     ****  *          nieprzeliczonej wartości wilgotności i następnie jej przeliczenie, tak aby reprezent
  36:htu21df.c     ****  *          wilgotność wyrażoną w procentach.
  37:htu21df.c     ****  *
  38:htu21df.c     ****  * @param   void
  39:htu21df.c     ****  *
  40:htu21df.c     ****  * @returns
  41:htu21df.c     ****  *          Przeliczona wartość ciśnienia, która wyrażona jest w procentach.
  42:htu21df.c     ****  *
  43:htu21df.c     ****  * @side effects:
  44:htu21df.c     ****  *          Brak
  45:htu21df.c     ****  */
  46:htu21df.c     **** 
  47:htu21df.c     **** tS8 measureHumidity(void)
  48:htu21df.c     **** {
  25              		.loc 1 48 0
  26              		.cfi_startproc
  27              		@ Function supports interworking.
  28              		@ args = 0, pretend = 0, frame = 24
  29              		@ frame_needed = 1, uses_anonymous_args = 0
  30 0000 F0B5     		push	{r4, r5, r6, r7, lr}
  31              	.LCFI0:
  32              		.cfi_def_cfa_offset 20
  33              		.cfi_offset 4, -20
  34              		.cfi_offset 5, -16
  35              		.cfi_offset 6, -12
  36              		.cfi_offset 7, -8
  37              		.cfi_offset 14, -4
  38 0002 87B0     		sub	sp, sp, #28
  39              	.LCFI1:
  40              		.cfi_def_cfa_offset 48
  41 0004 00AF     		add	r7, sp, #0
  42              	.LCFI2:
  43              		.cfi_def_cfa_register 7
  49:htu21df.c     ****     // Bufor 2-bajtowy do przechowania wartości odczytanej z czujnika HTU21DF
  50:htu21df.c     ****     tU8 readHumidity[2] = {0};
  44              		.loc 1 50 0
  45 0006 0825     		movs	r5, #8
  46 0008 7B19     		adds	r3, r7, r5
  47 000a 0022     		movs	r2, #0
  48 000c 1A80     		strh	r2, [r3]
  51:htu21df.c     **** 
  52:htu21df.c     ****     /*
  53:htu21df.c     ****         Adres rejestru do którego trzeba wpisać komendę: (0x40 << 1)
  54:htu21df.c     ****         Adres rejestru z którego trzeba odczytać wynik pomiaru: ((0x40 << 1) | 1)
  55:htu21df.c     ****     */
  56:htu21df.c     **** 
  57:htu21df.c     ****     tS8 retCode;
  58:htu21df.c     **** 
  59:htu21df.c     ****     // Komenda odczytu wilgotności w trybie "No Hold Master".
  60:htu21df.c     ****     tU8 commandNoHoldMaster[1] = {0};
  49              		.loc 1 60 0
  50 000e 3B1D     		adds	r3, r7, #4
  51 0010 0022     		movs	r2, #0
  52 0012 1A70     		strb	r2, [r3]
  61:htu21df.c     ****     commandNoHoldMaster[0] = 0xF5;
  53              		.loc 1 61 0
ARM GAS  C:\Users\embedded\AppData\Local\Temp\cchfljt7.s 			page 3


  54 0014 3B1D     		adds	r3, r7, #4
  55 0016 F522     		movs	r2, #245
  56 0018 1A70     		strb	r2, [r3]
  62:htu21df.c     ****     retCode = i2cWrite(htu21WriteAddress, commandNoHoldMaster, 1);
  57              		.loc 1 62 0
  58 001a 1626     		movs	r6, #22
  59 001c BC19     		adds	r4, r7, r6
  60 001e 3B1D     		adds	r3, r7, #4
  61 0020 0122     		movs	r2, #1
  62 0022 1900     		movs	r1, r3
  63 0024 8020     		movs	r0, #128
  64 0026 FFF7FEFF 		bl	i2cWrite
  65 002a 0300     		movs	r3, r0
  66 002c 2370     		strb	r3, [r4]
  63:htu21df.c     ****     mdelay(16);
  67              		.loc 1 63 0
  68 002e 1020     		movs	r0, #16
  69 0030 FFF7FEFF 		bl	mdelay
  64:htu21df.c     ****     retCode = i2cRead(htu21ReadAddress, readHumidity, 2);
  70              		.loc 1 64 0
  71 0034 BC19     		adds	r4, r7, r6
  72 0036 7B19     		adds	r3, r7, r5
  73 0038 0222     		movs	r2, #2
  74 003a 1900     		movs	r1, r3
  75 003c 8120     		movs	r0, #129
  76 003e FFF7FEFF 		bl	i2cRead
  77 0042 0300     		movs	r3, r0
  78 0044 2370     		strb	r3, [r4]
  65:htu21df.c     **** 
  66:htu21df.c     ****     /*
  67:htu21df.c     ****         Konwersja tablicy 2 bajtów na jedną zmienną 16 bitową.
  68:htu21df.c     ****         Wyłączenie bitów stanu - dla wilgotności są to ostatnie 4 bity.
  69:htu21df.c     ****     */
  70:htu21df.c     **** 
  71:htu21df.c     ****     tU8 mask = ~(0x0F);
  79              		.loc 1 71 0
  80 0046 1521     		movs	r1, #21
  81 0048 7B18     		adds	r3, r7, r1
  82 004a F022     		movs	r2, #240
  83 004c 1A70     		strb	r2, [r3]
  72:htu21df.c     **** 	readHumidity[1] = (readHumidity[1] & mask);
  84              		.loc 1 72 0
  85 004e 7B19     		adds	r3, r7, r5
  86 0050 5B78     		ldrb	r3, [r3, #1]
  87 0052 7A18     		adds	r2, r7, r1
  88 0054 1278     		ldrb	r2, [r2]
  89 0056 1340     		ands	r3, r2
  90 0058 1B06     		lsls	r3, r3, #24
  91 005a 1A0E     		lsrs	r2, r3, #24
  92 005c 7B19     		adds	r3, r7, r5
  93 005e 5A70     		strb	r2, [r3, #1]
  73:htu21df.c     ****     tU16 readData = ((readHumidity[0] << 8) | readHumidity[1]);
  94              		.loc 1 73 0
  95 0060 7B19     		adds	r3, r7, r5
  96 0062 1B78     		ldrb	r3, [r3]
  97 0064 1B02     		lsls	r3, r3, #8
  98 0066 1A04     		lsls	r2, r3, #16
ARM GAS  C:\Users\embedded\AppData\Local\Temp\cchfljt7.s 			page 4


  99 0068 1214     		asrs	r2, r2, #16
 100 006a 7B19     		adds	r3, r7, r5
 101 006c 5B78     		ldrb	r3, [r3, #1]
 102 006e 1B04     		lsls	r3, r3, #16
 103 0070 1B14     		asrs	r3, r3, #16
 104 0072 1343     		orrs	r3, r2
 105 0074 1B04     		lsls	r3, r3, #16
 106 0076 1B14     		asrs	r3, r3, #16
 107 0078 1221     		movs	r1, #18
 108 007a 7A18     		adds	r2, r7, r1
 109 007c 1380     		strh	r3, [r2]
  74:htu21df.c     **** 
  75:htu21df.c     ****     tU32 upperValue = (((tU32)125 * (tU32)readData) / (tU32)65536);
 110              		.loc 1 75 0
 111 007e 7B18     		adds	r3, r7, r1
 112 0080 1A88     		ldrh	r2, [r3]
 113 0082 1300     		movs	r3, r2
 114 0084 5B01     		lsls	r3, r3, #5
 115 0086 9B1A     		subs	r3, r3, r2
 116 0088 9B00     		lsls	r3, r3, #2
 117 008a 9B18     		adds	r3, r3, r2
 118 008c 1B0C     		lsrs	r3, r3, #16
 119 008e FB60     		str	r3, [r7, #12]
  76:htu21df.c     ****     tS8 humidityValue = ((tS8)(upperValue) - (tS8)6);
 120              		.loc 1 76 0
 121 0090 FB68     		ldr	r3, [r7, #12]
 122 0092 1B06     		lsls	r3, r3, #24
 123 0094 1B0E     		lsrs	r3, r3, #24
 124 0096 063B     		subs	r3, r3, #6
 125 0098 1B06     		lsls	r3, r3, #24
 126 009a 1A0E     		lsrs	r2, r3, #24
 127 009c 1721     		movs	r1, #23
 128 009e 7B18     		adds	r3, r7, r1
 129 00a0 1A70     		strb	r2, [r3]
  77:htu21df.c     **** 
  78:htu21df.c     ****     if (humidityValue < 0) {
 130              		.loc 1 78 0
 131 00a2 7B18     		adds	r3, r7, r1
 132 00a4 1B78     		ldrb	r3, [r3]
 133 00a6 7F2B     		cmp	r3, #127
 134 00a8 04D9     		bls	.L2
  79:htu21df.c     ****         humidityValue = 0;
 135              		.loc 1 79 0
 136 00aa 1723     		movs	r3, #23
 137 00ac FB18     		adds	r3, r7, r3
 138 00ae 0022     		movs	r2, #0
 139 00b0 1A70     		strb	r2, [r3]
 140 00b2 0AE0     		b	.L3
 141              	.L2:
  80:htu21df.c     ****     }
  81:htu21df.c     ****     else if (humidityValue > 100)
 142              		.loc 1 81 0
 143 00b4 1723     		movs	r3, #23
 144 00b6 FB18     		adds	r3, r7, r3
 145 00b8 1B78     		ldrb	r3, [r3]
 146 00ba 1B06     		lsls	r3, r3, #24
 147 00bc 1B16     		asrs	r3, r3, #24
ARM GAS  C:\Users\embedded\AppData\Local\Temp\cchfljt7.s 			page 5


 148 00be 642B     		cmp	r3, #100
 149 00c0 03DD     		ble	.L3
  82:htu21df.c     ****     {
  83:htu21df.c     ****         humidityValue = 100;
 150              		.loc 1 83 0
 151 00c2 1723     		movs	r3, #23
 152 00c4 FB18     		adds	r3, r7, r3
 153 00c6 6422     		movs	r2, #100
 154 00c8 1A70     		strb	r2, [r3]
 155              	.L3:
  84:htu21df.c     ****     }
  85:htu21df.c     ****     else 
  86:htu21df.c     ****     {
  87:htu21df.c     ****         ;
  88:htu21df.c     ****     }
  89:htu21df.c     **** 
  90:htu21df.c     ****     return humidityValue;
 156              		.loc 1 90 0
 157 00ca 1723     		movs	r3, #23
 158 00cc FB18     		adds	r3, r7, r3
 159 00ce 1B78     		ldrb	r3, [r3]
 160 00d0 1B06     		lsls	r3, r3, #24
 161 00d2 1B16     		asrs	r3, r3, #24
  91:htu21df.c     **** }
 162              		.loc 1 91 0
 163 00d4 1800     		movs	r0, r3
 164 00d6 BD46     		mov	sp, r7
 165 00d8 07B0     		add	sp, sp, #28
 166              		@ sp needed
 167 00da F0BC     		pop	{r4, r5, r6, r7}
 168 00dc 02BC     		pop	{r1}
 169 00de 0847     		bx	r1
 170              		.cfi_endproc
 171              	.LFE0:
 172              		.size	measureHumidity, .-measureHumidity
 173              	.Letext0:
 174              		.file 2 "general.h"