ARM GAS  C:\Users\embedded\AppData\Local\Temp\ccV5y59T.s 			page 1


   1              		.cpu arm7tdmi
   2              		.eabi_attribute 20, 1
   3              		.eabi_attribute 21, 1
   4              		.eabi_attribute 23, 3
   5              		.eabi_attribute 24, 1
   6              		.eabi_attribute 25, 1
   7              		.eabi_attribute 26, 1
   8              		.eabi_attribute 30, 6
   9              		.eabi_attribute 34, 0
  10              		.eabi_attribute 18, 4
  11              		.file	"i2c.c"
  12              		.text
  13              	.Ltext0:
  14              		.cfi_sections	.debug_frame
  15              		.align	1
  16              		.global	i2cCheckStatus
  17              		.syntax unified
  18              		.code	16
  19              		.thumb_func
  20              		.fpu softvfp
  21              		.type	i2cCheckStatus, %function
  22              	i2cCheckStatus:
  23              	.LFB0:
  24              		.file 1 "i2c.c"
   1:i2c.c         **** /******************************************************************************
   2:i2c.c         ****  * Includes
   3:i2c.c         ****  *****************************************************************************/
   4:i2c.c         **** 
   5:i2c.c         **** #include "general.h"
   6:i2c.c         **** #include "i2c.h"
   7:i2c.c         **** #include <lpc2xxx.h>
   8:i2c.c         **** 
   9:i2c.c         **** /******************************************************************************
  10:i2c.c         ****  * Defines and typedefs
  11:i2c.c         ****  *****************************************************************************/
  12:i2c.c         **** 
  13:i2c.c         **** #define I2C_CONSET (*((volatile unsigned char *) 0xE001C000))
  14:i2c.c         **** #define I2C_STAT   (*((volatile unsigned char *) 0xE001C004))
  15:i2c.c         **** #define I2C_DATA   (*((volatile unsigned char *) 0xE001C008))
  16:i2c.c         **** #define I2C_ADDR   (*((volatile unsigned char *) 0xE001C00C))
  17:i2c.c         **** #define I2C_SCLH   (*((volatile unsigned short*) 0xE001C010))
  18:i2c.c         **** #define I2C_SCLL   (*((volatile unsigned short*) 0xE001C014))
  19:i2c.c         **** #define I2C_CONCLR (*((volatile unsigned char *) 0xE001C018))
  20:i2c.c         **** 
  21:i2c.c         **** 
  22:i2c.c         **** #define I2C_REG_CONSET      0x00000040 /* Control Set Register         */
  23:i2c.c         **** #define I2C_REG_CONSET_MASK 0x0000007C /* Used bits                    */
  24:i2c.c         **** #define I2C_REG_DATA        0x00000000 /* Data register                */
  25:i2c.c         **** #define I2C_REG_DATA_MASK   0x000000FF /* Used bits                    */
  26:i2c.c         **** #define I2C_REG_ADDR        0x00000000 /* Slave address register       */
  27:i2c.c         **** #define I2C_REG_ADDR_MASK   0x000000FF /* Used bits                    */
  28:i2c.c         **** #define I2C_REG_SCLH        0x00000100 /* SCL Duty Cycle high register */
  29:i2c.c         **** #define I2C_REG_SCLH_MASK   0x0000FFFF /* Used bits                    */
  30:i2c.c         **** #define I2C_REG_SCLL        0x00000100 /* SCL Duty Cycle low register  */
  31:i2c.c         **** #define I2C_REG_SCLL_MASK   0x0000FFFF /* Used bits                    */
  32:i2c.c         **** 
  33:i2c.c         **** /*****************************************************************************
ARM GAS  C:\Users\embedded\AppData\Local\Temp\ccV5y59T.s 			page 2


  34:i2c.c         ****  * Global variables
  35:i2c.c         ****  ****************************************************************************/
  36:i2c.c         **** 
  37:i2c.c         **** /*****************************************************************************
  38:i2c.c         ****  * Local variables
  39:i2c.c         ****  ****************************************************************************/
  40:i2c.c         **** 
  41:i2c.c         **** /*****************************************************************************
  42:i2c.c         ****  * Local prototypes
  43:i2c.c         ****  ****************************************************************************/
  44:i2c.c         **** 
  45:i2c.c         **** /******************************************************************************
  46:i2c.c         ****  *
  47:i2c.c         ****  * Description:
  48:i2c.c         ****  *    Checks the I2C status.
  49:i2c.c         ****  *
  50:i2c.c         ****  *
  51:i2c.c         ****  *  Returns:
  52:i2c.c         ****  *      00h Bus error
  53:i2c.c         ****  *      08h START condition transmitted
  54:i2c.c         ****  *      10h Repeated START condition transmitted
  55:i2c.c         ****  *      18h SLA + W transmitted, ACK received
  56:i2c.c         ****  *      20h SLA + W transmitted, ACK not received
  57:i2c.c         ****  *      28h Data byte transmitted, ACK received
  58:i2c.c         ****  *      30h Data byte transmitted, ACK not received
  59:i2c.c         ****  *      38h Arbitration lost
  60:i2c.c         ****  *      40h SLA + R transmitted, ACK received
  61:i2c.c         ****  *      48h SLA + R transmitted, ACK not received
  62:i2c.c         ****  *      50h Data byte received in master mode, ACK transmitted
  63:i2c.c         ****  *      58h Data byte received in master mode, ACK not transmitted
  64:i2c.c         ****  *      60h SLA + W received, ACK transmitted
  65:i2c.c         ****  *      68h Arbitration lost, SLA + W received, ACK transmitted
  66:i2c.c         ****  *      70h General call address received, ACK transmitted
  67:i2c.c         ****  *      78h Arbitration lost, general call addr received, ACK transmitted
  68:i2c.c         ****  *      80h Data byte received with own SLA, ACK transmitted
  69:i2c.c         ****  *      88h Data byte received with own SLA, ACK not transmitted
  70:i2c.c         ****  *      90h Data byte received after general call, ACK transmitted
  71:i2c.c         ****  *      98h Data byte received after general call, ACK not transmitted
  72:i2c.c         ****  *      A0h STOP or repeated START condition received in slave mode
  73:i2c.c         ****  *      A8h SLA + R received, ACK transmitted
  74:i2c.c         ****  *      B0h Arbitration lost, SLA + R received, ACK transmitted
  75:i2c.c         ****  *      B8h Data byte transmitted in slave mode, ACK received
  76:i2c.c         ****  *      C0h Data byte transmitted in slave mode, ACK not received
  77:i2c.c         ****  *      C8h Last byte transmitted in slave mode, ACK received
  78:i2c.c         ****  *      F8h No relevant status information, SI=0
  79:i2c.c         ****  *      FFh Channel error
  80:i2c.c         ****  *
  81:i2c.c         ****  *****************************************************************************/
  82:i2c.c         **** 
  83:i2c.c         **** tU8 i2cCheckStatus(void)
  84:i2c.c         **** {
  25              		.loc 1 84 0
  26              		.cfi_startproc
  27              		@ Function supports interworking.
  28              		@ args = 0, pretend = 0, frame = 8
  29              		@ frame_needed = 1, uses_anonymous_args = 0
  30 0000 80B5     		push	{r7, lr}
ARM GAS  C:\Users\embedded\AppData\Local\Temp\ccV5y59T.s 			page 3


  31              	.LCFI0:
  32              		.cfi_def_cfa_offset 8
  33              		.cfi_offset 7, -8
  34              		.cfi_offset 14, -4
  35 0002 82B0     		sub	sp, sp, #8
  36              	.LCFI1:
  37              		.cfi_def_cfa_offset 16
  38 0004 00AF     		add	r7, sp, #0
  39              	.LCFI2:
  40              		.cfi_def_cfa_register 7
  85:i2c.c         ****   tU8 status = 0;
  41              		.loc 1 85 0
  42 0006 FB1D     		adds	r3, r7, #7
  43 0008 0022     		movs	r2, #0
  44 000a 1A70     		strb	r2, [r3]
  86:i2c.c         **** 
  87:i2c.c         ****   /* wait for I2C Status changed */
  88:i2c.c         ****   while( (I2C_CONSET & 0x08)  == 0)   /* while SI == 0 */
  45              		.loc 1 88 0
  46 000c C046     		nop
  47              	.L2:
  48              		.loc 1 88 0 is_stmt 0 discriminator 1
  49 000e 0A4B     		ldr	r3, .L4
  50 0010 1B78     		ldrb	r3, [r3]
  51 0012 1B06     		lsls	r3, r3, #24
  52 0014 1B0E     		lsrs	r3, r3, #24
  53 0016 1A00     		movs	r2, r3
  54 0018 0823     		movs	r3, #8
  55 001a 1340     		ands	r3, r2
  56 001c F7D0     		beq	.L2
  89:i2c.c         ****   {
  90:i2c.c         ****     ;
  91:i2c.c         ****   }
  92:i2c.c         **** 
  93:i2c.c         ****   /* Read I2C State */
  94:i2c.c         ****   status = I2C_STAT;
  57              		.loc 1 94 0 is_stmt 1
  58 001e 074A     		ldr	r2, .L4+4
  59 0020 FB1D     		adds	r3, r7, #7
  60 0022 1278     		ldrb	r2, [r2]
  61 0024 1A70     		strb	r2, [r3]
  95:i2c.c         **** 
  96:i2c.c         ****   /* NOTE! SI flag is not cleared here */
  97:i2c.c         **** 
  98:i2c.c         ****   return status;
  62              		.loc 1 98 0
  63 0026 FB1D     		adds	r3, r7, #7
  64 0028 1B78     		ldrb	r3, [r3]
  99:i2c.c         **** }
  65              		.loc 1 99 0
  66 002a 1800     		movs	r0, r3
  67 002c BD46     		mov	sp, r7
  68 002e 02B0     		add	sp, sp, #8
  69              		@ sp needed
  70 0030 80BC     		pop	{r7}
  71 0032 02BC     		pop	{r1}
  72 0034 0847     		bx	r1
ARM GAS  C:\Users\embedded\AppData\Local\Temp\ccV5y59T.s 			page 4


  73              	.L5:
  74 0036 C046     		.align	2
  75              	.L4:
  76 0038 00C001E0 		.word	-536756224
  77 003c 04C001E0 		.word	-536756220
  78              		.cfi_endproc
  79              	.LFE0:
  80              		.size	i2cCheckStatus, .-i2cCheckStatus
  81              		.align	1
  82              		.global	i2cInit
  83              		.syntax unified
  84              		.code	16
  85              		.thumb_func
  86              		.fpu softvfp
  87              		.type	i2cInit, %function
  88              	i2cInit:
  89              	.LFB1:
 100:i2c.c         **** 
 101:i2c.c         **** /******************************************************************************
 102:i2c.c         ****  *
 103:i2c.c         ****  * Description:
 104:i2c.c         ****  *    Reset the I2C module.
 105:i2c.c         ****  *
 106:i2c.c         ****  *****************************************************************************/
 107:i2c.c         **** 
 108:i2c.c         **** void i2cInit(void)
 109:i2c.c         **** {
  90              		.loc 1 109 0
  91              		.cfi_startproc
  92              		@ Function supports interworking.
  93              		@ args = 0, pretend = 0, frame = 0
  94              		@ frame_needed = 1, uses_anonymous_args = 0
  95 0040 80B5     		push	{r7, lr}
  96              	.LCFI3:
  97              		.cfi_def_cfa_offset 8
  98              		.cfi_offset 7, -8
  99              		.cfi_offset 14, -4
 100 0042 00AF     		add	r7, sp, #0
 101              	.LCFI4:
 102              		.cfi_def_cfa_register 7
 110:i2c.c         ****   PINSEL0  |= 0x50;
 103              		.loc 1 110 0
 104 0044 184B     		ldr	r3, .L7
 105 0046 1A68     		ldr	r2, [r3]
 106 0048 174B     		ldr	r3, .L7
 107 004a 5021     		movs	r1, #80
 108 004c 0A43     		orrs	r2, r1
 109 004e 1A60     		str	r2, [r3]
 111:i2c.c         **** 
 112:i2c.c         ****   /* clear flags */
 113:i2c.c         ****   I2C_CONCLR = 0x6c;    
 110              		.loc 1 113 0
 111 0050 164B     		ldr	r3, .L7+4
 112 0052 6C22     		movs	r2, #108
 113 0054 1A70     		strb	r2, [r3]
 114:i2c.c         **** 
 115:i2c.c         ****   /* reset registers */
ARM GAS  C:\Users\embedded\AppData\Local\Temp\ccV5y59T.s 			page 5


 116:i2c.c         ****   I2C_SCLL   = ( I2C_SCLL   & ~I2C_REG_SCLL_MASK )   | I2C_REG_SCLL;
 114              		.loc 1 116 0
 115 0056 164B     		ldr	r3, .L7+8
 116 0058 1B88     		ldrh	r3, [r3]
 117 005a 154B     		ldr	r3, .L7+8
 118 005c 8022     		movs	r2, #128
 119 005e 5200     		lsls	r2, r2, #1
 120 0060 1A80     		strh	r2, [r3]
 117:i2c.c         ****   I2C_SCLH   = ( I2C_SCLH   & ~I2C_REG_SCLH_MASK )   | I2C_REG_SCLH;
 121              		.loc 1 117 0
 122 0062 144B     		ldr	r3, .L7+12
 123 0064 1B88     		ldrh	r3, [r3]
 124 0066 134B     		ldr	r3, .L7+12
 125 0068 8022     		movs	r2, #128
 126 006a 5200     		lsls	r2, r2, #1
 127 006c 1A80     		strh	r2, [r3]
 118:i2c.c         ****   I2C_ADDR   = ( I2C_ADDR   & ~I2C_REG_ADDR_MASK )   | I2C_REG_ADDR;
 128              		.loc 1 118 0
 129 006e 124B     		ldr	r3, .L7+16
 130 0070 1B78     		ldrb	r3, [r3]
 131 0072 114B     		ldr	r3, .L7+16
 132 0074 0022     		movs	r2, #0
 133 0076 1A70     		strb	r2, [r3]
 119:i2c.c         ****   I2C_CONSET = ( I2C_CONSET & ~I2C_REG_CONSET_MASK ) | I2C_REG_CONSET;
 134              		.loc 1 119 0
 135 0078 104B     		ldr	r3, .L7+20
 136 007a 1B78     		ldrb	r3, [r3]
 137 007c 1B06     		lsls	r3, r3, #24
 138 007e 1B0E     		lsrs	r3, r3, #24
 139 0080 1B06     		lsls	r3, r3, #24
 140 0082 1B16     		asrs	r3, r3, #24
 141 0084 7C22     		movs	r2, #124
 142 0086 9343     		bics	r3, r2
 143 0088 1B06     		lsls	r3, r3, #24
 144 008a 1B16     		asrs	r3, r3, #24
 145 008c 4022     		movs	r2, #64
 146 008e 1343     		orrs	r3, r2
 147 0090 1B06     		lsls	r3, r3, #24
 148 0092 1B16     		asrs	r3, r3, #24
 149 0094 094A     		ldr	r2, .L7+20
 150 0096 1B06     		lsls	r3, r3, #24
 151 0098 1B0E     		lsrs	r3, r3, #24
 152 009a 1370     		strb	r3, [r2]
 120:i2c.c         **** }
 153              		.loc 1 120 0
 154 009c C046     		nop
 155 009e BD46     		mov	sp, r7
 156              		@ sp needed
 157 00a0 80BC     		pop	{r7}
 158 00a2 01BC     		pop	{r0}
 159 00a4 0047     		bx	r0
 160              	.L8:
 161 00a6 C046     		.align	2
 162              	.L7:
 163 00a8 00C002E0 		.word	-536690688
 164 00ac 18C001E0 		.word	-536756200
 165 00b0 14C001E0 		.word	-536756204
ARM GAS  C:\Users\embedded\AppData\Local\Temp\ccV5y59T.s 			page 6


 166 00b4 10C001E0 		.word	-536756208
 167 00b8 0CC001E0 		.word	-536756212
 168 00bc 00C001E0 		.word	-536756224
 169              		.cfi_endproc
 170              	.LFE1:
 171              		.size	i2cInit, .-i2cInit
 172              		.align	1
 173              		.global	i2cStart
 174              		.syntax unified
 175              		.code	16
 176              		.thumb_func
 177              		.fpu softvfp
 178              		.type	i2cStart, %function
 179              	i2cStart:
 180              	.LFB2:
 121:i2c.c         **** 
 122:i2c.c         **** /******************************************************************************
 123:i2c.c         ****  *
 124:i2c.c         ****  * Description:
 125:i2c.c         ****  *    Generates a start condition on I2C when bus is free.
 126:i2c.c         ****  *    Master mode will also automatically be entered.
 127:i2c.c         ****  *
 128:i2c.c         ****  *    Note: After a stop condition, you may need a bus free time before you 
 129:i2c.c         ****  *          can generate a new start condition.
 130:i2c.c         ****  *
 131:i2c.c         ****  * Returns:
 132:i2c.c         ****  *    I2C_CODE_OK or I2C status code
 133:i2c.c         ****  *
 134:i2c.c         ****  *****************************************************************************/
 135:i2c.c         **** 
 136:i2c.c         **** tS8 i2cStart(void)
 137:i2c.c         **** {
 181              		.loc 1 137 0
 182              		.cfi_startproc
 183              		@ Function supports interworking.
 184              		@ args = 0, pretend = 0, frame = 8
 185              		@ frame_needed = 1, uses_anonymous_args = 0
 186 00c0 90B5     		push	{r4, r7, lr}
 187              	.LCFI5:
 188              		.cfi_def_cfa_offset 12
 189              		.cfi_offset 4, -12
 190              		.cfi_offset 7, -8
 191              		.cfi_offset 14, -4
 192 00c2 83B0     		sub	sp, sp, #12
 193              	.LCFI6:
 194              		.cfi_def_cfa_offset 24
 195 00c4 00AF     		add	r7, sp, #0
 196              	.LCFI7:
 197              		.cfi_def_cfa_register 7
 138:i2c.c         ****   tU8   status  = 0;
 198              		.loc 1 138 0
 199 00c6 BB1D     		adds	r3, r7, #6
 200 00c8 0022     		movs	r2, #0
 201 00ca 1A70     		strb	r2, [r3]
 139:i2c.c         ****   tS8   retCode = 0;
 202              		.loc 1 139 0
 203 00cc FB1D     		adds	r3, r7, #7
ARM GAS  C:\Users\embedded\AppData\Local\Temp\ccV5y59T.s 			page 7


 204 00ce 0022     		movs	r2, #0
 205 00d0 1A70     		strb	r2, [r3]
 140:i2c.c         **** 
 141:i2c.c         ****   /* issue a start condition */
 142:i2c.c         ****   I2C_CONSET |= 0x20; /* STA = 1, set start flag */
 206              		.loc 1 142 0
 207 00d2 1A4B     		ldr	r3, .L16
 208 00d4 1B78     		ldrb	r3, [r3]
 209 00d6 1B06     		lsls	r3, r3, #24
 210 00d8 1B0E     		lsrs	r3, r3, #24
 211 00da 184A     		ldr	r2, .L16
 212 00dc 2021     		movs	r1, #32
 213 00de 0B43     		orrs	r3, r1
 214 00e0 1B06     		lsls	r3, r3, #24
 215 00e2 1B0E     		lsrs	r3, r3, #24
 216 00e4 1370     		strb	r3, [r2]
 217              	.L14:
 143:i2c.c         **** 
 144:i2c.c         ****   /* wait until START transmitted */
 145:i2c.c         ****   while(1)
 146:i2c.c         ****   {
 147:i2c.c         ****     status = i2cCheckStatus();
 218              		.loc 1 147 0
 219 00e6 BC1D     		adds	r4, r7, #6
 220 00e8 FFF7FEFF 		bl	i2cCheckStatus
 221 00ec 0300     		movs	r3, r0
 222 00ee 2370     		strb	r3, [r4]
 148:i2c.c         **** 
 149:i2c.c         ****     /* start transmitted */
 150:i2c.c         ****     if((status == 0x08) || (status == 0x10))
 223              		.loc 1 150 0
 224 00f0 BB1D     		adds	r3, r7, #6
 225 00f2 1B78     		ldrb	r3, [r3]
 226 00f4 082B     		cmp	r3, #8
 227 00f6 03D0     		beq	.L10
 228              		.loc 1 150 0 is_stmt 0 discriminator 1
 229 00f8 BB1D     		adds	r3, r7, #6
 230 00fa 1B78     		ldrb	r3, [r3]
 231 00fc 102B     		cmp	r3, #16
 232 00fe 03D1     		bne	.L11
 233              	.L10:
 151:i2c.c         ****     {
 152:i2c.c         ****       retCode = I2C_CODE_OK;
 234              		.loc 1 152 0 is_stmt 1
 235 0100 FB1D     		adds	r3, r7, #7
 236 0102 0122     		movs	r2, #1
 237 0104 1A70     		strb	r2, [r3]
 153:i2c.c         ****       break;
 238              		.loc 1 153 0
 239 0106 0CE0     		b	.L12
 240              	.L11:
 154:i2c.c         ****     }
 155:i2c.c         **** 
 156:i2c.c         ****     /* error */
 157:i2c.c         ****     else if(status != 0xf8)
 241              		.loc 1 157 0
 242 0108 BB1D     		adds	r3, r7, #6
ARM GAS  C:\Users\embedded\AppData\Local\Temp\ccV5y59T.s 			page 8


 243 010a 1B78     		ldrb	r3, [r3]
 244 010c F82B     		cmp	r3, #248
 245 010e 04D0     		beq	.L13
 158:i2c.c         ****     {
 159:i2c.c         ****       retCode = (tS8) status;
 246              		.loc 1 159 0
 247 0110 FB1D     		adds	r3, r7, #7
 248 0112 BA1D     		adds	r2, r7, #6
 249 0114 1278     		ldrb	r2, [r2]
 250 0116 1A70     		strb	r2, [r3]
 160:i2c.c         ****       break;
 251              		.loc 1 160 0
 252 0118 03E0     		b	.L12
 253              	.L13:
 161:i2c.c         ****     }
 162:i2c.c         **** 
 163:i2c.c         ****     else
 164:i2c.c         ****     {
 165:i2c.c         ****       /* clear SI flag */
 166:i2c.c         ****       I2C_CONCLR = 0x08;
 254              		.loc 1 166 0
 255 011a 094B     		ldr	r3, .L16+4
 256 011c 0822     		movs	r2, #8
 257 011e 1A70     		strb	r2, [r3]
 147:i2c.c         **** 
 258              		.loc 1 147 0
 259 0120 E1E7     		b	.L14
 260              	.L12:
 167:i2c.c         ****     }    
 168:i2c.c         ****   }
 169:i2c.c         **** 
 170:i2c.c         ****   /* clear start flag */
 171:i2c.c         ****   I2C_CONCLR = 0x20;
 261              		.loc 1 171 0
 262 0122 074B     		ldr	r3, .L16+4
 263 0124 2022     		movs	r2, #32
 264 0126 1A70     		strb	r2, [r3]
 172:i2c.c         **** 
 173:i2c.c         ****   return retCode;
 265              		.loc 1 173 0
 266 0128 FB1D     		adds	r3, r7, #7
 267 012a 1B78     		ldrb	r3, [r3]
 268 012c 1B06     		lsls	r3, r3, #24
 269 012e 1B16     		asrs	r3, r3, #24
 174:i2c.c         **** }
 270              		.loc 1 174 0
 271 0130 1800     		movs	r0, r3
 272 0132 BD46     		mov	sp, r7
 273 0134 03B0     		add	sp, sp, #12
 274              		@ sp needed
 275 0136 90BC     		pop	{r4, r7}
 276 0138 02BC     		pop	{r1}
 277 013a 0847     		bx	r1
 278              	.L17:
 279              		.align	2
 280              	.L16:
 281 013c 00C001E0 		.word	-536756224
ARM GAS  C:\Users\embedded\AppData\Local\Temp\ccV5y59T.s 			page 9


 282 0140 18C001E0 		.word	-536756200
 283              		.cfi_endproc
 284              	.LFE2:
 285              		.size	i2cStart, .-i2cStart
 286              		.align	1
 287              		.global	i2cRepeatStart
 288              		.syntax unified
 289              		.code	16
 290              		.thumb_func
 291              		.fpu softvfp
 292              		.type	i2cRepeatStart, %function
 293              	i2cRepeatStart:
 294              	.LFB3:
 175:i2c.c         **** 
 176:i2c.c         **** /******************************************************************************
 177:i2c.c         ****  *
 178:i2c.c         ****  * Description:
 179:i2c.c         ****  *    Generates a start condition on I2C when bus is free.
 180:i2c.c         ****  *    Master mode will also automatically be entered.
 181:i2c.c         ****  *
 182:i2c.c         ****  *    Note: After a stop condition, you may need a bus free time before you 
 183:i2c.c         ****  *          can generate a new start condition.
 184:i2c.c         ****  *
 185:i2c.c         ****  * Returns:
 186:i2c.c         ****  *    I2C_CODE_OK or I2C status code
 187:i2c.c         ****  *
 188:i2c.c         ****  *****************************************************************************/
 189:i2c.c         **** 
 190:i2c.c         **** tS8 i2cRepeatStart(void)
 191:i2c.c         **** {
 295              		.loc 1 191 0
 296              		.cfi_startproc
 297              		@ Function supports interworking.
 298              		@ args = 0, pretend = 0, frame = 8
 299              		@ frame_needed = 1, uses_anonymous_args = 0
 300 0144 90B5     		push	{r4, r7, lr}
 301              	.LCFI8:
 302              		.cfi_def_cfa_offset 12
 303              		.cfi_offset 4, -12
 304              		.cfi_offset 7, -8
 305              		.cfi_offset 14, -4
 306 0146 83B0     		sub	sp, sp, #12
 307              	.LCFI9:
 308              		.cfi_def_cfa_offset 24
 309 0148 00AF     		add	r7, sp, #0
 310              	.LCFI10:
 311              		.cfi_def_cfa_register 7
 192:i2c.c         ****   tU8   status  = 0;
 312              		.loc 1 192 0
 313 014a BB1D     		adds	r3, r7, #6
 314 014c 0022     		movs	r2, #0
 315 014e 1A70     		strb	r2, [r3]
 193:i2c.c         ****   tS8   retCode = 0;
 316              		.loc 1 193 0
 317 0150 FB1D     		adds	r3, r7, #7
 318 0152 0022     		movs	r2, #0
 319 0154 1A70     		strb	r2, [r3]
ARM GAS  C:\Users\embedded\AppData\Local\Temp\ccV5y59T.s 			page 10


 194:i2c.c         **** 
 195:i2c.c         ****   /* issue a start condition */
 196:i2c.c         ****   I2C_CONSET |= 0x20; /* STA = 1, set start flag */
 320              		.loc 1 196 0
 321 0156 1C4B     		ldr	r3, .L25
 322 0158 1B78     		ldrb	r3, [r3]
 323 015a 1B06     		lsls	r3, r3, #24
 324 015c 1B0E     		lsrs	r3, r3, #24
 325 015e 1A4A     		ldr	r2, .L25
 326 0160 2021     		movs	r1, #32
 327 0162 0B43     		orrs	r3, r1
 328 0164 1B06     		lsls	r3, r3, #24
 329 0166 1B0E     		lsrs	r3, r3, #24
 330 0168 1370     		strb	r3, [r2]
 197:i2c.c         ****   I2C_CONCLR = 0x08;  /* clear SI flag           */
 331              		.loc 1 197 0
 332 016a 184B     		ldr	r3, .L25+4
 333 016c 0822     		movs	r2, #8
 334 016e 1A70     		strb	r2, [r3]
 335              	.L23:
 198:i2c.c         **** 
 199:i2c.c         ****   /* wait until START transmitted */
 200:i2c.c         ****   while(1)
 201:i2c.c         ****   {
 202:i2c.c         ****     status = i2cCheckStatus();
 336              		.loc 1 202 0
 337 0170 BC1D     		adds	r4, r7, #6
 338 0172 FFF7FEFF 		bl	i2cCheckStatus
 339 0176 0300     		movs	r3, r0
 340 0178 2370     		strb	r3, [r4]
 203:i2c.c         **** 
 204:i2c.c         ****     /* start transmitted */
 205:i2c.c         ****     if((status == 0x08) || (status == 0x10))
 341              		.loc 1 205 0
 342 017a BB1D     		adds	r3, r7, #6
 343 017c 1B78     		ldrb	r3, [r3]
 344 017e 082B     		cmp	r3, #8
 345 0180 03D0     		beq	.L19
 346              		.loc 1 205 0 is_stmt 0 discriminator 1
 347 0182 BB1D     		adds	r3, r7, #6
 348 0184 1B78     		ldrb	r3, [r3]
 349 0186 102B     		cmp	r3, #16
 350 0188 03D1     		bne	.L20
 351              	.L19:
 206:i2c.c         ****     {
 207:i2c.c         ****       retCode = I2C_CODE_OK;
 352              		.loc 1 207 0 is_stmt 1
 353 018a FB1D     		adds	r3, r7, #7
 354 018c 0122     		movs	r2, #1
 355 018e 1A70     		strb	r2, [r3]
 208:i2c.c         ****       break;
 356              		.loc 1 208 0
 357 0190 0CE0     		b	.L21
 358              	.L20:
 209:i2c.c         ****     }
 210:i2c.c         **** 
 211:i2c.c         ****     /* error */
ARM GAS  C:\Users\embedded\AppData\Local\Temp\ccV5y59T.s 			page 11


 212:i2c.c         ****     else if(status != 0xf8)
 359              		.loc 1 212 0
 360 0192 BB1D     		adds	r3, r7, #6
 361 0194 1B78     		ldrb	r3, [r3]
 362 0196 F82B     		cmp	r3, #248
 363 0198 04D0     		beq	.L22
 213:i2c.c         ****     {
 214:i2c.c         ****       retCode = (tS8) status;
 364              		.loc 1 214 0
 365 019a FB1D     		adds	r3, r7, #7
 366 019c BA1D     		adds	r2, r7, #6
 367 019e 1278     		ldrb	r2, [r2]
 368 01a0 1A70     		strb	r2, [r3]
 215:i2c.c         ****       break;
 369              		.loc 1 215 0
 370 01a2 03E0     		b	.L21
 371              	.L22:
 216:i2c.c         ****     }
 217:i2c.c         **** 
 218:i2c.c         ****     else
 219:i2c.c         ****     {
 220:i2c.c         ****       /* clear SI flag */
 221:i2c.c         ****       I2C_CONCLR = 0x08;
 372              		.loc 1 221 0
 373 01a4 094B     		ldr	r3, .L25+4
 374 01a6 0822     		movs	r2, #8
 375 01a8 1A70     		strb	r2, [r3]
 202:i2c.c         **** 
 376              		.loc 1 202 0
 377 01aa E1E7     		b	.L23
 378              	.L21:
 222:i2c.c         ****     }    
 223:i2c.c         ****   }
 224:i2c.c         **** 
 225:i2c.c         ****   /* clear start flag */
 226:i2c.c         ****   I2C_CONCLR = 0x20;
 379              		.loc 1 226 0
 380 01ac 074B     		ldr	r3, .L25+4
 381 01ae 2022     		movs	r2, #32
 382 01b0 1A70     		strb	r2, [r3]
 227:i2c.c         **** 
 228:i2c.c         ****   return retCode;
 383              		.loc 1 228 0
 384 01b2 FB1D     		adds	r3, r7, #7
 385 01b4 1B78     		ldrb	r3, [r3]
 386 01b6 1B06     		lsls	r3, r3, #24
 387 01b8 1B16     		asrs	r3, r3, #24
 229:i2c.c         **** }
 388              		.loc 1 229 0
 389 01ba 1800     		movs	r0, r3
 390 01bc BD46     		mov	sp, r7
 391 01be 03B0     		add	sp, sp, #12
 392              		@ sp needed
 393 01c0 90BC     		pop	{r4, r7}
 394 01c2 02BC     		pop	{r1}
 395 01c4 0847     		bx	r1
 396              	.L26:
ARM GAS  C:\Users\embedded\AppData\Local\Temp\ccV5y59T.s 			page 12


 397 01c6 C046     		.align	2
 398              	.L25:
 399 01c8 00C001E0 		.word	-536756224
 400 01cc 18C001E0 		.word	-536756200
 401              		.cfi_endproc
 402              	.LFE3:
 403              		.size	i2cRepeatStart, .-i2cRepeatStart
 404              		.align	1
 405              		.global	i2cStop
 406              		.syntax unified
 407              		.code	16
 408              		.thumb_func
 409              		.fpu softvfp
 410              		.type	i2cStop, %function
 411              	i2cStop:
 412              	.LFB4:
 230:i2c.c         **** 
 231:i2c.c         **** /******************************************************************************
 232:i2c.c         ****  *
 233:i2c.c         ****  * Description:
 234:i2c.c         ****  *    Generates a stop condition in master mode or recovers from an error
 235:i2c.c         ****  *    condition in slave mode.
 236:i2c.c         ****  *
 237:i2c.c         ****  *    Note: After this function is run, you may need a bus free time before
 238:i2c.c         ****  *          you can generate a new start condition.
 239:i2c.c         ****  *
 240:i2c.c         ****  * Returns:
 241:i2c.c         ****  *    I2C_CODE_OK
 242:i2c.c         ****  *
 243:i2c.c         ****  *****************************************************************************/
 244:i2c.c         **** 
 245:i2c.c         **** tS8 i2cStop(void)
 246:i2c.c         **** {
 413              		.loc 1 246 0
 414              		.cfi_startproc
 415              		@ Function supports interworking.
 416              		@ args = 0, pretend = 0, frame = 0
 417              		@ frame_needed = 1, uses_anonymous_args = 0
 418 01d0 80B5     		push	{r7, lr}
 419              	.LCFI11:
 420              		.cfi_def_cfa_offset 8
 421              		.cfi_offset 7, -8
 422              		.cfi_offset 14, -4
 423 01d2 00AF     		add	r7, sp, #0
 424              	.LCFI12:
 425              		.cfi_def_cfa_register 7
 247:i2c.c         ****   I2C_CONSET |= 0x10; /* STO = 1, set stop flag */ 
 426              		.loc 1 247 0
 427 01d4 0E4B     		ldr	r3, .L30
 428 01d6 1B78     		ldrb	r3, [r3]
 429 01d8 1B06     		lsls	r3, r3, #24
 430 01da 1B0E     		lsrs	r3, r3, #24
 431 01dc 0C4A     		ldr	r2, .L30
 432 01de 1021     		movs	r1, #16
 433 01e0 0B43     		orrs	r3, r1
 434 01e2 1B06     		lsls	r3, r3, #24
 435 01e4 1B0E     		lsrs	r3, r3, #24
ARM GAS  C:\Users\embedded\AppData\Local\Temp\ccV5y59T.s 			page 13


 436 01e6 1370     		strb	r3, [r2]
 248:i2c.c         ****   I2C_CONCLR = 0x08;  /* clear SI flag          */ 
 437              		.loc 1 248 0
 438 01e8 0A4B     		ldr	r3, .L30+4
 439 01ea 0822     		movs	r2, #8
 440 01ec 1A70     		strb	r2, [r3]
 249:i2c.c         **** 
 250:i2c.c         ****   /* wait for STOP detected (while STO = 1) */
 251:i2c.c         ****   while((I2C_CONSET & 0x10) == 0x10 )
 441              		.loc 1 251 0
 442 01ee C046     		nop
 443              	.L28:
 444              		.loc 1 251 0 is_stmt 0 discriminator 1
 445 01f0 074B     		ldr	r3, .L30
 446 01f2 1B78     		ldrb	r3, [r3]
 447 01f4 1B06     		lsls	r3, r3, #24
 448 01f6 1B0E     		lsrs	r3, r3, #24
 449 01f8 1A00     		movs	r2, r3
 450 01fa 1023     		movs	r3, #16
 451 01fc 1340     		ands	r3, r2
 452 01fe 102B     		cmp	r3, #16
 453 0200 F6D0     		beq	.L28
 252:i2c.c         ****   {
 253:i2c.c         ****     /* do nothing */
 254:i2c.c         ****     ;
 255:i2c.c         ****   }
 256:i2c.c         **** 
 257:i2c.c         ****   return I2C_CODE_OK;
 454              		.loc 1 257 0 is_stmt 1
 455 0202 0123     		movs	r3, #1
 258:i2c.c         **** }
 456              		.loc 1 258 0
 457 0204 1800     		movs	r0, r3
 458 0206 BD46     		mov	sp, r7
 459              		@ sp needed
 460 0208 80BC     		pop	{r7}
 461 020a 02BC     		pop	{r1}
 462 020c 0847     		bx	r1
 463              	.L31:
 464 020e C046     		.align	2
 465              	.L30:
 466 0210 00C001E0 		.word	-536756224
 467 0214 18C001E0 		.word	-536756200
 468              		.cfi_endproc
 469              	.LFE4:
 470              		.size	i2cStop, .-i2cStop
 471              		.align	1
 472              		.global	i2cPutChar
 473              		.syntax unified
 474              		.code	16
 475              		.thumb_func
 476              		.fpu softvfp
 477              		.type	i2cPutChar, %function
 478              	i2cPutChar:
 479              	.LFB5:
 259:i2c.c         **** 
 260:i2c.c         **** /******************************************************************************
ARM GAS  C:\Users\embedded\AppData\Local\Temp\ccV5y59T.s 			page 14


 261:i2c.c         ****  *
 262:i2c.c         ****  * Description:
 263:i2c.c         ****  *    Sends a character on the I2C network
 264:i2c.c         ****  *
 265:i2c.c         ****  * Params:
 266:i2c.c         ****  *    [in] data - the character to send
 267:i2c.c         ****  *
 268:i2c.c         ****  * Returns:
 269:i2c.c         ****  *    I2C_CODE_OK   - successful
 270:i2c.c         ****  *    I2C_CODE_BUSY - data register is not ready -> byte was not sent
 271:i2c.c         ****  *
 272:i2c.c         ****  *****************************************************************************/
 273:i2c.c         **** 
 274:i2c.c         **** tS8 i2cPutChar(tU8 data)
 275:i2c.c         **** {
 480              		.loc 1 275 0
 481              		.cfi_startproc
 482              		@ Function supports interworking.
 483              		@ args = 0, pretend = 0, frame = 16
 484              		@ frame_needed = 1, uses_anonymous_args = 0
 485 0218 80B5     		push	{r7, lr}
 486              	.LCFI13:
 487              		.cfi_def_cfa_offset 8
 488              		.cfi_offset 7, -8
 489              		.cfi_offset 14, -4
 490 021a 84B0     		sub	sp, sp, #16
 491              	.LCFI14:
 492              		.cfi_def_cfa_offset 24
 493 021c 00AF     		add	r7, sp, #0
 494              	.LCFI15:
 495              		.cfi_def_cfa_register 7
 496 021e 0200     		movs	r2, r0
 497 0220 FB1D     		adds	r3, r7, #7
 498 0222 1A70     		strb	r2, [r3]
 276:i2c.c         ****   tS8 retCode = 0;
 499              		.loc 1 276 0
 500 0224 0F23     		movs	r3, #15
 501 0226 FB18     		adds	r3, r7, r3
 502 0228 0022     		movs	r2, #0
 503 022a 1A70     		strb	r2, [r3]
 277:i2c.c         **** 
 278:i2c.c         ****   /* check if I2C Data register can be accessed */
 279:i2c.c         ****   if((I2C_CONSET & 0x08) != 0)  /* if SI = 1 */
 504              		.loc 1 279 0
 505 022c 114B     		ldr	r3, .L36
 506 022e 1B78     		ldrb	r3, [r3]
 507 0230 1B06     		lsls	r3, r3, #24
 508 0232 1B0E     		lsrs	r3, r3, #24
 509 0234 1A00     		movs	r2, r3
 510 0236 0823     		movs	r3, #8
 511 0238 1340     		ands	r3, r2
 512 023a 0BD0     		beq	.L33
 280:i2c.c         ****   {
 281:i2c.c         ****     /* send data */
 282:i2c.c         ****     I2C_DATA   = data;
 513              		.loc 1 282 0
 514 023c 0E4A     		ldr	r2, .L36+4
ARM GAS  C:\Users\embedded\AppData\Local\Temp\ccV5y59T.s 			page 15


 515 023e FB1D     		adds	r3, r7, #7
 516 0240 1B78     		ldrb	r3, [r3]
 517 0242 1370     		strb	r3, [r2]
 283:i2c.c         ****     I2C_CONCLR = 0x08; /* clear SI flag */ 
 518              		.loc 1 283 0
 519 0244 0D4B     		ldr	r3, .L36+8
 520 0246 0822     		movs	r2, #8
 521 0248 1A70     		strb	r2, [r3]
 284:i2c.c         ****     retCode    = I2C_CODE_OK;
 522              		.loc 1 284 0
 523 024a 0F23     		movs	r3, #15
 524 024c FB18     		adds	r3, r7, r3
 525 024e 0122     		movs	r2, #1
 526 0250 1A70     		strb	r2, [r3]
 527 0252 03E0     		b	.L34
 528              	.L33:
 285:i2c.c         ****   }
 286:i2c.c         ****   else
 287:i2c.c         ****   {
 288:i2c.c         ****     /* data register not ready */
 289:i2c.c         ****     retCode = I2C_CODE_BUSY;
 529              		.loc 1 289 0
 530 0254 0F23     		movs	r3, #15
 531 0256 FB18     		adds	r3, r7, r3
 532 0258 FC22     		movs	r2, #252
 533 025a 1A70     		strb	r2, [r3]
 534              	.L34:
 290:i2c.c         ****   }
 291:i2c.c         **** 
 292:i2c.c         ****   return retCode;
 535              		.loc 1 292 0
 536 025c 0F23     		movs	r3, #15
 537 025e FB18     		adds	r3, r7, r3
 538 0260 1B78     		ldrb	r3, [r3]
 539 0262 1B06     		lsls	r3, r3, #24
 540 0264 1B16     		asrs	r3, r3, #24
 293:i2c.c         **** }
 541              		.loc 1 293 0
 542 0266 1800     		movs	r0, r3
 543 0268 BD46     		mov	sp, r7
 544 026a 04B0     		add	sp, sp, #16
 545              		@ sp needed
 546 026c 80BC     		pop	{r7}
 547 026e 02BC     		pop	{r1}
 548 0270 0847     		bx	r1
 549              	.L37:
 550 0272 C046     		.align	2
 551              	.L36:
 552 0274 00C001E0 		.word	-536756224
 553 0278 08C001E0 		.word	-536756216
 554 027c 18C001E0 		.word	-536756200
 555              		.cfi_endproc
 556              	.LFE5:
 557              		.size	i2cPutChar, .-i2cPutChar
 558              		.align	1
 559              		.global	i2cGetChar
 560              		.syntax unified
ARM GAS  C:\Users\embedded\AppData\Local\Temp\ccV5y59T.s 			page 16


 561              		.code	16
 562              		.thumb_func
 563              		.fpu softvfp
 564              		.type	i2cGetChar, %function
 565              	i2cGetChar:
 566              	.LFB6:
 294:i2c.c         **** 
 295:i2c.c         **** /******************************************************************************
 296:i2c.c         ****  *
 297:i2c.c         ****  * Description:
 298:i2c.c         ****  *    Read a character. I2C master mode is used.
 299:i2c.c         ****  *    This function is also used to prepare if the master shall generate
 300:i2c.c         ****  *    acknowledge or not acknowledge.
 301:i2c.c         ****  *
 302:i2c.c         ****  * Params:
 303:i2c.c         ****  *    [in]  mode  - I2C_MODE_ACK0 Set ACK=0. Slave sends next byte
 304:i2c.c         ****  *                  I2C_MODE_ACK1 Set ACK=1. Slave sends last byte
 305:i2c.c         ****  *                  I2C_MODE_READ Read data from data register
 306:i2c.c         ****  *    [out] pData - a pointer to where the data shall be saved.
 307:i2c.c         ****  *
 308:i2c.c         ****  * Returns:
 309:i2c.c         ****  *    I2C_CODE_OK    - successful
 310:i2c.c         ****  *    I2C_CODE_EMPTY - no data is available
 311:i2c.c         ****  *
 312:i2c.c         ****  *****************************************************************************/
 313:i2c.c         **** 
 314:i2c.c         **** tS8 i2cGetChar(tU8  mode, tU8* pData)
 315:i2c.c         **** {
 567              		.loc 1 315 0
 568              		.cfi_startproc
 569              		@ Function supports interworking.
 570              		@ args = 0, pretend = 0, frame = 16
 571              		@ frame_needed = 1, uses_anonymous_args = 0
 572 0280 80B5     		push	{r7, lr}
 573              	.LCFI16:
 574              		.cfi_def_cfa_offset 8
 575              		.cfi_offset 7, -8
 576              		.cfi_offset 14, -4
 577 0282 84B0     		sub	sp, sp, #16
 578              	.LCFI17:
 579              		.cfi_def_cfa_offset 24
 580 0284 00AF     		add	r7, sp, #0
 581              	.LCFI18:
 582              		.cfi_def_cfa_register 7
 583 0286 0200     		movs	r2, r0
 584 0288 3960     		str	r1, [r7]
 585 028a FB1D     		adds	r3, r7, #7
 586 028c 1A70     		strb	r2, [r3]
 316:i2c.c         ****   tS8 retCode = I2C_CODE_OK;
 587              		.loc 1 316 0
 588 028e 0F23     		movs	r3, #15
 589 0290 FB18     		adds	r3, r7, r3
 590 0292 0122     		movs	r2, #1
 591 0294 1A70     		strb	r2, [r3]
 317:i2c.c         **** 
 318:i2c.c         ****   if(mode == I2C_MODE_ACK0)
 592              		.loc 1 318 0
ARM GAS  C:\Users\embedded\AppData\Local\Temp\ccV5y59T.s 			page 17


 593 0296 FB1D     		adds	r3, r7, #7
 594 0298 1B78     		ldrb	r3, [r3]
 595 029a 002B     		cmp	r3, #0
 596 029c 0DD1     		bne	.L39
 319:i2c.c         ****   {
 320:i2c.c         ****     /* the operation mode is changed from master transmit to master receive */
 321:i2c.c         **** 
 322:i2c.c         ****     /* set ACK=0 (informs slave to send next byte) */
 323:i2c.c         **** 
 324:i2c.c         ****     I2C_CONSET |= 0x04; /* AA=1          */
 597              		.loc 1 324 0
 598 029e 1D4B     		ldr	r3, .L44
 599 02a0 1B78     		ldrb	r3, [r3]
 600 02a2 1B06     		lsls	r3, r3, #24
 601 02a4 1B0E     		lsrs	r3, r3, #24
 602 02a6 1B4A     		ldr	r2, .L44
 603 02a8 0421     		movs	r1, #4
 604 02aa 0B43     		orrs	r3, r1
 605 02ac 1B06     		lsls	r3, r3, #24
 606 02ae 1B0E     		lsrs	r3, r3, #24
 607 02b0 1370     		strb	r3, [r2]
 325:i2c.c         ****     I2C_CONCLR = 0x08;  /* clear SI flag */   
 608              		.loc 1 325 0
 609 02b2 194B     		ldr	r3, .L44+4
 610 02b4 0822     		movs	r2, #8
 611 02b6 1A70     		strb	r2, [r3]
 612 02b8 21E0     		b	.L40
 613              	.L39:
 326:i2c.c         ****   }
 327:i2c.c         ****   else if(mode == I2C_MODE_ACK1)
 614              		.loc 1 327 0
 615 02ba FB1D     		adds	r3, r7, #7
 616 02bc 1B78     		ldrb	r3, [r3]
 617 02be 012B     		cmp	r3, #1
 618 02c0 06D1     		bne	.L41
 328:i2c.c         ****   {
 329:i2c.c         ****     /* set ACK=1 (informs slave to send last byte) */
 330:i2c.c         ****     I2C_CONCLR = 0x04;     
 619              		.loc 1 330 0
 620 02c2 154B     		ldr	r3, .L44+4
 621 02c4 0422     		movs	r2, #4
 622 02c6 1A70     		strb	r2, [r3]
 331:i2c.c         ****     I2C_CONCLR = 0x08; /* clear SI flag */ 
 623              		.loc 1 331 0
 624 02c8 134B     		ldr	r3, .L44+4
 625 02ca 0822     		movs	r2, #8
 626 02cc 1A70     		strb	r2, [r3]
 627 02ce 16E0     		b	.L40
 628              	.L41:
 332:i2c.c         ****   }
 333:i2c.c         ****   else if(mode == I2C_MODE_READ)
 629              		.loc 1 333 0
 630 02d0 FB1D     		adds	r3, r7, #7
 631 02d2 1B78     		ldrb	r3, [r3]
 632 02d4 022B     		cmp	r3, #2
 633 02d6 12D1     		bne	.L40
 334:i2c.c         ****   {
ARM GAS  C:\Users\embedded\AppData\Local\Temp\ccV5y59T.s 			page 18


 335:i2c.c         ****     /* check if I2C Data register can be accessed */
 336:i2c.c         ****     if((I2C_CONSET & 0x08) != 0)  /* SI = 1 */
 634              		.loc 1 336 0
 635 02d8 0E4B     		ldr	r3, .L44
 636 02da 1B78     		ldrb	r3, [r3]
 637 02dc 1B06     		lsls	r3, r3, #24
 638 02de 1B0E     		lsrs	r3, r3, #24
 639 02e0 1A00     		movs	r2, r3
 640 02e2 0823     		movs	r3, #8
 641 02e4 1340     		ands	r3, r2
 642 02e6 06D0     		beq	.L42
 337:i2c.c         ****     {
 338:i2c.c         ****       /* read data  */
 339:i2c.c         ****       *pData = (tU8) I2C_DATA;
 643              		.loc 1 339 0
 644 02e8 0C4B     		ldr	r3, .L44+8
 645 02ea 1B78     		ldrb	r3, [r3]
 646 02ec 1B06     		lsls	r3, r3, #24
 647 02ee 1A0E     		lsrs	r2, r3, #24
 648 02f0 3B68     		ldr	r3, [r7]
 649 02f2 1A70     		strb	r2, [r3]
 650 02f4 03E0     		b	.L40
 651              	.L42:
 340:i2c.c         ****     }
 341:i2c.c         ****     else
 342:i2c.c         ****     {
 343:i2c.c         ****       /* No data available */
 344:i2c.c         ****       retCode = I2C_CODE_EMPTY;
 652              		.loc 1 344 0
 653 02f6 0F23     		movs	r3, #15
 654 02f8 FB18     		adds	r3, r7, r3
 655 02fa FD22     		movs	r2, #253
 656 02fc 1A70     		strb	r2, [r3]
 657              	.L40:
 345:i2c.c         ****     }
 346:i2c.c         ****   }
 347:i2c.c         **** 
 348:i2c.c         ****   return retCode;
 658              		.loc 1 348 0
 659 02fe 0F23     		movs	r3, #15
 660 0300 FB18     		adds	r3, r7, r3
 661 0302 1B78     		ldrb	r3, [r3]
 662 0304 1B06     		lsls	r3, r3, #24
 663 0306 1B16     		asrs	r3, r3, #24
 349:i2c.c         **** }
 664              		.loc 1 349 0
 665 0308 1800     		movs	r0, r3
 666 030a BD46     		mov	sp, r7
 667 030c 04B0     		add	sp, sp, #16
 668              		@ sp needed
 669 030e 80BC     		pop	{r7}
 670 0310 02BC     		pop	{r1}
 671 0312 0847     		bx	r1
 672              	.L45:
 673              		.align	2
 674              	.L44:
 675 0314 00C001E0 		.word	-536756224
ARM GAS  C:\Users\embedded\AppData\Local\Temp\ccV5y59T.s 			page 19


 676 0318 18C001E0 		.word	-536756200
 677 031c 08C001E0 		.word	-536756216
 678              		.cfi_endproc
 679              	.LFE6:
 680              		.size	i2cGetChar, .-i2cGetChar
 681              		.align	1
 682              		.global	i2cWrite
 683              		.syntax unified
 684              		.code	16
 685              		.thumb_func
 686              		.fpu softvfp
 687              		.type	i2cWrite, %function
 688              	i2cWrite:
 689              	.LFB7:
 350:i2c.c         **** 
 351:i2c.c         **** /******************************************************************************
 352:i2c.c         ****  *
 353:i2c.c         ****  * Description:
 354:i2c.c         ****  *    Sends data on the I2C network
 355:i2c.c         ****  *
 356:i2c.c         ****  *    Note: After this function is run, you may need a bus free time before a 
 357:i2c.c         ****  *          new data transfer can be initiated.
 358:i2c.c         ****  *
 359:i2c.c         ****  * Params:
 360:i2c.c         ****  *    [in] addr  - address
 361:i2c.c         ****  *    [in] pData - data to transmit
 362:i2c.c         ****  *    [in] len   - number of bytes to transmit
 363:i2c.c         ****  *
 364:i2c.c         ****  * Returns:
 365:i2c.c         ****  *    I2C_CODE_OK    - successful
 366:i2c.c         ****  *    I2C_CODE_ERROR - an error occured
 367:i2c.c         ****  *
 368:i2c.c         ****  *****************************************************************************/
 369:i2c.c         **** 
 370:i2c.c         **** tS8 i2cWrite(tU8  addr, tU8* pData, tU16 len)
 371:i2c.c         **** {
 690              		.loc 1 371 0
 691              		.cfi_startproc
 692              		@ Function supports interworking.
 693              		@ args = 0, pretend = 0, frame = 16
 694              		@ frame_needed = 1, uses_anonymous_args = 0
 695 0320 B0B5     		push	{r4, r5, r7, lr}
 696              	.LCFI19:
 697              		.cfi_def_cfa_offset 16
 698              		.cfi_offset 4, -16
 699              		.cfi_offset 5, -12
 700              		.cfi_offset 7, -8
 701              		.cfi_offset 14, -4
 702 0322 84B0     		sub	sp, sp, #16
 703              	.LCFI20:
 704              		.cfi_def_cfa_offset 32
 705 0324 00AF     		add	r7, sp, #0
 706              	.LCFI21:
 707              		.cfi_def_cfa_register 7
 708 0326 3960     		str	r1, [r7]
 709 0328 1100     		movs	r1, r2
 710 032a FB1D     		adds	r3, r7, #7
ARM GAS  C:\Users\embedded\AppData\Local\Temp\ccV5y59T.s 			page 20


 711 032c 021C     		adds	r2, r0, #0
 712 032e 1A70     		strb	r2, [r3]
 713 0330 3B1D     		adds	r3, r7, #4
 714 0332 0A1C     		adds	r2, r1, #0
 715 0334 1A80     		strh	r2, [r3]
 372:i2c.c         ****   tS8 retCode = 0;
 716              		.loc 1 372 0
 717 0336 0F21     		movs	r1, #15
 718 0338 7B18     		adds	r3, r7, r1
 719 033a 0022     		movs	r2, #0
 720 033c 1A70     		strb	r2, [r3]
 373:i2c.c         ****   tU8 status  = 0;
 721              		.loc 1 373 0
 722 033e 0D23     		movs	r3, #13
 723 0340 FB18     		adds	r3, r7, r3
 724 0342 0022     		movs	r2, #0
 725 0344 1A70     		strb	r2, [r3]
 374:i2c.c         ****   tU8 i       = 0;
 726              		.loc 1 374 0
 727 0346 0E23     		movs	r3, #14
 728 0348 FB18     		adds	r3, r7, r3
 729 034a 0022     		movs	r2, #0
 730 034c 1A70     		strb	r2, [r3]
 375:i2c.c         **** 
 376:i2c.c         ****   /* generate Start condition */
 377:i2c.c         ****   retCode = i2cStart();
 731              		.loc 1 377 0
 732 034e 0D00     		movs	r5, r1
 733 0350 7C18     		adds	r4, r7, r1
 734 0352 FFF7FEFF 		bl	i2cStart
 735 0356 0300     		movs	r3, r0
 736 0358 2370     		strb	r3, [r4]
 378:i2c.c         **** 
 379:i2c.c         ****   /* Transmit address */
 380:i2c.c         ****   if(retCode == I2C_CODE_OK)
 737              		.loc 1 380 0
 738 035a 2900     		movs	r1, r5
 739 035c 7B18     		adds	r3, r7, r1
 740 035e 1B78     		ldrb	r3, [r3]
 741 0360 1B06     		lsls	r3, r3, #24
 742 0362 1B16     		asrs	r3, r3, #24
 743 0364 012B     		cmp	r3, #1
 744 0366 19D1     		bne	.L47
 381:i2c.c         ****   {
 382:i2c.c         ****     /* write SLA+W */
 383:i2c.c         ****     retCode = i2cPutChar(addr);
 745              		.loc 1 383 0
 746 0368 0F23     		movs	r3, #15
 747 036a FC18     		adds	r4, r7, r3
 748 036c FB1D     		adds	r3, r7, #7
 749 036e 1B78     		ldrb	r3, [r3]
 750 0370 1800     		movs	r0, r3
 751 0372 FFF7FEFF 		bl	i2cPutChar
 752 0376 0300     		movs	r3, r0
 753 0378 2370     		strb	r3, [r4]
 384:i2c.c         ****     while(retCode == I2C_CODE_BUSY)
 754              		.loc 1 384 0
ARM GAS  C:\Users\embedded\AppData\Local\Temp\ccV5y59T.s 			page 21


 755 037a 08E0     		b	.L48
 756              	.L49:
 385:i2c.c         ****     {
 386:i2c.c         ****       retCode = i2cPutChar(addr);
 757              		.loc 1 386 0
 758 037c 0F23     		movs	r3, #15
 759 037e FC18     		adds	r4, r7, r3
 760 0380 FB1D     		adds	r3, r7, #7
 761 0382 1B78     		ldrb	r3, [r3]
 762 0384 1800     		movs	r0, r3
 763 0386 FFF7FEFF 		bl	i2cPutChar
 764 038a 0300     		movs	r3, r0
 765 038c 2370     		strb	r3, [r4]
 766              	.L48:
 384:i2c.c         ****     while(retCode == I2C_CODE_BUSY)
 767              		.loc 1 384 0
 768 038e 0F23     		movs	r3, #15
 769 0390 FB18     		adds	r3, r7, r3
 770 0392 1B78     		ldrb	r3, [r3]
 771 0394 1B06     		lsls	r3, r3, #24
 772 0396 1B16     		asrs	r3, r3, #24
 773 0398 0433     		adds	r3, r3, #4
 774 039a EFD0     		beq	.L49
 775              	.L47:
 387:i2c.c         ****     }
 388:i2c.c         ****   }
 389:i2c.c         **** 
 390:i2c.c         ****   if(retCode == I2C_CODE_OK)
 776              		.loc 1 390 0
 777 039c 0F23     		movs	r3, #15
 778 039e FB18     		adds	r3, r7, r3
 779 03a0 1B78     		ldrb	r3, [r3]
 780 03a2 1B06     		lsls	r3, r3, #24
 781 03a4 1B16     		asrs	r3, r3, #24
 782 03a6 012B     		cmp	r3, #1
 783 03a8 4ED1     		bne	.L61
 391:i2c.c         ****   {
 392:i2c.c         ****     /* wait until address transmitted and transmit data */
 393:i2c.c         ****     for(i = 0; i < len; i++)
 784              		.loc 1 393 0
 785 03aa 0E23     		movs	r3, #14
 786 03ac FB18     		adds	r3, r7, r3
 787 03ae 0022     		movs	r2, #0
 788 03b0 1A70     		strb	r2, [r3]
 789 03b2 40E0     		b	.L51
 790              	.L58:
 394:i2c.c         ****     {
 395:i2c.c         ****       /* wait until data transmitted */
 396:i2c.c         **** 
 397:i2c.c         ****       while(1)
 398:i2c.c         ****       {
 399:i2c.c         ****         /* get new status */
 400:i2c.c         ****         status = i2cCheckStatus();
 791              		.loc 1 400 0
 792 03b4 0D25     		movs	r5, #13
 793 03b6 7C19     		adds	r4, r7, r5
 794 03b8 FFF7FEFF 		bl	i2cCheckStatus
ARM GAS  C:\Users\embedded\AppData\Local\Temp\ccV5y59T.s 			page 22


 795 03bc 0300     		movs	r3, r0
 796 03be 2370     		strb	r3, [r4]
 401:i2c.c         **** 
 402:i2c.c         ****         /* 
 403:i2c.c         ****          * SLA+W transmitted, ACK received or
 404:i2c.c         ****          * data byte transmitted, ACK received
 405:i2c.c         ****          */
 406:i2c.c         ****         if( (status == 0x18) || (status == 0x28) )
 797              		.loc 1 406 0
 798 03c0 7B19     		adds	r3, r7, r5
 799 03c2 1B78     		ldrb	r3, [r3]
 800 03c4 182B     		cmp	r3, #24
 801 03c6 04D0     		beq	.L52
 802              		.loc 1 406 0 is_stmt 0 discriminator 1
 803 03c8 0D23     		movs	r3, #13
 804 03ca FB18     		adds	r3, r7, r3
 805 03cc 1B78     		ldrb	r3, [r3]
 806 03ce 282B     		cmp	r3, #40
 807 03d0 1DD1     		bne	.L53
 808              	.L52:
 407:i2c.c         ****         {
 408:i2c.c         ****           /* Data transmitted and ACK received */
 409:i2c.c         **** 
 410:i2c.c         ****           /* write data */
 411:i2c.c         ****           retCode = i2cPutChar(*pData);
 809              		.loc 1 411 0 is_stmt 1
 810 03d2 3B68     		ldr	r3, [r7]
 811 03d4 1B78     		ldrb	r3, [r3]
 812 03d6 0F22     		movs	r2, #15
 813 03d8 BC18     		adds	r4, r7, r2
 814 03da 1800     		movs	r0, r3
 815 03dc FFF7FEFF 		bl	i2cPutChar
 816 03e0 0300     		movs	r3, r0
 817 03e2 2370     		strb	r3, [r4]
 412:i2c.c         ****           while(retCode == I2C_CODE_BUSY)
 818              		.loc 1 412 0
 819 03e4 08E0     		b	.L54
 820              	.L55:
 413:i2c.c         ****           {
 414:i2c.c         ****             retCode = i2cPutChar(*pData);
 821              		.loc 1 414 0
 822 03e6 3B68     		ldr	r3, [r7]
 823 03e8 1B78     		ldrb	r3, [r3]
 824 03ea 0F22     		movs	r2, #15
 825 03ec BC18     		adds	r4, r7, r2
 826 03ee 1800     		movs	r0, r3
 827 03f0 FFF7FEFF 		bl	i2cPutChar
 828 03f4 0300     		movs	r3, r0
 829 03f6 2370     		strb	r3, [r4]
 830              	.L54:
 412:i2c.c         ****           while(retCode == I2C_CODE_BUSY)
 831              		.loc 1 412 0
 832 03f8 0F23     		movs	r3, #15
 833 03fa FB18     		adds	r3, r7, r3
 834 03fc 1B78     		ldrb	r3, [r3]
 835 03fe 1B06     		lsls	r3, r3, #24
 836 0400 1B16     		asrs	r3, r3, #24
ARM GAS  C:\Users\embedded\AppData\Local\Temp\ccV5y59T.s 			page 23


 837 0402 0433     		adds	r3, r3, #4
 838 0404 EFD0     		beq	.L55
 415:i2c.c         ****           }
 416:i2c.c         ****           pData++;
 839              		.loc 1 416 0
 840 0406 3B68     		ldr	r3, [r7]
 841 0408 0133     		adds	r3, r3, #1
 842 040a 3B60     		str	r3, [r7]
 417:i2c.c         **** 
 418:i2c.c         ****           break;
 843              		.loc 1 418 0
 844 040c 0DE0     		b	.L56
 845              	.L53:
 419:i2c.c         ****         }
 420:i2c.c         **** 
 421:i2c.c         ****         /* no relevant status information */
 422:i2c.c         ****         else if( status != 0xf8 )
 846              		.loc 1 422 0
 847 040e 0D23     		movs	r3, #13
 848 0410 FB18     		adds	r3, r7, r3
 849 0412 1B78     		ldrb	r3, [r3]
 850 0414 F82B     		cmp	r3, #248
 851 0416 CDD0     		beq	.L58
 423:i2c.c         ****         {
 424:i2c.c         ****           /* error */
 425:i2c.c         ****           i = len;
 852              		.loc 1 425 0
 853 0418 0E23     		movs	r3, #14
 854 041a FB18     		adds	r3, r7, r3
 855 041c 3A1D     		adds	r2, r7, #4
 856 041e 1288     		ldrh	r2, [r2]
 857 0420 1A70     		strb	r2, [r3]
 426:i2c.c         ****           retCode = I2C_CODE_ERROR;
 858              		.loc 1 426 0
 859 0422 0F23     		movs	r3, #15
 860 0424 FB18     		adds	r3, r7, r3
 861 0426 FF22     		movs	r2, #255
 862 0428 1A70     		strb	r2, [r3]
 863              	.L56:
 393:i2c.c         ****     {
 864              		.loc 1 393 0 discriminator 2
 865 042a 0E21     		movs	r1, #14
 866 042c 7B18     		adds	r3, r7, r1
 867 042e 1A78     		ldrb	r2, [r3]
 868 0430 7B18     		adds	r3, r7, r1
 869 0432 0132     		adds	r2, r2, #1
 870 0434 1A70     		strb	r2, [r3]
 871              	.L51:
 393:i2c.c         ****     {
 872              		.loc 1 393 0 is_stmt 0 discriminator 1
 873 0436 0E23     		movs	r3, #14
 874 0438 FB18     		adds	r3, r7, r3
 875 043a 1B78     		ldrb	r3, [r3]
 876 043c 1B04     		lsls	r3, r3, #16
 877 043e 1B0C     		lsrs	r3, r3, #16
 878 0440 3A1D     		adds	r2, r7, #4
 879 0442 1288     		ldrh	r2, [r2]
ARM GAS  C:\Users\embedded\AppData\Local\Temp\ccV5y59T.s 			page 24


 880 0444 9A42     		cmp	r2, r3
 881 0446 B5D8     		bhi	.L58
 882              	.L61:
 427:i2c.c         ****           break;
 428:i2c.c         ****         }
 429:i2c.c         ****       }
 430:i2c.c         ****     }
 431:i2c.c         ****   }
 432:i2c.c         **** 
 433:i2c.c         ****   /* wait until data transmitted */
 434:i2c.c         ****   while(1)
 435:i2c.c         ****   {
 436:i2c.c         ****     /* get new status */
 437:i2c.c         ****     status = i2cCheckStatus();
 883              		.loc 1 437 0 is_stmt 1
 884 0448 0D25     		movs	r5, #13
 885 044a 7C19     		adds	r4, r7, r5
 886 044c FFF7FEFF 		bl	i2cCheckStatus
 887 0450 0300     		movs	r3, r0
 888 0452 2370     		strb	r3, [r4]
 438:i2c.c         **** 
 439:i2c.c         ****     /* 
 440:i2c.c         ****      * SLA+W transmitted, ACK received or
 441:i2c.c         ****      * data byte transmitted, ACK received
 442:i2c.c         ****      */
 443:i2c.c         ****     if( (status == 0x18) || (status == 0x28) )
 889              		.loc 1 443 0
 890 0454 7B19     		adds	r3, r7, r5
 891 0456 1B78     		ldrb	r3, [r3]
 892 0458 182B     		cmp	r3, #24
 893 045a 19D0     		beq	.L59
 894              		.loc 1 443 0 is_stmt 0 discriminator 1
 895 045c 0D23     		movs	r3, #13
 896 045e FB18     		adds	r3, r7, r3
 897 0460 1B78     		ldrb	r3, [r3]
 898 0462 282B     		cmp	r3, #40
 899 0464 14D0     		beq	.L59
 444:i2c.c         ****     {
 445:i2c.c         ****       /* data transmitted and ACK received */
 446:i2c.c         ****       break;
 447:i2c.c         ****     }
 448:i2c.c         **** 
 449:i2c.c         ****     /* no relevant status information */
 450:i2c.c         ****     else if(status != 0xf8 )
 900              		.loc 1 450 0 is_stmt 1
 901 0466 0D23     		movs	r3, #13
 902 0468 FB18     		adds	r3, r7, r3
 903 046a 1B78     		ldrb	r3, [r3]
 904 046c F82B     		cmp	r3, #248
 905 046e 09D0     		beq	.L60
 451:i2c.c         ****     {
 452:i2c.c         ****       /* error */
 453:i2c.c         ****       i = len;
 906              		.loc 1 453 0
 907 0470 0E23     		movs	r3, #14
 908 0472 FB18     		adds	r3, r7, r3
 909 0474 3A1D     		adds	r2, r7, #4
ARM GAS  C:\Users\embedded\AppData\Local\Temp\ccV5y59T.s 			page 25


 910 0476 1288     		ldrh	r2, [r2]
 911 0478 1A70     		strb	r2, [r3]
 454:i2c.c         ****       retCode = I2C_CODE_ERROR;
 912              		.loc 1 454 0
 913 047a 0F23     		movs	r3, #15
 914 047c FB18     		adds	r3, r7, r3
 915 047e FF22     		movs	r2, #255
 916 0480 1A70     		strb	r2, [r3]
 455:i2c.c         ****       break;
 917              		.loc 1 455 0
 918 0482 05E0     		b	.L59
 919              	.L60:
 920 0484 0F22     		movs	r2, #15
 921 0486 BB18     		adds	r3, r7, r2
 922 0488 BA18     		adds	r2, r7, r2
 923 048a 1278     		ldrb	r2, [r2]
 924 048c 1A70     		strb	r2, [r3]
 437:i2c.c         **** 
 925              		.loc 1 437 0
 926 048e DBE7     		b	.L61
 927              	.L59:
 456:i2c.c         ****     }
 457:i2c.c         ****   }
 458:i2c.c         **** 
 459:i2c.c         ****   /* generate Stop condition */
 460:i2c.c         ****   i2cStop();
 928              		.loc 1 460 0
 929 0490 FFF7FEFF 		bl	i2cStop
 461:i2c.c         **** 
 462:i2c.c         ****   return retCode;
 930              		.loc 1 462 0
 931 0494 0F23     		movs	r3, #15
 932 0496 FB18     		adds	r3, r7, r3
 933 0498 1B78     		ldrb	r3, [r3]
 934 049a 1B06     		lsls	r3, r3, #24
 935 049c 1B16     		asrs	r3, r3, #24
 463:i2c.c         **** }
 936              		.loc 1 463 0
 937 049e 1800     		movs	r0, r3
 938 04a0 BD46     		mov	sp, r7
 939 04a2 04B0     		add	sp, sp, #16
 940              		@ sp needed
 941 04a4 B0BC     		pop	{r4, r5, r7}
 942 04a6 02BC     		pop	{r1}
 943 04a8 0847     		bx	r1
 944              		.cfi_endproc
 945              	.LFE7:
 946              		.size	i2cWrite, .-i2cWrite
 947              		.align	1
 948              		.global	i2cWaitTransmit
 949              		.syntax unified
 950              		.code	16
 951              		.thumb_func
 952              		.fpu softvfp
 953              		.type	i2cWaitTransmit, %function
 954              	i2cWaitTransmit:
 955              	.LFB8:
ARM GAS  C:\Users\embedded\AppData\Local\Temp\ccV5y59T.s 			page 26


 464:i2c.c         **** 
 465:i2c.c         **** tS8 i2cWaitTransmit(void)
 466:i2c.c         **** {
 956              		.loc 1 466 0
 957              		.cfi_startproc
 958              		@ Function supports interworking.
 959              		@ args = 0, pretend = 0, frame = 8
 960              		@ frame_needed = 1, uses_anonymous_args = 0
 961 04aa 90B5     		push	{r4, r7, lr}
 962              	.LCFI22:
 963              		.cfi_def_cfa_offset 12
 964              		.cfi_offset 4, -12
 965              		.cfi_offset 7, -8
 966              		.cfi_offset 14, -4
 967 04ac 83B0     		sub	sp, sp, #12
 968              	.LCFI23:
 969              		.cfi_def_cfa_offset 24
 970 04ae 00AF     		add	r7, sp, #0
 971              	.LCFI24:
 972              		.cfi_def_cfa_register 7
 467:i2c.c         ****   tU8 status = 0;
 973              		.loc 1 467 0
 974 04b0 FB1D     		adds	r3, r7, #7
 975 04b2 0022     		movs	r2, #0
 976 04b4 1A70     		strb	r2, [r3]
 977              	.L68:
 468:i2c.c         **** 
 469:i2c.c         ****   /* wait until data transmitted */
 470:i2c.c         ****   while(1)
 471:i2c.c         ****   {
 472:i2c.c         ****     /* get new status */
 473:i2c.c         ****     status = i2cCheckStatus();
 978              		.loc 1 473 0
 979 04b6 FC1D     		adds	r4, r7, #7
 980 04b8 FFF7FEFF 		bl	i2cCheckStatus
 981 04bc 0300     		movs	r3, r0
 982 04be 2370     		strb	r3, [r4]
 474:i2c.c         **** 
 475:i2c.c         ****     /* 
 476:i2c.c         ****      * SLA+W transmitted, ACK received or
 477:i2c.c         ****      * data byte transmitted, ACK received
 478:i2c.c         ****      */
 479:i2c.c         ****     if( (status == 0x18) || (status == 0x28) )
 983              		.loc 1 479 0
 984 04c0 FB1D     		adds	r3, r7, #7
 985 04c2 1B78     		ldrb	r3, [r3]
 986 04c4 182B     		cmp	r3, #24
 987 04c6 03D0     		beq	.L64
 988              		.loc 1 479 0 is_stmt 0 discriminator 1
 989 04c8 FB1D     		adds	r3, r7, #7
 990 04ca 1B78     		ldrb	r3, [r3]
 991 04cc 282B     		cmp	r3, #40
 992 04ce 01D1     		bne	.L65
 993              	.L64:
 480:i2c.c         ****     {
 481:i2c.c         ****       /* data transmitted and ACK received */
 482:i2c.c         ****       return I2C_CODE_OK;
ARM GAS  C:\Users\embedded\AppData\Local\Temp\ccV5y59T.s 			page 27


 994              		.loc 1 482 0 is_stmt 1
 995 04d0 0123     		movs	r3, #1
 996 04d2 05E0     		b	.L66
 997              	.L65:
 483:i2c.c         ****     }
 484:i2c.c         **** 
 485:i2c.c         ****     /* no relevant status information */
 486:i2c.c         ****     else if(status != 0xf8 )
 998              		.loc 1 486 0
 999 04d4 FB1D     		adds	r3, r7, #7
 1000 04d6 1B78     		ldrb	r3, [r3]
 1001 04d8 F82B     		cmp	r3, #248
 1002 04da ECD0     		beq	.L68
 487:i2c.c         ****     {
 488:i2c.c         ****       /* error */
 489:i2c.c         **** 
 490:i2c.c         ****       return I2C_CODE_ERROR;
 1003              		.loc 1 490 0
 1004 04dc 0123     		movs	r3, #1
 1005 04de 5B42     		rsbs	r3, r3, #0
 1006              	.L66:
 491:i2c.c         ****     }
 492:i2c.c         ****   }
 493:i2c.c         **** }
 1007              		.loc 1 493 0
 1008 04e0 1800     		movs	r0, r3
 1009 04e2 BD46     		mov	sp, r7
 1010 04e4 03B0     		add	sp, sp, #12
 1011              		@ sp needed
 1012 04e6 90BC     		pop	{r4, r7}
 1013 04e8 02BC     		pop	{r1}
 1014 04ea 0847     		bx	r1
 1015              		.cfi_endproc
 1016              	.LFE8:
 1017              		.size	i2cWaitTransmit, .-i2cWaitTransmit
 1018              		.align	1
 1019              		.global	i2cWriteWithWait
 1020              		.syntax unified
 1021              		.code	16
 1022              		.thumb_func
 1023              		.fpu softvfp
 1024              		.type	i2cWriteWithWait, %function
 1025              	i2cWriteWithWait:
 1026              	.LFB9:
 494:i2c.c         **** 
 495:i2c.c         **** tS8 i2cWriteWithWait(tU8 data)
 496:i2c.c         **** {
 1027              		.loc 1 496 0
 1028              		.cfi_startproc
 1029              		@ Function supports interworking.
 1030              		@ args = 0, pretend = 0, frame = 16
 1031              		@ frame_needed = 1, uses_anonymous_args = 0
 1032 04ec 90B5     		push	{r4, r7, lr}
 1033              	.LCFI25:
 1034              		.cfi_def_cfa_offset 12
 1035              		.cfi_offset 4, -12
 1036              		.cfi_offset 7, -8
ARM GAS  C:\Users\embedded\AppData\Local\Temp\ccV5y59T.s 			page 28


 1037              		.cfi_offset 14, -4
 1038 04ee 85B0     		sub	sp, sp, #20
 1039              	.LCFI26:
 1040              		.cfi_def_cfa_offset 32
 1041 04f0 00AF     		add	r7, sp, #0
 1042              	.LCFI27:
 1043              		.cfi_def_cfa_register 7
 1044 04f2 0200     		movs	r2, r0
 1045 04f4 FB1D     		adds	r3, r7, #7
 1046 04f6 1A70     		strb	r2, [r3]
 497:i2c.c         ****   tS8 retCode = 0;
 1047              		.loc 1 497 0
 1048 04f8 0F21     		movs	r1, #15
 1049 04fa 7B18     		adds	r3, r7, r1
 1050 04fc 0022     		movs	r2, #0
 1051 04fe 1A70     		strb	r2, [r3]
 498:i2c.c         ****   
 499:i2c.c         ****   retCode = i2cPutChar(data);
 1052              		.loc 1 499 0
 1053 0500 7C18     		adds	r4, r7, r1
 1054 0502 FB1D     		adds	r3, r7, #7
 1055 0504 1B78     		ldrb	r3, [r3]
 1056 0506 1800     		movs	r0, r3
 1057 0508 FFF7FEFF 		bl	i2cPutChar
 1058 050c 0300     		movs	r3, r0
 1059 050e 2370     		strb	r3, [r4]
 500:i2c.c         ****   while(retCode == I2C_CODE_BUSY)
 1060              		.loc 1 500 0
 1061 0510 08E0     		b	.L70
 1062              	.L71:
 501:i2c.c         ****   {
 502:i2c.c         ****     retCode = i2cPutChar(data);
 1063              		.loc 1 502 0
 1064 0512 0F23     		movs	r3, #15
 1065 0514 FC18     		adds	r4, r7, r3
 1066 0516 FB1D     		adds	r3, r7, #7
 1067 0518 1B78     		ldrb	r3, [r3]
 1068 051a 1800     		movs	r0, r3
 1069 051c FFF7FEFF 		bl	i2cPutChar
 1070 0520 0300     		movs	r3, r0
 1071 0522 2370     		strb	r3, [r4]
 1072              	.L70:
 500:i2c.c         ****   while(retCode == I2C_CODE_BUSY)
 1073              		.loc 1 500 0
 1074 0524 0F23     		movs	r3, #15
 1075 0526 FB18     		adds	r3, r7, r3
 1076 0528 1B78     		ldrb	r3, [r3]
 1077 052a 1B06     		lsls	r3, r3, #24
 1078 052c 1B16     		asrs	r3, r3, #24
 1079 052e 0433     		adds	r3, r3, #4
 1080 0530 EFD0     		beq	.L71
 503:i2c.c         ****   }
 504:i2c.c         **** 
 505:i2c.c         ****   if(retCode == I2C_CODE_OK)
 1081              		.loc 1 505 0
 1082 0532 0F23     		movs	r3, #15
 1083 0534 FB18     		adds	r3, r7, r3
ARM GAS  C:\Users\embedded\AppData\Local\Temp\ccV5y59T.s 			page 29


 1084 0536 1B78     		ldrb	r3, [r3]
 1085 0538 1B06     		lsls	r3, r3, #24
 1086 053a 1B16     		asrs	r3, r3, #24
 1087 053c 012B     		cmp	r3, #1
 1088 053e 05D1     		bne	.L72
 506:i2c.c         ****     retCode = i2cWaitTransmit();
 1089              		.loc 1 506 0
 1090 0540 0F23     		movs	r3, #15
 1091 0542 FC18     		adds	r4, r7, r3
 1092 0544 FFF7FEFF 		bl	i2cWaitTransmit
 1093 0548 0300     		movs	r3, r0
 1094 054a 2370     		strb	r3, [r4]
 1095              	.L72:
 507:i2c.c         **** 
 508:i2c.c         ****   return retCode;
 1096              		.loc 1 508 0
 1097 054c 0F23     		movs	r3, #15
 1098 054e FB18     		adds	r3, r7, r3
 1099 0550 1B78     		ldrb	r3, [r3]
 1100 0552 1B06     		lsls	r3, r3, #24
 1101 0554 1B16     		asrs	r3, r3, #24
 509:i2c.c         **** }
 1102              		.loc 1 509 0
 1103 0556 1800     		movs	r0, r3
 1104 0558 BD46     		mov	sp, r7
 1105 055a 05B0     		add	sp, sp, #20
 1106              		@ sp needed
 1107 055c 90BC     		pop	{r4, r7}
 1108 055e 02BC     		pop	{r1}
 1109 0560 0847     		bx	r1
 1110              		.cfi_endproc
 1111              	.LFE9:
 1112              		.size	i2cWriteWithWait, .-i2cWriteWithWait
 1113              		.align	1
 1114              		.global	i2cMyWrite
 1115              		.syntax unified
 1116              		.code	16
 1117              		.thumb_func
 1118              		.fpu softvfp
 1119              		.type	i2cMyWrite, %function
 1120              	i2cMyWrite:
 1121              	.LFB10:
 510:i2c.c         **** 
 511:i2c.c         **** tS8 i2cMyWrite(tU8  addr, tU8* pData, tU16 len)
 512:i2c.c         **** {
 1122              		.loc 1 512 0
 1123              		.cfi_startproc
 1124              		@ Function supports interworking.
 1125              		@ args = 0, pretend = 0, frame = 16
 1126              		@ frame_needed = 1, uses_anonymous_args = 0
 1127 0562 B0B5     		push	{r4, r5, r7, lr}
 1128              	.LCFI28:
 1129              		.cfi_def_cfa_offset 16
 1130              		.cfi_offset 4, -16
 1131              		.cfi_offset 5, -12
 1132              		.cfi_offset 7, -8
 1133              		.cfi_offset 14, -4
ARM GAS  C:\Users\embedded\AppData\Local\Temp\ccV5y59T.s 			page 30


 1134 0564 84B0     		sub	sp, sp, #16
 1135              	.LCFI29:
 1136              		.cfi_def_cfa_offset 32
 1137 0566 00AF     		add	r7, sp, #0
 1138              	.LCFI30:
 1139              		.cfi_def_cfa_register 7
 1140 0568 3960     		str	r1, [r7]
 1141 056a 1100     		movs	r1, r2
 1142 056c FB1D     		adds	r3, r7, #7
 1143 056e 021C     		adds	r2, r0, #0
 1144 0570 1A70     		strb	r2, [r3]
 1145 0572 3B1D     		adds	r3, r7, #4
 1146 0574 0A1C     		adds	r2, r1, #0
 1147 0576 1A80     		strh	r2, [r3]
 513:i2c.c         ****   tS8 retCode = 0;
 1148              		.loc 1 513 0
 1149 0578 0F21     		movs	r1, #15
 1150 057a 7B18     		adds	r3, r7, r1
 1151 057c 0022     		movs	r2, #0
 1152 057e 1A70     		strb	r2, [r3]
 514:i2c.c         ****   tU8 i       = 0;
 1153              		.loc 1 514 0
 1154 0580 0E23     		movs	r3, #14
 1155 0582 FB18     		adds	r3, r7, r3
 1156 0584 0022     		movs	r2, #0
 1157 0586 1A70     		strb	r2, [r3]
 515:i2c.c         **** 
 516:i2c.c         ****   do
 517:i2c.c         ****   {
 518:i2c.c         ****     /* generate Start condition */
 519:i2c.c         ****     retCode = i2cStart();
 1158              		.loc 1 519 0
 1159 0588 0D00     		movs	r5, r1
 1160 058a 7C18     		adds	r4, r7, r1
 1161 058c FFF7FEFF 		bl	i2cStart
 1162 0590 0300     		movs	r3, r0
 1163 0592 2370     		strb	r3, [r4]
 520:i2c.c         ****     if(retCode != I2C_CODE_OK)
 1164              		.loc 1 520 0
 1165 0594 2900     		movs	r1, r5
 1166 0596 7B18     		adds	r3, r7, r1
 1167 0598 1B78     		ldrb	r3, [r3]
 1168 059a 1B06     		lsls	r3, r3, #24
 1169 059c 1B16     		asrs	r3, r3, #24
 1170 059e 012B     		cmp	r3, #1
 1171 05a0 35D1     		bne	.L82
 521:i2c.c         ****       break;
 522:i2c.c         **** 
 523:i2c.c         ****     /* write address */
 524:i2c.c         ****     retCode = i2cWriteWithWait(addr);
 1172              		.loc 1 524 0
 1173 05a2 0F25     		movs	r5, #15
 1174 05a4 7C19     		adds	r4, r7, r5
 1175 05a6 FB1D     		adds	r3, r7, #7
 1176 05a8 1B78     		ldrb	r3, [r3]
 1177 05aa 1800     		movs	r0, r3
 1178 05ac FFF7FEFF 		bl	i2cWriteWithWait
ARM GAS  C:\Users\embedded\AppData\Local\Temp\ccV5y59T.s 			page 31


 1179 05b0 0300     		movs	r3, r0
 1180 05b2 2370     		strb	r3, [r4]
 525:i2c.c         ****     if(retCode != I2C_CODE_OK)
 1181              		.loc 1 525 0
 1182 05b4 7B19     		adds	r3, r7, r5
 1183 05b6 1B78     		ldrb	r3, [r3]
 1184 05b8 1B06     		lsls	r3, r3, #24
 1185 05ba 1B16     		asrs	r3, r3, #24
 1186 05bc 012B     		cmp	r3, #1
 1187 05be 28D1     		bne	.L83
 526:i2c.c         ****       break;
 527:i2c.c         **** 
 528:i2c.c         ****     for(i = 0; i <len; i++)
 1188              		.loc 1 528 0
 1189 05c0 0E23     		movs	r3, #14
 1190 05c2 FB18     		adds	r3, r7, r3
 1191 05c4 0022     		movs	r2, #0
 1192 05c6 1A70     		strb	r2, [r3]
 1193 05c8 17E0     		b	.L78
 1194              	.L80:
 529:i2c.c         ****     {
 530:i2c.c         ****       retCode = i2cWriteWithWait(*pData);
 1195              		.loc 1 530 0
 1196 05ca 3B68     		ldr	r3, [r7]
 1197 05cc 1B78     		ldrb	r3, [r3]
 1198 05ce 0F25     		movs	r5, #15
 1199 05d0 7C19     		adds	r4, r7, r5
 1200 05d2 1800     		movs	r0, r3
 1201 05d4 FFF7FEFF 		bl	i2cWriteWithWait
 1202 05d8 0300     		movs	r3, r0
 1203 05da 2370     		strb	r3, [r4]
 531:i2c.c         ****       if(retCode != I2C_CODE_OK)
 1204              		.loc 1 531 0
 1205 05dc 7B19     		adds	r3, r7, r5
 1206 05de 1B78     		ldrb	r3, [r3]
 1207 05e0 1B06     		lsls	r3, r3, #24
 1208 05e2 1B16     		asrs	r3, r3, #24
 1209 05e4 012B     		cmp	r3, #1
 1210 05e6 16D1     		bne	.L84
 532:i2c.c         ****         break;
 533:i2c.c         **** 
 534:i2c.c         ****       pData++;
 1211              		.loc 1 534 0 discriminator 2
 1212 05e8 3B68     		ldr	r3, [r7]
 1213 05ea 0133     		adds	r3, r3, #1
 1214 05ec 3B60     		str	r3, [r7]
 528:i2c.c         ****     {
 1215              		.loc 1 528 0 discriminator 2
 1216 05ee 0E21     		movs	r1, #14
 1217 05f0 7B18     		adds	r3, r7, r1
 1218 05f2 1A78     		ldrb	r2, [r3]
 1219 05f4 7B18     		adds	r3, r7, r1
 1220 05f6 0132     		adds	r2, r2, #1
 1221 05f8 1A70     		strb	r2, [r3]
 1222              	.L78:
 528:i2c.c         ****     {
 1223              		.loc 1 528 0 is_stmt 0 discriminator 1
ARM GAS  C:\Users\embedded\AppData\Local\Temp\ccV5y59T.s 			page 32


 1224 05fa 0E23     		movs	r3, #14
 1225 05fc FB18     		adds	r3, r7, r3
 1226 05fe 1B78     		ldrb	r3, [r3]
 1227 0600 1B04     		lsls	r3, r3, #16
 1228 0602 1B0C     		lsrs	r3, r3, #16
 1229 0604 3A1D     		adds	r2, r7, #4
 1230 0606 1288     		ldrh	r2, [r2]
 1231 0608 9A42     		cmp	r2, r3
 1232 060a DED8     		bhi	.L80
 1233 060c 04E0     		b	.L76
 1234              	.L82:
 521:i2c.c         **** 
 1235              		.loc 1 521 0 is_stmt 1
 1236 060e C046     		nop
 1237 0610 02E0     		b	.L76
 1238              	.L83:
 526:i2c.c         **** 
 1239              		.loc 1 526 0
 1240 0612 C046     		nop
 1241 0614 00E0     		b	.L76
 1242              	.L84:
 532:i2c.c         **** 
 1243              		.loc 1 532 0
 1244 0616 C046     		nop
 1245              	.L76:
 535:i2c.c         ****     }
 536:i2c.c         **** 
 537:i2c.c         ****   } while(0);
 538:i2c.c         **** 
 539:i2c.c         ****   /* generate Stop condition */
 540:i2c.c         ****   i2cStop();
 1246              		.loc 1 540 0
 1247 0618 FFF7FEFF 		bl	i2cStop
 541:i2c.c         **** 
 542:i2c.c         **** 
 543:i2c.c         ****   return retCode;
 1248              		.loc 1 543 0
 1249 061c 0F23     		movs	r3, #15
 1250 061e FB18     		adds	r3, r7, r3
 1251 0620 1B78     		ldrb	r3, [r3]
 1252 0622 1B06     		lsls	r3, r3, #24
 1253 0624 1B16     		asrs	r3, r3, #24
 544:i2c.c         **** }
 1254              		.loc 1 544 0
 1255 0626 1800     		movs	r0, r3
 1256 0628 BD46     		mov	sp, r7
 1257 062a 04B0     		add	sp, sp, #16
 1258              		@ sp needed
 1259 062c B0BC     		pop	{r4, r5, r7}
 1260 062e 02BC     		pop	{r1}
 1261 0630 0847     		bx	r1
 1262              		.cfi_endproc
 1263              	.LFE10:
 1264              		.size	i2cMyWrite, .-i2cMyWrite
 1265              		.align	1
 1266              		.global	i2cRead
 1267              		.syntax unified
ARM GAS  C:\Users\embedded\AppData\Local\Temp\ccV5y59T.s 			page 33


 1268              		.code	16
 1269              		.thumb_func
 1270              		.fpu softvfp
 1271              		.type	i2cRead, %function
 1272              	i2cRead:
 1273              	.LFB11:
 545:i2c.c         **** 
 546:i2c.c         **** 
 547:i2c.c         **** /******************************************************************************
 548:i2c.c         ****  *
 549:i2c.c         ****  * Description:
 550:i2c.c         ****  *    Read a specified number of bytes from the I2C network.
 551:i2c.c         ****  *
 552:i2c.c         ****  *    Note: After this function is run, you may need a bus free time before a 
 553:i2c.c         ****  *          new data transfer can be initiated.
 554:i2c.c         ****  *
 555:i2c.c         ****  * Params:
 556:i2c.c         ****  *    [in] addr - address
 557:i2c.c         ****  *    [in] pBuf - receive buffer
 558:i2c.c         ****  *    [in] len  - number of bytes to receive
 559:i2c.c         ****  *
 560:i2c.c         ****  * Returns:
 561:i2c.c         ****  *    I2C_CODE_OK or I2C status code
 562:i2c.c         ****  *
 563:i2c.c         ****  *****************************************************************************/
 564:i2c.c         **** 
 565:i2c.c         **** tS8 i2cRead(tU8  addr, tU8* pBuf, tU16 len)
 566:i2c.c         **** {
 1274              		.loc 1 566 0
 1275              		.cfi_startproc
 1276              		@ Function supports interworking.
 1277              		@ args = 0, pretend = 0, frame = 16
 1278              		@ frame_needed = 1, uses_anonymous_args = 0
 1279 0632 B0B5     		push	{r4, r5, r7, lr}
 1280              	.LCFI31:
 1281              		.cfi_def_cfa_offset 16
 1282              		.cfi_offset 4, -16
 1283              		.cfi_offset 5, -12
 1284              		.cfi_offset 7, -8
 1285              		.cfi_offset 14, -4
 1286 0634 84B0     		sub	sp, sp, #16
 1287              	.LCFI32:
 1288              		.cfi_def_cfa_offset 32
 1289 0636 00AF     		add	r7, sp, #0
 1290              	.LCFI33:
 1291              		.cfi_def_cfa_register 7
 1292 0638 3960     		str	r1, [r7]
 1293 063a 1100     		movs	r1, r2
 1294 063c FB1D     		adds	r3, r7, #7
 1295 063e 021C     		adds	r2, r0, #0
 1296 0640 1A70     		strb	r2, [r3]
 1297 0642 3B1D     		adds	r3, r7, #4
 1298 0644 0A1C     		adds	r2, r1, #0
 1299 0646 1A80     		strh	r2, [r3]
 567:i2c.c         ****   tS8 retCode = 0;
 1300              		.loc 1 567 0
 1301 0648 0F21     		movs	r1, #15
ARM GAS  C:\Users\embedded\AppData\Local\Temp\ccV5y59T.s 			page 34


 1302 064a 7B18     		adds	r3, r7, r1
 1303 064c 0022     		movs	r2, #0
 1304 064e 1A70     		strb	r2, [r3]
 568:i2c.c         ****   tU8 status  = 0;
 1305              		.loc 1 568 0
 1306 0650 0D23     		movs	r3, #13
 1307 0652 FB18     		adds	r3, r7, r3
 1308 0654 0022     		movs	r2, #0
 1309 0656 1A70     		strb	r2, [r3]
 569:i2c.c         ****   tU8 i       = 0;
 1310              		.loc 1 569 0
 1311 0658 0E23     		movs	r3, #14
 1312 065a FB18     		adds	r3, r7, r3
 1313 065c 0022     		movs	r2, #0
 1314 065e 1A70     		strb	r2, [r3]
 570:i2c.c         **** 
 571:i2c.c         ****   /* Generate Start condition */
 572:i2c.c         ****   retCode = i2cStart();
 1315              		.loc 1 572 0
 1316 0660 0D00     		movs	r5, r1
 1317 0662 7C18     		adds	r4, r7, r1
 1318 0664 FFF7FEFF 		bl	i2cStart
 1319 0668 0300     		movs	r3, r0
 1320 066a 2370     		strb	r3, [r4]
 573:i2c.c         **** 
 574:i2c.c         ****   /* Transmit address */
 575:i2c.c         ****   if(retCode == I2C_CODE_OK )
 1321              		.loc 1 575 0
 1322 066c 2900     		movs	r1, r5
 1323 066e 7B18     		adds	r3, r7, r1
 1324 0670 1B78     		ldrb	r3, [r3]
 1325 0672 1B06     		lsls	r3, r3, #24
 1326 0674 1B16     		asrs	r3, r3, #24
 1327 0676 012B     		cmp	r3, #1
 1328 0678 19D1     		bne	.L86
 576:i2c.c         ****   {
 577:i2c.c         ****     /* write SLA+R */
 578:i2c.c         ****     retCode = i2cPutChar(addr);
 1329              		.loc 1 578 0
 1330 067a 0F23     		movs	r3, #15
 1331 067c FC18     		adds	r4, r7, r3
 1332 067e FB1D     		adds	r3, r7, #7
 1333 0680 1B78     		ldrb	r3, [r3]
 1334 0682 1800     		movs	r0, r3
 1335 0684 FFF7FEFF 		bl	i2cPutChar
 1336 0688 0300     		movs	r3, r0
 1337 068a 2370     		strb	r3, [r4]
 579:i2c.c         ****     while(retCode == I2C_CODE_BUSY)
 1338              		.loc 1 579 0
 1339 068c 08E0     		b	.L87
 1340              	.L88:
 580:i2c.c         ****     {
 581:i2c.c         ****       retCode = i2cPutChar(addr);
 1341              		.loc 1 581 0
 1342 068e 0F23     		movs	r3, #15
 1343 0690 FC18     		adds	r4, r7, r3
 1344 0692 FB1D     		adds	r3, r7, #7
ARM GAS  C:\Users\embedded\AppData\Local\Temp\ccV5y59T.s 			page 35


 1345 0694 1B78     		ldrb	r3, [r3]
 1346 0696 1800     		movs	r0, r3
 1347 0698 FFF7FEFF 		bl	i2cPutChar
 1348 069c 0300     		movs	r3, r0
 1349 069e 2370     		strb	r3, [r4]
 1350              	.L87:
 579:i2c.c         ****     while(retCode == I2C_CODE_BUSY)
 1351              		.loc 1 579 0
 1352 06a0 0F23     		movs	r3, #15
 1353 06a2 FB18     		adds	r3, r7, r3
 1354 06a4 1B78     		ldrb	r3, [r3]
 1355 06a6 1B06     		lsls	r3, r3, #24
 1356 06a8 1B16     		asrs	r3, r3, #24
 1357 06aa 0433     		adds	r3, r3, #4
 1358 06ac EFD0     		beq	.L88
 1359              	.L86:
 582:i2c.c         ****     }
 583:i2c.c         ****   }
 584:i2c.c         **** 
 585:i2c.c         ****   if(retCode == I2C_CODE_OK )
 1360              		.loc 1 585 0
 1361 06ae 0F23     		movs	r3, #15
 1362 06b0 FB18     		adds	r3, r7, r3
 1363 06b2 1B78     		ldrb	r3, [r3]
 1364 06b4 1B06     		lsls	r3, r3, #24
 1365 06b6 1B16     		asrs	r3, r3, #24
 1366 06b8 012B     		cmp	r3, #1
 1367 06ba 00D0     		beq	.LCB1192
 1368 06bc 6FE0     		b	.L89	@long jump
 1369              	.LCB1192:
 586:i2c.c         ****   {
 587:i2c.c         ****     /* wait until address transmitted and receive data */
 588:i2c.c         ****     for(i = 1; i <= len; i++ )
 1370              		.loc 1 588 0
 1371 06be 0E23     		movs	r3, #14
 1372 06c0 FB18     		adds	r3, r7, r3
 1373 06c2 0122     		movs	r2, #1
 1374 06c4 1A70     		strb	r2, [r3]
 1375 06c6 61E0     		b	.L90
 1376              	.L99:
 589:i2c.c         ****     {
 590:i2c.c         ****       /* wait until data transmitted */
 591:i2c.c         ****       while(1)
 592:i2c.c         ****       {
 593:i2c.c         ****         /* get new status */
 594:i2c.c         ****         status = i2cCheckStatus();
 1377              		.loc 1 594 0
 1378 06c8 0D25     		movs	r5, #13
 1379 06ca 7C19     		adds	r4, r7, r5
 1380 06cc FFF7FEFF 		bl	i2cCheckStatus
 1381 06d0 0300     		movs	r3, r0
 1382 06d2 2370     		strb	r3, [r4]
 595:i2c.c         **** 
 596:i2c.c         ****         /*
 597:i2c.c         ****          * SLA+R transmitted, ACK received or
 598:i2c.c         ****          * SLA+R transmitted, ACK not received
 599:i2c.c         ****          * data byte received in master mode, ACK transmitted
ARM GAS  C:\Users\embedded\AppData\Local\Temp\ccV5y59T.s 			page 36


 600:i2c.c         ****          */
 601:i2c.c         ****         if((status == 0x40 ) || (status == 0x48 ) || (status == 0x50 ))
 1383              		.loc 1 601 0
 1384 06d4 7B19     		adds	r3, r7, r5
 1385 06d6 1B78     		ldrb	r3, [r3]
 1386 06d8 402B     		cmp	r3, #64
 1387 06da 09D0     		beq	.L91
 1388              		.loc 1 601 0 is_stmt 0 discriminator 1
 1389 06dc 0D23     		movs	r3, #13
 1390 06de FB18     		adds	r3, r7, r3
 1391 06e0 1B78     		ldrb	r3, [r3]
 1392 06e2 482B     		cmp	r3, #72
 1393 06e4 04D0     		beq	.L91
 1394              		.loc 1 601 0 discriminator 2
 1395 06e6 0D23     		movs	r3, #13
 1396 06e8 FB18     		adds	r3, r7, r3
 1397 06ea 1B78     		ldrb	r3, [r3]
 1398 06ec 502B     		cmp	r3, #80
 1399 06ee 39D1     		bne	.L92
 1400              	.L91:
 602:i2c.c         ****         {
 603:i2c.c         ****           /* data received */
 604:i2c.c         **** 
 605:i2c.c         ****           if(i == len)
 1401              		.loc 1 605 0 is_stmt 1
 1402 06f0 0E23     		movs	r3, #14
 1403 06f2 FB18     		adds	r3, r7, r3
 1404 06f4 1B78     		ldrb	r3, [r3]
 1405 06f6 1B04     		lsls	r3, r3, #16
 1406 06f8 1B0C     		lsrs	r3, r3, #16
 1407 06fa 3A1D     		adds	r2, r7, #4
 1408 06fc 1288     		ldrh	r2, [r2]
 1409 06fe 9A42     		cmp	r2, r3
 1410 0700 09D1     		bne	.L93
 606:i2c.c         ****           {
 607:i2c.c         ****             /* Set generate NACK */
 608:i2c.c         ****             retCode = i2cGetChar(I2C_MODE_ACK1, pBuf);
 1411              		.loc 1 608 0
 1412 0702 0F23     		movs	r3, #15
 1413 0704 FC18     		adds	r4, r7, r3
 1414 0706 3B68     		ldr	r3, [r7]
 1415 0708 1900     		movs	r1, r3
 1416 070a 0120     		movs	r0, #1
 1417 070c FFF7FEFF 		bl	i2cGetChar
 1418 0710 0300     		movs	r3, r0
 1419 0712 2370     		strb	r3, [r4]
 1420 0714 08E0     		b	.L94
 1421              	.L93:
 609:i2c.c         ****           }
 610:i2c.c         ****           else
 611:i2c.c         ****           {
 612:i2c.c         ****             retCode = i2cGetChar(I2C_MODE_ACK0, pBuf);
 1422              		.loc 1 612 0
 1423 0716 0F23     		movs	r3, #15
 1424 0718 FC18     		adds	r4, r7, r3
 1425 071a 3B68     		ldr	r3, [r7]
 1426 071c 1900     		movs	r1, r3
ARM GAS  C:\Users\embedded\AppData\Local\Temp\ccV5y59T.s 			page 37


 1427 071e 0020     		movs	r0, #0
 1428 0720 FFF7FEFF 		bl	i2cGetChar
 1429 0724 0300     		movs	r3, r0
 1430 0726 2370     		strb	r3, [r4]
 1431              	.L94:
 613:i2c.c         ****           }
 614:i2c.c         **** 
 615:i2c.c         ****           /* Read data */
 616:i2c.c         ****           retCode = i2cGetChar(I2C_MODE_READ, pBuf);
 1432              		.loc 1 616 0
 1433 0728 0F23     		movs	r3, #15
 1434 072a FC18     		adds	r4, r7, r3
 1435 072c 3B68     		ldr	r3, [r7]
 1436 072e 1900     		movs	r1, r3
 1437 0730 0220     		movs	r0, #2
 1438 0732 FFF7FEFF 		bl	i2cGetChar
 1439 0736 0300     		movs	r3, r0
 1440 0738 2370     		strb	r3, [r4]
 617:i2c.c         ****           while(retCode == I2C_CODE_EMPTY)
 1441              		.loc 1 617 0
 1442 073a 08E0     		b	.L95
 1443              	.L96:
 618:i2c.c         ****           {
 619:i2c.c         ****             retCode = i2cGetChar(I2C_MODE_READ, pBuf);
 1444              		.loc 1 619 0
 1445 073c 0F23     		movs	r3, #15
 1446 073e FC18     		adds	r4, r7, r3
 1447 0740 3B68     		ldr	r3, [r7]
 1448 0742 1900     		movs	r1, r3
 1449 0744 0220     		movs	r0, #2
 1450 0746 FFF7FEFF 		bl	i2cGetChar
 1451 074a 0300     		movs	r3, r0
 1452 074c 2370     		strb	r3, [r4]
 1453              	.L95:
 617:i2c.c         ****           while(retCode == I2C_CODE_EMPTY)
 1454              		.loc 1 617 0
 1455 074e 0F23     		movs	r3, #15
 1456 0750 FB18     		adds	r3, r7, r3
 1457 0752 1B78     		ldrb	r3, [r3]
 1458 0754 1B06     		lsls	r3, r3, #24
 1459 0756 1B16     		asrs	r3, r3, #24
 1460 0758 0333     		adds	r3, r3, #3
 1461 075a EFD0     		beq	.L96
 620:i2c.c         ****           }
 621:i2c.c         ****           pBuf++;
 1462              		.loc 1 621 0
 1463 075c 3B68     		ldr	r3, [r7]
 1464 075e 0133     		adds	r3, r3, #1
 1465 0760 3B60     		str	r3, [r7]
 622:i2c.c         **** 
 623:i2c.c         ****           break;
 1466              		.loc 1 623 0
 1467 0762 0DE0     		b	.L97
 1468              	.L92:
 624:i2c.c         ****         }
 625:i2c.c         **** 
 626:i2c.c         ****         /* no relevant status information */
ARM GAS  C:\Users\embedded\AppData\Local\Temp\ccV5y59T.s 			page 38


 627:i2c.c         ****         else if(status != 0xf8 )
 1469              		.loc 1 627 0
 1470 0764 0D23     		movs	r3, #13
 1471 0766 FB18     		adds	r3, r7, r3
 1472 0768 1B78     		ldrb	r3, [r3]
 1473 076a F82B     		cmp	r3, #248
 1474 076c ACD0     		beq	.L99
 628:i2c.c         ****         {
 629:i2c.c         ****           /* error */
 630:i2c.c         ****           i = len;
 1475              		.loc 1 630 0
 1476 076e 0E23     		movs	r3, #14
 1477 0770 FB18     		adds	r3, r7, r3
 1478 0772 3A1D     		adds	r2, r7, #4
 1479 0774 1288     		ldrh	r2, [r2]
 1480 0776 1A70     		strb	r2, [r3]
 631:i2c.c         ****           retCode = I2C_CODE_ERROR;
 1481              		.loc 1 631 0
 1482 0778 0F23     		movs	r3, #15
 1483 077a FB18     		adds	r3, r7, r3
 1484 077c FF22     		movs	r2, #255
 1485 077e 1A70     		strb	r2, [r3]
 1486              	.L97:
 588:i2c.c         ****     {
 1487              		.loc 1 588 0 discriminator 2
 1488 0780 0E21     		movs	r1, #14
 1489 0782 7B18     		adds	r3, r7, r1
 1490 0784 1A78     		ldrb	r2, [r3]
 1491 0786 7B18     		adds	r3, r7, r1
 1492 0788 0132     		adds	r2, r2, #1
 1493 078a 1A70     		strb	r2, [r3]
 1494              	.L90:
 588:i2c.c         ****     {
 1495              		.loc 1 588 0 is_stmt 0 discriminator 1
 1496 078c 0E23     		movs	r3, #14
 1497 078e FB18     		adds	r3, r7, r3
 1498 0790 1B78     		ldrb	r3, [r3]
 1499 0792 1B04     		lsls	r3, r3, #16
 1500 0794 1B0C     		lsrs	r3, r3, #16
 1501 0796 3A1D     		adds	r2, r7, #4
 1502 0798 1288     		ldrh	r2, [r2]
 1503 079a 9A42     		cmp	r2, r3
 1504 079c 94D2     		bcs	.L99
 1505              	.L89:
 632:i2c.c         ****           break;
 633:i2c.c         ****         }
 634:i2c.c         ****       }
 635:i2c.c         ****     }
 636:i2c.c         ****   }
 637:i2c.c         **** 
 638:i2c.c         ****   /*--- Generate Stop condition ---*/
 639:i2c.c         ****   i2cStop();
 1506              		.loc 1 639 0 is_stmt 1
 1507 079e FFF7FEFF 		bl	i2cStop
 640:i2c.c         **** 
 641:i2c.c         ****   return retCode;
 1508              		.loc 1 641 0
ARM GAS  C:\Users\embedded\AppData\Local\Temp\ccV5y59T.s 			page 39


 1509 07a2 0F23     		movs	r3, #15
 1510 07a4 FB18     		adds	r3, r7, r3
 1511 07a6 1B78     		ldrb	r3, [r3]
 1512 07a8 1B06     		lsls	r3, r3, #24
 1513 07aa 1B16     		asrs	r3, r3, #24
 642:i2c.c         **** }
 1514              		.loc 1 642 0
 1515 07ac 1800     		movs	r0, r3
 1516 07ae BD46     		mov	sp, r7
 1517 07b0 04B0     		add	sp, sp, #16
 1518              		@ sp needed
 1519 07b2 B0BC     		pop	{r4, r5, r7}
 1520 07b4 02BC     		pop	{r1}
 1521 07b6 0847     		bx	r1
 1522              		.cfi_endproc
 1523              	.LFE11:
 1524              		.size	i2cRead, .-i2cRead
 1525              	.Letext0:
 1526              		.file 2 "general.h"