ARM GAS  C:\Users\embedded\AppData\Local\Temp\cc0N8geU.s 			page 1


   1              		.cpu arm7tdmi
   2              		.eabi_attribute 20, 1
   3              		.eabi_attribute 21, 1
   4              		.eabi_attribute 23, 3
   5              		.eabi_attribute 24, 1
   6              		.eabi_attribute 25, 1
   7              		.eabi_attribute 26, 1
   8              		.eabi_attribute 30, 6
   9              		.eabi_attribute 34, 0
  10              		.eabi_attribute 18, 4
  11              		.file	"lm75.c"
  12              		.text
  13              	.Ltext0:
  14              		.cfi_sections	.debug_frame
  15              		.section	.rodata
  16              		.align	2
  17              	.LC0:
  18 0000 256400   		.ascii	"%d\000"
  19              		.text
  20              		.align	1
  21              		.global	measureTemperature
  22              		.syntax unified
  23              		.code	16
  24              		.thumb_func
  25              		.fpu softvfp
  26              		.type	measureTemperature, %function
  27              	measureTemperature:
  28              	.LFB0:
  29              		.file 1 "lm75.c"
   1:lm75.c        **** /******************************************************************************
   2:lm75.c        ****  *  Obsługa pomiaru temperatury przy pomocy temometru LM75.
   3:lm75.c        ****  * 
   4:lm75.c        ****  *  Plik z kodem źródłowym funkcji.
   5:lm75.c        ****  *****************************************************************************/
   6:lm75.c        **** 
   7:lm75.c        **** /******************************************************************************
   8:lm75.c        ****  * Includes
   9:lm75.c        ****  *****************************************************************************/
  10:lm75.c        **** 
  11:lm75.c        **** #include "lm75.h"
  12:lm75.c        **** 
  13:lm75.c        **** /******************************************************************************
  14:lm75.c        ****  * Defines and typedefs
  15:lm75.c        ****  *****************************************************************************/
  16:lm75.c        **** 
  17:lm75.c        **** #define lm75Address         0x48 // 0x48 = 0b 0100 1000
  18:lm75.c        **** #define lm75ReadAddress     0X91 // 0X91 = 0b 1001 0001
  19:lm75.c        **** #define lm75WriteAddress    0X90 // 0X90 = 0b 1001 0000
  20:lm75.c        **** #define lm75AddressSoldered         0x4F // 0x4F = 0b 0100 1111
  21:lm75.c        **** #define lm75ReadAddressSoldered     0x9F // 0x9F = 0b 1001 1111
  22:lm75.c        **** #define lm75WriteAddressSoldered    0x9E // 0x9E = 0b 1001 1110
  23:lm75.c        **** 
  24:lm75.c        **** /*****************************************************************************
  25:lm75.c        ****  * Global variables
  26:lm75.c        ****  ****************************************************************************/
  27:lm75.c        **** 
  28:lm75.c        **** /*****************************************************************************
ARM GAS  C:\Users\embedded\AppData\Local\Temp\cc0N8geU.s 			page 2


  29:lm75.c        ****  * Local variables
  30:lm75.c        ****  ****************************************************************************/
  31:lm75.c        **** 
  32:lm75.c        **** /*****************************************************************************
  33:lm75.c        ****  * Local prototypes
  34:lm75.c        ****  ****************************************************************************/
  35:lm75.c        **** 
  36:lm75.c        **** /*
  37:lm75.c        ****  * @brief   Funkcja measureTemperature() jest wykorzystywana do odczytania z urządzenia LM75 niepr
  38:lm75.c        ****  *          temperatury, oraz jej przeliczenie na prawidłową, aktualnie występującą temperatur
  39:lm75.c        ****  *          Celsjusza.
  40:lm75.c        ****  *
  41:lm75.c        ****  * @param   void
  42:lm75.c        ****  *
  43:lm75.c        ****  * @returns void
  44:lm75.c        ****  *
  45:lm75.c        ****  * @side effects:
  46:lm75.c        ****  *          Wartość temperatury podana jest z dokładnością do 0.5 stopnia Celsjusza, co stanow
  47:lm75.c        ****  *          termometru LM75 (jednostkową, minimalną różnicę pomiędzy temperaturami).
  48:lm75.c        ****  */
  49:lm75.c        **** 
  50:lm75.c        **** void measureTemperature(void)
  51:lm75.c        **** {
  30              		.loc 1 51 0
  31              		.cfi_startproc
  32              		@ Function supports interworking.
  33              		@ args = 0, pretend = 0, frame = 24
  34              		@ frame_needed = 1, uses_anonymous_args = 0
  35 0000 B0B5     		push	{r4, r5, r7, lr}
  36              	.LCFI0:
  37              		.cfi_def_cfa_offset 16
  38              		.cfi_offset 4, -16
  39              		.cfi_offset 5, -12
  40              		.cfi_offset 7, -8
  41              		.cfi_offset 14, -4
  42 0002 86B0     		sub	sp, sp, #24
  43              	.LCFI1:
  44              		.cfi_def_cfa_offset 40
  45 0004 00AF     		add	r7, sp, #0
  46              	.LCFI2:
  47              		.cfi_def_cfa_register 7
  52:lm75.c        ****     // Variable holding result of I2C operation.
  53:lm75.c        ****     tU8 retCode = 0;
  48              		.loc 1 53 0
  49 0006 1325     		movs	r5, #19
  50 0008 7B19     		adds	r3, r7, r5
  51 000a 0022     		movs	r2, #0
  52 000c 1A70     		strb	r2, [r3]
  54:lm75.c        **** 
  55:lm75.c        ****     // Buffer for read temperature values
  56:lm75.c        ****     tU8 readTemperature[2] = {0};
  53              		.loc 1 56 0
  54 000e 1024     		movs	r4, #16
  55 0010 3B19     		adds	r3, r7, r4
  56 0012 0022     		movs	r2, #0
  57 0014 1A80     		strh	r2, [r3]
  57:lm75.c        **** 
ARM GAS  C:\Users\embedded\AppData\Local\Temp\cc0N8geU.s 			page 3


  58:lm75.c        ****     // Reading temperature value from LM75 device
  59:lm75.c        ****     retCode = i2cRead(lm75ReadAddress, readTemperature, 2);
  58              		.loc 1 59 0
  59 0016 3B19     		adds	r3, r7, r4
  60 0018 0222     		movs	r2, #2
  61 001a 1900     		movs	r1, r3
  62 001c 9120     		movs	r0, #145
  63 001e FFF7FEFF 		bl	i2cRead
  64 0022 0300     		movs	r3, r0
  65 0024 1A00     		movs	r2, r3
  66 0026 7B19     		adds	r3, r7, r5
  67 0028 1A70     		strb	r2, [r3]
  60:lm75.c        **** 
  61:lm75.c        ****     // Char array used for storing temperature to be shown to the user.
  62:lm75.c        ****     tU8 charArray[10] = {0};
  68              		.loc 1 62 0
  69 002a 3B1D     		adds	r3, r7, #4
  70 002c 1800     		movs	r0, r3
  71 002e 0A23     		movs	r3, #10
  72 0030 1A00     		movs	r2, r3
  73 0032 0021     		movs	r1, #0
  74 0034 FFF7FEFF 		bl	memset
  63:lm75.c        **** 
  64:lm75.c        ****     // Variable for string integer part of the temperature
  65:lm75.c        ****     // Since the temperature can be negative (when the 8-th bit is up then this variable must be tS
  66:lm75.c        ****     tS8 calculatedValue = readTemperature[0];
  75              		.loc 1 66 0
  76 0038 3B19     		adds	r3, r7, r4
  77 003a 1A78     		ldrb	r2, [r3]
  78 003c 1721     		movs	r1, #23
  79 003e 7B18     		adds	r3, r7, r1
  80 0040 1A70     		strb	r2, [r3]
  67:lm75.c        **** 
  68:lm75.c        ****     // Flag indicating whether temperature value is below zero or not.
  69:lm75.c        ****     tU8 isNegative = 0;
  81              		.loc 1 69 0
  82 0042 1623     		movs	r3, #22
  83 0044 FB18     		adds	r3, r7, r3
  84 0046 0022     		movs	r2, #0
  85 0048 1A70     		strb	r2, [r3]
  70:lm75.c        **** 
  71:lm75.c        ****     // Flag indicating whether it is required to add 0.5 Celsius degree to measured temperature.
  72:lm75.c        ****     tU8 appendHalf = 0;
  86              		.loc 1 72 0
  87 004a 1523     		movs	r3, #21
  88 004c FB18     		adds	r3, r7, r3
  89 004e 0022     		movs	r2, #0
  90 0050 1A70     		strb	r2, [r3]
  73:lm75.c        **** 
  74:lm75.c        ****     if (calculatedValue < 0) {
  91              		.loc 1 74 0
  92 0052 7B18     		adds	r3, r7, r1
  93 0054 1B78     		ldrb	r3, [r3]
  94 0056 7F2B     		cmp	r3, #127
  95 0058 03D9     		bls	.L2
  75:lm75.c        ****     	// Case for negative temperature - if temperature is in fact below zero, then adding 0.5 degre
  76:lm75.c        ****         isNegative = 1;
ARM GAS  C:\Users\embedded\AppData\Local\Temp\cc0N8geU.s 			page 4


  96              		.loc 1 76 0
  97 005a 1623     		movs	r3, #22
  98 005c FB18     		adds	r3, r7, r3
  99 005e 0122     		movs	r2, #1
 100 0060 1A70     		strb	r2, [r3]
 101              	.L2:
  77:lm75.c        ****     }
  78:lm75.c        ****     if ((isNegative == (tU8)1) && ((readTemperature[1] & (tU8)0x80) == (tU8)0x80)){
 102              		.loc 1 78 0
 103 0062 1623     		movs	r3, #22
 104 0064 FB18     		adds	r3, r7, r3
 105 0066 1B78     		ldrb	r3, [r3]
 106 0068 012B     		cmp	r3, #1
 107 006a 12D1     		bne	.L3
 108              		.loc 1 78 0 is_stmt 0 discriminator 1
 109 006c 1023     		movs	r3, #16
 110 006e FB18     		adds	r3, r7, r3
 111 0070 5B78     		ldrb	r3, [r3, #1]
 112 0072 1B06     		lsls	r3, r3, #24
 113 0074 1B16     		asrs	r3, r3, #24
 114 0076 0CD5     		bpl	.L3
  79:lm75.c        ****         // Case for temperature that is negative and most significant bit in LSB (that is for 0.5 d
  80:lm75.c        ****         calculatedValue = calculatedValue + (tS8)1;
 115              		.loc 1 80 0 is_stmt 1
 116 0078 1721     		movs	r1, #23
 117 007a 7B18     		adds	r3, r7, r1
 118 007c 1B78     		ldrb	r3, [r3]
 119 007e 0133     		adds	r3, r3, #1
 120 0080 1B06     		lsls	r3, r3, #24
 121 0082 1A0E     		lsrs	r2, r3, #24
 122 0084 7B18     		adds	r3, r7, r1
 123 0086 1A70     		strb	r2, [r3]
  81:lm75.c        ****     	appendHalf = 1;
 124              		.loc 1 81 0
 125 0088 1523     		movs	r3, #21
 126 008a FB18     		adds	r3, r7, r3
 127 008c 0122     		movs	r2, #1
 128 008e 1A70     		strb	r2, [r3]
 129 0090 0EE0     		b	.L4
 130              	.L3:
  82:lm75.c        ****     } else if ((isNegative == (tU8)0) && ((readTemperature[1] & (tU8)0x80) == (tU8)0x80)) {
 131              		.loc 1 82 0
 132 0092 1623     		movs	r3, #22
 133 0094 FB18     		adds	r3, r7, r3
 134 0096 1B78     		ldrb	r3, [r3]
 135 0098 002B     		cmp	r3, #0
 136 009a 09D1     		bne	.L4
 137              		.loc 1 82 0 is_stmt 0 discriminator 1
 138 009c 1023     		movs	r3, #16
 139 009e FB18     		adds	r3, r7, r3
 140 00a0 5B78     		ldrb	r3, [r3, #1]
 141 00a2 1B06     		lsls	r3, r3, #24
 142 00a4 1B16     		asrs	r3, r3, #24
 143 00a6 03D5     		bpl	.L4
  83:lm75.c        ****         // Case for temperature that is non negative and most significant bit in LSB (that is for 0
  84:lm75.c        ****     	appendHalf = 1;
 144              		.loc 1 84 0 is_stmt 1
ARM GAS  C:\Users\embedded\AppData\Local\Temp\cc0N8geU.s 			page 5


 145 00a8 1523     		movs	r3, #21
 146 00aa FB18     		adds	r3, r7, r3
 147 00ac 0122     		movs	r2, #1
 148 00ae 1A70     		strb	r2, [r3]
 149              	.L4:
  85:lm75.c        ****     } else {
  86:lm75.c        ****         ;
  87:lm75.c        ****     }
  88:lm75.c        **** 
  89:lm75.c        ****     // Variable used as iterator in a loop.
  90:lm75.c        **** 	tU8 i = 0;
 150              		.loc 1 90 0
 151 00b0 1423     		movs	r3, #20
 152 00b2 FB18     		adds	r3, r7, r3
 153 00b4 0022     		movs	r2, #0
 154 00b6 1A70     		strb	r2, [r3]
  91:lm75.c        **** 
  92:lm75.c        ****     // Parsing calculatedValue into charArray to change it accroding to appendHalf flag value
  93:lm75.c        ****     retCode = sprintf(charArray, "%d", calculatedValue);
 155              		.loc 1 93 0
 156 00b8 1723     		movs	r3, #23
 157 00ba FB18     		adds	r3, r7, r3
 158 00bc 0022     		movs	r2, #0
 159 00be 9A56     		ldrsb	r2, [r3, r2]
 160 00c0 2349     		ldr	r1, .L9
 161 00c2 3B1D     		adds	r3, r7, #4
 162 00c4 1800     		movs	r0, r3
 163 00c6 FFF7FEFF 		bl	sprintf
 164 00ca 0200     		movs	r2, r0
 165 00cc 1323     		movs	r3, #19
 166 00ce FB18     		adds	r3, r7, r3
 167 00d0 1A70     		strb	r2, [r3]
  94:lm75.c        **** 
  95:lm75.c        ****     while(charArray[i] != (tU8)0) {
 168              		.loc 1 95 0
 169 00d2 05E0     		b	.L5
 170              	.L6:
  96:lm75.c        ****         i = i + (tU8)1;
 171              		.loc 1 96 0
 172 00d4 1422     		movs	r2, #20
 173 00d6 BB18     		adds	r3, r7, r2
 174 00d8 BA18     		adds	r2, r7, r2
 175 00da 1278     		ldrb	r2, [r2]
 176 00dc 0132     		adds	r2, r2, #1
 177 00de 1A70     		strb	r2, [r3]
 178              	.L5:
  95:lm75.c        ****         i = i + (tU8)1;
 179              		.loc 1 95 0
 180 00e0 1423     		movs	r3, #20
 181 00e2 FB18     		adds	r3, r7, r3
 182 00e4 1B78     		ldrb	r3, [r3]
 183 00e6 3A1D     		adds	r2, r7, #4
 184 00e8 D35C     		ldrb	r3, [r2, r3]
 185 00ea 002B     		cmp	r3, #0
 186 00ec F2D1     		bne	.L6
  97:lm75.c        ****     }
  98:lm75.c        **** 
ARM GAS  C:\Users\embedded\AppData\Local\Temp\cc0N8geU.s 			page 6


  99:lm75.c        ****     charArray[i] = '.';
 187              		.loc 1 99 0
 188 00ee 1423     		movs	r3, #20
 189 00f0 FB18     		adds	r3, r7, r3
 190 00f2 1B78     		ldrb	r3, [r3]
 191 00f4 3A1D     		adds	r2, r7, #4
 192 00f6 2E21     		movs	r1, #46
 193 00f8 D154     		strb	r1, [r2, r3]
 100:lm75.c        ****     if (appendHalf == (tU8)1) {
 194              		.loc 1 100 0
 195 00fa 1523     		movs	r3, #21
 196 00fc FB18     		adds	r3, r7, r3
 197 00fe 1B78     		ldrb	r3, [r3]
 198 0100 012B     		cmp	r3, #1
 199 0102 07D1     		bne	.L7
 101:lm75.c        ****         charArray[i + (tU8)1] = '5';
 200              		.loc 1 101 0
 201 0104 1423     		movs	r3, #20
 202 0106 FB18     		adds	r3, r7, r3
 203 0108 1B78     		ldrb	r3, [r3]
 204 010a 0133     		adds	r3, r3, #1
 205 010c 3A1D     		adds	r2, r7, #4
 206 010e 3521     		movs	r1, #53
 207 0110 D154     		strb	r1, [r2, r3]
 208 0112 06E0     		b	.L8
 209              	.L7:
 102:lm75.c        ****     } else {
 103:lm75.c        ****         charArray[i + (tU8)1] = '0';
 210              		.loc 1 103 0
 211 0114 1423     		movs	r3, #20
 212 0116 FB18     		adds	r3, r7, r3
 213 0118 1B78     		ldrb	r3, [r3]
 214 011a 0133     		adds	r3, r3, #1
 215 011c 3A1D     		adds	r2, r7, #4
 216 011e 3021     		movs	r1, #48
 217 0120 D154     		strb	r1, [r2, r3]
 218              	.L8:
 104:lm75.c        ****     }
 105:lm75.c        **** 
 106:lm75.c        ****     charArray[i + 2] = ' ';
 219              		.loc 1 106 0
 220 0122 1420     		movs	r0, #20
 221 0124 3B18     		adds	r3, r7, r0
 222 0126 1B78     		ldrb	r3, [r3]
 223 0128 0233     		adds	r3, r3, #2
 224 012a 3A1D     		adds	r2, r7, #4
 225 012c 2021     		movs	r1, #32
 226 012e D154     		strb	r1, [r2, r3]
 107:lm75.c        ****     charArray[i + 3] = 'C';
 227              		.loc 1 107 0
 228 0130 3B18     		adds	r3, r7, r0
 229 0132 1B78     		ldrb	r3, [r3]
 230 0134 0333     		adds	r3, r3, #3
 231 0136 3A1D     		adds	r2, r7, #4
 232 0138 4321     		movs	r1, #67
 233 013a D154     		strb	r1, [r2, r3]
 108:lm75.c        **** 
ARM GAS  C:\Users\embedded\AppData\Local\Temp\cc0N8geU.s 			page 7


 109:lm75.c        ****     lcdPuts(charArray);
 234              		.loc 1 109 0
 235 013c 3B1D     		adds	r3, r7, #4
 236 013e 1800     		movs	r0, r3
 237 0140 FFF7FEFF 		bl	lcdPuts
 110:lm75.c        **** }
 238              		.loc 1 110 0
 239 0144 C046     		nop
 240 0146 BD46     		mov	sp, r7
 241 0148 06B0     		add	sp, sp, #24
 242              		@ sp needed
 243 014a B0BC     		pop	{r4, r5, r7}
 244 014c 01BC     		pop	{r0}
 245 014e 0047     		bx	r0
 246              	.L10:
 247              		.align	2
 248              	.L9:
 249 0150 00000000 		.word	.LC0
 250              		.cfi_endproc
 251              	.LFE0:
 252              		.size	measureTemperature, .-measureTemperature
 253              	.Letext0:
 254              		.file 2 "general.h"
 255              		.file 3 "<built-in>"