ARM GAS  C:\Users\embedded\AppData\Local\Temp\cc0YBWCk.s 			page 1


   1              		.cpu arm7tdmi
   2              		.eabi_attribute 20, 1
   3              		.eabi_attribute 21, 1
   4              		.eabi_attribute 23, 3
   5              		.eabi_attribute 24, 1
   6              		.eabi_attribute 25, 1
   7              		.eabi_attribute 26, 1
   8              		.eabi_attribute 30, 6
   9              		.eabi_attribute 34, 0
  10              		.eabi_attribute 18, 4
  11              		.file	"main.c"
  12              		.text
  13              	.Ltext0:
  14              		.cfi_sections	.debug_frame
  15              		.section	.rodata
  16              		.align	2
  17              	.LC6:
  18 0000 202500   		.ascii	" %\000"
  19 0003 00       		.align	2
  20              	.LC8:
  21 0004 25642573 		.ascii	"%d%s\000"
  21      00
  22 0009 000000   		.align	2
  23              	.LC12:
  24 000c 256400   		.ascii	"%d\000"
  25 000f 00       		.align	2
  26              	.LC0:
  27 0010 416B7475 		.ascii	"Aktualny czas: \000"
  27      616C6E79 
  27      20637A61 
  27      733A2000 
  28              		.align	2
  29              	.LC2:
  30 0020 506F6D69 		.ascii	"Pomiar\012temperatury: \000"
  30      61720A74 
  30      656D7065 
  30      72617475 
  30      72793A20 
  31 0035 000000   		.align	2
  32              	.LC4:
  33 0038 506F6D69 		.ascii	"Pomiar\012wilgotnosci: \000"
  33      61720A77 
  33      696C676F 
  33      746E6F73 
  33      63693A20 
  34 004d 000000   		.align	2
  35              	.LC10:
  36 0050 506F6D69 		.ascii	"Pomiar\012jasnosci: \000"
  36      61720A6A 
  36      61736E6F 
  36      7363693A 
  36      2000
  37 0062 0000     		.align	2
  38              	.LC14:
  39 0064 506F6D69 		.ascii	"Pomiar\012cisnienia: \000"
  39      61720A63 
  39      69736E69 
ARM GAS  C:\Users\embedded\AppData\Local\Temp\cc0YBWCk.s 			page 2


  39      656E6961 
  39      3A2000
  40 0077 00       		.align	2
  41              	.LC16:
  42 0078 53746163 		.ascii	"Stacja pogody.\012Wybor funkcji\012przy pomocy\012j"
  42      6A612070 
  42      6F676F64 
  42      792E0A57 
  42      79626F72 
  43 00a2 6F797374 		.ascii	"oystick'a:\012L - temperatura\012R - jasnosc\012G -"
  43      69636B27 
  43      613A0A4C 
  43      202D2074 
  43      656D7065 
  44 00cc 2077696C 		.ascii	" wilgotnosc\012D - cisnienie\000"
  44      676F746E 
  44      6F73630A 
  44      44202D20 
  44      6369736E 
  45              		.text
  46              		.align	1
  47              		.global	main
  48              		.syntax unified
  49              		.code	16
  50              		.thumb_func
  51              		.fpu softvfp
  52              		.type	main, %function
  53              	main:
  54              	.LFB0:
  55              		.file 1 "main.c"
   1:main.c        **** #include "general.h"
   2:main.c        **** #include <lpc2xxx.h>
   3:main.c        **** #include <printf_P.h>
   4:main.c        **** #include <printf_init.h>
   5:main.c        **** #include <consol.h>
   6:main.c        **** #include <config.h>
   7:main.c        **** #include "i2c.h"
   8:main.c        **** 
   9:main.c        **** #include "lm75.h"
  10:main.c        **** #include "htu21df.h"
  11:main.c        **** #include "bmp180.h"
  12:main.c        **** #include "tsl2561.h"
  13:main.c        **** 
  14:main.c        **** #include "lcd.h"
  15:main.c        **** #include "pca9532.h"
  16:main.c        **** #include "additional.h"
  17:main.c        **** 
  18:main.c        **** #include "Common_Def.h"
  19:main.c        **** 
  20:main.c        **** void printCurrentTime(void);
  21:main.c        **** 
  22:main.c        **** int main(void)
  23:main.c        **** {
  56              		.loc 1 23 0
  57              		.cfi_startproc
  58              		@ Function supports interworking.
  59              		@ args = 0, pretend = 0, frame = 264
ARM GAS  C:\Users\embedded\AppData\Local\Temp\cc0YBWCk.s 			page 3


  60              		@ frame_needed = 1, uses_anonymous_args = 0
  61 0000 B0B5     		push	{r4, r5, r7, lr}
  62              	.LCFI0:
  63              		.cfi_def_cfa_offset 16
  64              		.cfi_offset 4, -16
  65              		.cfi_offset 5, -12
  66              		.cfi_offset 7, -8
  67              		.cfi_offset 14, -4
  68 0002 C2B0     		sub	sp, sp, #264
  69              	.LCFI1:
  70              		.cfi_def_cfa_offset 280
  71 0004 00AF     		add	r7, sp, #0
  72              	.LCFI2:
  73              		.cfi_def_cfa_register 7
  24:main.c        **** 	tS8 retCode = 0;
  74              		.loc 1 24 0
  75 0006 0823     		movs	r3, #8
  76 0008 FF33     		adds	r3, r3, #255
  77 000a FB18     		adds	r3, r7, r3
  78 000c 0022     		movs	r2, #0
  79 000e 1A70     		strb	r2, [r3]
  25:main.c        **** 	tU8 pca9532Present = FALSE;
  80              		.loc 1 25 0
  81 0010 FB1D     		adds	r3, r7, #7
  82 0012 FF33     		adds	r3, r3, #255
  83 0014 0022     		movs	r2, #0
  84 0016 1A70     		strb	r2, [r3]
  26:main.c        **** 	// Check if connection with PCA9532 is established
  27:main.c        **** 	i2cInit();
  85              		.loc 1 27 0
  86 0018 FFF7FEFF 		bl	i2cInit
  28:main.c        **** 	pca9532Present = pca9532Init();
  87              		.loc 1 28 0
  88 001c FC1D     		adds	r4, r7, #7
  89 001e FF34     		adds	r4, r4, #255
  90 0020 FFF7FEFF 		bl	pca9532Init
  91 0024 0300     		movs	r3, r0
  92 0026 2370     		strb	r3, [r4]
  29:main.c        **** 	printf_init();
  93              		.loc 1 29 0
  94 0028 FFF7FEFF 		bl	printf_init
  30:main.c        **** 	if ((tU8)TRUE == pca9532Present)
  95              		.loc 1 30 0
  96 002c FB1D     		adds	r3, r7, #7
  97 002e FF33     		adds	r3, r3, #255
  98 0030 1B78     		ldrb	r3, [r3]
  99 0032 012B     		cmp	r3, #1
 100 0034 00D0     		beq	.LCB37
 101 0036 93E1     		b	.L2	@long jump
 102              	.LCB37:
 103              	.LBB2:
  31:main.c        **** 	{
  32:main.c        **** 		/*
  33:main.c        **** 			Inicjalizacja I2C
  34:main.c        **** 		*/
  35:main.c        **** 
  36:main.c        **** 		lcdInit();
ARM GAS  C:\Users\embedded\AppData\Local\Temp\cc0YBWCk.s 			page 4


 104              		.loc 1 36 0
 105 0038 FFF7FEFF 		bl	lcdInit
  37:main.c        **** 		lcdColor(0xff, 0x00);
 106              		.loc 1 37 0
 107 003c 0021     		movs	r1, #0
 108 003e FF20     		movs	r0, #255
 109 0040 FFF7FEFF 		bl	lcdColor
  38:main.c        **** 		lcdClrscr();
 110              		.loc 1 38 0
 111 0044 FFF7FEFF 		bl	lcdClrscr
  39:main.c        **** 
  40:main.c        **** 		/*
  41:main.c        **** 			Main loop containg enitre program logic. With every iteration, joystick position is checked
  42:main.c        **** 			and based on that, appropriate measurement value.
  43:main.c        **** 		*/
  44:main.c        **** 		
  45:main.c        **** 		// Address of the LM75 thermometer, when not soldered. 
  46:main.c        **** 		// tU8 lm75Address = 0x9F;
  47:main.c        **** 		// Address of the LM75 thermometer, when soldered.
  48:main.c        **** 		tU8 amountOfLettersCopied = 0;
 112              		.loc 1 48 0
 113 0048 BB1D     		adds	r3, r7, #6
 114 004a FF33     		adds	r3, r3, #255
 115 004c 0022     		movs	r2, #0
 116 004e 1A70     		strb	r2, [r3]
  49:main.c        **** 
  50:main.c        **** 		tU8 helperValue = (tU8)1;
 117              		.loc 1 50 0
 118 0050 7B1D     		adds	r3, r7, #5
 119 0052 FF33     		adds	r3, r3, #255
 120 0054 0122     		movs	r2, #1
 121 0056 1A70     		strb	r2, [r3]
  51:main.c        **** 
  52:main.c        **** 		IODIR1 &= ~0x00F00000;
 122              		.loc 1 52 0
 123 0058 C54B     		ldr	r3, .L17
 124 005a 1A68     		ldr	r2, [r3]
 125 005c C44B     		ldr	r3, .L17
 126 005e C549     		ldr	r1, .L17+4
 127 0060 0A40     		ands	r2, r1
 128 0062 1A60     		str	r2, [r3]
  53:main.c        **** 		PINSEL0 &= ~0x30000000;
 129              		.loc 1 53 0
 130 0064 C44B     		ldr	r3, .L17+8
 131 0066 1A68     		ldr	r2, [r3]
 132 0068 C34B     		ldr	r3, .L17+8
 133 006a C449     		ldr	r1, .L17+12
 134 006c 0A40     		ands	r2, r1
 135 006e 1A60     		str	r2, [r3]
  54:main.c        **** 
  55:main.c        **** 		while (helperValue == (tU8)TRUE)
 136              		.loc 1 55 0
 137 0070 70E1     		b	.L3
 138              	.L15:
 139              	.LBB3:
  56:main.c        **** 		{
  57:main.c        **** 			tU8 charArray[20] = {0};
ARM GAS  C:\Users\embedded\AppData\Local\Temp\cc0YBWCk.s 			page 5


 140              		.loc 1 57 0
 141 0072 D823     		movs	r3, #216
 142 0074 FB18     		adds	r3, r7, r3
 143 0076 1800     		movs	r0, r3
 144 0078 1423     		movs	r3, #20
 145 007a 1A00     		movs	r2, r3
 146 007c 0021     		movs	r1, #0
 147 007e FFF7FEFF 		bl	memset
  58:main.c        **** 
  59:main.c        **** 			//  IOPIN0 -> gets values from GPIO Port 0 register.
  60:main.c        **** 			// 	IOPIN1 -> gets values from GPIO Port 0 register.
  61:main.c        **** 
  62:main.c        **** 			if ((IOPIN0 & 0x00000100) == 0 || (IOPIN1 & 0x00400000) == 0)
 148              		.loc 1 62 0
 149 0082 BF4B     		ldr	r3, .L17+16
 150 0084 1A68     		ldr	r2, [r3]
 151 0086 8023     		movs	r3, #128
 152 0088 5B00     		lsls	r3, r3, #1
 153 008a 1340     		ands	r3, r2
 154 008c 05D0     		beq	.L4
 155              		.loc 1 62 0 is_stmt 0 discriminator 1
 156 008e BD4B     		ldr	r3, .L17+20
 157 0090 1A68     		ldr	r2, [r3]
 158 0092 8023     		movs	r3, #128
 159 0094 DB03     		lsls	r3, r3, #15
 160 0096 1340     		ands	r3, r2
 161 0098 15D1     		bne	.L5
 162              	.L4:
 163              	.LBB4:
  63:main.c        **** 			{
  64:main.c        **** 				// Key P0.8 center-key is pressed
  65:main.c        **** 				// 0x00000100 = 0b 0000 0000 0000 0000 0000 0001 0000 0000
  66:main.c        **** 				// Key P1.22 is pressed
  67:main.c        **** 				// 0x00400000 = 0b 0000 0000 0100 0000 0000 0000 0000 0000
  68:main.c        **** 				lcdGotoxy(0, 0);
 164              		.loc 1 68 0 is_stmt 1
 165 009a 0021     		movs	r1, #0
 166 009c 0020     		movs	r0, #0
 167 009e FFF7FEFF 		bl	lcdGotoxy
  69:main.c        **** 				tU8 textToBeWritten[] = "Aktualny czas: ";
 168              		.loc 1 69 0
 169 00a2 C821     		movs	r1, #200
 170 00a4 7B18     		adds	r3, r7, r1
 171 00a6 B84A     		ldr	r2, .L17+24
 172 00a8 31CA     		ldmia	r2!, {r0, r4, r5}
 173 00aa 31C3     		stmia	r3!, {r0, r4, r5}
 174 00ac 1268     		ldr	r2, [r2]
 175 00ae 1A60     		str	r2, [r3]
  70:main.c        **** 				lcdPuts(textToBeWritten);
 176              		.loc 1 70 0
 177 00b0 7B18     		adds	r3, r7, r1
 178 00b2 1800     		movs	r0, r3
 179 00b4 FFF7FEFF 		bl	lcdPuts
  71:main.c        **** 				lcdGotoxy(0, 15);
 180              		.loc 1 71 0
 181 00b8 0F21     		movs	r1, #15
 182 00ba 0020     		movs	r0, #0
ARM GAS  C:\Users\embedded\AppData\Local\Temp\cc0YBWCk.s 			page 6


 183 00bc FFF7FEFF 		bl	lcdGotoxy
  72:main.c        **** 			 	printCurrentTime();
 184              		.loc 1 72 0
 185 00c0 FFF7FEFF 		bl	printCurrentTime
 186              	.LBE4:
  63:main.c        **** 				// Key P0.8 center-key is pressed
 187              		.loc 1 63 0
 188 00c4 41E1     		b	.L6
 189              	.L5:
  73:main.c        **** 			}
  74:main.c        **** 			else if ((IOPIN0 & 0x00000200) == 0 || (IOPIN1 & 0x00100000) == 0)
 190              		.loc 1 74 0
 191 00c6 AE4B     		ldr	r3, .L17+16
 192 00c8 1A68     		ldr	r2, [r3]
 193 00ca 8023     		movs	r3, #128
 194 00cc 9B00     		lsls	r3, r3, #2
 195 00ce 1340     		ands	r3, r2
 196 00d0 05D0     		beq	.L7
 197              		.loc 1 74 0 is_stmt 0 discriminator 1
 198 00d2 AC4B     		ldr	r3, .L17+20
 199 00d4 1A68     		ldr	r2, [r3]
 200 00d6 8023     		movs	r3, #128
 201 00d8 5B03     		lsls	r3, r3, #13
 202 00da 1340     		ands	r3, r2
 203 00dc 1DD1     		bne	.L8
 204              	.L7:
 205              	.LBB5:
  75:main.c        **** 			{
  76:main.c        **** 				// Key P0.9 left-key is pressed
  77:main.c        **** 				// 0x00000100 = 0b 0000 0000 0000 0000 0000 0010 0000 0000
  78:main.c        **** 				// Key P1.20 is pressed
  79:main.c        **** 				// 0x00100000 = 0b 0000 0000 0001 0000 0000 0000 0000 0000
  80:main.c        **** 				lcdGotoxy(0, 0);
 206              		.loc 1 80 0 is_stmt 1 discriminator 2
 207 00de 0021     		movs	r1, #0
 208 00e0 0020     		movs	r0, #0
 209 00e2 FFF7FEFF 		bl	lcdGotoxy
  81:main.c        **** 				tU8 textToBeWritten[] = "Pomiar\ntemperatury: ";
 210              		.loc 1 81 0 discriminator 2
 211 00e6 B021     		movs	r1, #176
 212 00e8 7B18     		adds	r3, r7, r1
 213 00ea A84A     		ldr	r2, .L17+28
 214 00ec 31CA     		ldmia	r2!, {r0, r4, r5}
 215 00ee 31C3     		stmia	r3!, {r0, r4, r5}
 216 00f0 11CA     		ldmia	r2!, {r0, r4}
 217 00f2 11C3     		stmia	r3!, {r0, r4}
 218 00f4 1278     		ldrb	r2, [r2]
 219 00f6 1A70     		strb	r2, [r3]
  82:main.c        **** 				lcdPuts(textToBeWritten);
 220              		.loc 1 82 0 discriminator 2
 221 00f8 7B18     		adds	r3, r7, r1
 222 00fa 1800     		movs	r0, r3
 223 00fc FFF7FEFF 		bl	lcdPuts
  83:main.c        **** 				lcdGotoxy(0, 30);
 224              		.loc 1 83 0 discriminator 2
 225 0100 1E21     		movs	r1, #30
 226 0102 0020     		movs	r0, #0
ARM GAS  C:\Users\embedded\AppData\Local\Temp\cc0YBWCk.s 			page 7


 227 0104 FFF7FEFF 		bl	lcdGotoxy
  84:main.c        **** 				measureTemperature();
 228              		.loc 1 84 0 discriminator 2
 229 0108 FFF7FEFF 		bl	measureTemperature
  85:main.c        **** 				manageLED(pca9532Present);
 230              		.loc 1 85 0 discriminator 2
 231 010c FB1D     		adds	r3, r7, #7
 232 010e FF33     		adds	r3, r3, #255
 233 0110 1B78     		ldrb	r3, [r3]
 234 0112 1800     		movs	r0, r3
 235 0114 FFF7FEFF 		bl	manageLED
 236              	.LBE5:
  75:main.c        **** 				// Key P0.9 left-key is pressed
 237              		.loc 1 75 0 discriminator 2
 238 0118 17E1     		b	.L6
 239              	.L8:
  86:main.c        **** 			}
  87:main.c        **** 			else if ((IOPIN0 & 0x00000400) == 0 || (IOPIN1 & 0x00200000) == 0)
 240              		.loc 1 87 0
 241 011a 994B     		ldr	r3, .L17+16
 242 011c 1A68     		ldr	r2, [r3]
 243 011e 8023     		movs	r3, #128
 244 0120 DB00     		lsls	r3, r3, #3
 245 0122 1340     		ands	r3, r2
 246 0124 05D0     		beq	.L9
 247              		.loc 1 87 0 is_stmt 0 discriminator 1
 248 0126 974B     		ldr	r3, .L17+20
 249 0128 1A68     		ldr	r2, [r3]
 250 012a 8023     		movs	r3, #128
 251 012c 9B03     		lsls	r3, r3, #14
 252 012e 1340     		ands	r3, r2
 253 0130 33D1     		bne	.L10
 254              	.L9:
 255              	.LBB6:
  88:main.c        **** 			{
  89:main.c        **** 				// Key P0.10 up-key is pressed
  90:main.c        **** 				// 0x00000100 = 0b 0000 0000 0000 0000 0000 0100 0000 0000
  91:main.c        **** 				// Key P1.21 is pressed
  92:main.c        **** 				// 0x00200000 = 0b 0000 0000 0010 0000 0000 0000 0000 0000
  93:main.c        **** 				lcdGotoxy(0, 0);
 256              		.loc 1 93 0 is_stmt 1 discriminator 3
 257 0132 0021     		movs	r1, #0
 258 0134 0020     		movs	r0, #0
 259 0136 FFF7FEFF 		bl	lcdGotoxy
  94:main.c        **** 				tU8 textToBeWritten[] = "Pomiar\nwilgotnosci: ";
 260              		.loc 1 94 0 discriminator 3
 261 013a 9821     		movs	r1, #152
 262 013c 7B18     		adds	r3, r7, r1
 263 013e 944A     		ldr	r2, .L17+32
 264 0140 31CA     		ldmia	r2!, {r0, r4, r5}
 265 0142 31C3     		stmia	r3!, {r0, r4, r5}
 266 0144 11CA     		ldmia	r2!, {r0, r4}
 267 0146 11C3     		stmia	r3!, {r0, r4}
 268 0148 1278     		ldrb	r2, [r2]
 269 014a 1A70     		strb	r2, [r3]
  95:main.c        **** 				lcdPuts(textToBeWritten);
 270              		.loc 1 95 0 discriminator 3
ARM GAS  C:\Users\embedded\AppData\Local\Temp\cc0YBWCk.s 			page 8


 271 014c 7B18     		adds	r3, r7, r1
 272 014e 1800     		movs	r0, r3
 273 0150 FFF7FEFF 		bl	lcdPuts
  96:main.c        **** 				tU16 humidityValue = measureHumidity();
 274              		.loc 1 96 0 discriminator 3
 275 0154 FFF7FEFF 		bl	measureHumidity
 276 0158 0300     		movs	r3, r0
 277 015a 1A00     		movs	r2, r3
 278 015c EE21     		movs	r1, #238
 279 015e 7B18     		adds	r3, r7, r1
 280 0160 1A80     		strh	r2, [r3]
  97:main.c        **** 				retCode = sprintf(charArray, "%d%s", humidityValue, " %");
 281              		.loc 1 97 0 discriminator 3
 282 0162 7B18     		adds	r3, r7, r1
 283 0164 1A88     		ldrh	r2, [r3]
 284 0166 8B4B     		ldr	r3, .L17+36
 285 0168 8B49     		ldr	r1, .L17+40
 286 016a D824     		movs	r4, #216
 287 016c 3819     		adds	r0, r7, r4
 288 016e FFF7FEFF 		bl	sprintf
 289 0172 0200     		movs	r2, r0
 290 0174 0823     		movs	r3, #8
 291 0176 FF33     		adds	r3, r3, #255
 292 0178 FB18     		adds	r3, r7, r3
 293 017a 1A70     		strb	r2, [r3]
  98:main.c        **** 				lcdGotoxy(0, 30);
 294              		.loc 1 98 0 discriminator 3
 295 017c 1E21     		movs	r1, #30
 296 017e 0020     		movs	r0, #0
 297 0180 FFF7FEFF 		bl	lcdGotoxy
  99:main.c        **** 				lcdPuts(charArray);
 298              		.loc 1 99 0 discriminator 3
 299 0184 3B19     		adds	r3, r7, r4
 300 0186 1800     		movs	r0, r3
 301 0188 FFF7FEFF 		bl	lcdPuts
 100:main.c        **** 				manageLED(pca9532Present);
 302              		.loc 1 100 0 discriminator 3
 303 018c FB1D     		adds	r3, r7, #7
 304 018e FF33     		adds	r3, r3, #255
 305 0190 1B78     		ldrb	r3, [r3]
 306 0192 1800     		movs	r0, r3
 307 0194 FFF7FEFF 		bl	manageLED
 308              	.LBE6:
  88:main.c        **** 				// Key P0.10 up-key is pressed
 309              		.loc 1 88 0 discriminator 3
 310 0198 D7E0     		b	.L6
 311              	.L10:
 101:main.c        **** 			}
 102:main.c        **** 			else if ((IOPIN0 & 0x00000800) == 0 || (IOPIN0 & 0x00004000) == 0)
 312              		.loc 1 102 0
 313 019a 794B     		ldr	r3, .L17+16
 314 019c 1A68     		ldr	r2, [r3]
 315 019e 8023     		movs	r3, #128
 316 01a0 1B01     		lsls	r3, r3, #4
 317 01a2 1340     		ands	r3, r2
 318 01a4 05D0     		beq	.L11
 319              		.loc 1 102 0 is_stmt 0 discriminator 1
ARM GAS  C:\Users\embedded\AppData\Local\Temp\cc0YBWCk.s 			page 9


 320 01a6 764B     		ldr	r3, .L17+16
 321 01a8 1A68     		ldr	r2, [r3]
 322 01aa 8023     		movs	r3, #128
 323 01ac DB01     		lsls	r3, r3, #7
 324 01ae 1340     		ands	r3, r2
 325 01b0 57D1     		bne	.L12
 326              	.L11:
 327              	.LBB7:
 103:main.c        **** 			{
 104:main.c        **** 				// Key P0.11 right-key is pressed
 105:main.c        **** 				// 0x00000100 = 0b 0000 0000 0000 0000 0000 1000 0000 0000
 106:main.c        **** 				// Key P0.14 is pressed
 107:main.c        **** 				// 0x00004000 = 0b 0000 0000 0000 0000 0100 0000 0000 0000
 108:main.c        **** 				lcdGotoxy(0, 0);
 328              		.loc 1 108 0 is_stmt 1 discriminator 4
 329 01b2 0021     		movs	r1, #0
 330 01b4 0020     		movs	r0, #0
 331 01b6 FFF7FEFF 		bl	lcdGotoxy
 109:main.c        **** 				tU8 textToBeWritten[] = "Pomiar\njasnosci: ";
 332              		.loc 1 109 0 discriminator 4
 333 01ba 8420     		movs	r0, #132
 334 01bc 3B18     		adds	r3, r7, r0
 335 01be 774A     		ldr	r2, .L17+44
 336 01c0 32CA     		ldmia	r2!, {r1, r4, r5}
 337 01c2 32C3     		stmia	r3!, {r1, r4, r5}
 338 01c4 1168     		ldr	r1, [r2]
 339 01c6 1960     		str	r1, [r3]
 340 01c8 9288     		ldrh	r2, [r2, #4]
 341 01ca 9A80     		strh	r2, [r3, #4]
 110:main.c        **** 				lcdPuts(textToBeWritten);
 342              		.loc 1 110 0 discriminator 4
 343 01cc 3B18     		adds	r3, r7, r0
 344 01ce 1800     		movs	r0, r3
 345 01d0 FFF7FEFF 		bl	lcdPuts
 111:main.c        **** 				tU64 brightnessValue = measureBrightness();
 346              		.loc 1 111 0 discriminator 4
 347 01d4 FFF7FEFF 		bl	measureBrightness
 348 01d8 0300     		movs	r3, r0
 349 01da 0C00     		movs	r4, r1
 350 01dc F022     		movs	r2, #240
 351 01de B918     		adds	r1, r7, r2
 352 01e0 0B60     		str	r3, [r1]
 353 01e2 4C60     		str	r4, [r1, #4]
 112:main.c        **** 				retCode = sprintf(charArray, "%d", brightnessValue);
 354              		.loc 1 112 0 discriminator 4
 355 01e4 BB18     		adds	r3, r7, r2
 356 01e6 5C68     		ldr	r4, [r3, #4]
 357 01e8 1B68     		ldr	r3, [r3]
 358 01ea 6D49     		ldr	r1, .L17+48
 359 01ec D825     		movs	r5, #216
 360 01ee 7819     		adds	r0, r7, r5
 361 01f0 1A00     		movs	r2, r3
 362 01f2 2300     		movs	r3, r4
 363 01f4 FFF7FEFF 		bl	sprintf
 364 01f8 0200     		movs	r2, r0
 365 01fa 0820     		movs	r0, #8
 366 01fc FF30     		adds	r0, r0, #255
ARM GAS  C:\Users\embedded\AppData\Local\Temp\cc0YBWCk.s 			page 10


 367 01fe 0400     		movs	r4, r0
 368 0200 3B18     		adds	r3, r7, r0
 369 0202 1A70     		strb	r2, [r3]
 113:main.c        **** 				lcdGotoxy(0, 30);
 370              		.loc 1 113 0 discriminator 4
 371 0204 1E21     		movs	r1, #30
 372 0206 0020     		movs	r0, #0
 373 0208 FFF7FEFF 		bl	lcdGotoxy
 114:main.c        **** 				charArray[retCode] = ' ';
 374              		.loc 1 114 0 discriminator 4
 375 020c 2000     		movs	r0, r4
 376 020e 3B18     		adds	r3, r7, r0
 377 0210 1B78     		ldrb	r3, [r3]
 378 0212 1B06     		lsls	r3, r3, #24
 379 0214 1B16     		asrs	r3, r3, #24
 380 0216 7A19     		adds	r2, r7, r5
 381 0218 2021     		movs	r1, #32
 382 021a D154     		strb	r1, [r2, r3]
 115:main.c        **** 				charArray[retCode + 1] = 'l';
 383              		.loc 1 115 0 discriminator 4
 384 021c 3B18     		adds	r3, r7, r0
 385 021e 1B78     		ldrb	r3, [r3]
 386 0220 1B06     		lsls	r3, r3, #24
 387 0222 1B16     		asrs	r3, r3, #24
 388 0224 0133     		adds	r3, r3, #1
 389 0226 7A19     		adds	r2, r7, r5
 390 0228 6C21     		movs	r1, #108
 391 022a D154     		strb	r1, [r2, r3]
 116:main.c        **** 				charArray[retCode + 2] = 'u';
 392              		.loc 1 116 0 discriminator 4
 393 022c 3B18     		adds	r3, r7, r0
 394 022e 1B78     		ldrb	r3, [r3]
 395 0230 1B06     		lsls	r3, r3, #24
 396 0232 1B16     		asrs	r3, r3, #24
 397 0234 0233     		adds	r3, r3, #2
 398 0236 7A19     		adds	r2, r7, r5
 399 0238 7521     		movs	r1, #117
 400 023a D154     		strb	r1, [r2, r3]
 117:main.c        **** 				charArray[retCode + 3] = 'x';
 401              		.loc 1 117 0 discriminator 4
 402 023c 3B18     		adds	r3, r7, r0
 403 023e 1B78     		ldrb	r3, [r3]
 404 0240 1B06     		lsls	r3, r3, #24
 405 0242 1B16     		asrs	r3, r3, #24
 406 0244 0333     		adds	r3, r3, #3
 407 0246 7A19     		adds	r2, r7, r5
 408 0248 7821     		movs	r1, #120
 409 024a D154     		strb	r1, [r2, r3]
 118:main.c        **** 				lcdPuts(charArray);
 410              		.loc 1 118 0 discriminator 4
 411 024c 7B19     		adds	r3, r7, r5
 412 024e 1800     		movs	r0, r3
 413 0250 FFF7FEFF 		bl	lcdPuts
 119:main.c        **** 				manageLED(pca9532Present);
 414              		.loc 1 119 0 discriminator 4
 415 0254 FB1D     		adds	r3, r7, #7
 416 0256 FF33     		adds	r3, r3, #255
ARM GAS  C:\Users\embedded\AppData\Local\Temp\cc0YBWCk.s 			page 11


 417 0258 1B78     		ldrb	r3, [r3]
 418 025a 1800     		movs	r0, r3
 419 025c FFF7FEFF 		bl	manageLED
 420              	.LBE7:
 103:main.c        **** 				// Key P0.11 right-key is pressed
 421              		.loc 1 103 0 discriminator 4
 422 0260 73E0     		b	.L6
 423              	.L12:
 120:main.c        **** 			}
 121:main.c        **** 			else if ((IOPIN0 & 0x00001000) == 0 || (IOPIN1 & 0x00800000) == 0)
 424              		.loc 1 121 0
 425 0262 474B     		ldr	r3, .L17+16
 426 0264 1A68     		ldr	r2, [r3]
 427 0266 8023     		movs	r3, #128
 428 0268 5B01     		lsls	r3, r3, #5
 429 026a 1340     		ands	r3, r2
 430 026c 05D0     		beq	.L13
 431              		.loc 1 121 0 is_stmt 0 discriminator 1
 432 026e 454B     		ldr	r3, .L17+20
 433 0270 1A68     		ldr	r2, [r3]
 434 0272 8023     		movs	r3, #128
 435 0274 1B04     		lsls	r3, r3, #16
 436 0276 1340     		ands	r3, r2
 437 0278 53D1     		bne	.L14
 438              	.L13:
 439              	.LBB8:
 122:main.c        **** 			{
 123:main.c        **** 				// Key P0.12 down-key is pressed
 124:main.c        **** 				// 0x00000100 = 0b 0000 0000 0000 0000 0001 0000 0000 0000
 125:main.c        **** 				// Key P1.23 is pressed
 126:main.c        **** 				// 0x00800000 = 0b 0000 0000 1000 0000 0000 0000 0000 0000
 127:main.c        **** 				lcdGotoxy(0, 0);
 440              		.loc 1 127 0 is_stmt 1 discriminator 5
 441 027a 0021     		movs	r1, #0
 442 027c 0020     		movs	r0, #0
 443 027e FFF7FEFF 		bl	lcdGotoxy
 128:main.c        **** 				tU8 textToBeWritten[] = "Pomiar\ncisnienia: ";
 444              		.loc 1 128 0 discriminator 5
 445 0282 7020     		movs	r0, #112
 446 0284 3B18     		adds	r3, r7, r0
 447 0286 474A     		ldr	r2, .L17+52
 448 0288 32CA     		ldmia	r2!, {r1, r4, r5}
 449 028a 32C3     		stmia	r3!, {r1, r4, r5}
 450 028c 1168     		ldr	r1, [r2]
 451 028e 1960     		str	r1, [r3]
 452 0290 9188     		ldrh	r1, [r2, #4]
 453 0292 9980     		strh	r1, [r3, #4]
 454 0294 9279     		ldrb	r2, [r2, #6]
 455 0296 9A71     		strb	r2, [r3, #6]
 129:main.c        **** 				lcdPuts(textToBeWritten);
 456              		.loc 1 129 0 discriminator 5
 457 0298 3B18     		adds	r3, r7, r0
 458 029a 1800     		movs	r0, r3
 459 029c FFF7FEFF 		bl	lcdPuts
 130:main.c        **** 				tS64 pressureValue = measurePressure();
 460              		.loc 1 130 0 discriminator 5
 461 02a0 FFF7FEFF 		bl	measurePressure
ARM GAS  C:\Users\embedded\AppData\Local\Temp\cc0YBWCk.s 			page 12


 462 02a4 0300     		movs	r3, r0
 463 02a6 F822     		movs	r2, #248
 464 02a8 B918     		adds	r1, r7, r2
 465 02aa 0B60     		str	r3, [r1]
 466 02ac DB17     		asrs	r3, r3, #31
 467 02ae FC21     		movs	r1, #252
 468 02b0 7918     		adds	r1, r7, r1
 469 02b2 0B60     		str	r3, [r1]
 131:main.c        **** 				retCode = sprintf(charArray, "%d", pressureValue);
 470              		.loc 1 131 0 discriminator 5
 471 02b4 BB18     		adds	r3, r7, r2
 472 02b6 5C68     		ldr	r4, [r3, #4]
 473 02b8 1B68     		ldr	r3, [r3]
 474 02ba 3949     		ldr	r1, .L17+48
 475 02bc D825     		movs	r5, #216
 476 02be 7819     		adds	r0, r7, r5
 477 02c0 1A00     		movs	r2, r3
 478 02c2 2300     		movs	r3, r4
 479 02c4 FFF7FEFF 		bl	sprintf
 480 02c8 0200     		movs	r2, r0
 481 02ca 0820     		movs	r0, #8
 482 02cc FF30     		adds	r0, r0, #255
 483 02ce 0400     		movs	r4, r0
 484 02d0 3B18     		adds	r3, r7, r0
 485 02d2 1A70     		strb	r2, [r3]
 132:main.c        **** 				lcdGotoxy(0, 30);
 486              		.loc 1 132 0 discriminator 5
 487 02d4 1E21     		movs	r1, #30
 488 02d6 0020     		movs	r0, #0
 489 02d8 FFF7FEFF 		bl	lcdGotoxy
 133:main.c        **** 				charArray[retCode] = ' ';
 490              		.loc 1 133 0 discriminator 5
 491 02dc 2000     		movs	r0, r4
 492 02de 3B18     		adds	r3, r7, r0
 493 02e0 1B78     		ldrb	r3, [r3]
 494 02e2 1B06     		lsls	r3, r3, #24
 495 02e4 1B16     		asrs	r3, r3, #24
 496 02e6 7A19     		adds	r2, r7, r5
 497 02e8 2021     		movs	r1, #32
 498 02ea D154     		strb	r1, [r2, r3]
 134:main.c        **** 				charArray[retCode + 1] = 'P';
 499              		.loc 1 134 0 discriminator 5
 500 02ec 3B18     		adds	r3, r7, r0
 501 02ee 1B78     		ldrb	r3, [r3]
 502 02f0 1B06     		lsls	r3, r3, #24
 503 02f2 1B16     		asrs	r3, r3, #24
 504 02f4 0133     		adds	r3, r3, #1
 505 02f6 7A19     		adds	r2, r7, r5
 506 02f8 5021     		movs	r1, #80
 507 02fa D154     		strb	r1, [r2, r3]
 135:main.c        **** 				charArray[retCode + 2] = 'a';
 508              		.loc 1 135 0 discriminator 5
 509 02fc 3B18     		adds	r3, r7, r0
 510 02fe 1B78     		ldrb	r3, [r3]
 511 0300 1B06     		lsls	r3, r3, #24
 512 0302 1B16     		asrs	r3, r3, #24
 513 0304 0233     		adds	r3, r3, #2
ARM GAS  C:\Users\embedded\AppData\Local\Temp\cc0YBWCk.s 			page 13


 514 0306 7A19     		adds	r2, r7, r5
 515 0308 6121     		movs	r1, #97
 516 030a D154     		strb	r1, [r2, r3]
 136:main.c        **** 				lcdPuts(charArray);
 517              		.loc 1 136 0 discriminator 5
 518 030c 7B19     		adds	r3, r7, r5
 519 030e 1800     		movs	r0, r3
 520 0310 FFF7FEFF 		bl	lcdPuts
 137:main.c        **** 				manageLED(pca9532Present);
 521              		.loc 1 137 0 discriminator 5
 522 0314 FB1D     		adds	r3, r7, #7
 523 0316 FF33     		adds	r3, r3, #255
 524 0318 1B78     		ldrb	r3, [r3]
 525 031a 1800     		movs	r0, r3
 526 031c FFF7FEFF 		bl	manageLED
 527              	.LBE8:
 122:main.c        **** 				// Key P0.12 down-key is pressed
 528              		.loc 1 122 0 discriminator 5
 529 0320 13E0     		b	.L6
 530              	.L14:
 531              	.LBB9:
 138:main.c        **** 			}
 139:main.c        **** 			else
 140:main.c        **** 			{
 141:main.c        **** 				// Joystick is not pressed at all.
 142:main.c        **** 				lcdGotoxy(0, 0);
 532              		.loc 1 142 0 discriminator 6
 533 0322 0021     		movs	r1, #0
 534 0324 0020     		movs	r0, #0
 535 0326 FFF7FEFF 		bl	lcdGotoxy
 143:main.c        **** 				tU8 textToBeWritten[] = "Stacja pogody.\nWybor funkcji\nprzy pomocy\njoystick'a:\nL - temperatu
 536              		.loc 1 143 0 discriminator 6
 537 032a 1F4B     		ldr	r3, .L17+56
 538 032c 8422     		movs	r2, #132
 539 032e 5200     		lsls	r2, r2, #1
 540 0330 BA18     		adds	r2, r7, r2
 541 0332 D218     		adds	r2, r2, r3
 542 0334 1D4B     		ldr	r3, .L17+60
 543 0336 1000     		movs	r0, r2
 544 0338 1900     		movs	r1, r3
 545 033a 6E23     		movs	r3, #110
 546 033c 1A00     		movs	r2, r3
 547 033e FFF7FEFF 		bl	memcpy
 144:main.c        **** 				lcdPuts(textToBeWritten);
 548              		.loc 1 144 0 discriminator 6
 549 0342 3B00     		movs	r3, r7
 550 0344 1800     		movs	r0, r3
 551 0346 FFF7FEFF 		bl	lcdPuts
 552              	.L6:
 553              	.LBE9:
 145:main.c        **** 			}
 146:main.c        **** 			sdelay(1);
 554              		.loc 1 146 0 discriminator 1
 555 034a 0120     		movs	r0, #1
 556 034c FFF7FEFF 		bl	sdelay
 147:main.c        **** 			lcdClrscr();
 557              		.loc 1 147 0 discriminator 1
ARM GAS  C:\Users\embedded\AppData\Local\Temp\cc0YBWCk.s 			page 14


 558 0350 FFF7FEFF 		bl	lcdClrscr
 559              	.L3:
 560              	.LBE3:
  55:main.c        **** 		{
 561              		.loc 1 55 0
 562 0354 7B1D     		adds	r3, r7, #5
 563 0356 FF33     		adds	r3, r3, #255
 564 0358 1B78     		ldrb	r3, [r3]
 565 035a 012B     		cmp	r3, #1
 566 035c 00D1     		bne	.LCB468
 567 035e 88E6     		b	.L15	@long jump
 568              	.LCB468:
 569              	.L2:
 570              	.LBE2:
 571 0360 0023     		movs	r3, #0
 148:main.c        **** 		}
 149:main.c        **** 	}
 150:main.c        **** }
 572              		.loc 1 150 0
 573 0362 1800     		movs	r0, r3
 574 0364 BD46     		mov	sp, r7
 575 0366 42B0     		add	sp, sp, #264
 576              		@ sp needed
 577 0368 B0BC     		pop	{r4, r5, r7}
 578 036a 02BC     		pop	{r1}
 579 036c 0847     		bx	r1
 580              	.L18:
 581 036e C046     		.align	2
 582              	.L17:
 583 0370 188002E0 		.word	-536707048
 584 0374 FFFF0FFF 		.word	-15728641
 585 0378 00C002E0 		.word	-536690688
 586 037c FFFFFFCF 		.word	-805306369
 587 0380 008002E0 		.word	-536707072
 588 0384 108002E0 		.word	-536707056
 589 0388 10000000 		.word	.LC0
 590 038c 20000000 		.word	.LC2
 591 0390 38000000 		.word	.LC4
 592 0394 00000000 		.word	.LC6
 593 0398 04000000 		.word	.LC8
 594 039c 50000000 		.word	.LC10
 595 03a0 0C000000 		.word	.LC12
 596 03a4 64000000 		.word	.LC14
 597 03a8 F8FEFFFF 		.word	-264
 598 03ac 78000000 		.word	.LC16
 599              		.cfi_endproc
 600              	.LFE0:
 601              		.size	main, .-main
 602              		.global	__aeabi_uidiv
 603              		.align	1
 604              		.global	printCurrentTime
 605              		.syntax unified
 606              		.code	16
 607              		.thumb_func
 608              		.fpu softvfp
 609              		.type	printCurrentTime, %function
 610              	printCurrentTime:
ARM GAS  C:\Users\embedded\AppData\Local\Temp\cc0YBWCk.s 			page 15


 611              	.LFB1:
 151:main.c        **** 
 152:main.c        **** /*
 153:main.c        ****  * @brief   Funkcja printCurrentTime() służy do wyświetlenia aktualnego czasu względem zegara
 154:main.c        ****  * 			czasu rzeczywistego (RTC) w formacie HH:MM:SS (gdzie H - oznacza godzinę, M - minutę,
 155:main.c        ****  *			a S - sekundę).
 156:main.c        ****  *
 157:main.c        ****  * @param   void
 158:main.c        ****  *
 159:main.c        ****  * @returns void
 160:main.c        ****  *
 161:main.c        ****  * @side effects:
 162:main.c        ****  *          Wyświetlany czas jest zależy od wartości inicjalizującej zegar czasu reczywistego (
 163:main.c        ****  * 			gdzie w tym przypadku nie jest on inicjalizowany.
 164:main.c        ****  */
 165:main.c        **** 
 166:main.c        **** void printCurrentTime(void)
 167:main.c        **** {
 612              		.loc 1 167 0
 613              		.cfi_startproc
 614              		@ Function supports interworking.
 615              		@ args = 0, pretend = 0, frame = 16
 616              		@ frame_needed = 1, uses_anonymous_args = 0
 617 03b0 80B5     		push	{r7, lr}
 618              	.LCFI3:
 619              		.cfi_def_cfa_offset 8
 620              		.cfi_offset 7, -8
 621              		.cfi_offset 14, -4
 622 03b2 84B0     		sub	sp, sp, #16
 623              	.LCFI4:
 624              		.cfi_def_cfa_offset 24
 625 03b4 00AF     		add	r7, sp, #0
 626              	.LCFI5:
 627              		.cfi_def_cfa_register 7
 168:main.c        **** 	// TODO: Write comments to below code
 169:main.c        **** 	RTC_CCR = 0x00000010;
 628              		.loc 1 169 0
 629 03b6 6A4B     		ldr	r3, .L26
 630 03b8 1022     		movs	r2, #16
 631 03ba 1A60     		str	r2, [r3]
 170:main.c        **** 	RTC_ILR = 0x00000000;
 632              		.loc 1 170 0
 633 03bc 694B     		ldr	r3, .L26+4
 634 03be 0022     		movs	r2, #0
 635 03c0 1A60     		str	r2, [r3]
 171:main.c        **** 	RTC_CIIR = 0x00000000;
 636              		.loc 1 171 0
 637 03c2 694B     		ldr	r3, .L26+8
 638 03c4 0022     		movs	r2, #0
 639 03c6 1A60     		str	r2, [r3]
 172:main.c        **** 	RTC_AMR = 0x00000000;
 640              		.loc 1 172 0
 641 03c8 684B     		ldr	r3, .L26+12
 642 03ca 0022     		movs	r2, #0
 643 03cc 1A60     		str	r2, [r3]
 173:main.c        **** 	mdelay(100);
 644              		.loc 1 173 0
ARM GAS  C:\Users\embedded\AppData\Local\Temp\cc0YBWCk.s 			page 16


 645 03ce 6420     		movs	r0, #100
 646 03d0 FFF7FEFF 		bl	mdelay
 174:main.c        **** 	RTC_CCR = 0x00000011;
 647              		.loc 1 174 0
 648 03d4 624B     		ldr	r3, .L26
 649 03d6 1122     		movs	r2, #17
 650 03d8 1A60     		str	r2, [r3]
 175:main.c        **** 	// Till here
 176:main.c        **** 
 177:main.c        **** 	tU8 fullHourTable[9] = {0};
 651              		.loc 1 177 0
 652 03da 3B1D     		adds	r3, r7, #4
 653 03dc 1800     		movs	r0, r3
 654 03de 0923     		movs	r3, #9
 655 03e0 1A00     		movs	r2, r3
 656 03e2 0021     		movs	r1, #0
 657 03e4 FFF7FEFF 		bl	memset
 178:main.c        **** 	fullHourTable[2] = ':';
 658              		.loc 1 178 0
 659 03e8 3B1D     		adds	r3, r7, #4
 660 03ea 3A22     		movs	r2, #58
 661 03ec 9A70     		strb	r2, [r3, #2]
 179:main.c        **** 	fullHourTable[5] = ':';
 662              		.loc 1 179 0
 663 03ee 3B1D     		adds	r3, r7, #4
 664 03f0 3A22     		movs	r2, #58
 665 03f2 5A71     		strb	r2, [r3, #5]
 180:main.c        **** 	if (RTC_SEC < 10) {
 666              		.loc 1 180 0
 667 03f4 5E4B     		ldr	r3, .L26+16
 668 03f6 1B68     		ldr	r3, [r3]
 669 03f8 092B     		cmp	r3, #9
 670 03fa 0CD8     		bhi	.L20
 181:main.c        **** 		fullHourTable[6] = (tU8)0x30; 				// Ascii code for '0'.
 671              		.loc 1 181 0
 672 03fc 3B1D     		adds	r3, r7, #4
 673 03fe 3022     		movs	r2, #48
 674 0400 9A71     		strb	r2, [r3, #6]
 182:main.c        **** 		fullHourTable[7] = RTC_SEC + (tU8)0x30; 	// Ascii code for '0'.
 675              		.loc 1 182 0
 676 0402 5B4B     		ldr	r3, .L26+16
 677 0404 1B68     		ldr	r3, [r3]
 678 0406 1B06     		lsls	r3, r3, #24
 679 0408 1B0E     		lsrs	r3, r3, #24
 680 040a 3033     		adds	r3, r3, #48
 681 040c 1B06     		lsls	r3, r3, #24
 682 040e 1A0E     		lsrs	r2, r3, #24
 683 0410 3B1D     		adds	r3, r7, #4
 684 0412 DA71     		strb	r2, [r3, #7]
 685 0414 27E0     		b	.L21
 686              	.L20:
 687              	.LBB10:
 183:main.c        **** 	} else {
 184:main.c        **** 		tU8 div = RTC_SEC / 10;
 688              		.loc 1 184 0
 689 0416 564B     		ldr	r3, .L26+16
 690 0418 1B68     		ldr	r3, [r3]
ARM GAS  C:\Users\embedded\AppData\Local\Temp\cc0YBWCk.s 			page 17


 691 041a 0A21     		movs	r1, #10
 692 041c 1800     		movs	r0, r3
 693 041e FFF7FEFF 		bl	__aeabi_uidiv
 694              	.LVL0:
 695 0422 0300     		movs	r3, r0
 696 0424 1A00     		movs	r2, r3
 697 0426 0F21     		movs	r1, #15
 698 0428 7B18     		adds	r3, r7, r1
 699 042a 1A70     		strb	r2, [r3]
 185:main.c        **** 		fullHourTable[6] = div + (tU8)0x30;
 700              		.loc 1 185 0
 701 042c 7B18     		adds	r3, r7, r1
 702 042e 1B78     		ldrb	r3, [r3]
 703 0430 3033     		adds	r3, r3, #48
 704 0432 1B06     		lsls	r3, r3, #24
 705 0434 1A0E     		lsrs	r2, r3, #24
 706 0436 3B1D     		adds	r3, r7, #4
 707 0438 9A71     		strb	r2, [r3, #6]
 186:main.c        **** 		fullHourTable[7] = ((tU8)RTC_SEC - (div * (tU8)10)) + (tU8)0x30;
 708              		.loc 1 186 0
 709 043a 4D4B     		ldr	r3, .L26+16
 710 043c 1B68     		ldr	r3, [r3]
 711 043e 1B06     		lsls	r3, r3, #24
 712 0440 1A0E     		lsrs	r2, r3, #24
 713 0442 7B18     		adds	r3, r7, r1
 714 0444 1B78     		ldrb	r3, [r3]
 715 0446 191C     		adds	r1, r3, #0
 716 0448 4901     		lsls	r1, r1, #5
 717 044a C91A     		subs	r1, r1, r3
 718 044c 8900     		lsls	r1, r1, #2
 719 044e CB1A     		subs	r3, r1, r3
 720 0450 DB18     		adds	r3, r3, r3
 721 0452 1B06     		lsls	r3, r3, #24
 722 0454 1B0E     		lsrs	r3, r3, #24
 723 0456 D318     		adds	r3, r2, r3
 724 0458 1B06     		lsls	r3, r3, #24
 725 045a 1B0E     		lsrs	r3, r3, #24
 726 045c 3033     		adds	r3, r3, #48
 727 045e 1B06     		lsls	r3, r3, #24
 728 0460 1A0E     		lsrs	r2, r3, #24
 729 0462 3B1D     		adds	r3, r7, #4
 730 0464 DA71     		strb	r2, [r3, #7]
 731              	.L21:
 732              	.LBE10:
 187:main.c        **** 	}
 188:main.c        **** 	
 189:main.c        **** 	if (RTC_MIN < 10) {
 733              		.loc 1 189 0
 734 0466 434B     		ldr	r3, .L26+20
 735 0468 1B68     		ldr	r3, [r3]
 736 046a 092B     		cmp	r3, #9
 737 046c 0CD8     		bhi	.L22
 190:main.c        **** 		fullHourTable[3] = (tU8)0x30;				// Ascii code for '0'.
 738              		.loc 1 190 0
 739 046e 3B1D     		adds	r3, r7, #4
 740 0470 3022     		movs	r2, #48
 741 0472 DA70     		strb	r2, [r3, #3]
ARM GAS  C:\Users\embedded\AppData\Local\Temp\cc0YBWCk.s 			page 18


 191:main.c        **** 		fullHourTable[4] = RTC_MIN + (tU8)0x30;		// Ascii code for '0'.
 742              		.loc 1 191 0
 743 0474 3F4B     		ldr	r3, .L26+20
 744 0476 1B68     		ldr	r3, [r3]
 745 0478 1B06     		lsls	r3, r3, #24
 746 047a 1B0E     		lsrs	r3, r3, #24
 747 047c 3033     		adds	r3, r3, #48
 748 047e 1B06     		lsls	r3, r3, #24
 749 0480 1A0E     		lsrs	r2, r3, #24
 750 0482 3B1D     		adds	r3, r7, #4
 751 0484 1A71     		strb	r2, [r3, #4]
 752 0486 27E0     		b	.L23
 753              	.L22:
 754              	.LBB11:
 192:main.c        **** 	} else {
 193:main.c        **** 		tU8 div = RTC_MIN / 10;
 755              		.loc 1 193 0
 756 0488 3A4B     		ldr	r3, .L26+20
 757 048a 1B68     		ldr	r3, [r3]
 758 048c 0A21     		movs	r1, #10
 759 048e 1800     		movs	r0, r3
 760 0490 FFF7FEFF 		bl	__aeabi_uidiv
 761              	.LVL1:
 762 0494 0300     		movs	r3, r0
 763 0496 1A00     		movs	r2, r3
 764 0498 0E21     		movs	r1, #14
 765 049a 7B18     		adds	r3, r7, r1
 766 049c 1A70     		strb	r2, [r3]
 194:main.c        **** 		fullHourTable[3] = div + (tU8)0x30;
 767              		.loc 1 194 0
 768 049e 7B18     		adds	r3, r7, r1
 769 04a0 1B78     		ldrb	r3, [r3]
 770 04a2 3033     		adds	r3, r3, #48
 771 04a4 1B06     		lsls	r3, r3, #24
 772 04a6 1A0E     		lsrs	r2, r3, #24
 773 04a8 3B1D     		adds	r3, r7, #4
 774 04aa DA70     		strb	r2, [r3, #3]
 195:main.c        **** 		fullHourTable[4] = ((tU8)RTC_MIN - (div * (tU8)10)) + (tU8)0x30;
 775              		.loc 1 195 0
 776 04ac 314B     		ldr	r3, .L26+20
 777 04ae 1B68     		ldr	r3, [r3]
 778 04b0 1B06     		lsls	r3, r3, #24
 779 04b2 1A0E     		lsrs	r2, r3, #24
 780 04b4 7B18     		adds	r3, r7, r1
 781 04b6 1B78     		ldrb	r3, [r3]
 782 04b8 191C     		adds	r1, r3, #0
 783 04ba 4901     		lsls	r1, r1, #5
 784 04bc C91A     		subs	r1, r1, r3
 785 04be 8900     		lsls	r1, r1, #2
 786 04c0 CB1A     		subs	r3, r1, r3
 787 04c2 DB18     		adds	r3, r3, r3
 788 04c4 1B06     		lsls	r3, r3, #24
 789 04c6 1B0E     		lsrs	r3, r3, #24
 790 04c8 D318     		adds	r3, r2, r3
 791 04ca 1B06     		lsls	r3, r3, #24
 792 04cc 1B0E     		lsrs	r3, r3, #24
 793 04ce 3033     		adds	r3, r3, #48
ARM GAS  C:\Users\embedded\AppData\Local\Temp\cc0YBWCk.s 			page 19


 794 04d0 1B06     		lsls	r3, r3, #24
 795 04d2 1A0E     		lsrs	r2, r3, #24
 796 04d4 3B1D     		adds	r3, r7, #4
 797 04d6 1A71     		strb	r2, [r3, #4]
 798              	.L23:
 799              	.LBE11:
 196:main.c        **** 	}
 197:main.c        **** 	
 198:main.c        **** 	if (RTC_HOUR < 10){
 800              		.loc 1 198 0
 801 04d8 274B     		ldr	r3, .L26+24
 802 04da 1B68     		ldr	r3, [r3]
 803 04dc 092B     		cmp	r3, #9
 804 04de 0CD8     		bhi	.L24
 199:main.c        **** 		fullHourTable[0] = (tU8)0x30;				// Ascii code for '0'.
 805              		.loc 1 199 0
 806 04e0 3B1D     		adds	r3, r7, #4
 807 04e2 3022     		movs	r2, #48
 808 04e4 1A70     		strb	r2, [r3]
 200:main.c        **** 		fullHourTable[1] = RTC_HOUR + (tU8)0x30;	// Ascii code for '0'.
 809              		.loc 1 200 0
 810 04e6 244B     		ldr	r3, .L26+24
 811 04e8 1B68     		ldr	r3, [r3]
 812 04ea 1B06     		lsls	r3, r3, #24
 813 04ec 1B0E     		lsrs	r3, r3, #24
 814 04ee 3033     		adds	r3, r3, #48
 815 04f0 1B06     		lsls	r3, r3, #24
 816 04f2 1A0E     		lsrs	r2, r3, #24
 817 04f4 3B1D     		adds	r3, r7, #4
 818 04f6 5A70     		strb	r2, [r3, #1]
 819 04f8 27E0     		b	.L25
 820              	.L24:
 821              	.LBB12:
 201:main.c        **** 	} else {
 202:main.c        **** 		tU8 div = RTC_HOUR / 10;
 822              		.loc 1 202 0
 823 04fa 1F4B     		ldr	r3, .L26+24
 824 04fc 1B68     		ldr	r3, [r3]
 825 04fe 0A21     		movs	r1, #10
 826 0500 1800     		movs	r0, r3
 827 0502 FFF7FEFF 		bl	__aeabi_uidiv
 828              	.LVL2:
 829 0506 0300     		movs	r3, r0
 830 0508 1A00     		movs	r2, r3
 831 050a 0D21     		movs	r1, #13
 832 050c 7B18     		adds	r3, r7, r1
 833 050e 1A70     		strb	r2, [r3]
 203:main.c        **** 		fullHourTable[0] = div + (tU8)0x30;
 834              		.loc 1 203 0
 835 0510 7B18     		adds	r3, r7, r1
 836 0512 1B78     		ldrb	r3, [r3]
 837 0514 3033     		adds	r3, r3, #48
 838 0516 1B06     		lsls	r3, r3, #24
 839 0518 1A0E     		lsrs	r2, r3, #24
 840 051a 3B1D     		adds	r3, r7, #4
 841 051c 1A70     		strb	r2, [r3]
 204:main.c        **** 		fullHourTable[1] = ((tU8)RTC_HOUR - (div * (tU8)10)) + (tU8)0x30;
ARM GAS  C:\Users\embedded\AppData\Local\Temp\cc0YBWCk.s 			page 20


 842              		.loc 1 204 0
 843 051e 164B     		ldr	r3, .L26+24
 844 0520 1B68     		ldr	r3, [r3]
 845 0522 1B06     		lsls	r3, r3, #24
 846 0524 1A0E     		lsrs	r2, r3, #24
 847 0526 7B18     		adds	r3, r7, r1
 848 0528 1B78     		ldrb	r3, [r3]
 849 052a 191C     		adds	r1, r3, #0
 850 052c 4901     		lsls	r1, r1, #5
 851 052e C91A     		subs	r1, r1, r3
 852 0530 8900     		lsls	r1, r1, #2
 853 0532 CB1A     		subs	r3, r1, r3
 854 0534 DB18     		adds	r3, r3, r3
 855 0536 1B06     		lsls	r3, r3, #24
 856 0538 1B0E     		lsrs	r3, r3, #24
 857 053a D318     		adds	r3, r2, r3
 858 053c 1B06     		lsls	r3, r3, #24
 859 053e 1B0E     		lsrs	r3, r3, #24
 860 0540 3033     		adds	r3, r3, #48
 861 0542 1B06     		lsls	r3, r3, #24
 862 0544 1A0E     		lsrs	r2, r3, #24
 863 0546 3B1D     		adds	r3, r7, #4
 864 0548 5A70     		strb	r2, [r3, #1]
 865              	.L25:
 866              	.LBE12:
 205:main.c        **** 	}
 206:main.c        **** 
 207:main.c        **** 	lcdPuts(fullHourTable);
 867              		.loc 1 207 0
 868 054a 3B1D     		adds	r3, r7, #4
 869 054c 1800     		movs	r0, r3
 870 054e FFF7FEFF 		bl	lcdPuts
 208:main.c        **** }
 871              		.loc 1 208 0
 872 0552 C046     		nop
 873 0554 BD46     		mov	sp, r7
 874 0556 04B0     		add	sp, sp, #16
 875              		@ sp needed
 876 0558 80BC     		pop	{r7}
 877 055a 01BC     		pop	{r0}
 878 055c 0047     		bx	r0
 879              	.L27:
 880 055e C046     		.align	2
 881              	.L26:
 882 0560 084002E0 		.word	-536723448
 883 0564 004002E0 		.word	-536723456
 884 0568 0C4002E0 		.word	-536723444
 885 056c 104002E0 		.word	-536723440
 886 0570 204002E0 		.word	-536723424
 887 0574 244002E0 		.word	-536723420
 888 0578 284002E0 		.word	-536723416
 889              		.cfi_endproc
 890              	.LFE1:
 891              		.size	printCurrentTime, .-printCurrentTime
 892              	.Letext0:
 893              		.file 2 "general.h"
 894              		.file 3 "<built-in>"
ARM GAS  C:\Users\embedded\AppData\Local\Temp\cc0YBWCk.s 			page 21


 895              		.section	.debug_info,"",%progbits
 896              	.Ldebug_info0:
 897 0000 43030000 		.4byte	0x343
 898 0004 0200     		.2byte	0x2
 899 0006 00000000 		.4byte	.Ldebug_abbrev0
 900 000a 04       		.byte	0x4
 901 000b 01       		.uleb128 0x1
 902 000c CE000000 		.4byte	.LASF24
 903 0010 0C       		.byte	0xc
 904 0011 39000000 		.4byte	.LASF25
 905 0015 63010000 		.4byte	.LASF26
 906 0019 00000000 		.4byte	.Ltext0
 907 001d 7C050000 		.4byte	.Letext0
 908 0021 00000000 		.4byte	.Ldebug_line0
 909 0025 02       		.uleb128 0x2
 910 0026 74553800 		.ascii	"tU8\000"
 911 002a 02       		.byte	0x2
 912 002b 20       		.byte	0x20
 913 002c 30000000 		.4byte	0x30
 914 0030 03       		.uleb128 0x3
 915 0031 01       		.byte	0x1
 916 0032 08       		.byte	0x8
 917 0033 A7000000 		.4byte	.LASF1
 918 0037 04       		.uleb128 0x4
 919 0038 C4010000 		.4byte	.LASF0
 920 003c 02       		.byte	0x2
 921 003d 21       		.byte	0x21
 922 003e 42000000 		.4byte	0x42
 923 0042 03       		.uleb128 0x3
 924 0043 02       		.byte	0x2
 925 0044 07       		.byte	0x7
 926 0045 81010000 		.4byte	.LASF2
 927 0049 03       		.uleb128 0x3
 928 004a 04       		.byte	0x4
 929 004b 07       		.byte	0x7
 930 004c 1C000000 		.4byte	.LASF3
 931 0050 04       		.uleb128 0x4
 932 0051 64000000 		.4byte	.LASF4
 933 0055 02       		.byte	0x2
 934 0056 23       		.byte	0x23
 935 0057 5B000000 		.4byte	0x5b
 936 005b 03       		.uleb128 0x3
 937 005c 08       		.byte	0x8
 938 005d 07       		.byte	0x7
 939 005e 90000000 		.4byte	.LASF5
 940 0062 02       		.uleb128 0x2
 941 0063 74533800 		.ascii	"tS8\000"
 942 0067 02       		.byte	0x2
 943 0068 24       		.byte	0x24
 944 0069 6D000000 		.4byte	0x6d
 945 006d 03       		.uleb128 0x3
 946 006e 01       		.byte	0x1
 947 006f 06       		.byte	0x6
 948 0070 94010000 		.4byte	.LASF6
 949 0074 03       		.uleb128 0x3
 950 0075 02       		.byte	0x2
 951 0076 05       		.byte	0x5
ARM GAS  C:\Users\embedded\AppData\Local\Temp\cc0YBWCk.s 			page 22


 952 0077 C9010000 		.4byte	.LASF7
 953 007b 05       		.uleb128 0x5
 954 007c 04       		.byte	0x4
 955 007d 05       		.byte	0x5
 956 007e 696E7400 		.ascii	"int\000"
 957 0082 04       		.uleb128 0x4
 958 0083 4E010000 		.4byte	.LASF8
 959 0087 02       		.byte	0x2
 960 0088 27       		.byte	0x27
 961 0089 8D000000 		.4byte	0x8d
 962 008d 03       		.uleb128 0x3
 963 008e 08       		.byte	0x8
 964 008f 05       		.byte	0x5
 965 0090 00000000 		.4byte	.LASF9
 966 0094 06       		.uleb128 0x6
 967 0095 07       		.byte	0x7
 968 0096 01       		.byte	0x1
 969 0097 30000000 		.4byte	0x30
 970 009b 02       		.byte	0x2
 971 009c 28       		.byte	0x28
 972 009d AE000000 		.4byte	0xae
 973 00a1 07       		.uleb128 0x7
 974 00a2 5E000000 		.4byte	.LASF10
 975 00a6 00       		.byte	0
 976 00a7 07       		.uleb128 0x7
 977 00a8 B5000000 		.4byte	.LASF11
 978 00ac 01       		.byte	0x1
 979 00ad 00       		.byte	0
 980 00ae 08       		.uleb128 0x8
 981 00af 01       		.byte	0x1
 982 00b0 7F000000 		.4byte	.LASF27
 983 00b4 01       		.byte	0x1
 984 00b5 A6       		.byte	0xa6
 985 00b6 01       		.byte	0x1
 986 00b7 B0030000 		.4byte	.LFB1
 987 00bb 7C050000 		.4byte	.LFE1
 988 00bf 00000000 		.4byte	.LLST1
 989 00c3 01       		.byte	0x1
 990 00c4 27010000 		.4byte	0x127
 991 00c8 09       		.uleb128 0x9
 992 00c9 0E000000 		.4byte	.LASF12
 993 00cd 01       		.byte	0x1
 994 00ce B1       		.byte	0xb1
 995 00cf 27010000 		.4byte	0x127
 996 00d3 02       		.byte	0x2
 997 00d4 91       		.byte	0x91
 998 00d5 6C       		.sleb128 -20
 999 00d6 0A       		.uleb128 0xa
 1000 00d7 16040000 		.4byte	.LBB10
 1001 00db 66040000 		.4byte	.LBE10
 1002 00df F2000000 		.4byte	0xf2
 1003 00e3 0B       		.uleb128 0xb
 1004 00e4 64697600 		.ascii	"div\000"
 1005 00e8 01       		.byte	0x1
 1006 00e9 B8       		.byte	0xb8
 1007 00ea 25000000 		.4byte	0x25
 1008 00ee 02       		.byte	0x2
ARM GAS  C:\Users\embedded\AppData\Local\Temp\cc0YBWCk.s 			page 23


 1009 00ef 91       		.byte	0x91
 1010 00f0 77       		.sleb128 -9
 1011 00f1 00       		.byte	0
 1012 00f2 0A       		.uleb128 0xa
 1013 00f3 88040000 		.4byte	.LBB11
 1014 00f7 D8040000 		.4byte	.LBE11
 1015 00fb 0E010000 		.4byte	0x10e
 1016 00ff 0B       		.uleb128 0xb
 1017 0100 64697600 		.ascii	"div\000"
 1018 0104 01       		.byte	0x1
 1019 0105 C1       		.byte	0xc1
 1020 0106 25000000 		.4byte	0x25
 1021 010a 02       		.byte	0x2
 1022 010b 91       		.byte	0x91
 1023 010c 76       		.sleb128 -10
 1024 010d 00       		.byte	0
 1025 010e 0C       		.uleb128 0xc
 1026 010f FA040000 		.4byte	.LBB12
 1027 0113 4A050000 		.4byte	.LBE12
 1028 0117 0B       		.uleb128 0xb
 1029 0118 64697600 		.ascii	"div\000"
 1030 011c 01       		.byte	0x1
 1031 011d CA       		.byte	0xca
 1032 011e 25000000 		.4byte	0x25
 1033 0122 02       		.byte	0x2
 1034 0123 91       		.byte	0x91
 1035 0124 75       		.sleb128 -11
 1036 0125 00       		.byte	0
 1037 0126 00       		.byte	0
 1038 0127 0D       		.uleb128 0xd
 1039 0128 25000000 		.4byte	0x25
 1040 012c 37010000 		.4byte	0x137
 1041 0130 0E       		.uleb128 0xe
 1042 0131 49000000 		.4byte	0x49
 1043 0135 08       		.byte	0x8
 1044 0136 00       		.byte	0
 1045 0137 0F       		.uleb128 0xf
 1046 0138 01       		.byte	0x1
 1047 0139 BA000000 		.4byte	.LASF28
 1048 013d 01       		.byte	0x1
 1049 013e 16       		.byte	0x16
 1050 013f 01       		.byte	0x1
 1051 0140 7B000000 		.4byte	0x7b
 1052 0144 00000000 		.4byte	.LFB0
 1053 0148 B0030000 		.4byte	.LFE0
 1054 014c 38000000 		.4byte	.LLST0
 1055 0150 01       		.byte	0x1
 1056 0151 D2020000 		.4byte	0x2d2
 1057 0155 09       		.uleb128 0x9
 1058 0156 4E000000 		.4byte	.LASF13
 1059 015a 01       		.byte	0x1
 1060 015b 18       		.byte	0x18
 1061 015c 62000000 		.4byte	0x62
 1062 0160 02       		.byte	0x2
 1063 0161 91       		.byte	0x91
 1064 0162 6F       		.sleb128 -17
 1065 0163 09       		.uleb128 0x9
ARM GAS  C:\Users\embedded\AppData\Local\Temp\cc0YBWCk.s 			page 24


 1066 0164 BF000000 		.4byte	.LASF14
 1067 0168 01       		.byte	0x1
 1068 0169 19       		.byte	0x19
 1069 016a 25000000 		.4byte	0x25
 1070 016e 02       		.byte	0x2
 1071 016f 91       		.byte	0x91
 1072 0170 6E       		.sleb128 -18
 1073 0171 0C       		.uleb128 0xc
 1074 0172 38000000 		.4byte	.LBB2
 1075 0176 60030000 		.4byte	.LBE2
 1076 017a 09       		.uleb128 0x9
 1077 017b 69000000 		.4byte	.LASF15
 1078 017f 01       		.byte	0x1
 1079 0180 30       		.byte	0x30
 1080 0181 25000000 		.4byte	0x25
 1081 0185 02       		.byte	0x2
 1082 0186 91       		.byte	0x91
 1083 0187 6D       		.sleb128 -19
 1084 0188 09       		.uleb128 0x9
 1085 0189 A0010000 		.4byte	.LASF16
 1086 018d 01       		.byte	0x1
 1087 018e 32       		.byte	0x32
 1088 018f 25000000 		.4byte	0x25
 1089 0193 02       		.byte	0x2
 1090 0194 91       		.byte	0x91
 1091 0195 6C       		.sleb128 -20
 1092 0196 0C       		.uleb128 0xc
 1093 0197 72000000 		.4byte	.LBB3
 1094 019b 54030000 		.4byte	.LBE3
 1095 019f 09       		.uleb128 0x9
 1096 01a0 BA010000 		.4byte	.LASF17
 1097 01a4 01       		.byte	0x1
 1098 01a5 39       		.byte	0x39
 1099 01a6 D2020000 		.4byte	0x2d2
 1100 01aa 02       		.byte	0x2
 1101 01ab 91       		.byte	0x91
 1102 01ac 40       		.sleb128 -64
 1103 01ad 0A       		.uleb128 0xa
 1104 01ae 9A000000 		.4byte	.LBB4
 1105 01b2 C4000000 		.4byte	.LBE4
 1106 01b6 CA010000 		.4byte	0x1ca
 1107 01ba 09       		.uleb128 0x9
 1108 01bb 29000000 		.4byte	.LASF18
 1109 01bf 01       		.byte	0x1
 1110 01c0 45       		.byte	0x45
 1111 01c1 E2020000 		.4byte	0x2e2
 1112 01c5 03       		.byte	0x3
 1113 01c6 91       		.byte	0x91
 1114 01c7 B07F     		.sleb128 -80
 1115 01c9 00       		.byte	0
 1116 01ca 0A       		.uleb128 0xa
 1117 01cb DE000000 		.4byte	.LBB5
 1118 01cf 18010000 		.4byte	.LBE5
 1119 01d3 E7010000 		.4byte	0x1e7
 1120 01d7 09       		.uleb128 0x9
 1121 01d8 29000000 		.4byte	.LASF18
 1122 01dc 01       		.byte	0x1
ARM GAS  C:\Users\embedded\AppData\Local\Temp\cc0YBWCk.s 			page 25


 1123 01dd 51       		.byte	0x51
 1124 01de F2020000 		.4byte	0x2f2
 1125 01e2 03       		.byte	0x3
 1126 01e3 91       		.byte	0x91
 1127 01e4 987F     		.sleb128 -104
 1128 01e6 00       		.byte	0
 1129 01e7 0A       		.uleb128 0xa
 1130 01e8 32010000 		.4byte	.LBB6
 1131 01ec 98010000 		.4byte	.LBE6
 1132 01f0 2C020000 		.4byte	0x22c
 1133 01f4 09       		.uleb128 0x9
 1134 01f5 29000000 		.4byte	.LASF18
 1135 01f9 01       		.byte	0x1
 1136 01fa 5E       		.byte	0x5e
 1137 01fb F2020000 		.4byte	0x2f2
 1138 01ff 03       		.byte	0x3
 1139 0200 91       		.byte	0x91
 1140 0201 807F     		.sleb128 -128
 1141 0203 09       		.uleb128 0x9
 1142 0204 40000000 		.4byte	.LASF19
 1143 0208 01       		.byte	0x1
 1144 0209 60       		.byte	0x60
 1145 020a 37000000 		.4byte	0x37
 1146 020e 02       		.byte	0x2
 1147 020f 91       		.byte	0x91
 1148 0210 56       		.sleb128 -42
 1149 0211 10       		.uleb128 0x10
 1150 0212 01       		.byte	0x1
 1151 0213 56000000 		.4byte	.LASF21
 1152 0217 03       		.byte	0x3
 1153 0218 00       		.byte	0
 1154 0219 01       		.byte	0x1
 1155 021a 7B000000 		.4byte	0x7b
 1156 021e 01       		.byte	0x1
 1157 021f 11       		.uleb128 0x11
 1158 0220 02030000 		.4byte	0x302
 1159 0224 11       		.uleb128 0x11
 1160 0225 14030000 		.4byte	0x314
 1161 0229 12       		.uleb128 0x12
 1162 022a 00       		.byte	0
 1163 022b 00       		.byte	0
 1164 022c 0A       		.uleb128 0xa
 1165 022d B2010000 		.4byte	.LBB7
 1166 0231 60020000 		.4byte	.LBE7
 1167 0235 71020000 		.4byte	0x271
 1168 0239 09       		.uleb128 0x9
 1169 023a 29000000 		.4byte	.LASF18
 1170 023e 01       		.byte	0x1
 1171 023f 6D       		.byte	0x6d
 1172 0240 1A030000 		.4byte	0x31a
 1173 0244 03       		.byte	0x3
 1174 0245 91       		.byte	0x91
 1175 0246 EC7E     		.sleb128 -148
 1176 0248 09       		.uleb128 0x9
 1177 0249 53010000 		.4byte	.LASF20
 1178 024d 01       		.byte	0x1
 1179 024e 6F       		.byte	0x6f
ARM GAS  C:\Users\embedded\AppData\Local\Temp\cc0YBWCk.s 			page 26


 1180 024f 50000000 		.4byte	0x50
 1181 0253 02       		.byte	0x2
 1182 0254 91       		.byte	0x91
 1183 0255 58       		.sleb128 -40
 1184 0256 10       		.uleb128 0x10
 1185 0257 01       		.byte	0x1
 1186 0258 56000000 		.4byte	.LASF21
 1187 025c 03       		.byte	0x3
 1188 025d 00       		.byte	0
 1189 025e 01       		.byte	0x1
 1190 025f 7B000000 		.4byte	0x7b
 1191 0263 01       		.byte	0x1
 1192 0264 11       		.uleb128 0x11
 1193 0265 02030000 		.4byte	0x302
 1194 0269 11       		.uleb128 0x11
 1195 026a 14030000 		.4byte	0x314
 1196 026e 12       		.uleb128 0x12
 1197 026f 00       		.byte	0
 1198 0270 00       		.byte	0
 1199 0271 0A       		.uleb128 0xa
 1200 0272 7A020000 		.4byte	.LBB8
 1201 0276 20030000 		.4byte	.LBE8
 1202 027a B6020000 		.4byte	0x2b6
 1203 027e 09       		.uleb128 0x9
 1204 027f 29000000 		.4byte	.LASF18
 1205 0283 01       		.byte	0x1
 1206 0284 80       		.byte	0x80
 1207 0285 2A030000 		.4byte	0x32a
 1208 0289 03       		.byte	0x3
 1209 028a 91       		.byte	0x91
 1210 028b D87E     		.sleb128 -168
 1211 028d 09       		.uleb128 0x9
 1212 028e AC010000 		.4byte	.LASF22
 1213 0292 01       		.byte	0x1
 1214 0293 82       		.byte	0x82
 1215 0294 82000000 		.4byte	0x82
 1216 0298 02       		.byte	0x2
 1217 0299 91       		.byte	0x91
 1218 029a 60       		.sleb128 -32
 1219 029b 10       		.uleb128 0x10
 1220 029c 01       		.byte	0x1
 1221 029d 56000000 		.4byte	.LASF21
 1222 02a1 03       		.byte	0x3
 1223 02a2 00       		.byte	0
 1224 02a3 01       		.byte	0x1
 1225 02a4 7B000000 		.4byte	0x7b
 1226 02a8 01       		.byte	0x1
 1227 02a9 11       		.uleb128 0x11
 1228 02aa 02030000 		.4byte	0x302
 1229 02ae 11       		.uleb128 0x11
 1230 02af 14030000 		.4byte	0x314
 1231 02b3 12       		.uleb128 0x12
 1232 02b4 00       		.byte	0
 1233 02b5 00       		.byte	0
 1234 02b6 0C       		.uleb128 0xc
 1235 02b7 22030000 		.4byte	.LBB9
 1236 02bb 4A030000 		.4byte	.LBE9
ARM GAS  C:\Users\embedded\AppData\Local\Temp\cc0YBWCk.s 			page 27


 1237 02bf 09       		.uleb128 0x9
 1238 02c0 29000000 		.4byte	.LASF18
 1239 02c4 01       		.byte	0x1
 1240 02c5 8F       		.byte	0x8f
 1241 02c6 3A030000 		.4byte	0x33a
 1242 02ca 03       		.byte	0x3
 1243 02cb 91       		.byte	0x91
 1244 02cc E87D     		.sleb128 -280
 1245 02ce 00       		.byte	0
 1246 02cf 00       		.byte	0
 1247 02d0 00       		.byte	0
 1248 02d1 00       		.byte	0
 1249 02d2 0D       		.uleb128 0xd
 1250 02d3 25000000 		.4byte	0x25
 1251 02d7 E2020000 		.4byte	0x2e2
 1252 02db 0E       		.uleb128 0xe
 1253 02dc 49000000 		.4byte	0x49
 1254 02e0 13       		.byte	0x13
 1255 02e1 00       		.byte	0
 1256 02e2 0D       		.uleb128 0xd
 1257 02e3 25000000 		.4byte	0x25
 1258 02e7 F2020000 		.4byte	0x2f2
 1259 02eb 0E       		.uleb128 0xe
 1260 02ec 49000000 		.4byte	0x49
 1261 02f0 0F       		.byte	0xf
 1262 02f1 00       		.byte	0
 1263 02f2 0D       		.uleb128 0xd
 1264 02f3 25000000 		.4byte	0x25
 1265 02f7 02030000 		.4byte	0x302
 1266 02fb 0E       		.uleb128 0xe
 1267 02fc 49000000 		.4byte	0x49
 1268 0300 14       		.byte	0x14
 1269 0301 00       		.byte	0
 1270 0302 13       		.uleb128 0x13
 1271 0303 04       		.byte	0x4
 1272 0304 08030000 		.4byte	0x308
 1273 0308 03       		.uleb128 0x3
 1274 0309 01       		.byte	0x1
 1275 030a 08       		.byte	0x8
 1276 030b D3010000 		.4byte	.LASF23
 1277 030f 14       		.uleb128 0x14
 1278 0310 08030000 		.4byte	0x308
 1279 0314 13       		.uleb128 0x13
 1280 0315 04       		.byte	0x4
 1281 0316 0F030000 		.4byte	0x30f
 1282 031a 0D       		.uleb128 0xd
 1283 031b 25000000 		.4byte	0x25
 1284 031f 2A030000 		.4byte	0x32a
 1285 0323 0E       		.uleb128 0xe
 1286 0324 49000000 		.4byte	0x49
 1287 0328 11       		.byte	0x11
 1288 0329 00       		.byte	0
 1289 032a 0D       		.uleb128 0xd
 1290 032b 25000000 		.4byte	0x25
 1291 032f 3A030000 		.4byte	0x33a
 1292 0333 0E       		.uleb128 0xe
 1293 0334 49000000 		.4byte	0x49
ARM GAS  C:\Users\embedded\AppData\Local\Temp\cc0YBWCk.s 			page 28


 1294 0338 12       		.byte	0x12
 1295 0339 00       		.byte	0
 1296 033a 15       		.uleb128 0x15
 1297 033b 25000000 		.4byte	0x25
 1298 033f 0E       		.uleb128 0xe
 1299 0340 49000000 		.4byte	0x49
 1300 0344 6D       		.byte	0x6d
 1301 0345 00       		.byte	0
 1302 0346 00       		.byte	0
 1303              		.section	.debug_abbrev,"",%progbits
 1304              	.Ldebug_abbrev0:
 1305 0000 01       		.uleb128 0x1
 1306 0001 11       		.uleb128 0x11
 1307 0002 01       		.byte	0x1
 1308 0003 25       		.uleb128 0x25
 1309 0004 0E       		.uleb128 0xe
 1310 0005 13       		.uleb128 0x13
 1311 0006 0B       		.uleb128 0xb
 1312 0007 03       		.uleb128 0x3
 1313 0008 0E       		.uleb128 0xe
 1314 0009 1B       		.uleb128 0x1b
 1315 000a 0E       		.uleb128 0xe
 1316 000b 11       		.uleb128 0x11
 1317 000c 01       		.uleb128 0x1
 1318 000d 12       		.uleb128 0x12
 1319 000e 01       		.uleb128 0x1
 1320 000f 10       		.uleb128 0x10
 1321 0010 06       		.uleb128 0x6
 1322 0011 00       		.byte	0
 1323 0012 00       		.byte	0
 1324 0013 02       		.uleb128 0x2
 1325 0014 16       		.uleb128 0x16
 1326 0015 00       		.byte	0
 1327 0016 03       		.uleb128 0x3
 1328 0017 08       		.uleb128 0x8
 1329 0018 3A       		.uleb128 0x3a
 1330 0019 0B       		.uleb128 0xb
 1331 001a 3B       		.uleb128 0x3b
 1332 001b 0B       		.uleb128 0xb
 1333 001c 49       		.uleb128 0x49
 1334 001d 13       		.uleb128 0x13
 1335 001e 00       		.byte	0
 1336 001f 00       		.byte	0
 1337 0020 03       		.uleb128 0x3
 1338 0021 24       		.uleb128 0x24
 1339 0022 00       		.byte	0
 1340 0023 0B       		.uleb128 0xb
 1341 0024 0B       		.uleb128 0xb
 1342 0025 3E       		.uleb128 0x3e
 1343 0026 0B       		.uleb128 0xb
 1344 0027 03       		.uleb128 0x3
 1345 0028 0E       		.uleb128 0xe
 1346 0029 00       		.byte	0
 1347 002a 00       		.byte	0
 1348 002b 04       		.uleb128 0x4
 1349 002c 16       		.uleb128 0x16
 1350 002d 00       		.byte	0
ARM GAS  C:\Users\embedded\AppData\Local\Temp\cc0YBWCk.s 			page 29


 1351 002e 03       		.uleb128 0x3
 1352 002f 0E       		.uleb128 0xe
 1353 0030 3A       		.uleb128 0x3a
 1354 0031 0B       		.uleb128 0xb
 1355 0032 3B       		.uleb128 0x3b
 1356 0033 0B       		.uleb128 0xb
 1357 0034 49       		.uleb128 0x49
 1358 0035 13       		.uleb128 0x13
 1359 0036 00       		.byte	0
 1360 0037 00       		.byte	0
 1361 0038 05       		.uleb128 0x5
 1362 0039 24       		.uleb128 0x24
 1363 003a 00       		.byte	0
 1364 003b 0B       		.uleb128 0xb
 1365 003c 0B       		.uleb128 0xb
 1366 003d 3E       		.uleb128 0x3e
 1367 003e 0B       		.uleb128 0xb
 1368 003f 03       		.uleb128 0x3
 1369 0040 08       		.uleb128 0x8
 1370 0041 00       		.byte	0
 1371 0042 00       		.byte	0
 1372 0043 06       		.uleb128 0x6
 1373 0044 04       		.uleb128 0x4
 1374 0045 01       		.byte	0x1
 1375 0046 3E       		.uleb128 0x3e
 1376 0047 0B       		.uleb128 0xb
 1377 0048 0B       		.uleb128 0xb
 1378 0049 0B       		.uleb128 0xb
 1379 004a 49       		.uleb128 0x49
 1380 004b 13       		.uleb128 0x13
 1381 004c 3A       		.uleb128 0x3a
 1382 004d 0B       		.uleb128 0xb
 1383 004e 3B       		.uleb128 0x3b
 1384 004f 0B       		.uleb128 0xb
 1385 0050 01       		.uleb128 0x1
 1386 0051 13       		.uleb128 0x13
 1387 0052 00       		.byte	0
 1388 0053 00       		.byte	0
 1389 0054 07       		.uleb128 0x7
 1390 0055 28       		.uleb128 0x28
 1391 0056 00       		.byte	0
 1392 0057 03       		.uleb128 0x3
 1393 0058 0E       		.uleb128 0xe
 1394 0059 1C       		.uleb128 0x1c
 1395 005a 0B       		.uleb128 0xb
 1396 005b 00       		.byte	0
 1397 005c 00       		.byte	0
 1398 005d 08       		.uleb128 0x8
 1399 005e 2E       		.uleb128 0x2e
 1400 005f 01       		.byte	0x1
 1401 0060 3F       		.uleb128 0x3f
 1402 0061 0C       		.uleb128 0xc
 1403 0062 03       		.uleb128 0x3
 1404 0063 0E       		.uleb128 0xe
 1405 0064 3A       		.uleb128 0x3a
 1406 0065 0B       		.uleb128 0xb
 1407 0066 3B       		.uleb128 0x3b
ARM GAS  C:\Users\embedded\AppData\Local\Temp\cc0YBWCk.s 			page 30


 1408 0067 0B       		.uleb128 0xb
 1409 0068 27       		.uleb128 0x27
 1410 0069 0C       		.uleb128 0xc
 1411 006a 11       		.uleb128 0x11
 1412 006b 01       		.uleb128 0x1
 1413 006c 12       		.uleb128 0x12
 1414 006d 01       		.uleb128 0x1
 1415 006e 40       		.uleb128 0x40
 1416 006f 06       		.uleb128 0x6
 1417 0070 9642     		.uleb128 0x2116
 1418 0072 0C       		.uleb128 0xc
 1419 0073 01       		.uleb128 0x1
 1420 0074 13       		.uleb128 0x13
 1421 0075 00       		.byte	0
 1422 0076 00       		.byte	0
 1423 0077 09       		.uleb128 0x9
 1424 0078 34       		.uleb128 0x34
 1425 0079 00       		.byte	0
 1426 007a 03       		.uleb128 0x3
 1427 007b 0E       		.uleb128 0xe
 1428 007c 3A       		.uleb128 0x3a
 1429 007d 0B       		.uleb128 0xb
 1430 007e 3B       		.uleb128 0x3b
 1431 007f 0B       		.uleb128 0xb
 1432 0080 49       		.uleb128 0x49
 1433 0081 13       		.uleb128 0x13
 1434 0082 02       		.uleb128 0x2
 1435 0083 0A       		.uleb128 0xa
 1436 0084 00       		.byte	0
 1437 0085 00       		.byte	0
 1438 0086 0A       		.uleb128 0xa
 1439 0087 0B       		.uleb128 0xb
 1440 0088 01       		.byte	0x1
 1441 0089 11       		.uleb128 0x11
 1442 008a 01       		.uleb128 0x1
 1443 008b 12       		.uleb128 0x12
 1444 008c 01       		.uleb128 0x1
 1445 008d 01       		.uleb128 0x1
 1446 008e 13       		.uleb128 0x13
 1447 008f 00       		.byte	0
 1448 0090 00       		.byte	0
 1449 0091 0B       		.uleb128 0xb
 1450 0092 34       		.uleb128 0x34
 1451 0093 00       		.byte	0
 1452 0094 03       		.uleb128 0x3
 1453 0095 08       		.uleb128 0x8
 1454 0096 3A       		.uleb128 0x3a
 1455 0097 0B       		.uleb128 0xb
 1456 0098 3B       		.uleb128 0x3b
 1457 0099 0B       		.uleb128 0xb
 1458 009a 49       		.uleb128 0x49
 1459 009b 13       		.uleb128 0x13
 1460 009c 02       		.uleb128 0x2
 1461 009d 0A       		.uleb128 0xa
 1462 009e 00       		.byte	0
 1463 009f 00       		.byte	0
 1464 00a0 0C       		.uleb128 0xc
ARM GAS  C:\Users\embedded\AppData\Local\Temp\cc0YBWCk.s 			page 31


 1465 00a1 0B       		.uleb128 0xb
 1466 00a2 01       		.byte	0x1
 1467 00a3 11       		.uleb128 0x11
 1468 00a4 01       		.uleb128 0x1
 1469 00a5 12       		.uleb128 0x12
 1470 00a6 01       		.uleb128 0x1
 1471 00a7 00       		.byte	0
 1472 00a8 00       		.byte	0
 1473 00a9 0D       		.uleb128 0xd
 1474 00aa 01       		.uleb128 0x1
 1475 00ab 01       		.byte	0x1
 1476 00ac 49       		.uleb128 0x49
 1477 00ad 13       		.uleb128 0x13
 1478 00ae 01       		.uleb128 0x1
 1479 00af 13       		.uleb128 0x13
 1480 00b0 00       		.byte	0
 1481 00b1 00       		.byte	0
 1482 00b2 0E       		.uleb128 0xe
 1483 00b3 21       		.uleb128 0x21
 1484 00b4 00       		.byte	0
 1485 00b5 49       		.uleb128 0x49
 1486 00b6 13       		.uleb128 0x13
 1487 00b7 2F       		.uleb128 0x2f
 1488 00b8 0B       		.uleb128 0xb
 1489 00b9 00       		.byte	0
 1490 00ba 00       		.byte	0
 1491 00bb 0F       		.uleb128 0xf
 1492 00bc 2E       		.uleb128 0x2e
 1493 00bd 01       		.byte	0x1
 1494 00be 3F       		.uleb128 0x3f
 1495 00bf 0C       		.uleb128 0xc
 1496 00c0 03       		.uleb128 0x3
 1497 00c1 0E       		.uleb128 0xe
 1498 00c2 3A       		.uleb128 0x3a
 1499 00c3 0B       		.uleb128 0xb
 1500 00c4 3B       		.uleb128 0x3b
 1501 00c5 0B       		.uleb128 0xb
 1502 00c6 27       		.uleb128 0x27
 1503 00c7 0C       		.uleb128 0xc
 1504 00c8 49       		.uleb128 0x49
 1505 00c9 13       		.uleb128 0x13
 1506 00ca 11       		.uleb128 0x11
 1507 00cb 01       		.uleb128 0x1
 1508 00cc 12       		.uleb128 0x12
 1509 00cd 01       		.uleb128 0x1
 1510 00ce 40       		.uleb128 0x40
 1511 00cf 06       		.uleb128 0x6
 1512 00d0 9642     		.uleb128 0x2116
 1513 00d2 0C       		.uleb128 0xc
 1514 00d3 01       		.uleb128 0x1
 1515 00d4 13       		.uleb128 0x13
 1516 00d5 00       		.byte	0
 1517 00d6 00       		.byte	0
 1518 00d7 10       		.uleb128 0x10
 1519 00d8 2E       		.uleb128 0x2e
 1520 00d9 01       		.byte	0x1
 1521 00da 3F       		.uleb128 0x3f
ARM GAS  C:\Users\embedded\AppData\Local\Temp\cc0YBWCk.s 			page 32


 1522 00db 0C       		.uleb128 0xc
 1523 00dc 03       		.uleb128 0x3
 1524 00dd 0E       		.uleb128 0xe
 1525 00de 3A       		.uleb128 0x3a
 1526 00df 0B       		.uleb128 0xb
 1527 00e0 3B       		.uleb128 0x3b
 1528 00e1 0B       		.uleb128 0xb
 1529 00e2 27       		.uleb128 0x27
 1530 00e3 0C       		.uleb128 0xc
 1531 00e4 49       		.uleb128 0x49
 1532 00e5 13       		.uleb128 0x13
 1533 00e6 3C       		.uleb128 0x3c
 1534 00e7 0C       		.uleb128 0xc
 1535 00e8 00       		.byte	0
 1536 00e9 00       		.byte	0
 1537 00ea 11       		.uleb128 0x11
 1538 00eb 05       		.uleb128 0x5
 1539 00ec 00       		.byte	0
 1540 00ed 49       		.uleb128 0x49
 1541 00ee 13       		.uleb128 0x13
 1542 00ef 00       		.byte	0
 1543 00f0 00       		.byte	0
 1544 00f1 12       		.uleb128 0x12
 1545 00f2 18       		.uleb128 0x18
 1546 00f3 00       		.byte	0
 1547 00f4 00       		.byte	0
 1548 00f5 00       		.byte	0
 1549 00f6 13       		.uleb128 0x13
 1550 00f7 0F       		.uleb128 0xf
 1551 00f8 00       		.byte	0
 1552 00f9 0B       		.uleb128 0xb
 1553 00fa 0B       		.uleb128 0xb
 1554 00fb 49       		.uleb128 0x49
 1555 00fc 13       		.uleb128 0x13
 1556 00fd 00       		.byte	0
 1557 00fe 00       		.byte	0
 1558 00ff 14       		.uleb128 0x14
 1559 0100 26       		.uleb128 0x26
 1560 0101 00       		.byte	0
 1561 0102 49       		.uleb128 0x49
 1562 0103 13       		.uleb128 0x13
 1563 0104 00       		.byte	0
 1564 0105 00       		.byte	0
 1565 0106 15       		.uleb128 0x15
 1566 0107 01       		.uleb128 0x1
 1567 0108 01       		.byte	0x1
 1568 0109 49       		.uleb128 0x49
 1569 010a 13       		.uleb128 0x13
 1570 010b 00       		.byte	0
 1571 010c 00       		.byte	0
 1572 010d 00       		.byte	0
 1573              		.section	.debug_loc,"",%progbits
 1574              	.Ldebug_loc0:
 1575              	.LLST1:
 1576 0000 B0030000 		.4byte	.LFB1-.Ltext0
 1577 0004 B2030000 		.4byte	.LCFI3-.Ltext0
 1578 0008 0200     		.2byte	0x2
ARM GAS  C:\Users\embedded\AppData\Local\Temp\cc0YBWCk.s 			page 33


 1579 000a 7D       		.byte	0x7d
 1580 000b 00       		.sleb128 0
 1581 000c B2030000 		.4byte	.LCFI3-.Ltext0
 1582 0010 B4030000 		.4byte	.LCFI4-.Ltext0
 1583 0014 0200     		.2byte	0x2
 1584 0016 7D       		.byte	0x7d
 1585 0017 08       		.sleb128 8
 1586 0018 B4030000 		.4byte	.LCFI4-.Ltext0
 1587 001c B6030000 		.4byte	.LCFI5-.Ltext0
 1588 0020 0200     		.2byte	0x2
 1589 0022 7D       		.byte	0x7d
 1590 0023 18       		.sleb128 24
 1591 0024 B6030000 		.4byte	.LCFI5-.Ltext0
 1592 0028 7C050000 		.4byte	.LFE1-.Ltext0
 1593 002c 0200     		.2byte	0x2
 1594 002e 77       		.byte	0x77
 1595 002f 18       		.sleb128 24
 1596 0030 00000000 		.4byte	0
 1597 0034 00000000 		.4byte	0
 1598              	.LLST0:
 1599 0038 00000000 		.4byte	.LFB0-.Ltext0
 1600 003c 02000000 		.4byte	.LCFI0-.Ltext0
 1601 0040 0200     		.2byte	0x2
 1602 0042 7D       		.byte	0x7d
 1603 0043 00       		.sleb128 0
 1604 0044 02000000 		.4byte	.LCFI0-.Ltext0
 1605 0048 04000000 		.4byte	.LCFI1-.Ltext0
 1606 004c 0200     		.2byte	0x2
 1607 004e 7D       		.byte	0x7d
 1608 004f 10       		.sleb128 16
 1609 0050 04000000 		.4byte	.LCFI1-.Ltext0
 1610 0054 06000000 		.4byte	.LCFI2-.Ltext0
 1611 0058 0300     		.2byte	0x3
 1612 005a 7D       		.byte	0x7d
 1613 005b 9802     		.sleb128 280
 1614 005d 06000000 		.4byte	.LCFI2-.Ltext0
 1615 0061 B0030000 		.4byte	.LFE0-.Ltext0
 1616 0065 0300     		.2byte	0x3
 1617 0067 77       		.byte	0x77
 1618 0068 9802     		.sleb128 280
 1619 006a 00000000 		.4byte	0
 1620 006e 00000000 		.4byte	0
 1621              		.section	.debug_aranges,"",%progbits
 1622 0000 1C000000 		.4byte	0x1c
 1623 0004 0200     		.2byte	0x2
 1624 0006 00000000 		.4byte	.Ldebug_info0
 1625 000a 04       		.byte	0x4
 1626 000b 00       		.byte	0
 1627 000c 0000     		.2byte	0
 1628 000e 0000     		.2byte	0
 1629 0010 00000000 		.4byte	.Ltext0
 1630 0014 7C050000 		.4byte	.Letext0-.Ltext0
 1631 0018 00000000 		.4byte	0
 1632 001c 00000000 		.4byte	0
 1633              		.section	.debug_line,"",%progbits
 1634              	.Ldebug_line0:
 1635 0000 B3010000 		.section	.debug_str,"MS",%progbits,1
ARM GAS  C:\Users\embedded\AppData\Local\Temp\cc0YBWCk.s 			page 34


 1635      02003800 
 1635      00000201 
 1635      FB0E0D00 
 1635      01010101 
 1636              	.LASF9:
 1637 0000 6C6F6E67 		.ascii	"long long int\000"
 1637      206C6F6E 
 1637      6720696E 
 1637      7400
 1638              	.LASF12:
 1639 000e 66756C6C 		.ascii	"fullHourTable\000"
 1639      486F7572 
 1639      5461626C 
 1639      6500
 1640              	.LASF3:
 1641 001c 756E7369 		.ascii	"unsigned int\000"
 1641      676E6564 
 1641      20696E74 
 1641      00
 1642              	.LASF18:
 1643 0029 74657874 		.ascii	"textToBeWritten\000"
 1643      546F4265 
 1643      57726974 
 1643      74656E00 
 1644              	.LASF25:
 1645 0039 6D61696E 		.ascii	"main.c\000"
 1645      2E6300
 1646              	.LASF19:
 1647 0040 68756D69 		.ascii	"humidityValue\000"
 1647      64697479 
 1647      56616C75 
 1647      6500
 1648              	.LASF13:
 1649 004e 72657443 		.ascii	"retCode\000"
 1649      6F646500 
 1650              	.LASF21:
 1651 0056 73707269 		.ascii	"sprintf\000"
 1651      6E746600 
 1652              	.LASF10:
 1653 005e 46414C53 		.ascii	"FALSE\000"
 1653      4500
 1654              	.LASF4:
 1655 0064 74553634 		.ascii	"tU64\000"
 1655      00
 1656              	.LASF15:
 1657 0069 616D6F75 		.ascii	"amountOfLettersCopied\000"
 1657      6E744F66 
 1657      4C657474 
 1657      65727343 
 1657      6F706965 
 1658              	.LASF27:
 1659 007f 7072696E 		.ascii	"printCurrentTime\000"
 1659      74437572 
 1659      72656E74 
 1659      54696D65 
 1659      00
 1660              	.LASF5:
ARM GAS  C:\Users\embedded\AppData\Local\Temp\cc0YBWCk.s 			page 35


 1661 0090 6C6F6E67 		.ascii	"long long unsigned int\000"
 1661      206C6F6E 
 1661      6720756E 
 1661      7369676E 
 1661      65642069 
 1662              	.LASF1:
 1663 00a7 756E7369 		.ascii	"unsigned char\000"
 1663      676E6564 
 1663      20636861 
 1663      7200
 1664              	.LASF11:
 1665 00b5 54525545 		.ascii	"TRUE\000"
 1665      00
 1666              	.LASF28:
 1667 00ba 6D61696E 		.ascii	"main\000"
 1667      00
 1668              	.LASF14:
 1669 00bf 70636139 		.ascii	"pca9532Present\000"
 1669      35333250 
 1669      72657365 
 1669      6E7400
 1670              	.LASF24:
 1671 00ce 474E5520 		.ascii	"GNU C11 7.3.1 20180622 (release) [ARM/embedded-7-br"
 1671      43313120 
 1671      372E332E 
 1671      31203230 
 1671      31383036 
 1672 0101 616E6368 		.ascii	"anch revision 261907] -mcpu=arm7tdmi -mthumb -mthum"
 1672      20726576 
 1672      6973696F 
 1672      6E203236 
 1672      31393037 
 1673 0134 622D696E 		.ascii	"b-interwork -gdwarf-2 -O0\000"
 1673      74657277 
 1673      6F726B20 
 1673      2D676477 
 1673      6172662D 
 1674              	.LASF8:
 1675 014e 74533634 		.ascii	"tS64\000"
 1675      00
 1676              	.LASF20:
 1677 0153 62726967 		.ascii	"brightnessValue\000"
 1677      68746E65 
 1677      73735661 
 1677      6C756500 
 1678              	.LASF26:
 1679 0163 433A5C45 		.ascii	"C:\\Embedded\\2138MiniDemo\\2138\000"
 1679      6D626564 
 1679      6465645C 
 1679      32313338 
 1679      4D696E69 
 1680              	.LASF2:
 1681 0181 73686F72 		.ascii	"short unsigned int\000"
 1681      7420756E 
 1681      7369676E 
 1681      65642069 
 1681      6E7400
ARM GAS  C:\Users\embedded\AppData\Local\Temp\cc0YBWCk.s 			page 36


 1682              	.LASF6:
 1683 0194 7369676E 		.ascii	"signed char\000"
 1683      65642063 
 1683      68617200 
 1684              	.LASF16:
 1685 01a0 68656C70 		.ascii	"helperValue\000"
 1685      65725661 
 1685      6C756500 
 1686              	.LASF22:
 1687 01ac 70726573 		.ascii	"pressureValue\000"
 1687      73757265 
 1687      56616C75 
 1687      6500
 1688              	.LASF17:
 1689 01ba 63686172 		.ascii	"charArray\000"
 1689      41727261 
 1689      7900
 1690              	.LASF0:
 1691 01c4 74553136 		.ascii	"tU16\000"
 1691      00
 1692              	.LASF7:
 1693 01c9 73686F72 		.ascii	"short int\000"
 1693      7420696E 
 1693      7400
 1694              	.LASF23:
 1695 01d3 63686172 		.ascii	"char\000"
 1695      00
 1696              		.ident	"GCC: (GNU Tools for Arm Embedded Processors 7-2018-q2-update) 7.3.1 20180622 (release) [AR
ARM GAS  C:\Users\embedded\AppData\Local\Temp\cc0YBWCk.s 			page 37


DEFINED SYMBOLS
                            *ABS*:00000000 main.c
C:\Users\embedded\AppData\Local\Temp\cc0YBWCk.s:16     .rodata:00000000 $d
C:\Users\embedded\AppData\Local\Temp\cc0YBWCk.s:53     .text:00000000 main
C:\Users\embedded\AppData\Local\Temp\cc0YBWCk.s:61     .text:00000000 $t
C:\Users\embedded\AppData\Local\Temp\cc0YBWCk.s:610    .text:000003b0 printCurrentTime
C:\Users\embedded\AppData\Local\Temp\cc0YBWCk.s:583    .text:00000370 $d
C:\Users\embedded\AppData\Local\Temp\cc0YBWCk.s:603    .text:000003b0 $t
C:\Users\embedded\AppData\Local\Temp\cc0YBWCk.s:882    .text:00000560 $d

UNDEFINED SYMBOLS
i2cInit
pca9532Init
printf_init
lcdInit
lcdColor
lcdClrscr
memset
lcdGotoxy
lcdPuts
measureTemperature
manageLED
measureHumidity
sprintf
measureBrightness
measurePressure
memcpy
sdelay
__aeabi_uidiv
mdelay
