ARM GAS  C:\Users\embedded\AppData\Local\Temp\ccnMo3mE.s 			page 1


   1              		.cpu arm7tdmi
   2              		.eabi_attribute 20, 1
   3              		.eabi_attribute 21, 1
   4              		.eabi_attribute 23, 3
   5              		.eabi_attribute 24, 1
   6              		.eabi_attribute 25, 1
   7              		.eabi_attribute 26, 1
   8              		.eabi_attribute 30, 6
   9              		.eabi_attribute 34, 0
  10              		.eabi_attribute 18, 4
  11              		.file	"main.c"
  12              		.text
  13              	.Ltext0:
  14              		.cfi_sections	.debug_frame
  15              		.section	.rodata
  16              		.align	2
  17              	.LC6:
  18 0000 256400   		.ascii	"%d\000"
  19 0003 00       		.align	2
  20              	.LC0:
  21 0004 416B7475 		.ascii	"Aktualny czas: \000"
  21      616C6E79 
  21      20637A61 
  21      733A2000 
  22              		.align	2
  23              	.LC2:
  24 0014 506F6D69 		.ascii	"Pomiar\012temperatury: \000"
  24      61720A74 
  24      656D7065 
  24      72617475 
  24      72793A20 
  25 0029 000000   		.align	2
  26              	.LC4:
  27 002c 506F6D69 		.ascii	"Pomiar\012wilgotnosci: \000"
  27      61720A77 
  27      696C676F 
  27      746E6F73 
  27      63693A20 
  28 0041 000000   		.align	2
  29              	.LC8:
  30 0044 506F6D69 		.ascii	"Pomiar\012jasnosci: \000"
  30      61720A6A 
  30      61736E6F 
  30      7363693A 
  30      2000
  31 0056 0000     		.align	2
  32              	.LC10:
  33 0058 506F6D69 		.ascii	"Pomiar\012cisnienia: \000"
  33      61720A63 
  33      69736E69 
  33      656E6961 
  33      3A2000
  34 006b 00       		.align	2
  35              	.LC12:
  36 006c 53746163 		.ascii	"Stacja pogody.\012Wybor funkcji\012przy pomocy\012j"
  36      6A612070 
  36      6F676F64 
ARM GAS  C:\Users\embedded\AppData\Local\Temp\ccnMo3mE.s 			page 2


  36      792E0A57 
  36      79626F72 
  37 0096 6F797374 		.ascii	"oystick'a:\012L - temperatura\012R - jasnosc\012G -"
  37      69636B27 
  37      613A0A4C 
  37      202D2074 
  37      656D7065 
  38 00c0 2077696C 		.ascii	" wilgotnosc\012D - cisnienie\000"
  38      676F746E 
  38      6F73630A 
  38      44202D20 
  38      6369736E 
  39              		.text
  40              		.align	1
  41              		.global	main
  42              		.syntax unified
  43              		.code	16
  44              		.thumb_func
  45              		.fpu softvfp
  46              		.type	main, %function
  47              	main:
  48              	.LFB0:
  49              		.file 1 "main.c"
   1:main.c        **** #include "general.h"
   2:main.c        **** #include <lpc2xxx.h>
   3:main.c        **** #include <printf_P.h>
   4:main.c        **** #include <printf_init.h>
   5:main.c        **** #include <consol.h>
   6:main.c        **** #include <config.h>
   7:main.c        **** #include "i2c.h"
   8:main.c        **** 
   9:main.c        **** #include "lm75.h"
  10:main.c        **** #include "htu21df.h"
  11:main.c        **** #include "bmp180.h"
  12:main.c        **** #include "tsl2561.h"
  13:main.c        **** 
  14:main.c        **** #include "lcd.h"
  15:main.c        **** #include "pca9532.h"
  16:main.c        **** #include "additional.h"
  17:main.c        **** 
  18:main.c        **** #include "Common_Def.h"
  19:main.c        **** 
  20:main.c        **** void printCurrentTime(void);
  21:main.c        **** 
  22:main.c        **** int main(void)
  23:main.c        **** {
  50              		.loc 1 23 0
  51              		.cfi_startproc
  52              		@ Function supports interworking.
  53              		@ args = 0, pretend = 0, frame = 256
  54              		@ frame_needed = 1, uses_anonymous_args = 0
  55 0000 B0B5     		push	{r4, r5, r7, lr}
  56              	.LCFI0:
  57              		.cfi_def_cfa_offset 16
  58              		.cfi_offset 4, -16
  59              		.cfi_offset 5, -12
  60              		.cfi_offset 7, -8
ARM GAS  C:\Users\embedded\AppData\Local\Temp\ccnMo3mE.s 			page 3


  61              		.cfi_offset 14, -4
  62 0002 C0B0     		sub	sp, sp, #256
  63              	.LCFI1:
  64              		.cfi_def_cfa_offset 272
  65 0004 00AF     		add	r7, sp, #0
  66              	.LCFI2:
  67              		.cfi_def_cfa_register 7
  24:main.c        **** 	tS8 retCode = 0;
  68              		.loc 1 24 0
  69 0006 FF23     		movs	r3, #255
  70 0008 FB18     		adds	r3, r7, r3
  71 000a 0022     		movs	r2, #0
  72 000c 1A70     		strb	r2, [r3]
  25:main.c        **** 	tU8 pca9532Present = FALSE;
  73              		.loc 1 25 0
  74 000e FE25     		movs	r5, #254
  75 0010 7B19     		adds	r3, r7, r5
  76 0012 0022     		movs	r2, #0
  77 0014 1A70     		strb	r2, [r3]
  26:main.c        **** 	// Check if connection with PCA9532 is established
  27:main.c        **** 	i2cInit();
  78              		.loc 1 27 0
  79 0016 FFF7FEFF 		bl	i2cInit
  28:main.c        **** 	pca9532Present = pca9532Init();
  80              		.loc 1 28 0
  81 001a 7C19     		adds	r4, r7, r5
  82 001c FFF7FEFF 		bl	pca9532Init
  83 0020 0300     		movs	r3, r0
  84 0022 2370     		strb	r3, [r4]
  29:main.c        **** 	printf_init();
  85              		.loc 1 29 0
  86 0024 FFF7FEFF 		bl	printf_init
  30:main.c        **** 	if ((tU8)TRUE == pca9532Present)
  87              		.loc 1 30 0
  88 0028 7B19     		adds	r3, r7, r5
  89 002a 1B78     		ldrb	r3, [r3]
  90 002c 012B     		cmp	r3, #1
  91 002e 00D0     		beq	.LCB36
  92 0030 28E1     		b	.L2	@long jump
  93              	.LCB36:
  94              	.LBB2:
  31:main.c        **** 	{
  32:main.c        **** 		/*
  33:main.c        **** 			Inicjalizacja I2C
  34:main.c        **** 		*/
  35:main.c        **** 
  36:main.c        **** 		lcdInit();
  95              		.loc 1 36 0
  96 0032 FFF7FEFF 		bl	lcdInit
  37:main.c        **** 		lcdColor(0xff, 0x00);
  97              		.loc 1 37 0
  98 0036 0021     		movs	r1, #0
  99 0038 FF20     		movs	r0, #255
 100 003a FFF7FEFF 		bl	lcdColor
  38:main.c        **** 		lcdClrscr();
 101              		.loc 1 38 0
 102 003e FFF7FEFF 		bl	lcdClrscr
ARM GAS  C:\Users\embedded\AppData\Local\Temp\ccnMo3mE.s 			page 4


  39:main.c        **** 
  40:main.c        **** 		/*
  41:main.c        **** 			Main loop containg enitre program logic. With every iteration, joystick position is checked
  42:main.c        **** 			and based on that, appropriate measurement value.
  43:main.c        **** 		*/
  44:main.c        **** 		
  45:main.c        **** 		// Address of the LM75 thermometer, when not soldered. 
  46:main.c        **** 		// tU8 lm75Address = 0x9F;
  47:main.c        **** 		// Address of the LM75 thermometer, when soldered.
  48:main.c        **** 		tU8 charArray[10] = {0};
 103              		.loc 1 48 0
 104 0042 DC23     		movs	r3, #220
 105 0044 FB18     		adds	r3, r7, r3
 106 0046 1800     		movs	r0, r3
 107 0048 0A23     		movs	r3, #10
 108 004a 1A00     		movs	r2, r3
 109 004c 0021     		movs	r1, #0
 110 004e FFF7FEFF 		bl	memset
  49:main.c        **** 		tU8 amountOfLettersCopied = 0;
 111              		.loc 1 49 0
 112 0052 FD23     		movs	r3, #253
 113 0054 FB18     		adds	r3, r7, r3
 114 0056 0022     		movs	r2, #0
 115 0058 1A70     		strb	r2, [r3]
  50:main.c        **** 
  51:main.c        **** 		tU8 helperValue = (tU8)1;
 116              		.loc 1 51 0
 117 005a FC23     		movs	r3, #252
 118 005c FB18     		adds	r3, r7, r3
 119 005e 0122     		movs	r2, #1
 120 0060 1A70     		strb	r2, [r3]
  52:main.c        **** 		while (helperValue == (tU8)TRUE)
 121              		.loc 1 52 0
 122 0062 09E1     		b	.L3
 123              	.L10:
  53:main.c        **** 		{
  54:main.c        **** 			if ((IOPIN & 0x00000100) == 0)
 124              		.loc 1 54 0
 125 0064 8B4B     		ldr	r3, .L12
 126 0066 1A68     		ldr	r2, [r3]
 127 0068 8023     		movs	r3, #128
 128 006a 5B00     		lsls	r3, r3, #1
 129 006c 1340     		ands	r3, r2
 130 006e 15D1     		bne	.L4
 131              	.LBB3:
  55:main.c        **** 			{
  56:main.c        **** 				// Key P0.8 center-key is pressed
  57:main.c        **** 				lcdGotoxy(0, 0);
 132              		.loc 1 57 0
 133 0070 0021     		movs	r1, #0
 134 0072 0020     		movs	r0, #0
 135 0074 FFF7FEFF 		bl	lcdGotoxy
  58:main.c        **** 				tU8 textToBeWritten[] = "Aktualny czas: ";
 136              		.loc 1 58 0
 137 0078 CC21     		movs	r1, #204
 138 007a 7B18     		adds	r3, r7, r1
 139 007c 864A     		ldr	r2, .L12+4
ARM GAS  C:\Users\embedded\AppData\Local\Temp\ccnMo3mE.s 			page 5


 140 007e 31CA     		ldmia	r2!, {r0, r4, r5}
 141 0080 31C3     		stmia	r3!, {r0, r4, r5}
 142 0082 1268     		ldr	r2, [r2]
 143 0084 1A60     		str	r2, [r3]
  59:main.c        **** 				lcdPuts(textToBeWritten);
 144              		.loc 1 59 0
 145 0086 7B18     		adds	r3, r7, r1
 146 0088 1800     		movs	r0, r3
 147 008a FFF7FEFF 		bl	lcdPuts
  60:main.c        **** 				lcdGotoxy(0, 15);
 148              		.loc 1 60 0
 149 008e 0F21     		movs	r1, #15
 150 0090 0020     		movs	r0, #0
 151 0092 FFF7FEFF 		bl	lcdGotoxy
  61:main.c        **** 			 	printCurrentTime();
 152              		.loc 1 61 0
 153 0096 FFF7FEFF 		bl	printCurrentTime
 154              	.LBE3:
 155 009a E8E0     		b	.L5
 156              	.L4:
  62:main.c        **** 			}
  63:main.c        **** 			else if ((IOPIN & 0x00000200) == 0)
 157              		.loc 1 63 0
 158 009c 7D4B     		ldr	r3, .L12
 159 009e 1A68     		ldr	r2, [r3]
 160 00a0 8023     		movs	r3, #128
 161 00a2 9B00     		lsls	r3, r3, #2
 162 00a4 1340     		ands	r3, r2
 163 00a6 1DD1     		bne	.L6
 164              	.LBB4:
  64:main.c        **** 			{
  65:main.c        **** 				// Key P0.9 left-key is pressed
  66:main.c        **** 				lcdGotoxy(0, 0);
 165              		.loc 1 66 0
 166 00a8 0021     		movs	r1, #0
 167 00aa 0020     		movs	r0, #0
 168 00ac FFF7FEFF 		bl	lcdGotoxy
  67:main.c        **** 				tU8 textToBeWritten[] = "Pomiar\ntemperatury: ";
 169              		.loc 1 67 0
 170 00b0 B421     		movs	r1, #180
 171 00b2 7B18     		adds	r3, r7, r1
 172 00b4 794A     		ldr	r2, .L12+8
 173 00b6 31CA     		ldmia	r2!, {r0, r4, r5}
 174 00b8 31C3     		stmia	r3!, {r0, r4, r5}
 175 00ba 11CA     		ldmia	r2!, {r0, r4}
 176 00bc 11C3     		stmia	r3!, {r0, r4}
 177 00be 1278     		ldrb	r2, [r2]
 178 00c0 1A70     		strb	r2, [r3]
  68:main.c        **** 				lcdPuts(textToBeWritten);
 179              		.loc 1 68 0
 180 00c2 7B18     		adds	r3, r7, r1
 181 00c4 1800     		movs	r0, r3
 182 00c6 FFF7FEFF 		bl	lcdPuts
  69:main.c        **** 				lcdGotoxy(0, 30);
 183              		.loc 1 69 0
 184 00ca 1E21     		movs	r1, #30
 185 00cc 0020     		movs	r0, #0
ARM GAS  C:\Users\embedded\AppData\Local\Temp\ccnMo3mE.s 			page 6


 186 00ce FFF7FEFF 		bl	lcdGotoxy
  70:main.c        **** 				measureTemperature();
 187              		.loc 1 70 0
 188 00d2 FFF7FEFF 		bl	measureTemperature
  71:main.c        **** 				manageLED(pca9532Present);
 189              		.loc 1 71 0
 190 00d6 FE23     		movs	r3, #254
 191 00d8 FB18     		adds	r3, r7, r3
 192 00da 1B78     		ldrb	r3, [r3]
 193 00dc 1800     		movs	r0, r3
 194 00de FFF7FEFF 		bl	manageLED
 195              	.LBE4:
 196 00e2 C4E0     		b	.L5
 197              	.L6:
  72:main.c        **** 			}
  73:main.c        **** 			else if ((IOPIN & 0x00000400) == 0)
 198              		.loc 1 73 0
 199 00e4 6B4B     		ldr	r3, .L12
 200 00e6 1A68     		ldr	r2, [r3]
 201 00e8 8023     		movs	r3, #128
 202 00ea DB00     		lsls	r3, r3, #3
 203 00ec 1340     		ands	r3, r2
 204 00ee 32D1     		bne	.L7
 205              	.LBB5:
  74:main.c        **** 			{
  75:main.c        **** 				// Key P0.10 up-key is pressed
  76:main.c        **** 				lcdGotoxy(0, 0);
 206              		.loc 1 76 0
 207 00f0 0021     		movs	r1, #0
 208 00f2 0020     		movs	r0, #0
 209 00f4 FFF7FEFF 		bl	lcdGotoxy
  77:main.c        **** 				tU8 textToBeWritten[] = "Pomiar\nwilgotnosci: ";
 210              		.loc 1 77 0
 211 00f8 9C21     		movs	r1, #156
 212 00fa 7B18     		adds	r3, r7, r1
 213 00fc 684A     		ldr	r2, .L12+12
 214 00fe 31CA     		ldmia	r2!, {r0, r4, r5}
 215 0100 31C3     		stmia	r3!, {r0, r4, r5}
 216 0102 11CA     		ldmia	r2!, {r0, r4}
 217 0104 11C3     		stmia	r3!, {r0, r4}
 218 0106 1278     		ldrb	r2, [r2]
 219 0108 1A70     		strb	r2, [r3]
  78:main.c        **** 				lcdPuts(textToBeWritten);
 220              		.loc 1 78 0
 221 010a 7B18     		adds	r3, r7, r1
 222 010c 1800     		movs	r0, r3
 223 010e FFF7FEFF 		bl	lcdPuts
  79:main.c        **** 				tU16 humidityValue = measureHumidity();
 224              		.loc 1 79 0
 225 0112 FFF7FEFF 		bl	measureHumidity
 226 0116 0300     		movs	r3, r0
 227 0118 1A00     		movs	r2, r3
 228 011a E621     		movs	r1, #230
 229 011c 7B18     		adds	r3, r7, r1
 230 011e 1A80     		strh	r2, [r3]
  80:main.c        **** 				retCode = sprintf(charArray, "%d", humidityValue);
 231              		.loc 1 80 0
ARM GAS  C:\Users\embedded\AppData\Local\Temp\ccnMo3mE.s 			page 7


 232 0120 7B18     		adds	r3, r7, r1
 233 0122 1A88     		ldrh	r2, [r3]
 234 0124 5F49     		ldr	r1, .L12+16
 235 0126 DC24     		movs	r4, #220
 236 0128 3B19     		adds	r3, r7, r4
 237 012a 1800     		movs	r0, r3
 238 012c FFF7FEFF 		bl	sprintf
 239 0130 0200     		movs	r2, r0
 240 0132 FF23     		movs	r3, #255
 241 0134 FB18     		adds	r3, r7, r3
 242 0136 1A70     		strb	r2, [r3]
  81:main.c        **** 				lcdGotoxy(0, 30);
 243              		.loc 1 81 0
 244 0138 1E21     		movs	r1, #30
 245 013a 0020     		movs	r0, #0
 246 013c FFF7FEFF 		bl	lcdGotoxy
  82:main.c        **** 				lcdPuts(charArray);
 247              		.loc 1 82 0
 248 0140 3B19     		adds	r3, r7, r4
 249 0142 1800     		movs	r0, r3
 250 0144 FFF7FEFF 		bl	lcdPuts
  83:main.c        **** 				manageLED(pca9532Present);
 251              		.loc 1 83 0
 252 0148 FE23     		movs	r3, #254
 253 014a FB18     		adds	r3, r7, r3
 254 014c 1B78     		ldrb	r3, [r3]
 255 014e 1800     		movs	r0, r3
 256 0150 FFF7FEFF 		bl	manageLED
 257              	.LBE5:
 258 0154 8BE0     		b	.L5
 259              	.L7:
  84:main.c        **** 			}
  85:main.c        **** 			else if ((IOPIN & 0x00000800) == 0)
 260              		.loc 1 85 0
 261 0156 4F4B     		ldr	r3, .L12
 262 0158 1A68     		ldr	r2, [r3]
 263 015a 8023     		movs	r3, #128
 264 015c 1B01     		lsls	r3, r3, #4
 265 015e 1340     		ands	r3, r2
 266 0160 35D1     		bne	.L8
 267              	.LBB6:
  86:main.c        **** 			{
  87:main.c        **** 				// Key P0.11 right-key is pressed
  88:main.c        **** 				lcdGotoxy(0, 0);
 268              		.loc 1 88 0
 269 0162 0021     		movs	r1, #0
 270 0164 0020     		movs	r0, #0
 271 0166 FFF7FEFF 		bl	lcdGotoxy
  89:main.c        **** 				tU8 textToBeWritten[] = "Pomiar\njasnosci: ";
 272              		.loc 1 89 0
 273 016a 8820     		movs	r0, #136
 274 016c 3B18     		adds	r3, r7, r0
 275 016e 4E4A     		ldr	r2, .L12+20
 276 0170 32CA     		ldmia	r2!, {r1, r4, r5}
 277 0172 32C3     		stmia	r3!, {r1, r4, r5}
 278 0174 1168     		ldr	r1, [r2]
 279 0176 1960     		str	r1, [r3]
ARM GAS  C:\Users\embedded\AppData\Local\Temp\ccnMo3mE.s 			page 8


 280 0178 9288     		ldrh	r2, [r2, #4]
 281 017a 9A80     		strh	r2, [r3, #4]
  90:main.c        **** 				lcdPuts(textToBeWritten);
 282              		.loc 1 90 0
 283 017c 3B18     		adds	r3, r7, r0
 284 017e 1800     		movs	r0, r3
 285 0180 FFF7FEFF 		bl	lcdPuts
  91:main.c        **** 				tU64 brightnessValue = measureBrightness();
 286              		.loc 1 91 0
 287 0184 FFF7FEFF 		bl	measureBrightness
 288 0188 0300     		movs	r3, r0
 289 018a 0C00     		movs	r4, r1
 290 018c E822     		movs	r2, #232
 291 018e B918     		adds	r1, r7, r2
 292 0190 0B60     		str	r3, [r1]
 293 0192 4C60     		str	r4, [r1, #4]
  92:main.c        **** 				retCode = sprintf(charArray, "%d", brightnessValue);
 294              		.loc 1 92 0
 295 0194 BB18     		adds	r3, r7, r2
 296 0196 5C68     		ldr	r4, [r3, #4]
 297 0198 1B68     		ldr	r3, [r3]
 298 019a 4249     		ldr	r1, .L12+16
 299 019c DC25     		movs	r5, #220
 300 019e 7819     		adds	r0, r7, r5
 301 01a0 1A00     		movs	r2, r3
 302 01a2 2300     		movs	r3, r4
 303 01a4 FFF7FEFF 		bl	sprintf
 304 01a8 0200     		movs	r2, r0
 305 01aa FF23     		movs	r3, #255
 306 01ac FB18     		adds	r3, r7, r3
 307 01ae 1A70     		strb	r2, [r3]
  93:main.c        **** 				lcdGotoxy(0, 30);
 308              		.loc 1 93 0
 309 01b0 1E21     		movs	r1, #30
 310 01b2 0020     		movs	r0, #0
 311 01b4 FFF7FEFF 		bl	lcdGotoxy
  94:main.c        **** 				lcdPuts(charArray);
 312              		.loc 1 94 0
 313 01b8 7B19     		adds	r3, r7, r5
 314 01ba 1800     		movs	r0, r3
 315 01bc FFF7FEFF 		bl	lcdPuts
  95:main.c        **** 				manageLED(pca9532Present);
 316              		.loc 1 95 0
 317 01c0 FE23     		movs	r3, #254
 318 01c2 FB18     		adds	r3, r7, r3
 319 01c4 1B78     		ldrb	r3, [r3]
 320 01c6 1800     		movs	r0, r3
 321 01c8 FFF7FEFF 		bl	manageLED
 322              	.LBE6:
 323 01cc 4FE0     		b	.L5
 324              	.L8:
  96:main.c        **** 			}
  97:main.c        **** 			else if ((IOPIN & 0x00001000) == 0)
 325              		.loc 1 97 0
 326 01ce 314B     		ldr	r3, .L12
 327 01d0 1A68     		ldr	r2, [r3]
 328 01d2 8023     		movs	r3, #128
ARM GAS  C:\Users\embedded\AppData\Local\Temp\ccnMo3mE.s 			page 9


 329 01d4 5B01     		lsls	r3, r3, #5
 330 01d6 1340     		ands	r3, r2
 331 01d8 39D1     		bne	.L9
 332              	.LBB7:
  98:main.c        **** 			{
  99:main.c        **** 				// Key P0.12 down-key is pressed
 100:main.c        **** 				lcdGotoxy(0, 0);
 333              		.loc 1 100 0
 334 01da 0021     		movs	r1, #0
 335 01dc 0020     		movs	r0, #0
 336 01de FFF7FEFF 		bl	lcdGotoxy
 101:main.c        **** 				tU8 textToBeWritten[] = "Pomiar\ncisnienia: ";
 337              		.loc 1 101 0
 338 01e2 7420     		movs	r0, #116
 339 01e4 3B18     		adds	r3, r7, r0
 340 01e6 314A     		ldr	r2, .L12+24
 341 01e8 32CA     		ldmia	r2!, {r1, r4, r5}
 342 01ea 32C3     		stmia	r3!, {r1, r4, r5}
 343 01ec 1168     		ldr	r1, [r2]
 344 01ee 1960     		str	r1, [r3]
 345 01f0 9188     		ldrh	r1, [r2, #4]
 346 01f2 9980     		strh	r1, [r3, #4]
 347 01f4 9279     		ldrb	r2, [r2, #6]
 348 01f6 9A71     		strb	r2, [r3, #6]
 102:main.c        **** 				lcdPuts(textToBeWritten);
 349              		.loc 1 102 0
 350 01f8 3B18     		adds	r3, r7, r0
 351 01fa 1800     		movs	r0, r3
 352 01fc FFF7FEFF 		bl	lcdPuts
 103:main.c        **** 				tS64 pressureValue = measurePressure();
 353              		.loc 1 103 0
 354 0200 FFF7FEFF 		bl	measurePressure
 355 0204 0300     		movs	r3, r0
 356 0206 F022     		movs	r2, #240
 357 0208 B918     		adds	r1, r7, r2
 358 020a 0B60     		str	r3, [r1]
 359 020c DB17     		asrs	r3, r3, #31
 360 020e F421     		movs	r1, #244
 361 0210 7918     		adds	r1, r7, r1
 362 0212 0B60     		str	r3, [r1]
 104:main.c        **** 				retCode = sprintf(charArray, "%d", pressureValue);
 363              		.loc 1 104 0
 364 0214 BB18     		adds	r3, r7, r2
 365 0216 5C68     		ldr	r4, [r3, #4]
 366 0218 1B68     		ldr	r3, [r3]
 367 021a 2249     		ldr	r1, .L12+16
 368 021c DC25     		movs	r5, #220
 369 021e 7819     		adds	r0, r7, r5
 370 0220 1A00     		movs	r2, r3
 371 0222 2300     		movs	r3, r4
 372 0224 FFF7FEFF 		bl	sprintf
 373 0228 0200     		movs	r2, r0
 374 022a FF23     		movs	r3, #255
 375 022c FB18     		adds	r3, r7, r3
 376 022e 1A70     		strb	r2, [r3]
 105:main.c        **** 				lcdGotoxy(0, 30);
 377              		.loc 1 105 0
ARM GAS  C:\Users\embedded\AppData\Local\Temp\ccnMo3mE.s 			page 10


 378 0230 1E21     		movs	r1, #30
 379 0232 0020     		movs	r0, #0
 380 0234 FFF7FEFF 		bl	lcdGotoxy
 106:main.c        **** 				lcdPuts(charArray);
 381              		.loc 1 106 0
 382 0238 7B19     		adds	r3, r7, r5
 383 023a 1800     		movs	r0, r3
 384 023c FFF7FEFF 		bl	lcdPuts
 107:main.c        **** 				manageLED(pca9532Present);
 385              		.loc 1 107 0
 386 0240 FE23     		movs	r3, #254
 387 0242 FB18     		adds	r3, r7, r3
 388 0244 1B78     		ldrb	r3, [r3]
 389 0246 1800     		movs	r0, r3
 390 0248 FFF7FEFF 		bl	manageLED
 391              	.LBE7:
 392 024c 0FE0     		b	.L5
 393              	.L9:
 394              	.LBB8:
 108:main.c        **** 			}
 109:main.c        **** 			else
 110:main.c        **** 			{
 111:main.c        **** 				// Joystick is not pressed at all.
 112:main.c        **** 				lcdGotoxy(0, 0);
 395              		.loc 1 112 0
 396 024e 0021     		movs	r1, #0
 397 0250 0020     		movs	r0, #0
 398 0252 FFF7FEFF 		bl	lcdGotoxy
 113:main.c        **** 				tU8 textToBeWritten[] = "Stacja pogody.\nWybor funkcji\nprzy pomocy\njoystick'a:\nL - temperatu
 399              		.loc 1 113 0
 400 0256 3A1D     		adds	r2, r7, #4
 401 0258 154B     		ldr	r3, .L12+28
 402 025a 1000     		movs	r0, r2
 403 025c 1900     		movs	r1, r3
 404 025e 6E23     		movs	r3, #110
 405 0260 1A00     		movs	r2, r3
 406 0262 FFF7FEFF 		bl	memcpy
 114:main.c        **** 				lcdPuts(textToBeWritten);
 407              		.loc 1 114 0
 408 0266 3B1D     		adds	r3, r7, #4
 409 0268 1800     		movs	r0, r3
 410 026a FFF7FEFF 		bl	lcdPuts
 411              	.L5:
 412              	.LBE8:
 115:main.c        **** 			}
 116:main.c        **** 			sdelay(1);
 413              		.loc 1 116 0
 414 026e 0120     		movs	r0, #1
 415 0270 FFF7FEFF 		bl	sdelay
 117:main.c        **** 			lcdClrscr();
 416              		.loc 1 117 0
 417 0274 FFF7FEFF 		bl	lcdClrscr
 418              	.L3:
  52:main.c        **** 		{
 419              		.loc 1 52 0
 420 0278 FC23     		movs	r3, #252
 421 027a FB18     		adds	r3, r7, r3
ARM GAS  C:\Users\embedded\AppData\Local\Temp\ccnMo3mE.s 			page 11


 422 027c 1B78     		ldrb	r3, [r3]
 423 027e 012B     		cmp	r3, #1
 424 0280 00D1     		bne	.LCB334
 425 0282 EFE6     		b	.L10	@long jump
 426              	.LCB334:
 427              	.L2:
 428              	.LBE2:
 429 0284 0023     		movs	r3, #0
 118:main.c        **** 		}
 119:main.c        **** 	}
 120:main.c        **** }
 430              		.loc 1 120 0
 431 0286 1800     		movs	r0, r3
 432 0288 BD46     		mov	sp, r7
 433 028a 40B0     		add	sp, sp, #256
 434              		@ sp needed
 435 028c B0BC     		pop	{r4, r5, r7}
 436 028e 02BC     		pop	{r1}
 437 0290 0847     		bx	r1
 438              	.L13:
 439 0292 C046     		.align	2
 440              	.L12:
 441 0294 008002E0 		.word	-536707072
 442 0298 04000000 		.word	.LC0
 443 029c 14000000 		.word	.LC2
 444 02a0 2C000000 		.word	.LC4
 445 02a4 00000000 		.word	.LC6
 446 02a8 44000000 		.word	.LC8
 447 02ac 58000000 		.word	.LC10
 448 02b0 6C000000 		.word	.LC12
 449              		.cfi_endproc
 450              	.LFE0:
 451              		.size	main, .-main
 452              		.global	__aeabi_uidiv
 453              		.align	1
 454              		.global	printCurrentTime
 455              		.syntax unified
 456              		.code	16
 457              		.thumb_func
 458              		.fpu softvfp
 459              		.type	printCurrentTime, %function
 460              	printCurrentTime:
 461              	.LFB1:
 121:main.c        **** 
 122:main.c        **** /*
 123:main.c        ****  * @brief   Funkcja printCurrentTime() służy do wyświetlenia aktualnego czasu względem zegara
 124:main.c        ****  * 			czasu rzeczywistego (RTC) w formacie HH:MM:SS (gdzie H - oznacza godzinę, M - minutę,
 125:main.c        ****  *			a S - sekundę).
 126:main.c        ****  *
 127:main.c        ****  * @param   void
 128:main.c        ****  *
 129:main.c        ****  * @returns void
 130:main.c        ****  *
 131:main.c        ****  * @side effects:
 132:main.c        ****  *          Wyświetlany czas jest zależy od wartości inicjalizującej zegar czasu reczywistego (
 133:main.c        ****  * 			gdzie w tym przypadku nie jest on inicjalizowany.
 134:main.c        ****  */
ARM GAS  C:\Users\embedded\AppData\Local\Temp\ccnMo3mE.s 			page 12


 135:main.c        **** 
 136:main.c        **** void printCurrentTime(void)
 137:main.c        **** {
 462              		.loc 1 137 0
 463              		.cfi_startproc
 464              		@ Function supports interworking.
 465              		@ args = 0, pretend = 0, frame = 16
 466              		@ frame_needed = 1, uses_anonymous_args = 0
 467 02b4 80B5     		push	{r7, lr}
 468              	.LCFI3:
 469              		.cfi_def_cfa_offset 8
 470              		.cfi_offset 7, -8
 471              		.cfi_offset 14, -4
 472 02b6 84B0     		sub	sp, sp, #16
 473              	.LCFI4:
 474              		.cfi_def_cfa_offset 24
 475 02b8 00AF     		add	r7, sp, #0
 476              	.LCFI5:
 477              		.cfi_def_cfa_register 7
 138:main.c        **** 	// TODO: Write comments to below code
 139:main.c        **** 	RTC_CCR = 0x00000010;
 478              		.loc 1 139 0
 479 02ba 6A4B     		ldr	r3, .L21
 480 02bc 1022     		movs	r2, #16
 481 02be 1A60     		str	r2, [r3]
 140:main.c        **** 	RTC_ILR = 0x00000000;
 482              		.loc 1 140 0
 483 02c0 694B     		ldr	r3, .L21+4
 484 02c2 0022     		movs	r2, #0
 485 02c4 1A60     		str	r2, [r3]
 141:main.c        **** 	RTC_CIIR = 0x00000000;
 486              		.loc 1 141 0
 487 02c6 694B     		ldr	r3, .L21+8
 488 02c8 0022     		movs	r2, #0
 489 02ca 1A60     		str	r2, [r3]
 142:main.c        **** 	RTC_AMR = 0x00000000;
 490              		.loc 1 142 0
 491 02cc 684B     		ldr	r3, .L21+12
 492 02ce 0022     		movs	r2, #0
 493 02d0 1A60     		str	r2, [r3]
 143:main.c        **** 	mdelay(100);
 494              		.loc 1 143 0
 495 02d2 6420     		movs	r0, #100
 496 02d4 FFF7FEFF 		bl	mdelay
 144:main.c        **** 	RTC_CCR = 0x00000011;
 497              		.loc 1 144 0
 498 02d8 624B     		ldr	r3, .L21
 499 02da 1122     		movs	r2, #17
 500 02dc 1A60     		str	r2, [r3]
 145:main.c        **** 	// Till here
 146:main.c        **** 
 147:main.c        **** 	tU8 fullHourTable[9] = {0};
 501              		.loc 1 147 0
 502 02de 3B1D     		adds	r3, r7, #4
 503 02e0 1800     		movs	r0, r3
 504 02e2 0923     		movs	r3, #9
 505 02e4 1A00     		movs	r2, r3
ARM GAS  C:\Users\embedded\AppData\Local\Temp\ccnMo3mE.s 			page 13


 506 02e6 0021     		movs	r1, #0
 507 02e8 FFF7FEFF 		bl	memset
 148:main.c        **** 	fullHourTable[2] = ':';
 508              		.loc 1 148 0
 509 02ec 3B1D     		adds	r3, r7, #4
 510 02ee 3A22     		movs	r2, #58
 511 02f0 9A70     		strb	r2, [r3, #2]
 149:main.c        **** 	fullHourTable[5] = ':';
 512              		.loc 1 149 0
 513 02f2 3B1D     		adds	r3, r7, #4
 514 02f4 3A22     		movs	r2, #58
 515 02f6 5A71     		strb	r2, [r3, #5]
 150:main.c        **** 	if (RTC_SEC < 10) {
 516              		.loc 1 150 0
 517 02f8 5E4B     		ldr	r3, .L21+16
 518 02fa 1B68     		ldr	r3, [r3]
 519 02fc 092B     		cmp	r3, #9
 520 02fe 0CD8     		bhi	.L15
 151:main.c        **** 		fullHourTable[6] = (tU8)0x30; 				// Ascii code for '0'.
 521              		.loc 1 151 0
 522 0300 3B1D     		adds	r3, r7, #4
 523 0302 3022     		movs	r2, #48
 524 0304 9A71     		strb	r2, [r3, #6]
 152:main.c        **** 		fullHourTable[7] = RTC_SEC + (tU8)0x30; 	// Ascii code for '0'.
 525              		.loc 1 152 0
 526 0306 5B4B     		ldr	r3, .L21+16
 527 0308 1B68     		ldr	r3, [r3]
 528 030a 1B06     		lsls	r3, r3, #24
 529 030c 1B0E     		lsrs	r3, r3, #24
 530 030e 3033     		adds	r3, r3, #48
 531 0310 1B06     		lsls	r3, r3, #24
 532 0312 1A0E     		lsrs	r2, r3, #24
 533 0314 3B1D     		adds	r3, r7, #4
 534 0316 DA71     		strb	r2, [r3, #7]
 535 0318 27E0     		b	.L16
 536              	.L15:
 537              	.LBB9:
 153:main.c        **** 	} else {
 154:main.c        **** 		tU8 div = RTC_SEC / 10;
 538              		.loc 1 154 0
 539 031a 564B     		ldr	r3, .L21+16
 540 031c 1B68     		ldr	r3, [r3]
 541 031e 0A21     		movs	r1, #10
 542 0320 1800     		movs	r0, r3
 543 0322 FFF7FEFF 		bl	__aeabi_uidiv
 544              	.LVL0:
 545 0326 0300     		movs	r3, r0
 546 0328 1A00     		movs	r2, r3
 547 032a 0F21     		movs	r1, #15
 548 032c 7B18     		adds	r3, r7, r1
 549 032e 1A70     		strb	r2, [r3]
 155:main.c        **** 		fullHourTable[6] = div + (tU8)0x30;
 550              		.loc 1 155 0
 551 0330 7B18     		adds	r3, r7, r1
 552 0332 1B78     		ldrb	r3, [r3]
 553 0334 3033     		adds	r3, r3, #48
 554 0336 1B06     		lsls	r3, r3, #24
ARM GAS  C:\Users\embedded\AppData\Local\Temp\ccnMo3mE.s 			page 14


 555 0338 1A0E     		lsrs	r2, r3, #24
 556 033a 3B1D     		adds	r3, r7, #4
 557 033c 9A71     		strb	r2, [r3, #6]
 156:main.c        **** 		fullHourTable[7] = ((tU8)RTC_SEC - (div * (tU8)10)) + (tU8)0x30;
 558              		.loc 1 156 0
 559 033e 4D4B     		ldr	r3, .L21+16
 560 0340 1B68     		ldr	r3, [r3]
 561 0342 1B06     		lsls	r3, r3, #24
 562 0344 1A0E     		lsrs	r2, r3, #24
 563 0346 7B18     		adds	r3, r7, r1
 564 0348 1B78     		ldrb	r3, [r3]
 565 034a 191C     		adds	r1, r3, #0
 566 034c 4901     		lsls	r1, r1, #5
 567 034e C91A     		subs	r1, r1, r3
 568 0350 8900     		lsls	r1, r1, #2
 569 0352 CB1A     		subs	r3, r1, r3
 570 0354 DB18     		adds	r3, r3, r3
 571 0356 1B06     		lsls	r3, r3, #24
 572 0358 1B0E     		lsrs	r3, r3, #24
 573 035a D318     		adds	r3, r2, r3
 574 035c 1B06     		lsls	r3, r3, #24
 575 035e 1B0E     		lsrs	r3, r3, #24
 576 0360 3033     		adds	r3, r3, #48
 577 0362 1B06     		lsls	r3, r3, #24
 578 0364 1A0E     		lsrs	r2, r3, #24
 579 0366 3B1D     		adds	r3, r7, #4
 580 0368 DA71     		strb	r2, [r3, #7]
 581              	.L16:
 582              	.LBE9:
 157:main.c        **** 	}
 158:main.c        **** 	
 159:main.c        **** 	if (RTC_MIN < 10) {
 583              		.loc 1 159 0
 584 036a 434B     		ldr	r3, .L21+20
 585 036c 1B68     		ldr	r3, [r3]
 586 036e 092B     		cmp	r3, #9
 587 0370 0CD8     		bhi	.L17
 160:main.c        **** 		fullHourTable[3] = (tU8)0x30;				// Ascii code for '0'.
 588              		.loc 1 160 0
 589 0372 3B1D     		adds	r3, r7, #4
 590 0374 3022     		movs	r2, #48
 591 0376 DA70     		strb	r2, [r3, #3]
 161:main.c        **** 		fullHourTable[4] = RTC_MIN + (tU8)0x30;		// Ascii code for '0'.
 592              		.loc 1 161 0
 593 0378 3F4B     		ldr	r3, .L21+20
 594 037a 1B68     		ldr	r3, [r3]
 595 037c 1B06     		lsls	r3, r3, #24
 596 037e 1B0E     		lsrs	r3, r3, #24
 597 0380 3033     		adds	r3, r3, #48
 598 0382 1B06     		lsls	r3, r3, #24
 599 0384 1A0E     		lsrs	r2, r3, #24
 600 0386 3B1D     		adds	r3, r7, #4
 601 0388 1A71     		strb	r2, [r3, #4]
 602 038a 27E0     		b	.L18
 603              	.L17:
 604              	.LBB10:
 162:main.c        **** 	} else {
ARM GAS  C:\Users\embedded\AppData\Local\Temp\ccnMo3mE.s 			page 15


 163:main.c        **** 		tU8 div = RTC_MIN / 10;
 605              		.loc 1 163 0
 606 038c 3A4B     		ldr	r3, .L21+20
 607 038e 1B68     		ldr	r3, [r3]
 608 0390 0A21     		movs	r1, #10
 609 0392 1800     		movs	r0, r3
 610 0394 FFF7FEFF 		bl	__aeabi_uidiv
 611              	.LVL1:
 612 0398 0300     		movs	r3, r0
 613 039a 1A00     		movs	r2, r3
 614 039c 0E21     		movs	r1, #14
 615 039e 7B18     		adds	r3, r7, r1
 616 03a0 1A70     		strb	r2, [r3]
 164:main.c        **** 		fullHourTable[3] = div + (tU8)0x30;
 617              		.loc 1 164 0
 618 03a2 7B18     		adds	r3, r7, r1
 619 03a4 1B78     		ldrb	r3, [r3]
 620 03a6 3033     		adds	r3, r3, #48
 621 03a8 1B06     		lsls	r3, r3, #24
 622 03aa 1A0E     		lsrs	r2, r3, #24
 623 03ac 3B1D     		adds	r3, r7, #4
 624 03ae DA70     		strb	r2, [r3, #3]
 165:main.c        **** 		fullHourTable[4] = ((tU8)RTC_MIN - (div * (tU8)10)) + (tU8)0x30;
 625              		.loc 1 165 0
 626 03b0 314B     		ldr	r3, .L21+20
 627 03b2 1B68     		ldr	r3, [r3]
 628 03b4 1B06     		lsls	r3, r3, #24
 629 03b6 1A0E     		lsrs	r2, r3, #24
 630 03b8 7B18     		adds	r3, r7, r1
 631 03ba 1B78     		ldrb	r3, [r3]
 632 03bc 191C     		adds	r1, r3, #0
 633 03be 4901     		lsls	r1, r1, #5
 634 03c0 C91A     		subs	r1, r1, r3
 635 03c2 8900     		lsls	r1, r1, #2
 636 03c4 CB1A     		subs	r3, r1, r3
 637 03c6 DB18     		adds	r3, r3, r3
 638 03c8 1B06     		lsls	r3, r3, #24
 639 03ca 1B0E     		lsrs	r3, r3, #24
 640 03cc D318     		adds	r3, r2, r3
 641 03ce 1B06     		lsls	r3, r3, #24
 642 03d0 1B0E     		lsrs	r3, r3, #24
 643 03d2 3033     		adds	r3, r3, #48
 644 03d4 1B06     		lsls	r3, r3, #24
 645 03d6 1A0E     		lsrs	r2, r3, #24
 646 03d8 3B1D     		adds	r3, r7, #4
 647 03da 1A71     		strb	r2, [r3, #4]
 648              	.L18:
 649              	.LBE10:
 166:main.c        **** 	}
 167:main.c        **** 	
 168:main.c        **** 	if (RTC_HOUR < 10){
 650              		.loc 1 168 0
 651 03dc 274B     		ldr	r3, .L21+24
 652 03de 1B68     		ldr	r3, [r3]
 653 03e0 092B     		cmp	r3, #9
 654 03e2 0CD8     		bhi	.L19
 169:main.c        **** 		fullHourTable[0] = (tU8)0x30;				// Ascii code for '0'.
ARM GAS  C:\Users\embedded\AppData\Local\Temp\ccnMo3mE.s 			page 16


 655              		.loc 1 169 0
 656 03e4 3B1D     		adds	r3, r7, #4
 657 03e6 3022     		movs	r2, #48
 658 03e8 1A70     		strb	r2, [r3]
 170:main.c        **** 		fullHourTable[1] = RTC_HOUR + (tU8)0x30;	// Ascii code for '0'.
 659              		.loc 1 170 0
 660 03ea 244B     		ldr	r3, .L21+24
 661 03ec 1B68     		ldr	r3, [r3]
 662 03ee 1B06     		lsls	r3, r3, #24
 663 03f0 1B0E     		lsrs	r3, r3, #24
 664 03f2 3033     		adds	r3, r3, #48
 665 03f4 1B06     		lsls	r3, r3, #24
 666 03f6 1A0E     		lsrs	r2, r3, #24
 667 03f8 3B1D     		adds	r3, r7, #4
 668 03fa 5A70     		strb	r2, [r3, #1]
 669 03fc 27E0     		b	.L20
 670              	.L19:
 671              	.LBB11:
 171:main.c        **** 	} else {
 172:main.c        **** 		tU8 div = RTC_HOUR / 10;
 672              		.loc 1 172 0
 673 03fe 1F4B     		ldr	r3, .L21+24
 674 0400 1B68     		ldr	r3, [r3]
 675 0402 0A21     		movs	r1, #10
 676 0404 1800     		movs	r0, r3
 677 0406 FFF7FEFF 		bl	__aeabi_uidiv
 678              	.LVL2:
 679 040a 0300     		movs	r3, r0
 680 040c 1A00     		movs	r2, r3
 681 040e 0D21     		movs	r1, #13
 682 0410 7B18     		adds	r3, r7, r1
 683 0412 1A70     		strb	r2, [r3]
 173:main.c        **** 		fullHourTable[0] = div + (tU8)0x30;
 684              		.loc 1 173 0
 685 0414 7B18     		adds	r3, r7, r1
 686 0416 1B78     		ldrb	r3, [r3]
 687 0418 3033     		adds	r3, r3, #48
 688 041a 1B06     		lsls	r3, r3, #24
 689 041c 1A0E     		lsrs	r2, r3, #24
 690 041e 3B1D     		adds	r3, r7, #4
 691 0420 1A70     		strb	r2, [r3]
 174:main.c        **** 		fullHourTable[1] = ((tU8)RTC_HOUR - (div * (tU8)10)) + (tU8)0x30;
 692              		.loc 1 174 0
 693 0422 164B     		ldr	r3, .L21+24
 694 0424 1B68     		ldr	r3, [r3]
 695 0426 1B06     		lsls	r3, r3, #24
 696 0428 1A0E     		lsrs	r2, r3, #24
 697 042a 7B18     		adds	r3, r7, r1
 698 042c 1B78     		ldrb	r3, [r3]
 699 042e 191C     		adds	r1, r3, #0
 700 0430 4901     		lsls	r1, r1, #5
 701 0432 C91A     		subs	r1, r1, r3
 702 0434 8900     		lsls	r1, r1, #2
 703 0436 CB1A     		subs	r3, r1, r3
 704 0438 DB18     		adds	r3, r3, r3
 705 043a 1B06     		lsls	r3, r3, #24
 706 043c 1B0E     		lsrs	r3, r3, #24
ARM GAS  C:\Users\embedded\AppData\Local\Temp\ccnMo3mE.s 			page 17


 707 043e D318     		adds	r3, r2, r3
 708 0440 1B06     		lsls	r3, r3, #24
 709 0442 1B0E     		lsrs	r3, r3, #24
 710 0444 3033     		adds	r3, r3, #48
 711 0446 1B06     		lsls	r3, r3, #24
 712 0448 1A0E     		lsrs	r2, r3, #24
 713 044a 3B1D     		adds	r3, r7, #4
 714 044c 5A70     		strb	r2, [r3, #1]
 715              	.L20:
 716              	.LBE11:
 175:main.c        **** 	}
 176:main.c        **** 
 177:main.c        **** 	lcdPuts(fullHourTable);
 717              		.loc 1 177 0
 718 044e 3B1D     		adds	r3, r7, #4
 719 0450 1800     		movs	r0, r3
 720 0452 FFF7FEFF 		bl	lcdPuts
 178:main.c        **** }
 721              		.loc 1 178 0
 722 0456 C046     		nop
 723 0458 BD46     		mov	sp, r7
 724 045a 04B0     		add	sp, sp, #16
 725              		@ sp needed
 726 045c 80BC     		pop	{r7}
 727 045e 01BC     		pop	{r0}
 728 0460 0047     		bx	r0
 729              	.L22:
 730 0462 C046     		.align	2
 731              	.L21:
 732 0464 084002E0 		.word	-536723448
 733 0468 004002E0 		.word	-536723456
 734 046c 0C4002E0 		.word	-536723444
 735 0470 104002E0 		.word	-536723440
 736 0474 204002E0 		.word	-536723424
 737 0478 244002E0 		.word	-536723420
 738 047c 284002E0 		.word	-536723416
 739              		.cfi_endproc
 740              	.LFE1:
 741              		.size	printCurrentTime, .-printCurrentTime
 742              	.Letext0:
 743              		.file 2 "general.h"
 744              		.file 3 "<built-in>"