ARM GAS  C:\Users\embedded\AppData\Local\Temp\ccroN1Q1.s 			page 1


   1              		.cpu arm7tdmi
   2              		.eabi_attribute 20, 1
   3              		.eabi_attribute 21, 1
   4              		.eabi_attribute 23, 3
   5              		.eabi_attribute 24, 1
   6              		.eabi_attribute 25, 1
   7              		.eabi_attribute 26, 1
   8              		.eabi_attribute 30, 6
   9              		.eabi_attribute 34, 0
  10              		.eabi_attribute 18, 4
  11              		.file	"pca9532.c"
  12              		.text
  13              	.Ltext0:
  14              		.cfi_sections	.debug_frame
  15              		.section	.rodata
  16              		.align	2
  17              	.LC0:
  18 0000 12       		.byte	18
  19 0001 97       		.byte	-105
  20 0002 80       		.byte	-128
  21 0003 00       		.byte	0
  22 0004 40       		.byte	64
  23 0005 00       		.byte	0
  24 0006 00       		.byte	0
  25 0007 00       		.byte	0
  26 0008 00       		.byte	0
  27              		.text
  28              		.align	1
  29              		.global	pca9532Init
  30              		.syntax unified
  31              		.code	16
  32              		.thumb_func
  33              		.fpu softvfp
  34              		.type	pca9532Init, %function
  35              	pca9532Init:
  36              	.LFB0:
  37              		.file 1 "pca9532.c"
   1:pca9532.c     **** /******************************************************************************
   2:pca9532.c     ****  *
   3:pca9532.c     ****  * Copyright:
   4:pca9532.c     ****  *    (C) 2006 Embedded Artists AB
   5:pca9532.c     ****  *
   6:pca9532.c     ****  * File:
   7:pca9532.c     ****  *    pca9532.c
   8:pca9532.c     ****  *
   9:pca9532.c     ****  * Description:
  10:pca9532.c     ****  *    Implements hardware specific routines
  11:pca9532.c     ****  *
  12:pca9532.c     ****  *****************************************************************************/
  13:pca9532.c     **** 
  14:pca9532.c     **** /******************************************************************************
  15:pca9532.c     ****  * Includes
  16:pca9532.c     ****  *****************************************************************************/
  17:pca9532.c     **** 
  18:pca9532.c     **** #include "general.h"
  19:pca9532.c     **** #include <lpc2xxx.h>
  20:pca9532.c     **** #include <printf_P.h>
ARM GAS  C:\Users\embedded\AppData\Local\Temp\ccroN1Q1.s 			page 2


  21:pca9532.c     **** #include "i2c.h"
  22:pca9532.c     **** #include "pca9532.h"
  23:pca9532.c     **** #include "eeprom.h"
  24:pca9532.c     **** 
  25:pca9532.c     **** /******************************************************************************
  26:pca9532.c     ****  * Typedefs and defines
  27:pca9532.c     ****  *****************************************************************************/
  28:pca9532.c     **** 
  29:pca9532.c     **** #define NUM_OF_LEDS 			0x10 // 0x10 = 16d
  30:pca9532.c     **** 
  31:pca9532.c     **** // Definitions of PCA9532 Addresses (not needed since function pca9532 will be used)
  32:pca9532.c     **** 
  33:pca9532.c     **** /*
  34:pca9532.c     **** 
  35:pca9532.c     **** #define pca9532Address000 		0x60
  36:pca9532.c     **** #define pca9532ReadAddress000 	0xC1
  37:pca9532.c     **** #define pca9532WriteAddress000 	0xC0
  38:pca9532.c     **** 
  39:pca9532.c     **** #define pca9532Address001 		0x61
  40:pca9532.c     **** #define pca9532ReadAddress001 	0xC3
  41:pca9532.c     **** #define pca9532WriteAddress001 	0xC2
  42:pca9532.c     **** 
  43:pca9532.c     **** #define pca9532Address010 		0x62
  44:pca9532.c     **** #define pca9532ReadAddress010 	0xC5
  45:pca9532.c     **** #define pca9532WriteAddress010 	0xC4
  46:pca9532.c     **** 
  47:pca9532.c     **** #define pca9532Address100 		0x64
  48:pca9532.c     **** #define pca9532ReadAddress100 	0xC9
  49:pca9532.c     **** #define pca9532WriteAddress100 	0xC8
  50:pca9532.c     **** 
  51:pca9532.c     **** #define pca9532Address011 		0x63
  52:pca9532.c     **** #define pca9532ReadAddress011 	0xC7
  53:pca9532.c     **** #define pca9532WriteAddress011 	0xC6
  54:pca9532.c     **** 
  55:pca9532.c     **** #define pca9532Address101 		0x65
  56:pca9532.c     **** #define pca9532ReadAddress101 	0xCB
  57:pca9532.c     **** #define pca9532WriteAddress101 	0xCA
  58:pca9532.c     **** 
  59:pca9532.c     **** #define pca9532Address110 		0x66
  60:pca9532.c     **** #define pca9532ReadAddress110 	0xCD
  61:pca9532.c     **** #define pca9532WriteAddress110 	0xCC
  62:pca9532.c     **** 
  63:pca9532.c     **** #define pca9532Address111 		0x67
  64:pca9532.c     **** #define pca9532ReadAddress111 	0xCF
  65:pca9532.c     **** #define pca9532WriteAddress111 	0xCE
  66:pca9532.c     **** 
  67:pca9532.c     **** */
  68:pca9532.c     **** 
  69:pca9532.c     **** #define INPUT0 	0x00	// 0x00 = 0b 0000	(Read only)		Input Register 0
  70:pca9532.c     **** #define INPUT1 	0x01	// 0x01 = 0b 0001	(Read only)		Input Register 1
  71:pca9532.c     **** #define PSC0	0x02	// 0x02 = 0b 0010	(Read / Write)	Frequency Prescaler 0
  72:pca9532.c     **** #define PWM0	0x03	// 0x03 = 0b 0011	(Read / Write)	PWM Register 0
  73:pca9532.c     **** #define PSC1	0x04	// 0x04 = 0b 0100	(Read / Write)	Frequency Prescaler 1
  74:pca9532.c     **** #define PWM1	0x05	// 0x05 = 0b 0101	(Read / Write)	PWM Register 1
  75:pca9532.c     **** #define LS0		0x06	// 0x06 = 0b 0110	(Read / Write)	LED 0 - 3 Selector
  76:pca9532.c     **** #define LS1		0x07	// 0x07 = 0b 0111	(Read / Write)	LED 4 - 7 Selector
  77:pca9532.c     **** #define LS2		0x08	// 0x08 = 0b 1000	(Read / Write)	LED 8 - 11 Selector
ARM GAS  C:\Users\embedded\AppData\Local\Temp\ccroN1Q1.s 			page 3


  78:pca9532.c     **** #define LS3		0x09	// 0x09 = 0b 1001	(Read / Write)	LED 12 - 15 Selector
  79:pca9532.c     **** 
  80:pca9532.c     **** #define BASE_ADDR 		0x00
  81:pca9532.c     **** #define AUTO_INC_ADDR 	0x01
  82:pca9532.c     **** 
  83:pca9532.c     **** /*****************************************************************************
  84:pca9532.c     ****  * Global variables
  85:pca9532.c     ****  ****************************************************************************/
  86:pca9532.c     **** 
  87:pca9532.c     **** /*****************************************************************************
  88:pca9532.c     ****  * Local variables
  89:pca9532.c     ****  ****************************************************************************/
  90:pca9532.c     **** 
  91:pca9532.c     **** /*****************************************************************************
  92:pca9532.c     ****  * Local prototypes
  93:pca9532.c     ****  ****************************************************************************/
  94:pca9532.c     **** 
  95:pca9532.c     **** /*****************************************************************************
  96:pca9532.c     ****  *
  97:pca9532.c     ****  * Description:
  98:pca9532.c     ****  *    Initialize the io-pins and find out if HW is ver 1.0 or ver 1.1
  99:pca9532.c     ****  *
 100:pca9532.c     ****  ****************************************************************************/
 101:pca9532.c     **** 
 102:pca9532.c     **** tBool pca9532Init(void)
 103:pca9532.c     **** {
  38              		.loc 1 103 0
  39              		.cfi_startproc
  40              		@ Function supports interworking.
  41              		@ args = 0, pretend = 0, frame = 16
  42              		@ frame_needed = 1, uses_anonymous_args = 0
  43 0000 80B5     		push	{r7, lr}
  44              	.LCFI0:
  45              		.cfi_def_cfa_offset 8
  46              		.cfi_offset 7, -8
  47              		.cfi_offset 14, -4
  48 0002 84B0     		sub	sp, sp, #16
  49              	.LCFI1:
  50              		.cfi_def_cfa_offset 24
  51 0004 00AF     		add	r7, sp, #0
  52              	.LCFI2:
  53              		.cfi_def_cfa_register 7
 104:pca9532.c     **** 	tU8 initCommand[] =
  54              		.loc 1 104 0
  55 0006 3B1D     		adds	r3, r7, #4
  56 0008 0F4A     		ldr	r2, .L5
  57 000a 03CA     		ldmia	r2!, {r0, r1}
  58 000c 03C3     		stmia	r3!, {r0, r1}
  59 000e 1278     		ldrb	r2, [r2]
  60 0010 1A70     		strb	r2, [r3]
 105:pca9532.c     **** 	{ 0x12, 0x97, 0x80, 0x00, 0x40, 0x00, 0x00, 0x00, 0x00 };
 106:pca9532.c     **** 	//                                                         04 = LCD_RST# low
 107:pca9532.c     **** 	//                                                         10 = BT_RST# low
 108:pca9532.c     **** 
 109:pca9532.c     **** 	tBool result;
 110:pca9532.c     **** 
 111:pca9532.c     **** 	// Initialize PCA9532
ARM GAS  C:\Users\embedded\AppData\Local\Temp\ccroN1Q1.s 			page 4


 112:pca9532.c     **** 	if (I2C_CODE_OK == pca9532(initCommand, sizeof(initCommand), NULL, 0))
  61              		.loc 1 112 0
  62 0012 381D     		adds	r0, r7, #4
  63 0014 0023     		movs	r3, #0
  64 0016 0022     		movs	r2, #0
  65 0018 0921     		movs	r1, #9
  66 001a FFF7FEFF 		bl	pca9532
  67 001e 0300     		movs	r3, r0
  68 0020 012B     		cmp	r3, #1
  69 0022 04D1     		bne	.L2
 113:pca9532.c     **** 	{
 114:pca9532.c     **** 		result = TRUE;
  70              		.loc 1 114 0
  71 0024 0F23     		movs	r3, #15
  72 0026 FB18     		adds	r3, r7, r3
  73 0028 0122     		movs	r2, #1
  74 002a 1A70     		strb	r2, [r3]
  75 002c 03E0     		b	.L3
  76              	.L2:
 115:pca9532.c     **** 	}
 116:pca9532.c     **** 	else
 117:pca9532.c     **** 	{
 118:pca9532.c     **** 		result = FALSE;
  77              		.loc 1 118 0
  78 002e 0F23     		movs	r3, #15
  79 0030 FB18     		adds	r3, r7, r3
  80 0032 0022     		movs	r2, #0
  81 0034 1A70     		strb	r2, [r3]
  82              	.L3:
 119:pca9532.c     **** 	}
 120:pca9532.c     **** 	return result;
  83              		.loc 1 120 0
  84 0036 0F23     		movs	r3, #15
  85 0038 FB18     		adds	r3, r7, r3
  86 003a 1B78     		ldrb	r3, [r3]
 121:pca9532.c     **** }
  87              		.loc 1 121 0
  88 003c 1800     		movs	r0, r3
  89 003e BD46     		mov	sp, r7
  90 0040 04B0     		add	sp, sp, #16
  91              		@ sp needed
  92 0042 80BC     		pop	{r7}
  93 0044 02BC     		pop	{r1}
  94 0046 0847     		bx	r1
  95              	.L6:
  96              		.align	2
  97              	.L5:
  98 0048 00000000 		.word	.LC0
  99              		.cfi_endproc
 100              	.LFE0:
 101              		.size	pca9532Init, .-pca9532Init
 102              		.align	1
 103              		.global	setPca9532Pin
 104              		.syntax unified
 105              		.code	16
 106              		.thumb_func
 107              		.fpu softvfp
ARM GAS  C:\Users\embedded\AppData\Local\Temp\ccroN1Q1.s 			page 5


 108              		.type	setPca9532Pin, %function
 109              	setPca9532Pin:
 110              	.LFB1:
 122:pca9532.c     **** 
 123:pca9532.c     **** /*****************************************************************************
 124:pca9532.c     ****  *
 125:pca9532.c     ****  * Description:
 126:pca9532.c     ****  *
 127:pca9532.c     ****  ****************************************************************************/
 128:pca9532.c     **** 
 129:pca9532.c     **** void setPca9532Pin(tU8 pinNum, tU8 value)
 130:pca9532.c     **** {
 111              		.loc 1 130 0
 112              		.cfi_startproc
 113              		@ Function supports interworking.
 114              		@ args = 0, pretend = 0, frame = 16
 115              		@ frame_needed = 1, uses_anonymous_args = 0
 116 004c B0B5     		push	{r4, r5, r7, lr}
 117              	.LCFI3:
 118              		.cfi_def_cfa_offset 16
 119              		.cfi_offset 4, -16
 120              		.cfi_offset 5, -12
 121              		.cfi_offset 7, -8
 122              		.cfi_offset 14, -4
 123 004e 84B0     		sub	sp, sp, #16
 124              	.LCFI4:
 125              		.cfi_def_cfa_offset 32
 126 0050 00AF     		add	r7, sp, #0
 127              	.LCFI5:
 128              		.cfi_def_cfa_register 7
 129 0052 0200     		movs	r2, r0
 130 0054 FB1D     		adds	r3, r7, #7
 131 0056 1A70     		strb	r2, [r3]
 132 0058 BB1D     		adds	r3, r7, #6
 133 005a 0A1C     		adds	r2, r1, #0
 134 005c 1A70     		strb	r2, [r3]
 131:pca9532.c     **** 	tU8 command[] = { 0x00, 0x00 };
 135              		.loc 1 131 0
 136 005e 0C21     		movs	r1, #12
 137 0060 7B18     		adds	r3, r7, r1
 138 0062 0022     		movs	r2, #0
 139 0064 1A70     		strb	r2, [r3]
 140 0066 7B18     		adds	r3, r7, r1
 141 0068 0022     		movs	r2, #0
 142 006a 5A70     		strb	r2, [r3, #1]
 132:pca9532.c     **** 	tU8 regValue;
 133:pca9532.c     **** 	tU8 mask;
 134:pca9532.c     **** 
 135:pca9532.c     **** 	tS8 retCode;
 136:pca9532.c     **** 
 137:pca9532.c     **** 	if (pinNum < (tU8)4)
 143              		.loc 1 137 0
 144 006c FB1D     		adds	r3, r7, #7
 145 006e 1B78     		ldrb	r3, [r3]
 146 0070 032B     		cmp	r3, #3
 147 0072 04D8     		bhi	.L8
 138:pca9532.c     **** 	{
ARM GAS  C:\Users\embedded\AppData\Local\Temp\ccroN1Q1.s 			page 6


 139:pca9532.c     **** 		command[0] = 0x06;
 148              		.loc 1 139 0
 149 0074 0C23     		movs	r3, #12
 150 0076 FB18     		adds	r3, r7, r3
 151 0078 0622     		movs	r2, #6
 152 007a 1A70     		strb	r2, [r3]
 153 007c 15E0     		b	.L9
 154              	.L8:
 140:pca9532.c     **** 	}
 141:pca9532.c     **** 	else if (pinNum < (tU8)8)
 155              		.loc 1 141 0
 156 007e FB1D     		adds	r3, r7, #7
 157 0080 1B78     		ldrb	r3, [r3]
 158 0082 072B     		cmp	r3, #7
 159 0084 04D8     		bhi	.L10
 142:pca9532.c     **** 	{
 143:pca9532.c     **** 		command[0] = 0x07;
 160              		.loc 1 143 0
 161 0086 0C23     		movs	r3, #12
 162 0088 FB18     		adds	r3, r7, r3
 163 008a 0722     		movs	r2, #7
 164 008c 1A70     		strb	r2, [r3]
 165 008e 0CE0     		b	.L9
 166              	.L10:
 144:pca9532.c     **** 	}
 145:pca9532.c     **** 	else if (pinNum < (tU8)12)
 167              		.loc 1 145 0
 168 0090 FB1D     		adds	r3, r7, #7
 169 0092 1B78     		ldrb	r3, [r3]
 170 0094 0B2B     		cmp	r3, #11
 171 0096 04D8     		bhi	.L11
 146:pca9532.c     **** 	{
 147:pca9532.c     **** 		command[0] = 0x08;
 172              		.loc 1 147 0
 173 0098 0C23     		movs	r3, #12
 174 009a FB18     		adds	r3, r7, r3
 175 009c 0822     		movs	r2, #8
 176 009e 1A70     		strb	r2, [r3]
 177 00a0 03E0     		b	.L9
 178              	.L11:
 148:pca9532.c     **** 	}
 149:pca9532.c     **** 	else
 150:pca9532.c     **** 	{
 151:pca9532.c     **** 		command[0] = 0x09;
 179              		.loc 1 151 0
 180 00a2 0C23     		movs	r3, #12
 181 00a4 FB18     		adds	r3, r7, r3
 182 00a6 0922     		movs	r2, #9
 183 00a8 1A70     		strb	r2, [r3]
 184              	.L9:
 152:pca9532.c     **** 	}
 153:pca9532.c     **** 
 154:pca9532.c     **** 	retCode = pca9532(command, 1, &regValue, 1);
 185              		.loc 1 154 0
 186 00aa 0F23     		movs	r3, #15
 187 00ac FC18     		adds	r4, r7, r3
 188 00ae 0B25     		movs	r5, #11
ARM GAS  C:\Users\embedded\AppData\Local\Temp\ccroN1Q1.s 			page 7


 189 00b0 7A19     		adds	r2, r7, r5
 190 00b2 0C23     		movs	r3, #12
 191 00b4 F818     		adds	r0, r7, r3
 192 00b6 0123     		movs	r3, #1
 193 00b8 0121     		movs	r1, #1
 194 00ba FFF7FEFF 		bl	pca9532
 195 00be 0300     		movs	r3, r0
 196 00c0 2370     		strb	r3, [r4]
 155:pca9532.c     **** 
 156:pca9532.c     **** 	mask = (tU8)((tU8)((tU8)3 << (tU8)2) * (pinNum % (tU8)4));
 197              		.loc 1 156 0
 198 00c2 FB1D     		adds	r3, r7, #7
 199 00c4 1B78     		ldrb	r3, [r3]
 200 00c6 0322     		movs	r2, #3
 201 00c8 1340     		ands	r3, r2
 202 00ca 1B06     		lsls	r3, r3, #24
 203 00cc 1C0E     		lsrs	r4, r3, #24
 204 00ce 0E20     		movs	r0, #14
 205 00d0 3B18     		adds	r3, r7, r0
 206 00d2 0C21     		movs	r1, #12
 207 00d4 2200     		movs	r2, r4
 208 00d6 4A43     		muls	r2, r1
 209 00d8 1A70     		strb	r2, [r3]
 157:pca9532.c     **** 
 158:pca9532.c     **** 	regValue &= ~mask;
 210              		.loc 1 158 0
 211 00da 3B18     		adds	r3, r7, r0
 212 00dc 1B78     		ldrb	r3, [r3]
 213 00de 1B06     		lsls	r3, r3, #24
 214 00e0 1B16     		asrs	r3, r3, #24
 215 00e2 DB43     		mvns	r3, r3
 216 00e4 1B06     		lsls	r3, r3, #24
 217 00e6 1B16     		asrs	r3, r3, #24
 218 00e8 7A19     		adds	r2, r7, r5
 219 00ea 1278     		ldrb	r2, [r2]
 220 00ec 1206     		lsls	r2, r2, #24
 221 00ee 1216     		asrs	r2, r2, #24
 222 00f0 1340     		ands	r3, r2
 223 00f2 1B06     		lsls	r3, r3, #24
 224 00f4 1B16     		asrs	r3, r3, #24
 225 00f6 1B06     		lsls	r3, r3, #24
 226 00f8 1A0E     		lsrs	r2, r3, #24
 227 00fa 7B19     		adds	r3, r7, r5
 228 00fc 1A70     		strb	r2, [r3]
 159:pca9532.c     **** 
 160:pca9532.c     **** 	if (value == (tU8)0)
 229              		.loc 1 160 0
 230 00fe BB1D     		adds	r3, r7, #6
 231 0100 1B78     		ldrb	r3, [r3]
 232 0102 002B     		cmp	r3, #0
 233 0104 04D1     		bne	.L12
 161:pca9532.c     **** 	{
 162:pca9532.c     **** 		command[1] = 0x02;
 234              		.loc 1 162 0
 235 0106 0C23     		movs	r3, #12
 236 0108 FB18     		adds	r3, r7, r3
 237 010a 0222     		movs	r2, #2
ARM GAS  C:\Users\embedded\AppData\Local\Temp\ccroN1Q1.s 			page 8


 238 010c 5A70     		strb	r2, [r3, #1]
 239 010e 03E0     		b	.L13
 240              	.L12:
 163:pca9532.c     **** 	}
 164:pca9532.c     **** 	else
 165:pca9532.c     **** 	{
 166:pca9532.c     **** 		command[1] = 0x00;
 241              		.loc 1 166 0
 242 0110 0C23     		movs	r3, #12
 243 0112 FB18     		adds	r3, r7, r3
 244 0114 0022     		movs	r2, #0
 245 0116 5A70     		strb	r2, [r3, #1]
 246              	.L13:
 167:pca9532.c     **** 	}
 168:pca9532.c     **** 
 169:pca9532.c     **** 	command[1] = command[1] << ((tU8)2 * (pinNum % (tU8)4));
 247              		.loc 1 169 0
 248 0118 0C20     		movs	r0, #12
 249 011a 3B18     		adds	r3, r7, r0
 250 011c 5B78     		ldrb	r3, [r3, #1]
 251 011e 1900     		movs	r1, r3
 252 0120 FB1D     		adds	r3, r7, #7
 253 0122 1B78     		ldrb	r3, [r3]
 254 0124 0322     		movs	r2, #3
 255 0126 1340     		ands	r3, r2
 256 0128 5B00     		lsls	r3, r3, #1
 257 012a 9940     		lsls	r1, r1, r3
 258 012c 0B00     		movs	r3, r1
 259 012e 1B06     		lsls	r3, r3, #24
 260 0130 1A0E     		lsrs	r2, r3, #24
 261 0132 3B18     		adds	r3, r7, r0
 262 0134 5A70     		strb	r2, [r3, #1]
 170:pca9532.c     **** 
 171:pca9532.c     **** 	command[1] = command[1] | regValue;
 263              		.loc 1 171 0
 264 0136 3B18     		adds	r3, r7, r0
 265 0138 5A78     		ldrb	r2, [r3, #1]
 266 013a 0B23     		movs	r3, #11
 267 013c FB18     		adds	r3, r7, r3
 268 013e 1B78     		ldrb	r3, [r3]
 269 0140 1343     		orrs	r3, r2
 270 0142 1B06     		lsls	r3, r3, #24
 271 0144 1A0E     		lsrs	r2, r3, #24
 272 0146 3B18     		adds	r3, r7, r0
 273 0148 5A70     		strb	r2, [r3, #1]
 172:pca9532.c     **** 
 173:pca9532.c     **** 	retCode = pca9532(command, sizeof(command), NULL, 0);
 274              		.loc 1 173 0
 275 014a 0F23     		movs	r3, #15
 276 014c FC18     		adds	r4, r7, r3
 277 014e 3818     		adds	r0, r7, r0
 278 0150 0023     		movs	r3, #0
 279 0152 0022     		movs	r2, #0
 280 0154 0221     		movs	r1, #2
 281 0156 FFF7FEFF 		bl	pca9532
 282 015a 0300     		movs	r3, r0
 283 015c 2370     		strb	r3, [r4]
ARM GAS  C:\Users\embedded\AppData\Local\Temp\ccroN1Q1.s 			page 9


 174:pca9532.c     **** }
 284              		.loc 1 174 0
 285 015e C046     		nop
 286 0160 BD46     		mov	sp, r7
 287 0162 04B0     		add	sp, sp, #16
 288              		@ sp needed
 289 0164 B0BC     		pop	{r4, r5, r7}
 290 0166 01BC     		pop	{r0}
 291 0168 0047     		bx	r0
 292              		.cfi_endproc
 293              	.LFE1:
 294              		.size	setPca9532Pin, .-setPca9532Pin
 295              		.align	1
 296              		.global	getPca9532Pin
 297              		.syntax unified
 298              		.code	16
 299              		.thumb_func
 300              		.fpu softvfp
 301              		.type	getPca9532Pin, %function
 302              	getPca9532Pin:
 303              	.LFB2:
 175:pca9532.c     **** 
 176:pca9532.c     **** /*****************************************************************************
 177:pca9532.c     ****  *
 178:pca9532.c     ****  * Description:
 179:pca9532.c     ****  *
 180:pca9532.c     ****  ****************************************************************************/
 181:pca9532.c     **** 
 182:pca9532.c     **** tU16 getPca9532Pin(void)
 183:pca9532.c     **** {
 304              		.loc 1 183 0
 305              		.cfi_startproc
 306              		@ Function supports interworking.
 307              		@ args = 0, pretend = 0, frame = 8
 308              		@ frame_needed = 1, uses_anonymous_args = 0
 309 016a 90B5     		push	{r4, r7, lr}
 310              	.LCFI6:
 311              		.cfi_def_cfa_offset 12
 312              		.cfi_offset 4, -12
 313              		.cfi_offset 7, -8
 314              		.cfi_offset 14, -4
 315 016c 83B0     		sub	sp, sp, #12
 316              	.LCFI7:
 317              		.cfi_def_cfa_offset 24
 318 016e 00AF     		add	r7, sp, #0
 319              	.LCFI8:
 320              		.cfi_def_cfa_register 7
 184:pca9532.c     **** 	tU8 command[] = { 0x19 };
 321              		.loc 1 184 0
 322 0170 3B1D     		adds	r3, r7, #4
 323 0172 1922     		movs	r2, #25
 324 0174 1A70     		strb	r2, [r3]
 185:pca9532.c     **** 	tU8 regValue[3];
 186:pca9532.c     **** 	tS8 retCode;
 187:pca9532.c     **** 
 188:pca9532.c     **** 	retCode = pca9532(command, 1, regValue, 3);
 325              		.loc 1 188 0
ARM GAS  C:\Users\embedded\AppData\Local\Temp\ccroN1Q1.s 			page 10


 326 0176 FC1D     		adds	r4, r7, #7
 327 0178 3A00     		movs	r2, r7
 328 017a 381D     		adds	r0, r7, #4
 329 017c 0323     		movs	r3, #3
 330 017e 0121     		movs	r1, #1
 331 0180 FFF7FEFF 		bl	pca9532
 332 0184 0300     		movs	r3, r0
 333 0186 2370     		strb	r3, [r4]
 189:pca9532.c     **** 
 190:pca9532.c     **** 	return (tU16) regValue[1] | ((tU16) regValue[2] << 8);
 334              		.loc 1 190 0
 335 0188 3B00     		movs	r3, r7
 336 018a 5B78     		ldrb	r3, [r3, #1]
 337 018c 1A04     		lsls	r2, r3, #16
 338 018e 1214     		asrs	r2, r2, #16
 339 0190 3B00     		movs	r3, r7
 340 0192 9B78     		ldrb	r3, [r3, #2]
 341 0194 1B02     		lsls	r3, r3, #8
 342 0196 1B04     		lsls	r3, r3, #16
 343 0198 1B14     		asrs	r3, r3, #16
 344 019a 1343     		orrs	r3, r2
 345 019c 1B04     		lsls	r3, r3, #16
 346 019e 1B14     		asrs	r3, r3, #16
 347 01a0 1B04     		lsls	r3, r3, #16
 348 01a2 1B0C     		lsrs	r3, r3, #16
 191:pca9532.c     **** }
 349              		.loc 1 191 0
 350 01a4 1800     		movs	r0, r3
 351 01a6 BD46     		mov	sp, r7
 352 01a8 03B0     		add	sp, sp, #12
 353              		@ sp needed
 354 01aa 90BC     		pop	{r4, r7}
 355 01ac 02BC     		pop	{r1}
 356 01ae 0847     		bx	r1
 357              		.cfi_endproc
 358              	.LFE2:
 359              		.size	getPca9532Pin, .-getPca9532Pin
 360              		.align	1
 361              		.global	manageLED
 362              		.syntax unified
 363              		.code	16
 364              		.thumb_func
 365              		.fpu softvfp
 366              		.type	manageLED, %function
 367              	manageLED:
 368              	.LFB3:
 192:pca9532.c     **** 
 193:pca9532.c     **** /*
 194:pca9532.c     ****  * @brief   Funkcja manageLED() wykorzystywana jest do kontrolowania LED'ów oznaczonych numerami o
 195:pca9532.c     ****  *			znajdujących się do okoła ekranu LCD, na expansion boardzie dołączonym do mikrokontrolera
 196:pca9532.c     ****  *			Działanie tej funkcji sprowadza sie do zapalenia po kolei LED'ów numerowanych od 1 do 16 z 3
 197:pca9532.c     ****  *			pomiędzy kolejnymi zapalonymi LED'ami, gdzie piny o numerach parzystych swiecą jaśniej niż
 198:pca9532.c     ****  *			Następnie jak wszystkie są zapalone to następuje 3 sekundowe odczekiwanie, a po jego zakoń
 199:pca9532.c     ****  *		 	zastosowaniem 30 ms opóźnienia. Ponadto piny, parzyste jak i nieparzyste "mrugają" co 0,5 
 200:pca9532.c     ****  *
 201:pca9532.c     ****  * @param   pca9532Present 
 202:pca9532.c     ****  *          Zmienna wskazująca czy PCA9532 zostało zainicjalizowane.
ARM GAS  C:\Users\embedded\AppData\Local\Temp\ccroN1Q1.s 			page 11


 203:pca9532.c     ****  * @returns
 204:pca9532.c     ****  *          void
 205:pca9532.c     ****  * 
 206:pca9532.c     ****  * @side effects: 
 207:pca9532.c     ****  *          Funkcja dokonuje zmiany stanu rejestrów, przy czym ich pierwotna zawartość nie jest 
 208:pca9532.c     ****  */
 209:pca9532.c     **** 
 210:pca9532.c     **** void manageLED(tU8 pca9532Present)
 211:pca9532.c     **** {
 369              		.loc 1 211 0
 370              		.cfi_startproc
 371              		@ Function supports interworking.
 372              		@ args = 0, pretend = 0, frame = 24
 373              		@ frame_needed = 1, uses_anonymous_args = 0
 374 01b0 90B5     		push	{r4, r7, lr}
 375              	.LCFI9:
 376              		.cfi_def_cfa_offset 12
 377              		.cfi_offset 4, -12
 378              		.cfi_offset 7, -8
 379              		.cfi_offset 14, -4
 380 01b2 87B0     		sub	sp, sp, #28
 381              	.LCFI10:
 382              		.cfi_def_cfa_offset 40
 383 01b4 00AF     		add	r7, sp, #0
 384              	.LCFI11:
 385              		.cfi_def_cfa_register 7
 386 01b6 0200     		movs	r2, r0
 387 01b8 FB1D     		adds	r3, r7, #7
 388 01ba 1A70     		strb	r2, [r3]
 212:pca9532.c     **** 	IODIR |= 0x00260000; //RGB
 389              		.loc 1 212 0
 390 01bc 454B     		ldr	r3, .L23
 391 01be 1A68     		ldr	r2, [r3]
 392 01c0 444B     		ldr	r3, .L23
 393 01c2 9821     		movs	r1, #152
 394 01c4 8903     		lsls	r1, r1, #14
 395 01c6 0A43     		orrs	r2, r1
 396 01c8 1A60     		str	r2, [r3]
 213:pca9532.c     **** 	IOSET = 0x00260000;
 397              		.loc 1 213 0
 398 01ca 434B     		ldr	r3, .L23+4
 399 01cc 9822     		movs	r2, #152
 400 01ce 9203     		lsls	r2, r2, #14
 401 01d0 1A60     		str	r2, [r3]
 214:pca9532.c     **** 
 215:pca9532.c     **** 	IODIR1 |= 0x000F0000; //LEDs
 402              		.loc 1 215 0
 403 01d2 424B     		ldr	r3, .L23+8
 404 01d4 1A68     		ldr	r2, [r3]
 405 01d6 414B     		ldr	r3, .L23+8
 406 01d8 F021     		movs	r1, #240
 407 01da 0903     		lsls	r1, r1, #12
 408 01dc 0A43     		orrs	r2, r1
 409 01de 1A60     		str	r2, [r3]
 216:pca9532.c     **** 	IOSET1 = 0x000F0000;
 410              		.loc 1 216 0
 411 01e0 3F4B     		ldr	r3, .L23+12
ARM GAS  C:\Users\embedded\AppData\Local\Temp\ccroN1Q1.s 			page 12


 412 01e2 F022     		movs	r2, #240
 413 01e4 1203     		lsls	r2, r2, #12
 414 01e6 1A60     		str	r2, [r3]
 217:pca9532.c     **** 	IOCLR1 = 0x00030000;
 415              		.loc 1 217 0
 416 01e8 3E4B     		ldr	r3, .L23+16
 417 01ea C022     		movs	r2, #192
 418 01ec 9202     		lsls	r2, r2, #10
 419 01ee 1A60     		str	r2, [r3]
 218:pca9532.c     **** 	IOCLR1 = 0x00050000;
 420              		.loc 1 218 0
 421 01f0 3C4B     		ldr	r3, .L23+16
 422 01f2 A022     		movs	r2, #160
 423 01f4 D202     		lsls	r2, r2, #11
 424 01f6 1A60     		str	r2, [r3]
 219:pca9532.c     **** 	IOCLR1 = 0x000c0000;
 425              		.loc 1 219 0
 426 01f8 3A4B     		ldr	r3, .L23+16
 427 01fa C022     		movs	r2, #192
 428 01fc 1203     		lsls	r2, r2, #12
 429 01fe 1A60     		str	r2, [r3]
 220:pca9532.c     **** 	IOCLR1 = 0x00090000;
 430              		.loc 1 220 0
 431 0200 384B     		ldr	r3, .L23+16
 432 0202 9022     		movs	r2, #144
 433 0204 1203     		lsls	r2, r2, #12
 434 0206 1A60     		str	r2, [r3]
 221:pca9532.c     **** 	IOSET1 = 0x000F0000;
 435              		.loc 1 221 0
 436 0208 354B     		ldr	r3, .L23+12
 437 020a F022     		movs	r2, #240
 438 020c 1203     		lsls	r2, r2, #12
 439 020e 1A60     		str	r2, [r3]
 222:pca9532.c     **** 	IODIR1 &= ~0x00F00000; //Keys
 440              		.loc 1 222 0
 441 0210 324B     		ldr	r3, .L23+8
 442 0212 1A68     		ldr	r2, [r3]
 443 0214 314B     		ldr	r3, .L23+8
 444 0216 3449     		ldr	r1, .L23+20
 445 0218 0A40     		ands	r2, r1
 446 021a 1A60     		str	r2, [r3]
 223:pca9532.c     **** 
 224:pca9532.c     **** 	tU8 duty75Percent = (tU8)192;
 447              		.loc 1 224 0
 448 021c 1623     		movs	r3, #22
 449 021e FB18     		adds	r3, r7, r3
 450 0220 C022     		movs	r2, #192
 451 0222 1A70     		strb	r2, [r3]
 225:pca9532.c     **** 	tU8 duty25Percent = (tU8)28;
 452              		.loc 1 225 0
 453 0224 1523     		movs	r3, #21
 454 0226 FB18     		adds	r3, r7, r3
 455 0228 1C22     		movs	r2, #28
 456 022a 1A70     		strb	r2, [r3]
 226:pca9532.c     **** 	tU8 blinkRateHalfSecond = (tU8) 75;
 457              		.loc 1 226 0
 458 022c 1423     		movs	r3, #20
ARM GAS  C:\Users\embedded\AppData\Local\Temp\ccroN1Q1.s 			page 13


 459 022e FB18     		adds	r3, r7, r3
 460 0230 4B22     		movs	r2, #75
 461 0232 1A70     		strb	r2, [r3]
 227:pca9532.c     **** 	tU8 noBlink = (tU8) 0;
 462              		.loc 1 227 0
 463 0234 1323     		movs	r3, #19
 464 0236 FB18     		adds	r3, r7, r3
 465 0238 0022     		movs	r2, #0
 466 023a 1A70     		strb	r2, [r3]
 228:pca9532.c     **** 
 229:pca9532.c     **** 	tU8 PWM0Address = (((tU8)BASE_ADDR << 4) | (tU8)PWM0);
 467              		.loc 1 229 0
 468 023c 1223     		movs	r3, #18
 469 023e FB18     		adds	r3, r7, r3
 470 0240 0322     		movs	r2, #3
 471 0242 1A70     		strb	r2, [r3]
 230:pca9532.c     **** 	tU8 PSC0Address = (((tU8)BASE_ADDR << 4) | (tU8)PSC0);
 472              		.loc 1 230 0
 473 0244 1123     		movs	r3, #17
 474 0246 FB18     		adds	r3, r7, r3
 475 0248 0222     		movs	r2, #2
 476 024a 1A70     		strb	r2, [r3]
 231:pca9532.c     **** 
 232:pca9532.c     **** 	tU8 commandToPCA[2] = {0};
 477              		.loc 1 232 0
 478 024c 0C23     		movs	r3, #12
 479 024e FB18     		adds	r3, r7, r3
 480 0250 0022     		movs	r2, #0
 481 0252 1A80     		strh	r2, [r3]
 233:pca9532.c     **** 
 234:pca9532.c     **** 	tU8 regValue;
 235:pca9532.c     **** 	tS8 retCode;
 236:pca9532.c     **** 
 237:pca9532.c     **** 	if ((tU8)TRUE == pca9532Present)
 482              		.loc 1 237 0
 483 0254 FB1D     		adds	r3, r7, #7
 484 0256 1B78     		ldrb	r3, [r3]
 485 0258 012B     		cmp	r3, #1
 486 025a 34D1     		bne	.L22
 487              	.LBB2:
 238:pca9532.c     **** 	{
 239:pca9532.c     **** 		tU8 i;
 240:pca9532.c     **** 		for (i = (tU8)0; i < (tU8)NUM_OF_LEDS; i = i + (tU8)1) {
 488              		.loc 1 240 0
 489 025c 1723     		movs	r3, #23
 490 025e FB18     		adds	r3, r7, r3
 491 0260 0022     		movs	r2, #0
 492 0262 1A70     		strb	r2, [r3]
 493 0264 0EE0     		b	.L18
 494              	.L19:
 241:pca9532.c     **** 			// commandToPCA[0] = PSC0Address;
 242:pca9532.c     **** 			// commandToPCA[1] = blinkRateHalfSecond;
 243:pca9532.c     **** 			// retCode = pca9532(commandToPCA, 2, NULL, 0);
 244:pca9532.c     **** 			/*
 245:pca9532.c     **** 			if ((i % (tU8)2) != (tU8)0) {
 246:pca9532.c     **** 				commandToPCA[0] = PWM0Address;
 247:pca9532.c     **** 				commandToPCA[1] = duty25Percent;
ARM GAS  C:\Users\embedded\AppData\Local\Temp\ccroN1Q1.s 			page 14


 248:pca9532.c     **** 				retCode = pca9532(commandToPCA, 2, NULL, 0);
 249:pca9532.c     **** 			}
 250:pca9532.c     **** 			else 
 251:pca9532.c     **** 			{
 252:pca9532.c     **** 
 253:pca9532.c     **** 				commandToPCA[0] = PWM0Address;
 254:pca9532.c     **** 				commandToPCA[1] = duty25Percent;
 255:pca9532.c     **** 				retCode = pca9532(commandToPCA, 2, NULL, 0);
 256:pca9532.c     **** 			}
 257:pca9532.c     **** 			*/
 258:pca9532.c     **** 			setPca9532Pin(i, 0);
 495              		.loc 1 258 0 discriminator 3
 496 0266 1724     		movs	r4, #23
 497 0268 3B19     		adds	r3, r7, r4
 498 026a 1B78     		ldrb	r3, [r3]
 499 026c 0021     		movs	r1, #0
 500 026e 1800     		movs	r0, r3
 501 0270 FFF7FEFF 		bl	setPca9532Pin
 259:pca9532.c     **** 			mdelay(30);
 502              		.loc 1 259 0 discriminator 3
 503 0274 1E20     		movs	r0, #30
 504 0276 FFF7FEFF 		bl	mdelay
 240:pca9532.c     **** 			// commandToPCA[0] = PSC0Address;
 505              		.loc 1 240 0 discriminator 3
 506 027a 3B19     		adds	r3, r7, r4
 507 027c 3A19     		adds	r2, r7, r4
 508 027e 1278     		ldrb	r2, [r2]
 509 0280 0132     		adds	r2, r2, #1
 510 0282 1A70     		strb	r2, [r3]
 511              	.L18:
 240:pca9532.c     **** 			// commandToPCA[0] = PSC0Address;
 512              		.loc 1 240 0 is_stmt 0 discriminator 1
 513 0284 1723     		movs	r3, #23
 514 0286 FB18     		adds	r3, r7, r3
 515 0288 1B78     		ldrb	r3, [r3]
 516 028a 0F2B     		cmp	r3, #15
 517 028c EBD9     		bls	.L19
 260:pca9532.c     **** 		}
 261:pca9532.c     **** 		sdelay(3);
 518              		.loc 1 261 0 is_stmt 1
 519 028e 0320     		movs	r0, #3
 520 0290 FFF7FEFF 		bl	sdelay
 262:pca9532.c     **** 		for (i = (tU8)0; i < (tU8)NUM_OF_LEDS; i = i + (tU8)1) {
 521              		.loc 1 262 0
 522 0294 1723     		movs	r3, #23
 523 0296 FB18     		adds	r3, r7, r3
 524 0298 0022     		movs	r2, #0
 525 029a 1A70     		strb	r2, [r3]
 526 029c 0EE0     		b	.L20
 527              	.L21:
 263:pca9532.c     **** 			setPca9532Pin(i, 1);
 528              		.loc 1 263 0 discriminator 3
 529 029e 1724     		movs	r4, #23
 530 02a0 3B19     		adds	r3, r7, r4
 531 02a2 1B78     		ldrb	r3, [r3]
 532 02a4 0121     		movs	r1, #1
 533 02a6 1800     		movs	r0, r3
ARM GAS  C:\Users\embedded\AppData\Local\Temp\ccroN1Q1.s 			page 15


 534 02a8 FFF7FEFF 		bl	setPca9532Pin
 264:pca9532.c     **** 			// commandToPCA[0] = PWM0Address;
 265:pca9532.c     **** 			// commandToPCA[1] = (tU8)0x00;
 266:pca9532.c     **** 			// commandToPCA[0] = PSC0Address;
 267:pca9532.c     **** 			// commandToPCA[1] = noBlink;
 268:pca9532.c     **** 			// retCode = pca9532(commandToPCA, 2, NULL, 0);
 269:pca9532.c     **** 			mdelay(30);
 535              		.loc 1 269 0 discriminator 3
 536 02ac 1E20     		movs	r0, #30
 537 02ae FFF7FEFF 		bl	mdelay
 262:pca9532.c     **** 			setPca9532Pin(i, 1);
 538              		.loc 1 262 0 discriminator 3
 539 02b2 3B19     		adds	r3, r7, r4
 540 02b4 3A19     		adds	r2, r7, r4
 541 02b6 1278     		ldrb	r2, [r2]
 542 02b8 0132     		adds	r2, r2, #1
 543 02ba 1A70     		strb	r2, [r3]
 544              	.L20:
 262:pca9532.c     **** 			setPca9532Pin(i, 1);
 545              		.loc 1 262 0 is_stmt 0 discriminator 1
 546 02bc 1723     		movs	r3, #23
 547 02be FB18     		adds	r3, r7, r3
 548 02c0 1B78     		ldrb	r3, [r3]
 549 02c2 0F2B     		cmp	r3, #15
 550 02c4 EBD9     		bls	.L21
 551              	.L22:
 552              	.LBE2:
 270:pca9532.c     **** 		}
 271:pca9532.c     **** 	}
 272:pca9532.c     **** }
 553              		.loc 1 272 0 is_stmt 1
 554 02c6 C046     		nop
 555 02c8 BD46     		mov	sp, r7
 556 02ca 07B0     		add	sp, sp, #28
 557              		@ sp needed
 558 02cc 90BC     		pop	{r4, r7}
 559 02ce 01BC     		pop	{r0}
 560 02d0 0047     		bx	r0
 561              	.L24:
 562 02d2 C046     		.align	2
 563              	.L23:
 564 02d4 088002E0 		.word	-536707064
 565 02d8 048002E0 		.word	-536707068
 566 02dc 188002E0 		.word	-536707048
 567 02e0 148002E0 		.word	-536707052
 568 02e4 1C8002E0 		.word	-536707044
 569 02e8 FFFF0FFF 		.word	-15728641
 570              		.cfi_endproc
 571              	.LFE3:
 572              		.size	manageLED, .-manageLED
 573              	.Letext0:
 574              		.file 2 "general.h"