ARM GAS  C:\Users\embedded\AppData\Local\Temp\ccK9Qwbb.s 			page 1


   1              		.cpu arm7tdmi
   2              		.eabi_attribute 20, 1
   3              		.eabi_attribute 21, 1
   4              		.eabi_attribute 23, 3
   5              		.eabi_attribute 24, 1
   6              		.eabi_attribute 25, 1
   7              		.eabi_attribute 26, 1
   8              		.eabi_attribute 30, 6
   9              		.eabi_attribute 34, 0
  10              		.eabi_attribute 18, 4
  11              		.file	"pca9532.c"
  12              		.text
  13              	.Ltext0:
  14              		.cfi_sections	.debug_frame
  15              		.section	.rodata
  16              		.align	2
  17              	.LC0:
  18 0000 12       		.byte	18
  19 0001 97       		.byte	-105
  20 0002 80       		.byte	-128
  21 0003 00       		.byte	0
  22 0004 40       		.byte	64
  23 0005 00       		.byte	0
  24 0006 00       		.byte	0
  25 0007 00       		.byte	0
  26 0008 00       		.byte	0
  27              		.text
  28              		.align	1
  29              		.global	pca9532Init
  30              		.syntax unified
  31              		.code	16
  32              		.thumb_func
  33              		.fpu softvfp
  34              		.type	pca9532Init, %function
  35              	pca9532Init:
  36              	.LFB0:
  37              		.file 1 "pca9532.c"
   1:pca9532.c     **** /******************************************************************************
   2:pca9532.c     ****  *
   3:pca9532.c     ****  * Copyright:
   4:pca9532.c     ****  *    (C) 2006 Embedded Artists AB
   5:pca9532.c     ****  *
   6:pca9532.c     ****  * File:
   7:pca9532.c     ****  *    pca9532.c
   8:pca9532.c     ****  *
   9:pca9532.c     ****  * Description:
  10:pca9532.c     ****  *    Implements hardware specific routines
  11:pca9532.c     ****  *
  12:pca9532.c     ****  *****************************************************************************/
  13:pca9532.c     **** 
  14:pca9532.c     **** /******************************************************************************
  15:pca9532.c     ****  * Includes
  16:pca9532.c     ****  *****************************************************************************/
  17:pca9532.c     **** 
  18:pca9532.c     **** #include "general.h"
  19:pca9532.c     **** #include <lpc2xxx.h>
  20:pca9532.c     **** #include <printf_P.h>
ARM GAS  C:\Users\embedded\AppData\Local\Temp\ccK9Qwbb.s 			page 2


  21:pca9532.c     **** #include "i2c.h"
  22:pca9532.c     **** #include "pca9532.h"
  23:pca9532.c     **** #include "eeprom.h"
  24:pca9532.c     **** 
  25:pca9532.c     **** /******************************************************************************
  26:pca9532.c     ****  * Typedefs and defines
  27:pca9532.c     ****  *****************************************************************************/
  28:pca9532.c     **** 
  29:pca9532.c     **** #define NUM_OF_LEDS 			0x10 // 0x10 = 16d
  30:pca9532.c     **** // Definitions of PCA9532 Addresses (not needed since function pca9532 will be used)
  31:pca9532.c     **** 
  32:pca9532.c     **** /*
  33:pca9532.c     **** 
  34:pca9532.c     ****  #define pca9532Address000 		0x60
  35:pca9532.c     ****  #define pca9532ReadAddress000 	0xC1
  36:pca9532.c     ****  #define pca9532WriteAddress000 	0xC0
  37:pca9532.c     **** 
  38:pca9532.c     ****  #define pca9532Address001 		0x61
  39:pca9532.c     ****  #define pca9532ReadAddress001 	0xC3
  40:pca9532.c     ****  #define pca9532WriteAddress001 	0xC2
  41:pca9532.c     **** 
  42:pca9532.c     ****  #define pca9532Address010 		0x62
  43:pca9532.c     ****  #define pca9532ReadAddress010 	0xC5
  44:pca9532.c     ****  #define pca9532WriteAddress010 	0xC4
  45:pca9532.c     **** 
  46:pca9532.c     ****  #define pca9532Address100 		0x64
  47:pca9532.c     ****  #define pca9532ReadAddress100 	0xC9
  48:pca9532.c     ****  #define pca9532WriteAddress100 	0xC8
  49:pca9532.c     **** 
  50:pca9532.c     ****  #define pca9532Address011 		0x63
  51:pca9532.c     ****  #define pca9532ReadAddress011 	0xC7
  52:pca9532.c     ****  #define pca9532WriteAddress011 	0xC6
  53:pca9532.c     **** 
  54:pca9532.c     ****  #define pca9532Address101 		0x65
  55:pca9532.c     ****  #define pca9532ReadAddress101 	0xCB
  56:pca9532.c     ****  #define pca9532WriteAddress101 	0xCA
  57:pca9532.c     **** 
  58:pca9532.c     ****  #define pca9532Address110 		0x66
  59:pca9532.c     ****  #define pca9532ReadAddress110 	0xCD
  60:pca9532.c     ****  #define pca9532WriteAddress110 	0xCC
  61:pca9532.c     **** 
  62:pca9532.c     ****  #define pca9532Address111 		0x67
  63:pca9532.c     ****  #define pca9532ReadAddress111 	0xCF
  64:pca9532.c     ****  #define pca9532WriteAddress111 	0xCE
  65:pca9532.c     **** 
  66:pca9532.c     ****  */
  67:pca9532.c     **** 
  68:pca9532.c     **** #define INPUT0 	0x00	// 0x00 = 0b 0000	(Read only)		Input Register 0
  69:pca9532.c     **** #define INPUT1 	0x01	// 0x01 = 0b 0001	(Read only)		Input Register 1
  70:pca9532.c     **** #define PSC0	0x02	// 0x02 = 0b 0010	(Read / Write)	Frequency Prescaler 0
  71:pca9532.c     **** #define PWM0	0x03	// 0x03 = 0b 0011	(Read / Write)	PWM Register 0
  72:pca9532.c     **** #define PSC1	0x04	// 0x04 = 0b 0100	(Read / Write)	Frequency Prescaler 1
  73:pca9532.c     **** #define PWM1	0x05	// 0x05 = 0b 0101	(Read / Write)	PWM Register 1
  74:pca9532.c     **** #define LS0		0x06	// 0x06 = 0b 0110	(Read / Write)	LED 0 - 3 Selector
  75:pca9532.c     **** #define LS1		0x07	// 0x07 = 0b 0111	(Read / Write)	LED 4 - 7 Selector
  76:pca9532.c     **** #define LS2		0x08	// 0x08 = 0b 1000	(Read / Write)	LED 8 - 11 Selector
  77:pca9532.c     **** #define LS3		0x09	// 0x09 = 0b 1001	(Read / Write)	LED 12 - 15 Selector
ARM GAS  C:\Users\embedded\AppData\Local\Temp\ccK9Qwbb.s 			page 3


  78:pca9532.c     **** #define BASE_ADDR 		0x00
  79:pca9532.c     **** #define AUTO_INC_ADDR 	0x01
  80:pca9532.c     **** 
  81:pca9532.c     **** /*****************************************************************************
  82:pca9532.c     ****  * Global variables
  83:pca9532.c     ****  ****************************************************************************/
  84:pca9532.c     **** 
  85:pca9532.c     **** /*****************************************************************************
  86:pca9532.c     ****  * Local variables
  87:pca9532.c     ****  ****************************************************************************/
  88:pca9532.c     **** 
  89:pca9532.c     **** /*****************************************************************************
  90:pca9532.c     ****  * Local prototypes
  91:pca9532.c     ****  ****************************************************************************/
  92:pca9532.c     **** 
  93:pca9532.c     **** /*****************************************************************************
  94:pca9532.c     ****  *
  95:pca9532.c     ****  * Description:
  96:pca9532.c     ****  *    Initialize the io-pins and find out if HW is ver 1.0 or ver 1.1
  97:pca9532.c     ****  *
  98:pca9532.c     ****  ****************************************************************************/
  99:pca9532.c     **** 
 100:pca9532.c     **** tBool pca9532Init(void)
 101:pca9532.c     **** {
  38              		.loc 1 101 0
  39              		.cfi_startproc
  40              		@ Function supports interworking.
  41              		@ args = 0, pretend = 0, frame = 16
  42              		@ frame_needed = 1, uses_anonymous_args = 0
  43 0000 80B5     		push	{r7, lr}
  44              	.LCFI0:
  45              		.cfi_def_cfa_offset 8
  46              		.cfi_offset 7, -8
  47              		.cfi_offset 14, -4
  48 0002 84B0     		sub	sp, sp, #16
  49              	.LCFI1:
  50              		.cfi_def_cfa_offset 24
  51 0004 00AF     		add	r7, sp, #0
  52              	.LCFI2:
  53              		.cfi_def_cfa_register 7
 102:pca9532.c     **** 	tU8 initCommand[] =
  54              		.loc 1 102 0
  55 0006 3B1D     		adds	r3, r7, #4
  56 0008 0F4A     		ldr	r2, .L5
  57 000a 03CA     		ldmia	r2!, {r0, r1}
  58 000c 03C3     		stmia	r3!, {r0, r1}
  59 000e 1278     		ldrb	r2, [r2]
  60 0010 1A70     		strb	r2, [r3]
 103:pca9532.c     **** 	{ 0x12, 0x97, 0x80, 0x00, 0x40, 0x00, 0x00, 0x00, 0x00 };
 104:pca9532.c     **** 	//                                                         04 = LCD_RST# low
 105:pca9532.c     **** 	//                                                         10 = BT_RST# low
 106:pca9532.c     **** 
 107:pca9532.c     **** 	tBool result;
 108:pca9532.c     **** 
 109:pca9532.c     **** 	// Initialize PCA9532
 110:pca9532.c     **** 	if (I2C_CODE_OK == pca9532(initCommand, sizeof(initCommand), NULL, 0))
  61              		.loc 1 110 0
ARM GAS  C:\Users\embedded\AppData\Local\Temp\ccK9Qwbb.s 			page 4


  62 0012 381D     		adds	r0, r7, #4
  63 0014 0023     		movs	r3, #0
  64 0016 0022     		movs	r2, #0
  65 0018 0921     		movs	r1, #9
  66 001a FFF7FEFF 		bl	pca9532
  67 001e 0300     		movs	r3, r0
  68 0020 012B     		cmp	r3, #1
  69 0022 04D1     		bne	.L2
 111:pca9532.c     **** 	{
 112:pca9532.c     **** 		result = TRUE;
  70              		.loc 1 112 0
  71 0024 0F23     		movs	r3, #15
  72 0026 FB18     		adds	r3, r7, r3
  73 0028 0122     		movs	r2, #1
  74 002a 1A70     		strb	r2, [r3]
  75 002c 03E0     		b	.L3
  76              	.L2:
 113:pca9532.c     **** 	}
 114:pca9532.c     **** 	else
 115:pca9532.c     **** 	{
 116:pca9532.c     **** 		result = FALSE;
  77              		.loc 1 116 0
  78 002e 0F23     		movs	r3, #15
  79 0030 FB18     		adds	r3, r7, r3
  80 0032 0022     		movs	r2, #0
  81 0034 1A70     		strb	r2, [r3]
  82              	.L3:
 117:pca9532.c     **** 	}
 118:pca9532.c     **** 	return result;
  83              		.loc 1 118 0
  84 0036 0F23     		movs	r3, #15
  85 0038 FB18     		adds	r3, r7, r3
  86 003a 1B78     		ldrb	r3, [r3]
 119:pca9532.c     **** }
  87              		.loc 1 119 0
  88 003c 1800     		movs	r0, r3
  89 003e BD46     		mov	sp, r7
  90 0040 04B0     		add	sp, sp, #16
  91              		@ sp needed
  92 0042 80BC     		pop	{r7}
  93 0044 02BC     		pop	{r1}
  94 0046 0847     		bx	r1
  95              	.L6:
  96              		.align	2
  97              	.L5:
  98 0048 00000000 		.word	.LC0
  99              		.cfi_endproc
 100              	.LFE0:
 101              		.size	pca9532Init, .-pca9532Init
 102              		.align	1
 103              		.global	setPca9532Pin
 104              		.syntax unified
 105              		.code	16
 106              		.thumb_func
 107              		.fpu softvfp
 108              		.type	setPca9532Pin, %function
 109              	setPca9532Pin:
ARM GAS  C:\Users\embedded\AppData\Local\Temp\ccK9Qwbb.s 			page 5


 110              	.LFB1:
 120:pca9532.c     **** 
 121:pca9532.c     **** /*****************************************************************************
 122:pca9532.c     ****  *
 123:pca9532.c     ****  * Description:
 124:pca9532.c     ****  *
 125:pca9532.c     ****  ****************************************************************************/
 126:pca9532.c     **** 
 127:pca9532.c     **** void setPca9532Pin(tU8 pinNum, tU8 value)
 128:pca9532.c     **** {
 111              		.loc 1 128 0
 112              		.cfi_startproc
 113              		@ Function supports interworking.
 114              		@ args = 0, pretend = 0, frame = 16
 115              		@ frame_needed = 1, uses_anonymous_args = 0
 116 004c 90B5     		push	{r4, r7, lr}
 117              	.LCFI3:
 118              		.cfi_def_cfa_offset 12
 119              		.cfi_offset 4, -12
 120              		.cfi_offset 7, -8
 121              		.cfi_offset 14, -4
 122 004e 85B0     		sub	sp, sp, #20
 123              	.LCFI4:
 124              		.cfi_def_cfa_offset 32
 125 0050 00AF     		add	r7, sp, #0
 126              	.LCFI5:
 127              		.cfi_def_cfa_register 7
 128 0052 0200     		movs	r2, r0
 129 0054 FB1D     		adds	r3, r7, #7
 130 0056 1A70     		strb	r2, [r3]
 131 0058 BB1D     		adds	r3, r7, #6
 132 005a 0A1C     		adds	r2, r1, #0
 133 005c 1A70     		strb	r2, [r3]
 129:pca9532.c     **** 	tU8 command[] =
 134              		.loc 1 129 0
 135 005e 0C21     		movs	r1, #12
 136 0060 7B18     		adds	r3, r7, r1
 137 0062 0022     		movs	r2, #0
 138 0064 1A70     		strb	r2, [r3]
 139 0066 7B18     		adds	r3, r7, r1
 140 0068 0022     		movs	r2, #0
 141 006a 5A70     		strb	r2, [r3, #1]
 130:pca9532.c     **** 	{ 0x00, 0x00 };
 131:pca9532.c     **** 	tU8 regValue;
 132:pca9532.c     **** 	tU8 mask;
 133:pca9532.c     **** 
 134:pca9532.c     **** 	if (pinNum < 4)
 142              		.loc 1 134 0
 143 006c FB1D     		adds	r3, r7, #7
 144 006e 1B78     		ldrb	r3, [r3]
 145 0070 032B     		cmp	r3, #3
 146 0072 04D8     		bhi	.L8
 135:pca9532.c     **** 		command[0] = 0x06;
 147              		.loc 1 135 0
 148 0074 0C23     		movs	r3, #12
 149 0076 FB18     		adds	r3, r7, r3
 150 0078 0622     		movs	r2, #6
ARM GAS  C:\Users\embedded\AppData\Local\Temp\ccK9Qwbb.s 			page 6


 151 007a 1A70     		strb	r2, [r3]
 152 007c 15E0     		b	.L9
 153              	.L8:
 136:pca9532.c     **** 	else if (pinNum < 8)
 154              		.loc 1 136 0
 155 007e FB1D     		adds	r3, r7, #7
 156 0080 1B78     		ldrb	r3, [r3]
 157 0082 072B     		cmp	r3, #7
 158 0084 04D8     		bhi	.L10
 137:pca9532.c     **** 		command[0] = 0x07;
 159              		.loc 1 137 0
 160 0086 0C23     		movs	r3, #12
 161 0088 FB18     		adds	r3, r7, r3
 162 008a 0722     		movs	r2, #7
 163 008c 1A70     		strb	r2, [r3]
 164 008e 0CE0     		b	.L9
 165              	.L10:
 138:pca9532.c     **** 	else if (pinNum < 12)
 166              		.loc 1 138 0
 167 0090 FB1D     		adds	r3, r7, #7
 168 0092 1B78     		ldrb	r3, [r3]
 169 0094 0B2B     		cmp	r3, #11
 170 0096 04D8     		bhi	.L11
 139:pca9532.c     **** 		command[0] = 0x08;
 171              		.loc 1 139 0
 172 0098 0C23     		movs	r3, #12
 173 009a FB18     		adds	r3, r7, r3
 174 009c 0822     		movs	r2, #8
 175 009e 1A70     		strb	r2, [r3]
 176 00a0 03E0     		b	.L9
 177              	.L11:
 140:pca9532.c     **** 	else
 141:pca9532.c     **** 		command[0] = 0x09;
 178              		.loc 1 141 0
 179 00a2 0C23     		movs	r3, #12
 180 00a4 FB18     		adds	r3, r7, r3
 181 00a6 0922     		movs	r2, #9
 182 00a8 1A70     		strb	r2, [r3]
 183              	.L9:
 142:pca9532.c     **** 
 143:pca9532.c     **** 	pca9532(command, 1, &regValue, 1);
 184              		.loc 1 143 0
 185 00aa 0B24     		movs	r4, #11
 186 00ac 3A19     		adds	r2, r7, r4
 187 00ae 0C23     		movs	r3, #12
 188 00b0 F818     		adds	r0, r7, r3
 189 00b2 0123     		movs	r3, #1
 190 00b4 0121     		movs	r1, #1
 191 00b6 FFF7FEFF 		bl	pca9532
 144:pca9532.c     **** 
 145:pca9532.c     **** 	mask = (3 << 2 * (pinNum % 4));
 192              		.loc 1 145 0
 193 00ba FB1D     		adds	r3, r7, #7
 194 00bc 1B78     		ldrb	r3, [r3]
 195 00be 0322     		movs	r2, #3
 196 00c0 1340     		ands	r3, r2
 197 00c2 5B00     		lsls	r3, r3, #1
ARM GAS  C:\Users\embedded\AppData\Local\Temp\ccK9Qwbb.s 			page 7


 198 00c4 0322     		movs	r2, #3
 199 00c6 9A40     		lsls	r2, r2, r3
 200 00c8 0F21     		movs	r1, #15
 201 00ca 7B18     		adds	r3, r7, r1
 202 00cc 1A70     		strb	r2, [r3]
 146:pca9532.c     **** 
 147:pca9532.c     **** 	regValue &= ~mask;
 203              		.loc 1 147 0
 204 00ce 7B18     		adds	r3, r7, r1
 205 00d0 1B78     		ldrb	r3, [r3]
 206 00d2 1B06     		lsls	r3, r3, #24
 207 00d4 1B16     		asrs	r3, r3, #24
 208 00d6 DB43     		mvns	r3, r3
 209 00d8 1B06     		lsls	r3, r3, #24
 210 00da 1B16     		asrs	r3, r3, #24
 211 00dc 3A19     		adds	r2, r7, r4
 212 00de 1278     		ldrb	r2, [r2]
 213 00e0 1206     		lsls	r2, r2, #24
 214 00e2 1216     		asrs	r2, r2, #24
 215 00e4 1340     		ands	r3, r2
 216 00e6 1B06     		lsls	r3, r3, #24
 217 00e8 1B16     		asrs	r3, r3, #24
 218 00ea 1B06     		lsls	r3, r3, #24
 219 00ec 1A0E     		lsrs	r2, r3, #24
 220 00ee 3B19     		adds	r3, r7, r4
 221 00f0 1A70     		strb	r2, [r3]
 148:pca9532.c     **** 
 149:pca9532.c     **** 	if (value == (tU8) 0)
 222              		.loc 1 149 0
 223 00f2 BB1D     		adds	r3, r7, #6
 224 00f4 1B78     		ldrb	r3, [r3]
 225 00f6 002B     		cmp	r3, #0
 226 00f8 04D1     		bne	.L12
 150:pca9532.c     **** 	{
 151:pca9532.c     **** 		// Passing a value that is 0, means turning on a pin, but it does use PWM0 rate of blink.
 152:pca9532.c     **** 		command[1] = 0x02;
 227              		.loc 1 152 0
 228 00fa 0C23     		movs	r3, #12
 229 00fc FB18     		adds	r3, r7, r3
 230 00fe 0222     		movs	r2, #2
 231 0100 5A70     		strb	r2, [r3, #1]
 232 0102 15E0     		b	.L13
 233              	.L12:
 153:pca9532.c     **** 	}
 154:pca9532.c     **** 	else if (value == (tU8) 1)
 234              		.loc 1 154 0
 235 0104 BB1D     		adds	r3, r7, #6
 236 0106 1B78     		ldrb	r3, [r3]
 237 0108 012B     		cmp	r3, #1
 238 010a 04D1     		bne	.L14
 155:pca9532.c     **** 	{
 156:pca9532.c     **** 		// Passing a value that is 1, means turning on a pin, but id does use PWM1 rate of blink.
 157:pca9532.c     **** 		command[1] = 0x03;
 239              		.loc 1 157 0
 240 010c 0C23     		movs	r3, #12
 241 010e FB18     		adds	r3, r7, r3
 242 0110 0322     		movs	r2, #3
ARM GAS  C:\Users\embedded\AppData\Local\Temp\ccK9Qwbb.s 			page 8


 243 0112 5A70     		strb	r2, [r3, #1]
 244 0114 0CE0     		b	.L13
 245              	.L14:
 158:pca9532.c     **** 	}
 159:pca9532.c     **** 	else if (value == (tU8) 2)
 246              		.loc 1 159 0
 247 0116 BB1D     		adds	r3, r7, #6
 248 0118 1B78     		ldrb	r3, [r3]
 249 011a 022B     		cmp	r3, #2
 250 011c 04D1     		bne	.L15
 160:pca9532.c     **** 	{
 161:pca9532.c     **** 		// Passing a value that is 1, means turning on a pin, without blinking with any rate.
 162:pca9532.c     **** 		command[1] = 0x01;
 251              		.loc 1 162 0
 252 011e 0C23     		movs	r3, #12
 253 0120 FB18     		adds	r3, r7, r3
 254 0122 0122     		movs	r2, #1
 255 0124 5A70     		strb	r2, [r3, #1]
 256 0126 03E0     		b	.L13
 257              	.L15:
 163:pca9532.c     **** 	}
 164:pca9532.c     **** 	else
 165:pca9532.c     **** 	{
 166:pca9532.c     **** 		// Passing value different that 0 means turning off a certain pin.
 167:pca9532.c     **** 		command[1] = 0x00;
 258              		.loc 1 167 0
 259 0128 0C23     		movs	r3, #12
 260 012a FB18     		adds	r3, r7, r3
 261 012c 0022     		movs	r2, #0
 262 012e 5A70     		strb	r2, [r3, #1]
 263              	.L13:
 168:pca9532.c     **** 	}
 169:pca9532.c     **** 
 170:pca9532.c     **** 	command[1] <<= 2 * (pinNum % 4);
 264              		.loc 1 170 0
 265 0130 0C20     		movs	r0, #12
 266 0132 3B18     		adds	r3, r7, r0
 267 0134 5B78     		ldrb	r3, [r3, #1]
 268 0136 1900     		movs	r1, r3
 269 0138 FB1D     		adds	r3, r7, #7
 270 013a 1B78     		ldrb	r3, [r3]
 271 013c 0322     		movs	r2, #3
 272 013e 1340     		ands	r3, r2
 273 0140 5B00     		lsls	r3, r3, #1
 274 0142 9940     		lsls	r1, r1, r3
 275 0144 0B00     		movs	r3, r1
 276 0146 1B06     		lsls	r3, r3, #24
 277 0148 1A0E     		lsrs	r2, r3, #24
 278 014a 3B18     		adds	r3, r7, r0
 279 014c 5A70     		strb	r2, [r3, #1]
 171:pca9532.c     **** 
 172:pca9532.c     **** 	command[1] |= regValue;
 280              		.loc 1 172 0
 281 014e 3B18     		adds	r3, r7, r0
 282 0150 5A78     		ldrb	r2, [r3, #1]
 283 0152 0B23     		movs	r3, #11
 284 0154 FB18     		adds	r3, r7, r3
ARM GAS  C:\Users\embedded\AppData\Local\Temp\ccK9Qwbb.s 			page 9


 285 0156 1B78     		ldrb	r3, [r3]
 286 0158 1343     		orrs	r3, r2
 287 015a 1B06     		lsls	r3, r3, #24
 288 015c 1A0E     		lsrs	r2, r3, #24
 289 015e 3B18     		adds	r3, r7, r0
 290 0160 5A70     		strb	r2, [r3, #1]
 173:pca9532.c     **** 
 174:pca9532.c     **** 	pca9532(command, sizeof(command), NULL, 0);
 291              		.loc 1 174 0
 292 0162 3818     		adds	r0, r7, r0
 293 0164 0023     		movs	r3, #0
 294 0166 0022     		movs	r2, #0
 295 0168 0221     		movs	r1, #2
 296 016a FFF7FEFF 		bl	pca9532
 175:pca9532.c     **** }
 297              		.loc 1 175 0
 298 016e C046     		nop
 299 0170 BD46     		mov	sp, r7
 300 0172 05B0     		add	sp, sp, #20
 301              		@ sp needed
 302 0174 90BC     		pop	{r4, r7}
 303 0176 01BC     		pop	{r0}
 304 0178 0047     		bx	r0
 305              		.cfi_endproc
 306              	.LFE1:
 307              		.size	setPca9532Pin, .-setPca9532Pin
 308              		.align	1
 309              		.global	getPca9532Pin
 310              		.syntax unified
 311              		.code	16
 312              		.thumb_func
 313              		.fpu softvfp
 314              		.type	getPca9532Pin, %function
 315              	getPca9532Pin:
 316              	.LFB2:
 176:pca9532.c     **** 
 177:pca9532.c     **** /*****************************************************************************
 178:pca9532.c     ****  *
 179:pca9532.c     ****  * Description:
 180:pca9532.c     ****  *
 181:pca9532.c     ****  ****************************************************************************/
 182:pca9532.c     **** 
 183:pca9532.c     **** tU16 getPca9532Pin(void)
 184:pca9532.c     **** {
 317              		.loc 1 184 0
 318              		.cfi_startproc
 319              		@ Function supports interworking.
 320              		@ args = 0, pretend = 0, frame = 8
 321              		@ frame_needed = 1, uses_anonymous_args = 0
 322 017a 90B5     		push	{r4, r7, lr}
 323              	.LCFI6:
 324              		.cfi_def_cfa_offset 12
 325              		.cfi_offset 4, -12
 326              		.cfi_offset 7, -8
 327              		.cfi_offset 14, -4
 328 017c 83B0     		sub	sp, sp, #12
 329              	.LCFI7:
ARM GAS  C:\Users\embedded\AppData\Local\Temp\ccK9Qwbb.s 			page 10


 330              		.cfi_def_cfa_offset 24
 331 017e 00AF     		add	r7, sp, #0
 332              	.LCFI8:
 333              		.cfi_def_cfa_register 7
 185:pca9532.c     **** 	tU8 command[] =
 334              		.loc 1 185 0
 335 0180 3B1D     		adds	r3, r7, #4
 336 0182 1922     		movs	r2, #25
 337 0184 1A70     		strb	r2, [r3]
 186:pca9532.c     **** 	{ 0x19 };
 187:pca9532.c     **** 	tU8 regValue[3];
 188:pca9532.c     **** 	tS8 retCode;
 189:pca9532.c     **** 
 190:pca9532.c     **** 	retCode = pca9532(command, 1, regValue, 3);
 338              		.loc 1 190 0
 339 0186 FC1D     		adds	r4, r7, #7
 340 0188 3A00     		movs	r2, r7
 341 018a 381D     		adds	r0, r7, #4
 342 018c 0323     		movs	r3, #3
 343 018e 0121     		movs	r1, #1
 344 0190 FFF7FEFF 		bl	pca9532
 345 0194 0300     		movs	r3, r0
 346 0196 2370     		strb	r3, [r4]
 191:pca9532.c     **** 
 192:pca9532.c     **** 	return (tU16) regValue[1] | ((tU16) regValue[2] << 8);
 347              		.loc 1 192 0
 348 0198 3B00     		movs	r3, r7
 349 019a 5B78     		ldrb	r3, [r3, #1]
 350 019c 1A04     		lsls	r2, r3, #16
 351 019e 1214     		asrs	r2, r2, #16
 352 01a0 3B00     		movs	r3, r7
 353 01a2 9B78     		ldrb	r3, [r3, #2]
 354 01a4 1B02     		lsls	r3, r3, #8
 355 01a6 1B04     		lsls	r3, r3, #16
 356 01a8 1B14     		asrs	r3, r3, #16
 357 01aa 1343     		orrs	r3, r2
 358 01ac 1B04     		lsls	r3, r3, #16
 359 01ae 1B14     		asrs	r3, r3, #16
 360 01b0 1B04     		lsls	r3, r3, #16
 361 01b2 1B0C     		lsrs	r3, r3, #16
 193:pca9532.c     **** }
 362              		.loc 1 193 0
 363 01b4 1800     		movs	r0, r3
 364 01b6 BD46     		mov	sp, r7
 365 01b8 03B0     		add	sp, sp, #12
 366              		@ sp needed
 367 01ba 90BC     		pop	{r4, r7}
 368 01bc 02BC     		pop	{r1}
 369 01be 0847     		bx	r1
 370              		.cfi_endproc
 371              	.LFE2:
 372              		.size	getPca9532Pin, .-getPca9532Pin
 373              		.align	1
 374              		.global	manageLED
 375              		.syntax unified
 376              		.code	16
 377              		.thumb_func
ARM GAS  C:\Users\embedded\AppData\Local\Temp\ccK9Qwbb.s 			page 11


 378              		.fpu softvfp
 379              		.type	manageLED, %function
 380              	manageLED:
 381              	.LFB3:
 194:pca9532.c     **** 
 195:pca9532.c     **** /*
 196:pca9532.c     ****  * @brief   Funkcja manageLED() wykorzystywana jest do kontrolowania LED'ów oznaczonych numerami o
 197:pca9532.c     ****  *			znajdujących się do okoła ekranu LCD, na expansion boardzie dołączonym do mikrokontrolera
 198:pca9532.c     ****  *			Działanie tej funkcji sprowadza sie do zapalenia po kolei LED'ów numerowanych od 1 do 16 z 3
 199:pca9532.c     ****  *			pomiędzy kolejnymi zapalonymi LED'ami, gdzie piny o numerach parzystych swiecą jaśniej niż
 200:pca9532.c     ****  *			Następnie jak wszystkie są zapalone to następuje 3 sekundowe odczekiwanie, a po jego zakoń
 201:pca9532.c     ****  *		 	zastosowaniem 30 ms opóźnienia. Ponadto piny, parzyste jak i nieparzyste "mrugają" co 0,5 
 202:pca9532.c     ****  *
 203:pca9532.c     ****  * @param   pca9532Present 
 204:pca9532.c     ****  *          Zmienna wskazująca czy PCA9532 zostało zainicjalizowane.
 205:pca9532.c     ****  * @returns
 206:pca9532.c     ****  *          void
 207:pca9532.c     ****  * 
 208:pca9532.c     ****  * @side effects: 
 209:pca9532.c     ****  *          Funkcja dokonuje zmiany stanu rejestrów, przy czym ich pierwotna zawartość nie jest 
 210:pca9532.c     ****  */
 211:pca9532.c     **** 
 212:pca9532.c     **** void manageLED(tU8 pca9532Present)
 213:pca9532.c     **** {
 382              		.loc 1 213 0
 383              		.cfi_startproc
 384              		@ Function supports interworking.
 385              		@ args = 0, pretend = 0, frame = 24
 386              		@ frame_needed = 1, uses_anonymous_args = 0
 387 01c0 B0B5     		push	{r4, r5, r7, lr}
 388              	.LCFI9:
 389              		.cfi_def_cfa_offset 16
 390              		.cfi_offset 4, -16
 391              		.cfi_offset 5, -12
 392              		.cfi_offset 7, -8
 393              		.cfi_offset 14, -4
 394 01c2 86B0     		sub	sp, sp, #24
 395              	.LCFI10:
 396              		.cfi_def_cfa_offset 40
 397 01c4 00AF     		add	r7, sp, #0
 398              	.LCFI11:
 399              		.cfi_def_cfa_register 7
 400 01c6 0200     		movs	r2, r0
 401 01c8 FB1D     		adds	r3, r7, #7
 402 01ca 1A70     		strb	r2, [r3]
 214:pca9532.c     **** 	IODIR |= 0x00260000; // RGB
 403              		.loc 1 214 0
 404 01cc 724B     		ldr	r3, .L29
 405 01ce 1A68     		ldr	r2, [r3]
 406 01d0 714B     		ldr	r3, .L29
 407 01d2 9821     		movs	r1, #152
 408 01d4 8903     		lsls	r1, r1, #14
 409 01d6 0A43     		orrs	r2, r1
 410 01d8 1A60     		str	r2, [r3]
 215:pca9532.c     **** 	IOSET = 0x00260000;
 411              		.loc 1 215 0
 412 01da 704B     		ldr	r3, .L29+4
ARM GAS  C:\Users\embedded\AppData\Local\Temp\ccK9Qwbb.s 			page 12


 413 01dc 9822     		movs	r2, #152
 414 01de 9203     		lsls	r2, r2, #14
 415 01e0 1A60     		str	r2, [r3]
 216:pca9532.c     **** 
 217:pca9532.c     **** 	IODIR1 |= 0x000F0000; // LEDs
 416              		.loc 1 217 0
 417 01e2 6F4B     		ldr	r3, .L29+8
 418 01e4 1A68     		ldr	r2, [r3]
 419 01e6 6E4B     		ldr	r3, .L29+8
 420 01e8 F021     		movs	r1, #240
 421 01ea 0903     		lsls	r1, r1, #12
 422 01ec 0A43     		orrs	r2, r1
 423 01ee 1A60     		str	r2, [r3]
 218:pca9532.c     **** 	IOSET1 = 0x000F0000;
 424              		.loc 1 218 0
 425 01f0 6C4B     		ldr	r3, .L29+12
 426 01f2 F022     		movs	r2, #240
 427 01f4 1203     		lsls	r2, r2, #12
 428 01f6 1A60     		str	r2, [r3]
 219:pca9532.c     **** 	IOCLR1 = 0x00030000;
 429              		.loc 1 219 0
 430 01f8 6B4B     		ldr	r3, .L29+16
 431 01fa C022     		movs	r2, #192
 432 01fc 9202     		lsls	r2, r2, #10
 433 01fe 1A60     		str	r2, [r3]
 220:pca9532.c     **** 	IOCLR1 = 0x00050000;
 434              		.loc 1 220 0
 435 0200 694B     		ldr	r3, .L29+16
 436 0202 A022     		movs	r2, #160
 437 0204 D202     		lsls	r2, r2, #11
 438 0206 1A60     		str	r2, [r3]
 221:pca9532.c     **** 	IOCLR1 = 0x000c0000;
 439              		.loc 1 221 0
 440 0208 674B     		ldr	r3, .L29+16
 441 020a C022     		movs	r2, #192
 442 020c 1203     		lsls	r2, r2, #12
 443 020e 1A60     		str	r2, [r3]
 222:pca9532.c     **** 	IOCLR1 = 0x00090000;
 444              		.loc 1 222 0
 445 0210 654B     		ldr	r3, .L29+16
 446 0212 9022     		movs	r2, #144
 447 0214 1203     		lsls	r2, r2, #12
 448 0216 1A60     		str	r2, [r3]
 223:pca9532.c     **** 	IOSET1 = 0x000F0000;
 449              		.loc 1 223 0
 450 0218 624B     		ldr	r3, .L29+12
 451 021a F022     		movs	r2, #240
 452 021c 1203     		lsls	r2, r2, #12
 453 021e 1A60     		str	r2, [r3]
 224:pca9532.c     **** 	IODIR1 &= ~0x00F00000; // Keys
 454              		.loc 1 224 0
 455 0220 5F4B     		ldr	r3, .L29+8
 456 0222 1A68     		ldr	r2, [r3]
 457 0224 5E4B     		ldr	r3, .L29+8
 458 0226 6149     		ldr	r1, .L29+20
 459 0228 0A40     		ands	r2, r1
 460 022a 1A60     		str	r2, [r3]
ARM GAS  C:\Users\embedded\AppData\Local\Temp\ccK9Qwbb.s 			page 13


 225:pca9532.c     **** 
 226:pca9532.c     **** 	tU8 dutyCycleOne = (tU8)224;
 461              		.loc 1 226 0
 462 022c 1523     		movs	r3, #21
 463 022e FB18     		adds	r3, r7, r3
 464 0230 E022     		movs	r2, #224
 465 0232 1A70     		strb	r2, [r3]
 227:pca9532.c     **** 	tU8 dutyCycleTwo = (tU8)28;
 466              		.loc 1 227 0
 467 0234 1423     		movs	r3, #20
 468 0236 FB18     		adds	r3, r7, r3
 469 0238 1C22     		movs	r2, #28
 470 023a 1A70     		strb	r2, [r3]
 228:pca9532.c     **** 
 229:pca9532.c     **** 	tU8 PWM0Address = (((tU8)BASE_ADDR << 4) | (tU8)PWM0);
 471              		.loc 1 229 0
 472 023c 1323     		movs	r3, #19
 473 023e FB18     		adds	r3, r7, r3
 474 0240 0322     		movs	r2, #3
 475 0242 1A70     		strb	r2, [r3]
 230:pca9532.c     **** 	tU8 PWM1Address = (((tU8)BASE_ADDR << 4) | (tU8)PWM1);
 476              		.loc 1 230 0
 477 0244 1223     		movs	r3, #18
 478 0246 FB18     		adds	r3, r7, r3
 479 0248 0522     		movs	r2, #5
 480 024a 1A70     		strb	r2, [r3]
 231:pca9532.c     **** 	// tU8 PSC0Address = (((tU8)BASE_ADDR << 4) | (tU8)PSC0);
 232:pca9532.c     **** 
 233:pca9532.c     **** 	tU8 commandToPCA[2] = {0};
 481              		.loc 1 233 0
 482 024c 0C23     		movs	r3, #12
 483 024e FB18     		adds	r3, r7, r3
 484 0250 0022     		movs	r2, #0
 485 0252 1A80     		strh	r2, [r3]
 234:pca9532.c     **** 
 235:pca9532.c     **** 	tU8 regValue;
 236:pca9532.c     **** 	tS8 retCode;
 237:pca9532.c     **** 
 238:pca9532.c     **** 	if ((tU8)TRUE == pca9532Present)
 486              		.loc 1 238 0
 487 0254 FB1D     		adds	r3, r7, #7
 488 0256 1B78     		ldrb	r3, [r3]
 489 0258 012B     		cmp	r3, #1
 490 025a 00D0     		beq	.LCB403
 491 025c 96E0     		b	.L28	@long jump
 492              	.LCB403:
 493              	.LBB2:
 239:pca9532.c     **** 	{
 240:pca9532.c     **** 		tU8 i = 0;
 494              		.loc 1 240 0
 495 025e 1723     		movs	r3, #23
 496 0260 FB18     		adds	r3, r7, r3
 497 0262 0022     		movs	r2, #0
 498 0264 1A70     		strb	r2, [r3]
 241:pca9532.c     **** 		tU8 j = 0;
 499              		.loc 1 241 0
 500 0266 1621     		movs	r1, #22
ARM GAS  C:\Users\embedded\AppData\Local\Temp\ccK9Qwbb.s 			page 14


 501 0268 7B18     		adds	r3, r7, r1
 502 026a 0022     		movs	r2, #0
 503 026c 1A70     		strb	r2, [r3]
 242:pca9532.c     **** 		for (j = 0; j < 3; j++)
 504              		.loc 1 242 0
 505 026e 7B18     		adds	r3, r7, r1
 506 0270 0022     		movs	r2, #0
 507 0272 1A70     		strb	r2, [r3]
 508 0274 61E0     		b	.L20
 509              	.L25:
 243:pca9532.c     **** 		{
 244:pca9532.c     **** 			for (i = (tU8)0; i < (tU8)NUM_OF_LEDS; i = i + (tU8)1)
 510              		.loc 1 244 0
 511 0276 1723     		movs	r3, #23
 512 0278 FB18     		adds	r3, r7, r3
 513 027a 0022     		movs	r2, #0
 514 027c 1A70     		strb	r2, [r3]
 515 027e 4EE0     		b	.L21
 516              	.L24:
 245:pca9532.c     **** 			{
 246:pca9532.c     **** 				if (((i + j) % (tU8)2) == (tU8)0)
 517              		.loc 1 246 0
 518 0280 1723     		movs	r3, #23
 519 0282 FA18     		adds	r2, r7, r3
 520 0284 1623     		movs	r3, #22
 521 0286 FB18     		adds	r3, r7, r3
 522 0288 1278     		ldrb	r2, [r2]
 523 028a 1B78     		ldrb	r3, [r3]
 524 028c D318     		adds	r3, r2, r3
 525 028e 1B06     		lsls	r3, r3, #24
 526 0290 1B0E     		lsrs	r3, r3, #24
 527 0292 1A00     		movs	r2, r3
 528 0294 0123     		movs	r3, #1
 529 0296 1340     		ands	r3, r2
 530 0298 1CD1     		bne	.L22
 247:pca9532.c     **** 				{
 248:pca9532.c     **** 					commandToPCA[0] = PWM0Address;
 531              		.loc 1 248 0
 532 029a 0C21     		movs	r1, #12
 533 029c 7B18     		adds	r3, r7, r1
 534 029e 1322     		movs	r2, #19
 535 02a0 BA18     		adds	r2, r7, r2
 536 02a2 1278     		ldrb	r2, [r2]
 537 02a4 1A70     		strb	r2, [r3]
 249:pca9532.c     **** 					commandToPCA[1] = dutyCycleOne;
 538              		.loc 1 249 0
 539 02a6 7B18     		adds	r3, r7, r1
 540 02a8 1522     		movs	r2, #21
 541 02aa BA18     		adds	r2, r7, r2
 542 02ac 1278     		ldrb	r2, [r2]
 543 02ae 5A70     		strb	r2, [r3, #1]
 250:pca9532.c     **** 					retCode = pca9532(commandToPCA, 2, NULL, 0);
 544              		.loc 1 250 0
 545 02b0 1123     		movs	r3, #17
 546 02b2 FC18     		adds	r4, r7, r3
 547 02b4 7818     		adds	r0, r7, r1
 548 02b6 0023     		movs	r3, #0
ARM GAS  C:\Users\embedded\AppData\Local\Temp\ccK9Qwbb.s 			page 15


 549 02b8 0022     		movs	r2, #0
 550 02ba 0221     		movs	r1, #2
 551 02bc FFF7FEFF 		bl	pca9532
 552 02c0 0300     		movs	r3, r0
 553 02c2 2370     		strb	r3, [r4]
 251:pca9532.c     **** 					setPca9532Pin(i, 0);
 554              		.loc 1 251 0
 555 02c4 1723     		movs	r3, #23
 556 02c6 FB18     		adds	r3, r7, r3
 557 02c8 1B78     		ldrb	r3, [r3]
 558 02ca 0021     		movs	r1, #0
 559 02cc 1800     		movs	r0, r3
 560 02ce FFF7FEFF 		bl	setPca9532Pin
 561 02d2 1BE0     		b	.L23
 562              	.L22:
 252:pca9532.c     **** 				}
 253:pca9532.c     **** 				else
 254:pca9532.c     **** 				{
 255:pca9532.c     **** 					commandToPCA[0] = PWM1Address;
 563              		.loc 1 255 0
 564 02d4 0C21     		movs	r1, #12
 565 02d6 7B18     		adds	r3, r7, r1
 566 02d8 1222     		movs	r2, #18
 567 02da BA18     		adds	r2, r7, r2
 568 02dc 1278     		ldrb	r2, [r2]
 569 02de 1A70     		strb	r2, [r3]
 256:pca9532.c     **** 					commandToPCA[1] = dutyCycleTwo;
 570              		.loc 1 256 0
 571 02e0 7B18     		adds	r3, r7, r1
 572 02e2 1422     		movs	r2, #20
 573 02e4 BA18     		adds	r2, r7, r2
 574 02e6 1278     		ldrb	r2, [r2]
 575 02e8 5A70     		strb	r2, [r3, #1]
 257:pca9532.c     **** 					retCode = pca9532(commandToPCA, 2, NULL, 0);
 576              		.loc 1 257 0
 577 02ea 1123     		movs	r3, #17
 578 02ec FC18     		adds	r4, r7, r3
 579 02ee 7818     		adds	r0, r7, r1
 580 02f0 0023     		movs	r3, #0
 581 02f2 0022     		movs	r2, #0
 582 02f4 0221     		movs	r1, #2
 583 02f6 FFF7FEFF 		bl	pca9532
 584 02fa 0300     		movs	r3, r0
 585 02fc 2370     		strb	r3, [r4]
 258:pca9532.c     **** 					setPca9532Pin(i, 1);
 586              		.loc 1 258 0
 587 02fe 1723     		movs	r3, #23
 588 0300 FB18     		adds	r3, r7, r3
 589 0302 1B78     		ldrb	r3, [r3]
 590 0304 0121     		movs	r1, #1
 591 0306 1800     		movs	r0, r3
 592 0308 FFF7FEFF 		bl	setPca9532Pin
 593              	.L23:
 259:pca9532.c     **** 				}
 260:pca9532.c     **** 				mdelay(30);
 594              		.loc 1 260 0 discriminator 2
 595 030c 1E20     		movs	r0, #30
ARM GAS  C:\Users\embedded\AppData\Local\Temp\ccK9Qwbb.s 			page 16


 596 030e FFF7FEFF 		bl	mdelay
 244:pca9532.c     **** 			{
 597              		.loc 1 244 0 discriminator 2
 598 0312 1722     		movs	r2, #23
 599 0314 BB18     		adds	r3, r7, r2
 600 0316 BA18     		adds	r2, r7, r2
 601 0318 1278     		ldrb	r2, [r2]
 602 031a 0132     		adds	r2, r2, #1
 603 031c 1A70     		strb	r2, [r3]
 604              	.L21:
 244:pca9532.c     **** 			{
 605              		.loc 1 244 0 is_stmt 0 discriminator 1
 606 031e 1723     		movs	r3, #23
 607 0320 FB18     		adds	r3, r7, r3
 608 0322 1B78     		ldrb	r3, [r3]
 609 0324 0F2B     		cmp	r3, #15
 610 0326 ABD9     		bls	.L24
 261:pca9532.c     **** 			}
 262:pca9532.c     **** 			mdelay(200);
 611              		.loc 1 262 0 is_stmt 1 discriminator 2
 612 0328 C820     		movs	r0, #200
 613 032a FFF7FEFF 		bl	mdelay
 242:pca9532.c     **** 		{
 614              		.loc 1 242 0 discriminator 2
 615 032e 1621     		movs	r1, #22
 616 0330 7B18     		adds	r3, r7, r1
 617 0332 1A78     		ldrb	r2, [r3]
 618 0334 7B18     		adds	r3, r7, r1
 619 0336 0132     		adds	r2, r2, #1
 620 0338 1A70     		strb	r2, [r3]
 621              	.L20:
 242:pca9532.c     **** 		{
 622              		.loc 1 242 0 is_stmt 0 discriminator 1
 623 033a 1623     		movs	r3, #22
 624 033c FB18     		adds	r3, r7, r3
 625 033e 1B78     		ldrb	r3, [r3]
 626 0340 022B     		cmp	r3, #2
 627 0342 98D9     		bls	.L25
 263:pca9532.c     **** 		}
 264:pca9532.c     **** 		for (i = (tU8)0; i < (tU8)NUM_OF_LEDS; i = i + (tU8)1)
 628              		.loc 1 264 0 is_stmt 1
 629 0344 1723     		movs	r3, #23
 630 0346 FB18     		adds	r3, r7, r3
 631 0348 0022     		movs	r2, #0
 632 034a 1A70     		strb	r2, [r3]
 633 034c 19E0     		b	.L26
 634              	.L27:
 265:pca9532.c     **** 		{
 266:pca9532.c     **** 			setPca9532Pin(i, 3);
 635              		.loc 1 266 0 discriminator 3
 636 034e 1725     		movs	r5, #23
 637 0350 7B19     		adds	r3, r7, r5
 638 0352 1B78     		ldrb	r3, [r3]
 639 0354 0321     		movs	r1, #3
 640 0356 1800     		movs	r0, r3
 641 0358 FFF7FEFF 		bl	setPca9532Pin
 267:pca9532.c     **** 			retCode = pca9532(commandToPCA, 2, NULL, 0);
ARM GAS  C:\Users\embedded\AppData\Local\Temp\ccK9Qwbb.s 			page 17


 642              		.loc 1 267 0 discriminator 3
 643 035c 1123     		movs	r3, #17
 644 035e FC18     		adds	r4, r7, r3
 645 0360 0C23     		movs	r3, #12
 646 0362 F818     		adds	r0, r7, r3
 647 0364 0023     		movs	r3, #0
 648 0366 0022     		movs	r2, #0
 649 0368 0221     		movs	r1, #2
 650 036a FFF7FEFF 		bl	pca9532
 651 036e 0300     		movs	r3, r0
 652 0370 2370     		strb	r3, [r4]
 268:pca9532.c     **** 			mdelay(30);
 653              		.loc 1 268 0 discriminator 3
 654 0372 1E20     		movs	r0, #30
 655 0374 FFF7FEFF 		bl	mdelay
 264:pca9532.c     **** 		{
 656              		.loc 1 264 0 discriminator 3
 657 0378 7B19     		adds	r3, r7, r5
 658 037a 7A19     		adds	r2, r7, r5
 659 037c 1278     		ldrb	r2, [r2]
 660 037e 0132     		adds	r2, r2, #1
 661 0380 1A70     		strb	r2, [r3]
 662              	.L26:
 264:pca9532.c     **** 		{
 663              		.loc 1 264 0 is_stmt 0 discriminator 1
 664 0382 1723     		movs	r3, #23
 665 0384 FB18     		adds	r3, r7, r3
 666 0386 1B78     		ldrb	r3, [r3]
 667 0388 0F2B     		cmp	r3, #15
 668 038a E0D9     		bls	.L27
 669              	.L28:
 670              	.LBE2:
 269:pca9532.c     **** 		}
 270:pca9532.c     **** 	}
 271:pca9532.c     **** }
 671              		.loc 1 271 0 is_stmt 1
 672 038c C046     		nop
 673 038e BD46     		mov	sp, r7
 674 0390 06B0     		add	sp, sp, #24
 675              		@ sp needed
 676 0392 B0BC     		pop	{r4, r5, r7}
 677 0394 01BC     		pop	{r0}
 678 0396 0047     		bx	r0
 679              	.L30:
 680              		.align	2
 681              	.L29:
 682 0398 088002E0 		.word	-536707064
 683 039c 048002E0 		.word	-536707068
 684 03a0 188002E0 		.word	-536707048
 685 03a4 148002E0 		.word	-536707052
 686 03a8 1C8002E0 		.word	-536707044
 687 03ac FFFF0FFF 		.word	-15728641
 688              		.cfi_endproc
 689              	.LFE3:
 690              		.size	manageLED, .-manageLED
 691              	.Letext0:
 692              		.file 2 "general.h"
ARM GAS  C:\Users\embedded\AppData\Local\Temp\ccK9Qwbb.s 			page 18


 693              		.section	.debug_info,"",%progbits
 694              	.Ldebug_info0:
 695 0000 6B020000 		.4byte	0x26b
 696 0004 0200     		.2byte	0x2
 697 0006 00000000 		.4byte	.Ldebug_abbrev0
 698 000a 04       		.byte	0x4
 699 000b 01       		.uleb128 0x1
 700 000c C6000000 		.4byte	.LASF29
 701 0010 0C       		.byte	0xc
 702 0011 89010000 		.4byte	.LASF30
 703 0015 58010000 		.4byte	.LASF31
 704 0019 00000000 		.4byte	.Ltext0
 705 001d B0030000 		.4byte	.Letext0
 706 0021 00000000 		.4byte	.Ldebug_line0
 707 0025 02       		.uleb128 0x2
 708 0026 74553800 		.ascii	"tU8\000"
 709 002a 02       		.byte	0x2
 710 002b 20       		.byte	0x20
 711 002c 30000000 		.4byte	0x30
 712 0030 03       		.uleb128 0x3
 713 0031 01       		.byte	0x1
 714 0032 08       		.byte	0x8
 715 0033 90000000 		.4byte	.LASF1
 716 0037 04       		.uleb128 0x4
 717 0038 AA010000 		.4byte	.LASF0
 718 003c 02       		.byte	0x2
 719 003d 21       		.byte	0x21
 720 003e 42000000 		.4byte	0x42
 721 0042 03       		.uleb128 0x3
 722 0043 02       		.byte	0x2
 723 0044 07       		.byte	0x7
 724 0045 76010000 		.4byte	.LASF2
 725 0049 03       		.uleb128 0x3
 726 004a 04       		.byte	0x4
 727 004b 07       		.byte	0x7
 728 004c 14000000 		.4byte	.LASF3
 729 0050 03       		.uleb128 0x3
 730 0051 08       		.byte	0x8
 731 0052 07       		.byte	0x7
 732 0053 5B000000 		.4byte	.LASF4
 733 0057 02       		.uleb128 0x2
 734 0058 74533800 		.ascii	"tS8\000"
 735 005c 02       		.byte	0x2
 736 005d 24       		.byte	0x24
 737 005e 62000000 		.4byte	0x62
 738 0062 03       		.uleb128 0x3
 739 0063 01       		.byte	0x1
 740 0064 06       		.byte	0x6
 741 0065 CC010000 		.4byte	.LASF5
 742 0069 03       		.uleb128 0x3
 743 006a 02       		.byte	0x2
 744 006b 05       		.byte	0x5
 745 006c B5010000 		.4byte	.LASF6
 746 0070 05       		.uleb128 0x5
 747 0071 04       		.byte	0x4
 748 0072 05       		.byte	0x5
 749 0073 696E7400 		.ascii	"int\000"
ARM GAS  C:\Users\embedded\AppData\Local\Temp\ccK9Qwbb.s 			page 19


 750 0077 03       		.uleb128 0x3
 751 0078 08       		.byte	0x8
 752 0079 05       		.byte	0x5
 753 007a 00000000 		.4byte	.LASF7
 754 007e 06       		.uleb128 0x6
 755 007f 07       		.byte	0x7
 756 0080 01       		.byte	0x1
 757 0081 30000000 		.4byte	0x30
 758 0085 02       		.byte	0x2
 759 0086 28       		.byte	0x28
 760 0087 98000000 		.4byte	0x98
 761 008b 07       		.uleb128 0x7
 762 008c 4E000000 		.4byte	.LASF8
 763 0090 00       		.byte	0
 764 0091 07       		.uleb128 0x7
 765 0092 9E000000 		.4byte	.LASF9
 766 0096 01       		.byte	0x1
 767 0097 00       		.byte	0
 768 0098 04       		.uleb128 0x4
 769 0099 AF010000 		.4byte	.LASF10
 770 009d 02       		.byte	0x2
 771 009e 29       		.byte	0x29
 772 009f 7E000000 		.4byte	0x7e
 773 00a3 08       		.uleb128 0x8
 774 00a4 01       		.byte	0x1
 775 00a5 4E010000 		.4byte	.LASF19
 776 00a9 01       		.byte	0x1
 777 00aa D4       		.byte	0xd4
 778 00ab 01       		.byte	0x1
 779 00ac C0010000 		.4byte	.LFB3
 780 00b0 B0030000 		.4byte	.LFE3
 781 00b4 00000000 		.4byte	.LLST3
 782 00b8 01       		.byte	0x1
 783 00b9 4D010000 		.4byte	0x14d
 784 00bd 09       		.uleb128 0x9
 785 00be B7000000 		.4byte	.LASF21
 786 00c2 01       		.byte	0x1
 787 00c3 D4       		.byte	0xd4
 788 00c4 25000000 		.4byte	0x25
 789 00c8 02       		.byte	0x2
 790 00c9 91       		.byte	0x91
 791 00ca 5F       		.sleb128 -33
 792 00cb 0A       		.uleb128 0xa
 793 00cc BF010000 		.4byte	.LASF11
 794 00d0 01       		.byte	0x1
 795 00d1 E2       		.byte	0xe2
 796 00d2 25000000 		.4byte	0x25
 797 00d6 02       		.byte	0x2
 798 00d7 91       		.byte	0x91
 799 00d8 6D       		.sleb128 -19
 800 00d9 0A       		.uleb128 0xa
 801 00da 72000000 		.4byte	.LASF12
 802 00de 01       		.byte	0x1
 803 00df E3       		.byte	0xe3
 804 00e0 25000000 		.4byte	0x25
 805 00e4 02       		.byte	0x2
 806 00e5 91       		.byte	0x91
ARM GAS  C:\Users\embedded\AppData\Local\Temp\ccK9Qwbb.s 			page 20


 807 00e6 6C       		.sleb128 -20
 808 00e7 0A       		.uleb128 0xa
 809 00e8 A3000000 		.4byte	.LASF13
 810 00ec 01       		.byte	0x1
 811 00ed E5       		.byte	0xe5
 812 00ee 25000000 		.4byte	0x25
 813 00f2 02       		.byte	0x2
 814 00f3 91       		.byte	0x91
 815 00f4 6B       		.sleb128 -21
 816 00f5 0A       		.uleb128 0xa
 817 00f6 36000000 		.4byte	.LASF14
 818 00fa 01       		.byte	0x1
 819 00fb E6       		.byte	0xe6
 820 00fc 25000000 		.4byte	0x25
 821 0100 02       		.byte	0x2
 822 0101 91       		.byte	0x91
 823 0102 6A       		.sleb128 -22
 824 0103 0A       		.uleb128 0xa
 825 0104 D8010000 		.4byte	.LASF15
 826 0108 01       		.byte	0x1
 827 0109 E9       		.byte	0xe9
 828 010a 4D010000 		.4byte	0x14d
 829 010e 02       		.byte	0x2
 830 010f 91       		.byte	0x91
 831 0110 64       		.sleb128 -28
 832 0111 0B       		.uleb128 0xb
 833 0112 A1010000 		.4byte	.LASF18
 834 0116 01       		.byte	0x1
 835 0117 EB       		.byte	0xeb
 836 0118 25000000 		.4byte	0x25
 837 011c 0A       		.uleb128 0xa
 838 011d AF000000 		.4byte	.LASF16
 839 0121 01       		.byte	0x1
 840 0122 EC       		.byte	0xec
 841 0123 57000000 		.4byte	0x57
 842 0127 02       		.byte	0x2
 843 0128 91       		.byte	0x91
 844 0129 69       		.sleb128 -23
 845 012a 0C       		.uleb128 0xc
 846 012b 5E020000 		.4byte	.LBB2
 847 012f 8C030000 		.4byte	.LBE2
 848 0133 0D       		.uleb128 0xd
 849 0134 6900     		.ascii	"i\000"
 850 0136 01       		.byte	0x1
 851 0137 F0       		.byte	0xf0
 852 0138 25000000 		.4byte	0x25
 853 013c 02       		.byte	0x2
 854 013d 91       		.byte	0x91
 855 013e 6F       		.sleb128 -17
 856 013f 0D       		.uleb128 0xd
 857 0140 6A00     		.ascii	"j\000"
 858 0142 01       		.byte	0x1
 859 0143 F1       		.byte	0xf1
 860 0144 25000000 		.4byte	0x25
 861 0148 02       		.byte	0x2
 862 0149 91       		.byte	0x91
 863 014a 6E       		.sleb128 -18
ARM GAS  C:\Users\embedded\AppData\Local\Temp\ccK9Qwbb.s 			page 21


 864 014b 00       		.byte	0
 865 014c 00       		.byte	0
 866 014d 0E       		.uleb128 0xe
 867 014e 25000000 		.4byte	0x25
 868 0152 5D010000 		.4byte	0x15d
 869 0156 0F       		.uleb128 0xf
 870 0157 49000000 		.4byte	0x49
 871 015b 01       		.byte	0x1
 872 015c 00       		.byte	0
 873 015d 10       		.uleb128 0x10
 874 015e 01       		.byte	0x1
 875 015f 21000000 		.4byte	.LASF25
 876 0163 01       		.byte	0x1
 877 0164 B7       		.byte	0xb7
 878 0165 01       		.byte	0x1
 879 0166 37000000 		.4byte	0x37
 880 016a 7A010000 		.4byte	.LFB2
 881 016e C0010000 		.4byte	.LFE2
 882 0172 38000000 		.4byte	.LLST2
 883 0176 01       		.byte	0x1
 884 0177 A6010000 		.4byte	0x1a6
 885 017b 0A       		.uleb128 0xa
 886 017c 46010000 		.4byte	.LASF17
 887 0180 01       		.byte	0x1
 888 0181 B9       		.byte	0xb9
 889 0182 A6010000 		.4byte	0x1a6
 890 0186 02       		.byte	0x2
 891 0187 91       		.byte	0x91
 892 0188 6C       		.sleb128 -20
 893 0189 0A       		.uleb128 0xa
 894 018a A1010000 		.4byte	.LASF18
 895 018e 01       		.byte	0x1
 896 018f BB       		.byte	0xbb
 897 0190 B6010000 		.4byte	0x1b6
 898 0194 02       		.byte	0x2
 899 0195 91       		.byte	0x91
 900 0196 68       		.sleb128 -24
 901 0197 0A       		.uleb128 0xa
 902 0198 AF000000 		.4byte	.LASF16
 903 019c 01       		.byte	0x1
 904 019d BC       		.byte	0xbc
 905 019e 57000000 		.4byte	0x57
 906 01a2 02       		.byte	0x2
 907 01a3 91       		.byte	0x91
 908 01a4 6F       		.sleb128 -17
 909 01a5 00       		.byte	0
 910 01a6 0E       		.uleb128 0xe
 911 01a7 25000000 		.4byte	0x25
 912 01ab B6010000 		.4byte	0x1b6
 913 01af 0F       		.uleb128 0xf
 914 01b0 49000000 		.4byte	0x49
 915 01b4 00       		.byte	0
 916 01b5 00       		.byte	0
 917 01b6 0E       		.uleb128 0xe
 918 01b7 25000000 		.4byte	0x25
 919 01bb C6010000 		.4byte	0x1c6
 920 01bf 0F       		.uleb128 0xf
ARM GAS  C:\Users\embedded\AppData\Local\Temp\ccK9Qwbb.s 			page 22


 921 01c0 49000000 		.4byte	0x49
 922 01c4 02       		.byte	0x2
 923 01c5 00       		.byte	0
 924 01c6 08       		.uleb128 0x8
 925 01c7 01       		.byte	0x1
 926 01c8 93010000 		.4byte	.LASF20
 927 01cc 01       		.byte	0x1
 928 01cd 7F       		.byte	0x7f
 929 01ce 01       		.byte	0x1
 930 01cf 4C000000 		.4byte	.LFB1
 931 01d3 7A010000 		.4byte	.LFE1
 932 01d7 70000000 		.4byte	.LLST1
 933 01db 01       		.byte	0x1
 934 01dc 27020000 		.4byte	0x227
 935 01e0 09       		.uleb128 0x9
 936 01e1 2F000000 		.4byte	.LASF22
 937 01e5 01       		.byte	0x1
 938 01e6 7F       		.byte	0x7f
 939 01e7 25000000 		.4byte	0x25
 940 01eb 02       		.byte	0x2
 941 01ec 91       		.byte	0x91
 942 01ed 67       		.sleb128 -25
 943 01ee 09       		.uleb128 0x9
 944 01ef 0E000000 		.4byte	.LASF23
 945 01f3 01       		.byte	0x1
 946 01f4 7F       		.byte	0x7f
 947 01f5 25000000 		.4byte	0x25
 948 01f9 02       		.byte	0x2
 949 01fa 91       		.byte	0x91
 950 01fb 66       		.sleb128 -26
 951 01fc 0A       		.uleb128 0xa
 952 01fd 46010000 		.4byte	.LASF17
 953 0201 01       		.byte	0x1
 954 0202 81       		.byte	0x81
 955 0203 4D010000 		.4byte	0x14d
 956 0207 02       		.byte	0x2
 957 0208 91       		.byte	0x91
 958 0209 6C       		.sleb128 -20
 959 020a 0A       		.uleb128 0xa
 960 020b A1010000 		.4byte	.LASF18
 961 020f 01       		.byte	0x1
 962 0210 83       		.byte	0x83
 963 0211 25000000 		.4byte	0x25
 964 0215 02       		.byte	0x2
 965 0216 91       		.byte	0x91
 966 0217 6B       		.sleb128 -21
 967 0218 0A       		.uleb128 0xa
 968 0219 8B000000 		.4byte	.LASF24
 969 021d 01       		.byte	0x1
 970 021e 84       		.byte	0x84
 971 021f 25000000 		.4byte	0x25
 972 0223 02       		.byte	0x2
 973 0224 91       		.byte	0x91
 974 0225 6F       		.sleb128 -17
 975 0226 00       		.byte	0
 976 0227 10       		.uleb128 0x10
 977 0228 01       		.byte	0x1
ARM GAS  C:\Users\embedded\AppData\Local\Temp\ccK9Qwbb.s 			page 23


 978 0229 42000000 		.4byte	.LASF26
 979 022d 01       		.byte	0x1
 980 022e 64       		.byte	0x64
 981 022f 01       		.byte	0x1
 982 0230 98000000 		.4byte	0x98
 983 0234 00000000 		.4byte	.LFB0
 984 0238 4C000000 		.4byte	.LFE0
 985 023c A8000000 		.4byte	.LLST0
 986 0240 01       		.byte	0x1
 987 0241 62020000 		.4byte	0x262
 988 0245 0A       		.uleb128 0xa
 989 0246 7F000000 		.4byte	.LASF27
 990 024a 01       		.byte	0x1
 991 024b 66       		.byte	0x66
 992 024c 62020000 		.4byte	0x262
 993 0250 02       		.byte	0x2
 994 0251 91       		.byte	0x91
 995 0252 6C       		.sleb128 -20
 996 0253 0A       		.uleb128 0xa
 997 0254 54000000 		.4byte	.LASF28
 998 0258 01       		.byte	0x1
 999 0259 6B       		.byte	0x6b
 1000 025a 98000000 		.4byte	0x98
 1001 025e 02       		.byte	0x2
 1002 025f 91       		.byte	0x91
 1003 0260 77       		.sleb128 -9
 1004 0261 00       		.byte	0
 1005 0262 11       		.uleb128 0x11
 1006 0263 25000000 		.4byte	0x25
 1007 0267 0F       		.uleb128 0xf
 1008 0268 49000000 		.4byte	0x49
 1009 026c 08       		.byte	0x8
 1010 026d 00       		.byte	0
 1011 026e 00       		.byte	0
 1012              		.section	.debug_abbrev,"",%progbits
 1013              	.Ldebug_abbrev0:
 1014 0000 01       		.uleb128 0x1
 1015 0001 11       		.uleb128 0x11
 1016 0002 01       		.byte	0x1
 1017 0003 25       		.uleb128 0x25
 1018 0004 0E       		.uleb128 0xe
 1019 0005 13       		.uleb128 0x13
 1020 0006 0B       		.uleb128 0xb
 1021 0007 03       		.uleb128 0x3
 1022 0008 0E       		.uleb128 0xe
 1023 0009 1B       		.uleb128 0x1b
 1024 000a 0E       		.uleb128 0xe
 1025 000b 11       		.uleb128 0x11
 1026 000c 01       		.uleb128 0x1
 1027 000d 12       		.uleb128 0x12
 1028 000e 01       		.uleb128 0x1
 1029 000f 10       		.uleb128 0x10
 1030 0010 06       		.uleb128 0x6
 1031 0011 00       		.byte	0
 1032 0012 00       		.byte	0
 1033 0013 02       		.uleb128 0x2
 1034 0014 16       		.uleb128 0x16
ARM GAS  C:\Users\embedded\AppData\Local\Temp\ccK9Qwbb.s 			page 24


 1035 0015 00       		.byte	0
 1036 0016 03       		.uleb128 0x3
 1037 0017 08       		.uleb128 0x8
 1038 0018 3A       		.uleb128 0x3a
 1039 0019 0B       		.uleb128 0xb
 1040 001a 3B       		.uleb128 0x3b
 1041 001b 0B       		.uleb128 0xb
 1042 001c 49       		.uleb128 0x49
 1043 001d 13       		.uleb128 0x13
 1044 001e 00       		.byte	0
 1045 001f 00       		.byte	0
 1046 0020 03       		.uleb128 0x3
 1047 0021 24       		.uleb128 0x24
 1048 0022 00       		.byte	0
 1049 0023 0B       		.uleb128 0xb
 1050 0024 0B       		.uleb128 0xb
 1051 0025 3E       		.uleb128 0x3e
 1052 0026 0B       		.uleb128 0xb
 1053 0027 03       		.uleb128 0x3
 1054 0028 0E       		.uleb128 0xe
 1055 0029 00       		.byte	0
 1056 002a 00       		.byte	0
 1057 002b 04       		.uleb128 0x4
 1058 002c 16       		.uleb128 0x16
 1059 002d 00       		.byte	0
 1060 002e 03       		.uleb128 0x3
 1061 002f 0E       		.uleb128 0xe
 1062 0030 3A       		.uleb128 0x3a
 1063 0031 0B       		.uleb128 0xb
 1064 0032 3B       		.uleb128 0x3b
 1065 0033 0B       		.uleb128 0xb
 1066 0034 49       		.uleb128 0x49
 1067 0035 13       		.uleb128 0x13
 1068 0036 00       		.byte	0
 1069 0037 00       		.byte	0
 1070 0038 05       		.uleb128 0x5
 1071 0039 24       		.uleb128 0x24
 1072 003a 00       		.byte	0
 1073 003b 0B       		.uleb128 0xb
 1074 003c 0B       		.uleb128 0xb
 1075 003d 3E       		.uleb128 0x3e
 1076 003e 0B       		.uleb128 0xb
 1077 003f 03       		.uleb128 0x3
 1078 0040 08       		.uleb128 0x8
 1079 0041 00       		.byte	0
 1080 0042 00       		.byte	0
 1081 0043 06       		.uleb128 0x6
 1082 0044 04       		.uleb128 0x4
 1083 0045 01       		.byte	0x1
 1084 0046 3E       		.uleb128 0x3e
 1085 0047 0B       		.uleb128 0xb
 1086 0048 0B       		.uleb128 0xb
 1087 0049 0B       		.uleb128 0xb
 1088 004a 49       		.uleb128 0x49
 1089 004b 13       		.uleb128 0x13
 1090 004c 3A       		.uleb128 0x3a
 1091 004d 0B       		.uleb128 0xb
ARM GAS  C:\Users\embedded\AppData\Local\Temp\ccK9Qwbb.s 			page 25


 1092 004e 3B       		.uleb128 0x3b
 1093 004f 0B       		.uleb128 0xb
 1094 0050 01       		.uleb128 0x1
 1095 0051 13       		.uleb128 0x13
 1096 0052 00       		.byte	0
 1097 0053 00       		.byte	0
 1098 0054 07       		.uleb128 0x7
 1099 0055 28       		.uleb128 0x28
 1100 0056 00       		.byte	0
 1101 0057 03       		.uleb128 0x3
 1102 0058 0E       		.uleb128 0xe
 1103 0059 1C       		.uleb128 0x1c
 1104 005a 0B       		.uleb128 0xb
 1105 005b 00       		.byte	0
 1106 005c 00       		.byte	0
 1107 005d 08       		.uleb128 0x8
 1108 005e 2E       		.uleb128 0x2e
 1109 005f 01       		.byte	0x1
 1110 0060 3F       		.uleb128 0x3f
 1111 0061 0C       		.uleb128 0xc
 1112 0062 03       		.uleb128 0x3
 1113 0063 0E       		.uleb128 0xe
 1114 0064 3A       		.uleb128 0x3a
 1115 0065 0B       		.uleb128 0xb
 1116 0066 3B       		.uleb128 0x3b
 1117 0067 0B       		.uleb128 0xb
 1118 0068 27       		.uleb128 0x27
 1119 0069 0C       		.uleb128 0xc
 1120 006a 11       		.uleb128 0x11
 1121 006b 01       		.uleb128 0x1
 1122 006c 12       		.uleb128 0x12
 1123 006d 01       		.uleb128 0x1
 1124 006e 40       		.uleb128 0x40
 1125 006f 06       		.uleb128 0x6
 1126 0070 9642     		.uleb128 0x2116
 1127 0072 0C       		.uleb128 0xc
 1128 0073 01       		.uleb128 0x1
 1129 0074 13       		.uleb128 0x13
 1130 0075 00       		.byte	0
 1131 0076 00       		.byte	0
 1132 0077 09       		.uleb128 0x9
 1133 0078 05       		.uleb128 0x5
 1134 0079 00       		.byte	0
 1135 007a 03       		.uleb128 0x3
 1136 007b 0E       		.uleb128 0xe
 1137 007c 3A       		.uleb128 0x3a
 1138 007d 0B       		.uleb128 0xb
 1139 007e 3B       		.uleb128 0x3b
 1140 007f 0B       		.uleb128 0xb
 1141 0080 49       		.uleb128 0x49
 1142 0081 13       		.uleb128 0x13
 1143 0082 02       		.uleb128 0x2
 1144 0083 0A       		.uleb128 0xa
 1145 0084 00       		.byte	0
 1146 0085 00       		.byte	0
 1147 0086 0A       		.uleb128 0xa
 1148 0087 34       		.uleb128 0x34
ARM GAS  C:\Users\embedded\AppData\Local\Temp\ccK9Qwbb.s 			page 26


 1149 0088 00       		.byte	0
 1150 0089 03       		.uleb128 0x3
 1151 008a 0E       		.uleb128 0xe
 1152 008b 3A       		.uleb128 0x3a
 1153 008c 0B       		.uleb128 0xb
 1154 008d 3B       		.uleb128 0x3b
 1155 008e 0B       		.uleb128 0xb
 1156 008f 49       		.uleb128 0x49
 1157 0090 13       		.uleb128 0x13
 1158 0091 02       		.uleb128 0x2
 1159 0092 0A       		.uleb128 0xa
 1160 0093 00       		.byte	0
 1161 0094 00       		.byte	0
 1162 0095 0B       		.uleb128 0xb
 1163 0096 34       		.uleb128 0x34
 1164 0097 00       		.byte	0
 1165 0098 03       		.uleb128 0x3
 1166 0099 0E       		.uleb128 0xe
 1167 009a 3A       		.uleb128 0x3a
 1168 009b 0B       		.uleb128 0xb
 1169 009c 3B       		.uleb128 0x3b
 1170 009d 0B       		.uleb128 0xb
 1171 009e 49       		.uleb128 0x49
 1172 009f 13       		.uleb128 0x13
 1173 00a0 00       		.byte	0
 1174 00a1 00       		.byte	0
 1175 00a2 0C       		.uleb128 0xc
 1176 00a3 0B       		.uleb128 0xb
 1177 00a4 01       		.byte	0x1
 1178 00a5 11       		.uleb128 0x11
 1179 00a6 01       		.uleb128 0x1
 1180 00a7 12       		.uleb128 0x12
 1181 00a8 01       		.uleb128 0x1
 1182 00a9 00       		.byte	0
 1183 00aa 00       		.byte	0
 1184 00ab 0D       		.uleb128 0xd
 1185 00ac 34       		.uleb128 0x34
 1186 00ad 00       		.byte	0
 1187 00ae 03       		.uleb128 0x3
 1188 00af 08       		.uleb128 0x8
 1189 00b0 3A       		.uleb128 0x3a
 1190 00b1 0B       		.uleb128 0xb
 1191 00b2 3B       		.uleb128 0x3b
 1192 00b3 0B       		.uleb128 0xb
 1193 00b4 49       		.uleb128 0x49
 1194 00b5 13       		.uleb128 0x13
 1195 00b6 02       		.uleb128 0x2
 1196 00b7 0A       		.uleb128 0xa
 1197 00b8 00       		.byte	0
 1198 00b9 00       		.byte	0
 1199 00ba 0E       		.uleb128 0xe
 1200 00bb 01       		.uleb128 0x1
 1201 00bc 01       		.byte	0x1
 1202 00bd 49       		.uleb128 0x49
 1203 00be 13       		.uleb128 0x13
 1204 00bf 01       		.uleb128 0x1
 1205 00c0 13       		.uleb128 0x13
ARM GAS  C:\Users\embedded\AppData\Local\Temp\ccK9Qwbb.s 			page 27


 1206 00c1 00       		.byte	0
 1207 00c2 00       		.byte	0
 1208 00c3 0F       		.uleb128 0xf
 1209 00c4 21       		.uleb128 0x21
 1210 00c5 00       		.byte	0
 1211 00c6 49       		.uleb128 0x49
 1212 00c7 13       		.uleb128 0x13
 1213 00c8 2F       		.uleb128 0x2f
 1214 00c9 0B       		.uleb128 0xb
 1215 00ca 00       		.byte	0
 1216 00cb 00       		.byte	0
 1217 00cc 10       		.uleb128 0x10
 1218 00cd 2E       		.uleb128 0x2e
 1219 00ce 01       		.byte	0x1
 1220 00cf 3F       		.uleb128 0x3f
 1221 00d0 0C       		.uleb128 0xc
 1222 00d1 03       		.uleb128 0x3
 1223 00d2 0E       		.uleb128 0xe
 1224 00d3 3A       		.uleb128 0x3a
 1225 00d4 0B       		.uleb128 0xb
 1226 00d5 3B       		.uleb128 0x3b
 1227 00d6 0B       		.uleb128 0xb
 1228 00d7 27       		.uleb128 0x27
 1229 00d8 0C       		.uleb128 0xc
 1230 00d9 49       		.uleb128 0x49
 1231 00da 13       		.uleb128 0x13
 1232 00db 11       		.uleb128 0x11
 1233 00dc 01       		.uleb128 0x1
 1234 00dd 12       		.uleb128 0x12
 1235 00de 01       		.uleb128 0x1
 1236 00df 40       		.uleb128 0x40
 1237 00e0 06       		.uleb128 0x6
 1238 00e1 9642     		.uleb128 0x2116
 1239 00e3 0C       		.uleb128 0xc
 1240 00e4 01       		.uleb128 0x1
 1241 00e5 13       		.uleb128 0x13
 1242 00e6 00       		.byte	0
 1243 00e7 00       		.byte	0
 1244 00e8 11       		.uleb128 0x11
 1245 00e9 01       		.uleb128 0x1
 1246 00ea 01       		.byte	0x1
 1247 00eb 49       		.uleb128 0x49
 1248 00ec 13       		.uleb128 0x13
 1249 00ed 00       		.byte	0
 1250 00ee 00       		.byte	0
 1251 00ef 00       		.byte	0
 1252              		.section	.debug_loc,"",%progbits
 1253              	.Ldebug_loc0:
 1254              	.LLST3:
 1255 0000 C0010000 		.4byte	.LFB3-.Ltext0
 1256 0004 C2010000 		.4byte	.LCFI9-.Ltext0
 1257 0008 0200     		.2byte	0x2
 1258 000a 7D       		.byte	0x7d
 1259 000b 00       		.sleb128 0
 1260 000c C2010000 		.4byte	.LCFI9-.Ltext0
 1261 0010 C4010000 		.4byte	.LCFI10-.Ltext0
 1262 0014 0200     		.2byte	0x2
ARM GAS  C:\Users\embedded\AppData\Local\Temp\ccK9Qwbb.s 			page 28


 1263 0016 7D       		.byte	0x7d
 1264 0017 10       		.sleb128 16
 1265 0018 C4010000 		.4byte	.LCFI10-.Ltext0
 1266 001c C6010000 		.4byte	.LCFI11-.Ltext0
 1267 0020 0200     		.2byte	0x2
 1268 0022 7D       		.byte	0x7d
 1269 0023 28       		.sleb128 40
 1270 0024 C6010000 		.4byte	.LCFI11-.Ltext0
 1271 0028 B0030000 		.4byte	.LFE3-.Ltext0
 1272 002c 0200     		.2byte	0x2
 1273 002e 77       		.byte	0x77
 1274 002f 28       		.sleb128 40
 1275 0030 00000000 		.4byte	0
 1276 0034 00000000 		.4byte	0
 1277              	.LLST2:
 1278 0038 7A010000 		.4byte	.LFB2-.Ltext0
 1279 003c 7C010000 		.4byte	.LCFI6-.Ltext0
 1280 0040 0200     		.2byte	0x2
 1281 0042 7D       		.byte	0x7d
 1282 0043 00       		.sleb128 0
 1283 0044 7C010000 		.4byte	.LCFI6-.Ltext0
 1284 0048 7E010000 		.4byte	.LCFI7-.Ltext0
 1285 004c 0200     		.2byte	0x2
 1286 004e 7D       		.byte	0x7d
 1287 004f 0C       		.sleb128 12
 1288 0050 7E010000 		.4byte	.LCFI7-.Ltext0
 1289 0054 80010000 		.4byte	.LCFI8-.Ltext0
 1290 0058 0200     		.2byte	0x2
 1291 005a 7D       		.byte	0x7d
 1292 005b 18       		.sleb128 24
 1293 005c 80010000 		.4byte	.LCFI8-.Ltext0
 1294 0060 C0010000 		.4byte	.LFE2-.Ltext0
 1295 0064 0200     		.2byte	0x2
 1296 0066 77       		.byte	0x77
 1297 0067 18       		.sleb128 24
 1298 0068 00000000 		.4byte	0
 1299 006c 00000000 		.4byte	0
 1300              	.LLST1:
 1301 0070 4C000000 		.4byte	.LFB1-.Ltext0
 1302 0074 4E000000 		.4byte	.LCFI3-.Ltext0
 1303 0078 0200     		.2byte	0x2
 1304 007a 7D       		.byte	0x7d
 1305 007b 00       		.sleb128 0
 1306 007c 4E000000 		.4byte	.LCFI3-.Ltext0
 1307 0080 50000000 		.4byte	.LCFI4-.Ltext0
 1308 0084 0200     		.2byte	0x2
 1309 0086 7D       		.byte	0x7d
 1310 0087 0C       		.sleb128 12
 1311 0088 50000000 		.4byte	.LCFI4-.Ltext0
 1312 008c 52000000 		.4byte	.LCFI5-.Ltext0
 1313 0090 0200     		.2byte	0x2
 1314 0092 7D       		.byte	0x7d
 1315 0093 20       		.sleb128 32
 1316 0094 52000000 		.4byte	.LCFI5-.Ltext0
 1317 0098 7A010000 		.4byte	.LFE1-.Ltext0
 1318 009c 0200     		.2byte	0x2
 1319 009e 77       		.byte	0x77
ARM GAS  C:\Users\embedded\AppData\Local\Temp\ccK9Qwbb.s 			page 29


 1320 009f 20       		.sleb128 32
 1321 00a0 00000000 		.4byte	0
 1322 00a4 00000000 		.4byte	0
 1323              	.LLST0:
 1324 00a8 00000000 		.4byte	.LFB0-.Ltext0
 1325 00ac 02000000 		.4byte	.LCFI0-.Ltext0
 1326 00b0 0200     		.2byte	0x2
 1327 00b2 7D       		.byte	0x7d
 1328 00b3 00       		.sleb128 0
 1329 00b4 02000000 		.4byte	.LCFI0-.Ltext0
 1330 00b8 04000000 		.4byte	.LCFI1-.Ltext0
 1331 00bc 0200     		.2byte	0x2
 1332 00be 7D       		.byte	0x7d
 1333 00bf 08       		.sleb128 8
 1334 00c0 04000000 		.4byte	.LCFI1-.Ltext0
 1335 00c4 06000000 		.4byte	.LCFI2-.Ltext0
 1336 00c8 0200     		.2byte	0x2
 1337 00ca 7D       		.byte	0x7d
 1338 00cb 18       		.sleb128 24
 1339 00cc 06000000 		.4byte	.LCFI2-.Ltext0
 1340 00d0 4C000000 		.4byte	.LFE0-.Ltext0
 1341 00d4 0200     		.2byte	0x2
 1342 00d6 77       		.byte	0x77
 1343 00d7 18       		.sleb128 24
 1344 00d8 00000000 		.4byte	0
 1345 00dc 00000000 		.4byte	0
 1346              		.section	.debug_aranges,"",%progbits
 1347 0000 1C000000 		.4byte	0x1c
 1348 0004 0200     		.2byte	0x2
 1349 0006 00000000 		.4byte	.Ldebug_info0
 1350 000a 04       		.byte	0x4
 1351 000b 00       		.byte	0
 1352 000c 0000     		.2byte	0
 1353 000e 0000     		.2byte	0
 1354 0010 00000000 		.4byte	.Ltext0
 1355 0014 B0030000 		.4byte	.Letext0-.Ltext0
 1356 0018 00000000 		.4byte	0
 1357 001c 00000000 		.4byte	0
 1358              		.section	.debug_line,"",%progbits
 1359              	.Ldebug_line0:
 1360 0000 D1000000 		.section	.debug_str,"MS",%progbits,1
 1360      02002D00 
 1360      00000201 
 1360      FB0E0D00 
 1360      01010101 
 1361              	.LASF7:
 1362 0000 6C6F6E67 		.ascii	"long long int\000"
 1362      206C6F6E 
 1362      6720696E 
 1362      7400
 1363              	.LASF23:
 1364 000e 76616C75 		.ascii	"value\000"
 1364      6500
 1365              	.LASF3:
 1366 0014 756E7369 		.ascii	"unsigned int\000"
 1366      676E6564 
 1366      20696E74 
ARM GAS  C:\Users\embedded\AppData\Local\Temp\ccK9Qwbb.s 			page 30


 1366      00
 1367              	.LASF25:
 1368 0021 67657450 		.ascii	"getPca9532Pin\000"
 1368      63613935 
 1368      33325069 
 1368      6E00
 1369              	.LASF22:
 1370 002f 70696E4E 		.ascii	"pinNum\000"
 1370      756D00
 1371              	.LASF14:
 1372 0036 50574D31 		.ascii	"PWM1Address\000"
 1372      41646472 
 1372      65737300 
 1373              	.LASF26:
 1374 0042 70636139 		.ascii	"pca9532Init\000"
 1374      35333249 
 1374      6E697400 
 1375              	.LASF8:
 1376 004e 46414C53 		.ascii	"FALSE\000"
 1376      4500
 1377              	.LASF28:
 1378 0054 72657375 		.ascii	"result\000"
 1378      6C7400
 1379              	.LASF4:
 1380 005b 6C6F6E67 		.ascii	"long long unsigned int\000"
 1380      206C6F6E 
 1380      6720756E 
 1380      7369676E 
 1380      65642069 
 1381              	.LASF12:
 1382 0072 64757479 		.ascii	"dutyCycleTwo\000"
 1382      4379636C 
 1382      6554776F 
 1382      00
 1383              	.LASF27:
 1384 007f 696E6974 		.ascii	"initCommand\000"
 1384      436F6D6D 
 1384      616E6400 
 1385              	.LASF24:
 1386 008b 6D61736B 		.ascii	"mask\000"
 1386      00
 1387              	.LASF1:
 1388 0090 756E7369 		.ascii	"unsigned char\000"
 1388      676E6564 
 1388      20636861 
 1388      7200
 1389              	.LASF9:
 1390 009e 54525545 		.ascii	"TRUE\000"
 1390      00
 1391              	.LASF13:
 1392 00a3 50574D30 		.ascii	"PWM0Address\000"
 1392      41646472 
 1392      65737300 
 1393              	.LASF16:
 1394 00af 72657443 		.ascii	"retCode\000"
 1394      6F646500 
 1395              	.LASF21:
ARM GAS  C:\Users\embedded\AppData\Local\Temp\ccK9Qwbb.s 			page 31


 1396 00b7 70636139 		.ascii	"pca9532Present\000"
 1396      35333250 
 1396      72657365 
 1396      6E7400
 1397              	.LASF29:
 1398 00c6 474E5520 		.ascii	"GNU C11 7.3.1 20180622 (release) [ARM/embedded-7-br"
 1398      43313120 
 1398      372E332E 
 1398      31203230 
 1398      31383036 
 1399 00f9 616E6368 		.ascii	"anch revision 261907] -mcpu=arm7tdmi -mthumb -mthum"
 1399      20726576 
 1399      6973696F 
 1399      6E203236 
 1399      31393037 
 1400 012c 622D696E 		.ascii	"b-interwork -gdwarf-2 -O0\000"
 1400      74657277 
 1400      6F726B20 
 1400      2D676477 
 1400      6172662D 
 1401              	.LASF17:
 1402 0146 636F6D6D 		.ascii	"command\000"
 1402      616E6400 
 1403              	.LASF19:
 1404 014e 6D616E61 		.ascii	"manageLED\000"
 1404      67654C45 
 1404      4400
 1405              	.LASF31:
 1406 0158 433A5C45 		.ascii	"C:\\Embedded\\2138MiniDemo\\2138\000"
 1406      6D626564 
 1406      6465645C 
 1406      32313338 
 1406      4D696E69 
 1407              	.LASF2:
 1408 0176 73686F72 		.ascii	"short unsigned int\000"
 1408      7420756E 
 1408      7369676E 
 1408      65642069 
 1408      6E7400
 1409              	.LASF30:
 1410 0189 70636139 		.ascii	"pca9532.c\000"
 1410      3533322E 
 1410      6300
 1411              	.LASF20:
 1412 0193 73657450 		.ascii	"setPca9532Pin\000"
 1412      63613935 
 1412      33325069 
 1412      6E00
 1413              	.LASF18:
 1414 01a1 72656756 		.ascii	"regValue\000"
 1414      616C7565 
 1414      00
 1415              	.LASF0:
 1416 01aa 74553136 		.ascii	"tU16\000"
 1416      00
 1417              	.LASF10:
 1418 01af 74426F6F 		.ascii	"tBool\000"
ARM GAS  C:\Users\embedded\AppData\Local\Temp\ccK9Qwbb.s 			page 32


 1418      6C00
 1419              	.LASF6:
 1420 01b5 73686F72 		.ascii	"short int\000"
 1420      7420696E 
 1420      7400
 1421              	.LASF11:
 1422 01bf 64757479 		.ascii	"dutyCycleOne\000"
 1422      4379636C 
 1422      654F6E65 
 1422      00
 1423              	.LASF5:
 1424 01cc 7369676E 		.ascii	"signed char\000"
 1424      65642063 
 1424      68617200 
 1425              	.LASF15:
 1426 01d8 636F6D6D 		.ascii	"commandToPCA\000"
 1426      616E6454 
 1426      6F504341 
 1426      00
 1427              		.ident	"GCC: (GNU Tools for Arm Embedded Processors 7-2018-q2-update) 7.3.1 20180622 (release) [AR
ARM GAS  C:\Users\embedded\AppData\Local\Temp\ccK9Qwbb.s 			page 33


DEFINED SYMBOLS
                            *ABS*:00000000 pca9532.c
C:\Users\embedded\AppData\Local\Temp\ccK9Qwbb.s:16     .rodata:00000000 $d
C:\Users\embedded\AppData\Local\Temp\ccK9Qwbb.s:35     .text:00000000 pca9532Init
C:\Users\embedded\AppData\Local\Temp\ccK9Qwbb.s:43     .text:00000000 $t
C:\Users\embedded\AppData\Local\Temp\ccK9Qwbb.s:98     .text:00000048 $d
C:\Users\embedded\AppData\Local\Temp\ccK9Qwbb.s:102    .text:0000004c $t
C:\Users\embedded\AppData\Local\Temp\ccK9Qwbb.s:109    .text:0000004c setPca9532Pin
C:\Users\embedded\AppData\Local\Temp\ccK9Qwbb.s:315    .text:0000017a getPca9532Pin
C:\Users\embedded\AppData\Local\Temp\ccK9Qwbb.s:380    .text:000001c0 manageLED
C:\Users\embedded\AppData\Local\Temp\ccK9Qwbb.s:682    .text:00000398 $d

UNDEFINED SYMBOLS
pca9532
mdelay
