ARM GAS  C:\Users\embedded\AppData\Local\Temp\ccT3fr4S.s 			page 1


   1              		.cpu arm7tdmi
   2              		.eabi_attribute 20, 1
   3              		.eabi_attribute 21, 1
   4              		.eabi_attribute 23, 3
   5              		.eabi_attribute 24, 1
   6              		.eabi_attribute 25, 1
   7              		.eabi_attribute 26, 1
   8              		.eabi_attribute 30, 6
   9              		.eabi_attribute 34, 0
  10              		.eabi_attribute 18, 4
  11              		.file	"tsl2561.c"
  12              		.text
  13              	.Ltext0:
  14              		.cfi_sections	.debug_frame
  15              		.global	__aeabi_lmul
  16              		.global	__aeabi_uldivmod
  17              		.align	1
  18              		.global	calculateBrightness
  19              		.syntax unified
  20              		.code	16
  21              		.thumb_func
  22              		.fpu softvfp
  23              		.type	calculateBrightness, %function
  24              	calculateBrightness:
  25              	.LFB0:
  26              		.file 1 "tsl2561.c"
   1:tsl2561.c     **** /******************************************************************************
   2:tsl2561.c     ****  *  Obs≈Çuga pomiaru jasno≈õci przy pomocy jasno≈õciomierza TSL2561.
   3:tsl2561.c     ****  *
   4:tsl2561.c     ****  *  Plik z kodem ≈∫r√≥d≈Çowym funkcji.
   5:tsl2561.c     ****  *****************************************************************************/
   6:tsl2561.c     **** 
   7:tsl2561.c     **** /******************************************************************************
   8:tsl2561.c     ****  * Includes
   9:tsl2561.c     ****  *****************************************************************************/
  10:tsl2561.c     **** 
  11:tsl2561.c     **** #include "tsl2561.h"
  12:tsl2561.c     **** 
  13:tsl2561.c     **** /******************************************************************************
  14:tsl2561.c     ****  * Defines and typedefs
  15:tsl2561.c     ****  *****************************************************************************/
  16:tsl2561.c     **** 
  17:tsl2561.c     **** #define LUX_SCALE 14  // scale by 2 ^ 14
  18:tsl2561.c     **** #define RATIO_SCALE 9 // scale ratio by 2 ^ 9
  19:tsl2561.c     **** 
  20:tsl2561.c     **** #define CH_SCALE        10      // scale channel values by 2 ^ 10
  21:tsl2561.c     **** #define CHSCALE_TINT0   0x7517  // 322 / 11 * 2 ^ CH_SCALE
  22:tsl2561.c     **** #define CHSCALE_TINT1   0x0FE7  // 322 / 81 * 2 ^ CH_SCALE
  23:tsl2561.c     **** 
  24:tsl2561.c     **** #define tsl2561AddressGND 0x29      // 0x29 = 0b 0010 1001
  25:tsl2561.c     **** #define tsl2561ReadAddressGND 0x53  // 0x53 = 0b 0101 0011
  26:tsl2561.c     **** #define tsl2561WriteAddressGND 0x52 // 0x52 = 0b 0101 0010
  27:tsl2561.c     **** 
  28:tsl2561.c     **** #define tsl2561AddressFloat 0x39      // 0x39 = 0b 0011 1001
  29:tsl2561.c     **** #define tsl2561ReadAddressFloat 0x73  // 0x73 = 0b 0111 0011
  30:tsl2561.c     **** #define tsl2561WriteAddressFloat 0x72 // 0x72 = 0b 0111 0010
  31:tsl2561.c     **** 
ARM GAS  C:\Users\embedded\AppData\Local\Temp\ccT3fr4S.s 			page 2


  32:tsl2561.c     **** #define tsl2561AddressVDD 0x49      // 0x39 = 0b 0100 1001
  33:tsl2561.c     **** #define tsl2561ReadAddressVDD 0x93  // 0x79 = 0b 1001 0011
  34:tsl2561.c     **** #define tsl2561WriteAddressVDD 0x92 // 0x78 = 0b 1001 0010
  35:tsl2561.c     **** 
  36:tsl2561.c     **** #define HIGH_GAIN   0x01
  37:tsl2561.c     **** #define LOW_GAIN    0x00
  38:tsl2561.c     **** 
  39:tsl2561.c     **** #define LOW_INTEG_TIME  0x00
  40:tsl2561.c     **** #define MED_INTEG_TIME  0x01
  41:tsl2561.c     **** #define HIGH_INTEG_TIME 0x02
  42:tsl2561.c     **** 
  43:tsl2561.c     **** // Constants for T, FN and CL package
  44:tsl2561.c     **** 
  45:tsl2561.c     **** #define K1T 0x0040 // 0.1250 * 2 ^ RATIO_SCALE
  46:tsl2561.c     **** #define B1T 0x01f2 // 0.0304 * 2 ^ LUX_SCALE
  47:tsl2561.c     **** #define M1T 0x01be // 0.0272 * 2 ^ LUX_SCALE
  48:tsl2561.c     **** 
  49:tsl2561.c     **** #define K2T 0x0080 // 0.2500 * 2 ^ RATIO_SCALE
  50:tsl2561.c     **** #define B2T 0x0214 // 0.0325 * 2 ^ LUX_SCALE
  51:tsl2561.c     **** #define M2T 0x02d1 // 0.0440 * 2 ^ LUX_SCALE
  52:tsl2561.c     **** 
  53:tsl2561.c     **** #define K3T 0x00c0 // 0.3750 * 2 ^ RATIO_SCALE
  54:tsl2561.c     **** #define B3T 0x023f // 0.0351 * 2 ^ LUX_SCALE
  55:tsl2561.c     **** #define M3T 0x037b // 0.0544 * 2 ^ LUX_SCALE
  56:tsl2561.c     **** 
  57:tsl2561.c     **** #define K4T 0x0100 // 0.5000 * 2 ^ RATIO_SCALE
  58:tsl2561.c     **** #define B4T 0x0270 // 0.0381 * 2 ^ LUX_SCALE
  59:tsl2561.c     **** #define M4T 0x03fe // 0.0624 * 2 ^ LUX_SCALE
  60:tsl2561.c     **** 
  61:tsl2561.c     **** #define K5T 0x0138 // 0.6100 * 2 ^ RATIO_SCALE
  62:tsl2561.c     **** #define B5T 0x016f // 0.0224 * 2 ^ LUX_SCALE
  63:tsl2561.c     **** #define M5T 0x01fc // 0.0310 * 2 ^ LUX_SCALE
  64:tsl2561.c     **** 
  65:tsl2561.c     **** #define K6T 0x019a // 0.8000 * 2 ^ RATIO_SCALE
  66:tsl2561.c     **** #define B6T 0x00d2 // 0.0128 * 2 ^ LUX_SCALE
  67:tsl2561.c     **** #define M6T 0x00fb // 0.0153 * 2 ^ LUX_SCALE
  68:tsl2561.c     **** 
  69:tsl2561.c     **** #define K7T 0x029a // 1.30000 * 2 ^ RATIO_SCALE
  70:tsl2561.c     **** #define B7T 0x0018 // 0.00146 * 2 ^ LUX_SCALE
  71:tsl2561.c     **** #define M7T 0x0012 // 0.00112 * 2 ^ LUX_SCALE
  72:tsl2561.c     **** 
  73:tsl2561.c     **** #define K8T 0x029a // 1.300 * 2 ^ RATIO_SCALE
  74:tsl2561.c     **** #define B8T 0x0000 // 0.000 * 2 ^ LUX_SCALE
  75:tsl2561.c     **** #define M8T 0x0000 // 0.000 * 2 ^ LUX_SCALE
  76:tsl2561.c     **** 
  77:tsl2561.c     **** // Constants for CS package
  78:tsl2561.c     **** 
  79:tsl2561.c     **** #define K1C 0x0043 // 0.1300 * 2 ^ RATIO_SCALE
  80:tsl2561.c     **** #define B1C 0x0204 // 0.0315 * 2 ^ LUX_SCALE
  81:tsl2561.c     **** #define M1C 0x01ad // 0.0262 * 2 ^ LUX_SCALE
  82:tsl2561.c     **** 
  83:tsl2561.c     **** #define K2C 0x0085 // 0.2600 * 2 ^ RATIO_SCALE
  84:tsl2561.c     **** #define B2C 0x0228 // 0.0337 * 2 ^ LUX_SCALE
  85:tsl2561.c     **** #define M2C 0x02c1 // 0.0430 * 2 ^ LUX_SCALE
  86:tsl2561.c     **** 
  87:tsl2561.c     **** #define K3C 0x00c8 // 0.3900 * 2 ^ RATIO_SCALE
  88:tsl2561.c     **** #define B3C 0x0253 // 0.0363 * 2 ^ LUX_SCALE
ARM GAS  C:\Users\embedded\AppData\Local\Temp\ccT3fr4S.s 			page 3


  89:tsl2561.c     **** #define M3C 0x0363 // 0.0529 * 2 ^ LUX_SCALE
  90:tsl2561.c     **** 
  91:tsl2561.c     **** #define K4C 0x010a // 0.5200 * 2 ^ RATIO_SCALE
  92:tsl2561.c     **** #define B4C 0x0282 // 0.0392 * 2 ^ LUX_SCALE
  93:tsl2561.c     **** #define M4C 0x03df // 0.0605 * 2 ^ LUX_SCALE
  94:tsl2561.c     **** 
  95:tsl2561.c     **** #define K5C 0x014d // 0.6500 * 2 ^ RATIO_SCALE
  96:tsl2561.c     **** #define B5C 0x0177 // 0.0229 * 2 ^ LUX_SCALE
  97:tsl2561.c     **** #define M5C 0x01dd // 0.0291 * 2 ^ LUX_SCALE
  98:tsl2561.c     **** 
  99:tsl2561.c     **** #define K6C 0x019a // 0.8000 * 2 ^ RATIO_SCALE
 100:tsl2561.c     **** #define B6C 0x0101 // 0.0157 * 2 ^ LUX_SCALE
 101:tsl2561.c     **** #define M6C 0x0127 // 0.0180 * 2 ^ LUX_SCALE
 102:tsl2561.c     **** 
 103:tsl2561.c     **** #define K7C 0x029a // 1.30000 * 2 ^ RATIO_SCALE
 104:tsl2561.c     **** #define B7C 0x0037 // 0.00338 * 2 ^ LUX_SCALE
 105:tsl2561.c     **** #define M7C 0x002b // 0.00260 * 2 ^ LUX_SCALE
 106:tsl2561.c     **** 
 107:tsl2561.c     **** #define K8C 0x029a // 1.3000 * 2 ^ RATIO_SCALE
 108:tsl2561.c     **** #define B8C 0x0000 // 0.0000 * 2 ^ LUX_SCALE
 109:tsl2561.c     **** #define M8C 0x0000 // 0.0000 * 2 ^ LUX_SCALE
 110:tsl2561.c     **** 
 111:tsl2561.c     **** /*****************************************************************************
 112:tsl2561.c     ****  * Global variables
 113:tsl2561.c     ****  ****************************************************************************/
 114:tsl2561.c     **** 
 115:tsl2561.c     **** /*****************************************************************************
 116:tsl2561.c     ****  * Local variables
 117:tsl2561.c     ****  ****************************************************************************/
 118:tsl2561.c     **** 
 119:tsl2561.c     **** /*****************************************************************************
 120:tsl2561.c     ****  * Local prototypes
 121:tsl2561.c     ****  ****************************************************************************/
 122:tsl2561.c     **** 
 123:tsl2561.c     **** /*
 124:tsl2561.c     ****  * @brief   Funkcja calculateBrightness() wykorzystywana jest do przeliczenia warto≈õci
 125:tsl2561.c     ****  *          z kana≈Ç√≥w 0. oraz 1. na prawid≈ÇowƒÖ warto≈õƒá jasno≈õci wyra≈ºonƒÖ w lux-ach.
 126:tsl2561.c     ****  *
 127:tsl2561.c     ****  * @param   channel0
 128:tsl2561.c     ****  *          Warto≈õƒá odczytana z pary rejestr√≥w po adresami 0xCh i 0xDh z urzƒÖdzenia TSL2561
 129:tsl2561.c     ****  *          reprezentujƒÖca 16 - bitowƒÖ warto≈õƒá (2 rejestry po 8 bit√≥w). Bajtem m≈Çodzszym jest
 130:tsl2561.c     ****  *          bajt z rejestru 0xCh, a starszym - z rejestru 0xDh.
 131:tsl2561.c     ****  * @param   channel1
 132:tsl2561.c     ****  *          Warto≈õƒá odczytana z pary rejestr√≥w po adresami 0xEh i 0xFh z urzƒÖdzenia TSL2561
 133:tsl2561.c     ****  *          reprezentujƒÖca 16 - bitowƒÖ warto≈õƒá (2 rejestry po 8 bit√≥w). Bajtem m≈Çodzszym jest
 134:tsl2561.c     ****  *          bajt z rejestru 0xDh, a starszym - z rejestru 0xFh.
 135:tsl2561.c     ****  * @returns
 136:tsl2561.c     ****  *          Przeliczona, 64 - bitowa warto≈õƒá jasno≈õci, wyra≈ºona w lux-ach.
 137:tsl2561.c     ****  *
 138:tsl2561.c     ****  * @side effects:
 139:tsl2561.c     ****  *          Brak
 140:tsl2561.c     ****  */
 141:tsl2561.c     **** 
 142:tsl2561.c     **** tU64 calculateBrightness(tU16 channel0, tU16 channel1, tU8 integTime, tU8 gainValue)
 143:tsl2561.c     **** {
  27              		.loc 1 143 0
  28              		.cfi_startproc
ARM GAS  C:\Users\embedded\AppData\Local\Temp\ccT3fr4S.s 			page 4


  29              		@ Function supports interworking.
  30              		@ args = 0, pretend = 0, frame = 112
  31              		@ frame_needed = 1, uses_anonymous_args = 0
  32 0000 F0B5     		push	{r4, r5, r6, r7, lr}
  33              	.LCFI0:
  34              		.cfi_def_cfa_offset 20
  35              		.cfi_offset 4, -20
  36              		.cfi_offset 5, -16
  37              		.cfi_offset 6, -12
  38              		.cfi_offset 7, -8
  39              		.cfi_offset 14, -4
  40 0002 9DB0     		sub	sp, sp, #116
  41              	.LCFI1:
  42              		.cfi_def_cfa_offset 136
  43 0004 00AF     		add	r7, sp, #0
  44              	.LCFI2:
  45              		.cfi_def_cfa_register 7
  46 0006 7A60     		str	r2, [r7, #4]
  47 0008 1C00     		movs	r4, r3
  48 000a 2E23     		movs	r3, #46
  49 000c FA18     		adds	r2, r7, r3
  50 000e 031C     		adds	r3, r0, #0
  51 0010 1380     		strh	r3, [r2]
  52 0012 2C23     		movs	r3, #44
  53 0014 FA18     		adds	r2, r7, r3
  54 0016 0B1C     		adds	r3, r1, #0
  55 0018 1380     		strh	r3, [r2]
  56 001a 2B21     		movs	r1, #43
  57 001c 7A18     		adds	r2, r7, r1
  58 001e 3B79     		ldrb	r3, [r7, #4]
  59 0020 1370     		strb	r3, [r2]
  60 0022 2A23     		movs	r3, #42
  61 0024 FB18     		adds	r3, r7, r3
  62 0026 221C     		adds	r2, r4, #0
  63 0028 1A70     		strb	r2, [r3]
 144:tsl2561.c     ****     tU64 chScale = 0;
  64              		.loc 1 144 0
  65 002a 0023     		movs	r3, #0
  66 002c 0024     		movs	r4, #0
  67 002e BB66     		str	r3, [r7, #104]
  68 0030 FC66     		str	r4, [r7, #108]
 145:tsl2561.c     **** 
 146:tsl2561.c     ****     if (integTime == LOW_INTEG_TIME)
  69              		.loc 1 146 0
  70 0032 7B18     		adds	r3, r7, r1
  71 0034 1B78     		ldrb	r3, [r3]
  72 0036 002B     		cmp	r3, #0
  73 0038 04D1     		bne	.L2
 147:tsl2561.c     ****     {
 148:tsl2561.c     ****         // 13.7 ms integration time
 149:tsl2561.c     ****         chScale = CHSCALE_TINT0;
  74              		.loc 1 149 0
  75 003a 8D4B     		ldr	r3, .L28
  76 003c 0024     		movs	r4, #0
  77 003e BB66     		str	r3, [r7, #104]
  78 0040 FC66     		str	r4, [r7, #108]
  79 0042 07E0     		b	.L3
ARM GAS  C:\Users\embedded\AppData\Local\Temp\ccT3fr4S.s 			page 5


  80              	.L2:
 150:tsl2561.c     ****     }
 151:tsl2561.c     ****     else if (integTime = MED_INTEG_TIME)
  81              		.loc 1 151 0
  82 0044 2B23     		movs	r3, #43
  83 0046 FB18     		adds	r3, r7, r3
  84 0048 0122     		movs	r2, #1
  85 004a 1A70     		strb	r2, [r3]
 152:tsl2561.c     ****     {
 153:tsl2561.c     ****         // 101 ms integration time
 154:tsl2561.c     ****         chScale = CHSCALE_TINT1;
  86              		.loc 1 154 0
  87 004c 894B     		ldr	r3, .L28+4
  88 004e 0024     		movs	r4, #0
  89 0050 BB66     		str	r3, [r7, #104]
  90 0052 FC66     		str	r4, [r7, #108]
  91              	.L3:
 155:tsl2561.c     ****     }
 156:tsl2561.c     ****     else
 157:tsl2561.c     ****     {
 158:tsl2561.c     ****         // Assume no scaling
 159:tsl2561.c     ****         chScale = ((tU64)1 << CH_SCALE);
 160:tsl2561.c     ****     }
 161:tsl2561.c     **** 
 162:tsl2561.c     ****     if (gainValue != 0x01)
  92              		.loc 1 162 0
  93 0054 2A23     		movs	r3, #42
  94 0056 FB18     		adds	r3, r7, r3
  95 0058 1B78     		ldrb	r3, [r3]
  96 005a 012B     		cmp	r3, #1
  97 005c 08D0     		beq	.L4
 163:tsl2561.c     ****     {
 164:tsl2561.c     ****         chScale = chScale << 4;
  98              		.loc 1 164 0
  99 005e BB6E     		ldr	r3, [r7, #104]
 100 0060 1B0F     		lsrs	r3, r3, #28
 101 0062 FA6E     		ldr	r2, [r7, #108]
 102 0064 1201     		lsls	r2, r2, #4
 103 0066 1343     		orrs	r3, r2
 104 0068 FB66     		str	r3, [r7, #108]
 105 006a BB6E     		ldr	r3, [r7, #104]
 106 006c 1B01     		lsls	r3, r3, #4
 107 006e BB66     		str	r3, [r7, #104]
 108              	.L4:
 165:tsl2561.c     ****     }
 166:tsl2561.c     **** 
 167:tsl2561.c     ****     // Scale the channel values
 168:tsl2561.c     ****     tU64 ch0 = ((tU64)channel0 * chScale) >> CH_SCALE;
 109              		.loc 1 168 0
 110 0070 2E23     		movs	r3, #46
 111 0072 FB18     		adds	r3, r7, r3
 112 0074 1B88     		ldrh	r3, [r3]
 113 0076 1B04     		lsls	r3, r3, #16
 114 0078 1B0C     		lsrs	r3, r3, #16
 115 007a 3B62     		str	r3, [r7, #32]
 116 007c 0023     		movs	r3, #0
 117 007e 7B62     		str	r3, [r7, #36]
ARM GAS  C:\Users\embedded\AppData\Local\Temp\ccT3fr4S.s 			page 6


 118 0080 BA6E     		ldr	r2, [r7, #104]
 119 0082 FB6E     		ldr	r3, [r7, #108]
 120 0084 386A     		ldr	r0, [r7, #32]
 121 0086 796A     		ldr	r1, [r7, #36]
 122 0088 FFF7FEFF 		bl	__aeabi_lmul
 123              	.LVL0:
 124 008c 0300     		movs	r3, r0
 125 008e 0C00     		movs	r4, r1
 126 0090 A205     		lsls	r2, r4, #22
 127 0092 990A     		lsrs	r1, r3, #10
 128 0094 0A43     		orrs	r2, r1
 129 0096 3A65     		str	r2, [r7, #80]
 130 0098 A30A     		lsrs	r3, r4, #10
 131 009a 7B65     		str	r3, [r7, #84]
 169:tsl2561.c     ****     tU64 ch1 = ((tU64)channel1 * chScale) >> CH_SCALE;
 132              		.loc 1 169 0
 133 009c 2C22     		movs	r2, #44
 134 009e BB18     		adds	r3, r7, r2
 135 00a0 1B88     		ldrh	r3, [r3]
 136 00a2 1B04     		lsls	r3, r3, #16
 137 00a4 1B0C     		lsrs	r3, r3, #16
 138 00a6 BB61     		str	r3, [r7, #24]
 139 00a8 0023     		movs	r3, #0
 140 00aa FB61     		str	r3, [r7, #28]
 141 00ac BA6E     		ldr	r2, [r7, #104]
 142 00ae FB6E     		ldr	r3, [r7, #108]
 143 00b0 B869     		ldr	r0, [r7, #24]
 144 00b2 F969     		ldr	r1, [r7, #28]
 145 00b4 FFF7FEFF 		bl	__aeabi_lmul
 146              	.LVL1:
 147 00b8 0300     		movs	r3, r0
 148 00ba 0C00     		movs	r4, r1
 149 00bc A205     		lsls	r2, r4, #22
 150 00be 990A     		lsrs	r1, r3, #10
 151 00c0 0A43     		orrs	r2, r1
 152 00c2 BA64     		str	r2, [r7, #72]
 153 00c4 A30A     		lsrs	r3, r4, #10
 154 00c6 FB64     		str	r3, [r7, #76]
 170:tsl2561.c     **** 
 171:tsl2561.c     ****     // Find the ratio of the channel values (ch1 / ch0)
 172:tsl2561.c     ****     // Protect against divide by zero
 173:tsl2561.c     ****     tU64 channelsRatio = 0;
 155              		.loc 1 173 0
 156 00c8 0023     		movs	r3, #0
 157 00ca 0024     		movs	r4, #0
 158 00cc 3B66     		str	r3, [r7, #96]
 159 00ce 7C66     		str	r4, [r7, #100]
 174:tsl2561.c     ****     if (channel0 != (tU16)0)
 160              		.loc 1 174 0
 161 00d0 2E23     		movs	r3, #46
 162 00d2 FB18     		adds	r3, r7, r3
 163 00d4 1B88     		ldrh	r3, [r3]
 164 00d6 002B     		cmp	r3, #0
 165 00d8 10D0     		beq	.L5
 175:tsl2561.c     ****     {
 176:tsl2561.c     ****         channelsRatio = (ch1 << ((tU64)RATIO_SCALE + (tU64)1)) / ch0;
 166              		.loc 1 176 0
ARM GAS  C:\Users\embedded\AppData\Local\Temp\ccT3fr4S.s 			page 7


 167 00da BB6C     		ldr	r3, [r7, #72]
 168 00dc 9B0D     		lsrs	r3, r3, #22
 169 00de FA6C     		ldr	r2, [r7, #76]
 170 00e0 9602     		lsls	r6, r2, #10
 171 00e2 1E43     		orrs	r6, r3
 172 00e4 BB6C     		ldr	r3, [r7, #72]
 173 00e6 9D02     		lsls	r5, r3, #10
 174 00e8 3A6D     		ldr	r2, [r7, #80]
 175 00ea 7B6D     		ldr	r3, [r7, #84]
 176 00ec 2800     		movs	r0, r5
 177 00ee 3100     		movs	r1, r6
 178 00f0 FFF7FEFF 		bl	__aeabi_uldivmod
 179              	.LVL2:
 180 00f4 0300     		movs	r3, r0
 181 00f6 0C00     		movs	r4, r1
 182 00f8 3B66     		str	r3, [r7, #96]
 183 00fa 7C66     		str	r4, [r7, #100]
 184              	.L5:
 177:tsl2561.c     ****     }
 178:tsl2561.c     **** 
 179:tsl2561.c     ****     // Round the ratio value
 180:tsl2561.c     ****     tU64 roundedRatio = (channelsRatio + (tU64)1) >> 1;
 185              		.loc 1 180 0
 186 00fc 3B6E     		ldr	r3, [r7, #96]
 187 00fe 7C6E     		ldr	r4, [r7, #100]
 188 0100 0121     		movs	r1, #1
 189 0102 0022     		movs	r2, #0
 190 0104 5B18     		adds	r3, r3, r1
 191 0106 5441     		adcs	r4, r4, r2
 192 0108 E207     		lsls	r2, r4, #31
 193 010a 5908     		lsrs	r1, r3, #1
 194 010c 0A43     		orrs	r2, r1
 195 010e 3A64     		str	r2, [r7, #64]
 196 0110 6308     		lsrs	r3, r4, #1
 197 0112 7B64     		str	r3, [r7, #68]
 181:tsl2561.c     ****     tU32 bValue = 0;
 198              		.loc 1 181 0
 199 0114 0023     		movs	r3, #0
 200 0116 FB65     		str	r3, [r7, #92]
 182:tsl2561.c     ****     tU32 mValue = 0;
 201              		.loc 1 182 0
 202 0118 0023     		movs	r3, #0
 203 011a BB65     		str	r3, [r7, #88]
 183:tsl2561.c     **** 
 184:tsl2561.c     ****     // Case for T, FN and CL package.
 185:tsl2561.c     ****     /*
 186:tsl2561.c     ****     if ((roundedRatio >= (tU64)0) && (roundedRatio <= (tU64)K1T))
 187:tsl2561.c     ****     {
 188:tsl2561.c     ****         bValue = B1T;
 189:tsl2561.c     ****         mValue = M1T;
 190:tsl2561.c     ****     }
 191:tsl2561.c     ****     else if (roundedRatio <= (tU64)K2T)
 192:tsl2561.c     ****     {
 193:tsl2561.c     ****         bValue = B2T;
 194:tsl2561.c     ****         mValue = M2T;
 195:tsl2561.c     ****     }
 196:tsl2561.c     ****     else if (roundedRatio <= (tU64)K3T)
ARM GAS  C:\Users\embedded\AppData\Local\Temp\ccT3fr4S.s 			page 8


 197:tsl2561.c     ****     {
 198:tsl2561.c     ****         bValue = B3T;
 199:tsl2561.c     ****         mValue = M3T;
 200:tsl2561.c     ****     }
 201:tsl2561.c     ****     else if (roundedRatio <= (tU64)K4T)
 202:tsl2561.c     ****     {
 203:tsl2561.c     ****         bValue = B4T;
 204:tsl2561.c     ****         mValue = M4T;
 205:tsl2561.c     ****     }
 206:tsl2561.c     ****     else if (roundedRatio <= (tU64)K5T)
 207:tsl2561.c     ****     {
 208:tsl2561.c     ****         bValue = B5T;
 209:tsl2561.c     ****         mValue = M5T;
 210:tsl2561.c     ****     }
 211:tsl2561.c     ****     else if (roundedRatio <= (tU64)K6T)
 212:tsl2561.c     ****     {
 213:tsl2561.c     ****         bValue = B6T;
 214:tsl2561.c     ****         mValue = M6T;
 215:tsl2561.c     ****     }
 216:tsl2561.c     ****     else if (roundedRatio <= (tU64)K7T)
 217:tsl2561.c     ****     {
 218:tsl2561.c     ****         bValue = B7T;
 219:tsl2561.c     ****         mValue = M7T;
 220:tsl2561.c     ****     }
 221:tsl2561.c     ****     else if (roundedRatio > (tU64)K8T)
 222:tsl2561.c     ****     {
 223:tsl2561.c     ****         bValue = B8T;
 224:tsl2561.c     ****         mValue = M8T;
 225:tsl2561.c     ****     }
 226:tsl2561.c     ****     else
 227:tsl2561.c     ****     {
 228:tsl2561.c     ****         ;
 229:tsl2561.c     ****     }
 230:tsl2561.c     ****     */
 231:tsl2561.c     **** 
 232:tsl2561.c     ****     // Case for CS package
 233:tsl2561.c     ****     if ((roundedRatio >= (tU64)0) && (roundedRatio <= (tU64)K1C))
 204              		.loc 1 233 0
 205 011c 7B6C     		ldr	r3, [r7, #68]
 206 011e 002B     		cmp	r3, #0
 207 0120 0CD1     		bne	.L6
 208 0122 7B6C     		ldr	r3, [r7, #68]
 209 0124 002B     		cmp	r3, #0
 210 0126 02D1     		bne	.L21
 211 0128 3B6C     		ldr	r3, [r7, #64]
 212 012a 432B     		cmp	r3, #67
 213 012c 06D8     		bhi	.L6
 214              	.L21:
 234:tsl2561.c     ****     {
 235:tsl2561.c     ****         bValue = B1C;
 215              		.loc 1 235 0
 216 012e 8123     		movs	r3, #129
 217 0130 9B00     		lsls	r3, r3, #2
 218 0132 FB65     		str	r3, [r7, #92]
 236:tsl2561.c     ****         mValue = M1C;
 219              		.loc 1 236 0
 220 0134 AE23     		movs	r3, #174
ARM GAS  C:\Users\embedded\AppData\Local\Temp\ccT3fr4S.s 			page 9


 221 0136 FF33     		adds	r3, r3, #255
 222 0138 BB65     		str	r3, [r7, #88]
 223 013a 5EE0     		b	.L8
 224              	.L6:
 237:tsl2561.c     ****     }
 238:tsl2561.c     ****     else if (roundedRatio <= (tU64)K2C)
 225              		.loc 1 238 0
 226 013c 7B6C     		ldr	r3, [r7, #68]
 227 013e 002B     		cmp	r3, #0
 228 0140 0BD1     		bne	.L9
 229 0142 7B6C     		ldr	r3, [r7, #68]
 230 0144 002B     		cmp	r3, #0
 231 0146 02D1     		bne	.L22
 232 0148 3B6C     		ldr	r3, [r7, #64]
 233 014a 852B     		cmp	r3, #133
 234 014c 05D8     		bhi	.L9
 235              	.L22:
 239:tsl2561.c     ****     {
 240:tsl2561.c     ****         bValue = B2C;
 236              		.loc 1 240 0
 237 014e 8A23     		movs	r3, #138
 238 0150 9B00     		lsls	r3, r3, #2
 239 0152 FB65     		str	r3, [r7, #92]
 241:tsl2561.c     ****         mValue = M2C;
 240              		.loc 1 241 0
 241 0154 484B     		ldr	r3, .L28+8
 242 0156 BB65     		str	r3, [r7, #88]
 243 0158 4FE0     		b	.L8
 244              	.L9:
 242:tsl2561.c     ****     }
 243:tsl2561.c     ****     else if (roundedRatio <= (tU64)K3C)
 245              		.loc 1 243 0
 246 015a 7B6C     		ldr	r3, [r7, #68]
 247 015c 002B     		cmp	r3, #0
 248 015e 0AD1     		bne	.L11
 249 0160 7B6C     		ldr	r3, [r7, #68]
 250 0162 002B     		cmp	r3, #0
 251 0164 02D1     		bne	.L23
 252 0166 3B6C     		ldr	r3, [r7, #64]
 253 0168 C82B     		cmp	r3, #200
 254 016a 04D8     		bhi	.L11
 255              	.L23:
 244:tsl2561.c     ****     {
 245:tsl2561.c     ****         bValue = B3C;
 256              		.loc 1 245 0
 257 016c 434B     		ldr	r3, .L28+12
 258 016e FB65     		str	r3, [r7, #92]
 246:tsl2561.c     ****         mValue = M3C;
 259              		.loc 1 246 0
 260 0170 434B     		ldr	r3, .L28+16
 261 0172 BB65     		str	r3, [r7, #88]
 262 0174 41E0     		b	.L8
 263              	.L11:
 247:tsl2561.c     ****     }
 248:tsl2561.c     ****     else if (roundedRatio <= (tU64)K4C)
 264              		.loc 1 248 0
 265 0176 7B6C     		ldr	r3, [r7, #68]
ARM GAS  C:\Users\embedded\AppData\Local\Temp\ccT3fr4S.s 			page 10


 266 0178 002B     		cmp	r3, #0
 267 017a 0CD1     		bne	.L13
 268 017c 7B6C     		ldr	r3, [r7, #68]
 269 017e 002B     		cmp	r3, #0
 270 0180 04D1     		bne	.L24
 271 0182 3A6C     		ldr	r2, [r7, #64]
 272 0184 8523     		movs	r3, #133
 273 0186 5B00     		lsls	r3, r3, #1
 274 0188 9A42     		cmp	r2, r3
 275 018a 04D8     		bhi	.L13
 276              	.L24:
 249:tsl2561.c     ****     {
 250:tsl2561.c     ****         bValue = B4C;
 277              		.loc 1 250 0
 278 018c 3D4B     		ldr	r3, .L28+20
 279 018e FB65     		str	r3, [r7, #92]
 251:tsl2561.c     ****         mValue = M4C;
 280              		.loc 1 251 0
 281 0190 3D4B     		ldr	r3, .L28+24
 282 0192 BB65     		str	r3, [r7, #88]
 283 0194 31E0     		b	.L8
 284              	.L13:
 252:tsl2561.c     ****     }
 253:tsl2561.c     ****     else if (roundedRatio <= (tU64)K5C)
 285              		.loc 1 253 0
 286 0196 7B6C     		ldr	r3, [r7, #68]
 287 0198 002B     		cmp	r3, #0
 288 019a 0ED1     		bne	.L15
 289 019c 7B6C     		ldr	r3, [r7, #68]
 290 019e 002B     		cmp	r3, #0
 291 01a0 04D1     		bne	.L25
 292 01a2 3A6C     		ldr	r2, [r7, #64]
 293 01a4 4E23     		movs	r3, #78
 294 01a6 FF33     		adds	r3, r3, #255
 295 01a8 9A42     		cmp	r2, r3
 296 01aa 06D8     		bhi	.L15
 297              	.L25:
 254:tsl2561.c     ****     {
 255:tsl2561.c     ****         bValue = B5C;
 298              		.loc 1 255 0
 299 01ac 7823     		movs	r3, #120
 300 01ae FF33     		adds	r3, r3, #255
 301 01b0 FB65     		str	r3, [r7, #92]
 256:tsl2561.c     ****         mValue = M5C;
 302              		.loc 1 256 0
 303 01b2 DE23     		movs	r3, #222
 304 01b4 FF33     		adds	r3, r3, #255
 305 01b6 BB65     		str	r3, [r7, #88]
 306 01b8 1FE0     		b	.L8
 307              	.L15:
 257:tsl2561.c     ****     }
 258:tsl2561.c     ****     else if (roundedRatio <= (tU64)K6C)
 308              		.loc 1 258 0
 309 01ba 7B6C     		ldr	r3, [r7, #68]
 310 01bc 002B     		cmp	r3, #0
 311 01be 0ED1     		bne	.L17
 312 01c0 7B6C     		ldr	r3, [r7, #68]
ARM GAS  C:\Users\embedded\AppData\Local\Temp\ccT3fr4S.s 			page 11


 313 01c2 002B     		cmp	r3, #0
 314 01c4 04D1     		bne	.L26
 315 01c6 3A6C     		ldr	r2, [r7, #64]
 316 01c8 CD23     		movs	r3, #205
 317 01ca 5B00     		lsls	r3, r3, #1
 318 01cc 9A42     		cmp	r2, r3
 319 01ce 06D8     		bhi	.L17
 320              	.L26:
 259:tsl2561.c     ****     {
 260:tsl2561.c     ****         bValue = B6C;
 321              		.loc 1 260 0
 322 01d0 0223     		movs	r3, #2
 323 01d2 FF33     		adds	r3, r3, #255
 324 01d4 FB65     		str	r3, [r7, #92]
 261:tsl2561.c     ****         mValue = M6C;
 325              		.loc 1 261 0
 326 01d6 2823     		movs	r3, #40
 327 01d8 FF33     		adds	r3, r3, #255
 328 01da BB65     		str	r3, [r7, #88]
 329 01dc 0DE0     		b	.L8
 330              	.L17:
 262:tsl2561.c     ****     }
 263:tsl2561.c     ****     else if (roundedRatio <= (tU64)K7C)
 331              		.loc 1 263 0
 332 01de 7B6C     		ldr	r3, [r7, #68]
 333 01e0 002B     		cmp	r3, #0
 334 01e2 0AD1     		bne	.L8
 335 01e4 7B6C     		ldr	r3, [r7, #68]
 336 01e6 002B     		cmp	r3, #0
 337 01e8 03D1     		bne	.L27
 338 01ea 3B6C     		ldr	r3, [r7, #64]
 339 01ec 274A     		ldr	r2, .L28+28
 340 01ee 9342     		cmp	r3, r2
 341 01f0 03D8     		bhi	.L8
 342              	.L27:
 264:tsl2561.c     ****     {
 265:tsl2561.c     ****         bValue = B7C;
 343              		.loc 1 265 0
 344 01f2 3723     		movs	r3, #55
 345 01f4 FB65     		str	r3, [r7, #92]
 266:tsl2561.c     ****         mValue = M7C;
 346              		.loc 1 266 0
 347 01f6 2B23     		movs	r3, #43
 348 01f8 BB65     		str	r3, [r7, #88]
 349              	.L8:
 267:tsl2561.c     ****     }
 268:tsl2561.c     ****     else
 269:tsl2561.c     ****     {
 270:tsl2561.c     ****         ;
 271:tsl2561.c     ****     }
 272:tsl2561.c     **** 
 273:tsl2561.c     ****     tU64 temporary;
 274:tsl2561.c     ****     temporary = ((ch0 * (tU64)bValue) - (ch1 * (tU64)mValue));
 350              		.loc 1 274 0
 351 01fa FB6D     		ldr	r3, [r7, #92]
 352 01fc 3B61     		str	r3, [r7, #16]
 353 01fe 0023     		movs	r3, #0
ARM GAS  C:\Users\embedded\AppData\Local\Temp\ccT3fr4S.s 			page 12


 354 0200 7B61     		str	r3, [r7, #20]
 355 0202 3A6D     		ldr	r2, [r7, #80]
 356 0204 7B6D     		ldr	r3, [r7, #84]
 357 0206 3869     		ldr	r0, [r7, #16]
 358 0208 7969     		ldr	r1, [r7, #20]
 359 020a FFF7FEFF 		bl	__aeabi_lmul
 360              	.LVL3:
 361 020e 0300     		movs	r3, r0
 362 0210 0C00     		movs	r4, r1
 363 0212 1D00     		movs	r5, r3
 364 0214 2600     		movs	r6, r4
 365 0216 BB6D     		ldr	r3, [r7, #88]
 366 0218 BB60     		str	r3, [r7, #8]
 367 021a 0023     		movs	r3, #0
 368 021c FB60     		str	r3, [r7, #12]
 369 021e BA6C     		ldr	r2, [r7, #72]
 370 0220 FB6C     		ldr	r3, [r7, #76]
 371 0222 B868     		ldr	r0, [r7, #8]
 372 0224 F968     		ldr	r1, [r7, #12]
 373 0226 FFF7FEFF 		bl	__aeabi_lmul
 374              	.LVL4:
 375 022a 0300     		movs	r3, r0
 376 022c 0C00     		movs	r4, r1
 377 022e ED1A     		subs	r5, r5, r3
 378 0230 A641     		sbcs	r6, r6, r4
 379 0232 2B00     		movs	r3, r5
 380 0234 3400     		movs	r4, r6
 381 0236 BB63     		str	r3, [r7, #56]
 382 0238 FC63     		str	r4, [r7, #60]
 275:tsl2561.c     **** 
 276:tsl2561.c     ****     // Do not allow negative lux value
 277:tsl2561.c     ****     if (temporary < (tU64)0)
 278:tsl2561.c     ****     {
 279:tsl2561.c     ****         temporary = 0;
 280:tsl2561.c     ****     }
 281:tsl2561.c     **** 
 282:tsl2561.c     ****     // Round LSB (2 ^ (LUX_SCALE ‚àí 1))
 283:tsl2561.c     ****     temporary = temporary + ((tU64)1 << ((tU64)LUX_SCALE - (tU64)1));
 383              		.loc 1 283 0
 384 023a BB6B     		ldr	r3, [r7, #56]
 385 023c FC6B     		ldr	r4, [r7, #60]
 386 023e 8021     		movs	r1, #128
 387 0240 8901     		lsls	r1, r1, #6
 388 0242 0022     		movs	r2, #0
 389 0244 5B18     		adds	r3, r3, r1
 390 0246 5441     		adcs	r4, r4, r2
 391 0248 BB63     		str	r3, [r7, #56]
 392 024a FC63     		str	r4, [r7, #60]
 284:tsl2561.c     **** 
 285:tsl2561.c     ****     // Strip off fractional portion
 286:tsl2561.c     ****     tU64 resultInLux = temporary >> LUX_SCALE;
 393              		.loc 1 286 0
 394 024c FB6B     		ldr	r3, [r7, #60]
 395 024e 9B04     		lsls	r3, r3, #18
 396 0250 BA6B     		ldr	r2, [r7, #56]
 397 0252 920B     		lsrs	r2, r2, #14
 398 0254 1343     		orrs	r3, r2
ARM GAS  C:\Users\embedded\AppData\Local\Temp\ccT3fr4S.s 			page 13


 399 0256 3B63     		str	r3, [r7, #48]
 400 0258 FB6B     		ldr	r3, [r7, #60]
 401 025a 9B0B     		lsrs	r3, r3, #14
 402 025c 7B63     		str	r3, [r7, #52]
 287:tsl2561.c     **** 
 288:tsl2561.c     ****     return resultInLux;
 403              		.loc 1 288 0
 404 025e 3B6B     		ldr	r3, [r7, #48]
 405 0260 7C6B     		ldr	r4, [r7, #52]
 289:tsl2561.c     **** }
 406              		.loc 1 289 0
 407 0262 1800     		movs	r0, r3
 408 0264 2100     		movs	r1, r4
 409 0266 BD46     		mov	sp, r7
 410 0268 1DB0     		add	sp, sp, #116
 411              		@ sp needed
 412 026a F0BC     		pop	{r4, r5, r6, r7}
 413 026c 04BC     		pop	{r2}
 414 026e 1047     		bx	r2
 415              	.L29:
 416              		.align	2
 417              	.L28:
 418 0270 17750000 		.word	29975
 419 0274 E70F0000 		.word	4071
 420 0278 C1020000 		.word	705
 421 027c 53020000 		.word	595
 422 0280 63030000 		.word	867
 423 0284 82020000 		.word	642
 424 0288 DF030000 		.word	991
 425 028c 9A020000 		.word	666
 426              		.cfi_endproc
 427              	.LFE0:
 428              		.size	calculateBrightness, .-calculateBrightness
 429              		.align	1
 430              		.global	measureBrightness
 431              		.syntax unified
 432              		.code	16
 433              		.thumb_func
 434              		.fpu softvfp
 435              		.type	measureBrightness, %function
 436              	measureBrightness:
 437              	.LFB1:
 290:tsl2561.c     **** 
 291:tsl2561.c     **** /*
 292:tsl2561.c     ****  * @brief   Funkcja measureBrightness() s≈Çu≈ºy do odczytania warto≈õci jasno≈õci z czujnika jasno≈
 293:tsl2561.c     ****  *          co sprowadza siƒô do odczytania warto≈õci z obu kana≈Ç√≥w urzƒÖdzenia, a nastƒôpnie wyw
 294:tsl2561.c     ****  *          calculateBrightness(), ta funkcja otrzmuje prawid≈ÇowƒÖ warto≈õƒá jasno≈õci, kt√≥ra jes
 295:tsl2561.c     ****  *
 296:tsl2561.c     ****  * @param   void
 297:tsl2561.c     ****  *
 298:tsl2561.c     ****  * @returns
 299:tsl2561.c     ****  *          Warto≈õƒá jasno≈õci obliczona przez funkcjƒô calculateBrightness().
 300:tsl2561.c     ****  *
 301:tsl2561.c     ****  * @side effects:
 302:tsl2561.c     ****  *          Zmiana stanu czujnika TSL2561 (poprzez jego w≈ÇƒÖczanie i wy≈ÇƒÖczanie), a tak≈ºe zapis
 303:tsl2561.c     ****  *          adresu rejestr√≥w, z kt√≥rych czytana jest zawarto≈õƒá.
 304:tsl2561.c     ****  */
ARM GAS  C:\Users\embedded\AppData\Local\Temp\ccT3fr4S.s 			page 14


 305:tsl2561.c     **** 
 306:tsl2561.c     **** tU64 measureBrightness(void)
 307:tsl2561.c     **** {
 438              		.loc 1 307 0
 439              		.cfi_startproc
 440              		@ Function supports interworking.
 441              		@ args = 0, pretend = 0, frame = 24
 442              		@ frame_needed = 1, uses_anonymous_args = 0
 443 0290 F0B5     		push	{r4, r5, r6, r7, lr}
 444              	.LCFI3:
 445              		.cfi_def_cfa_offset 20
 446              		.cfi_offset 4, -20
 447              		.cfi_offset 5, -16
 448              		.cfi_offset 6, -12
 449              		.cfi_offset 7, -8
 450              		.cfi_offset 14, -4
 451 0292 87B0     		sub	sp, sp, #28
 452              	.LCFI4:
 453              		.cfi_def_cfa_offset 48
 454 0294 00AF     		add	r7, sp, #0
 455              	.LCFI5:
 456              		.cfi_def_cfa_register 7
 308:tsl2561.c     ****     // Return code value for I2C operations.
 309:tsl2561.c     ****     tS8 retCode = 0;
 457              		.loc 1 309 0
 458 0296 1725     		movs	r5, #23
 459 0298 7B19     		adds	r3, r7, r5
 460 029a 0022     		movs	r2, #0
 461 029c 1A70     		strb	r2, [r3]
 310:tsl2561.c     ****     tU8 command[2] = {0};
 462              		.loc 1 310 0
 463 029e 3B1D     		adds	r3, r7, #4
 464 02a0 0022     		movs	r2, #0
 465 02a2 1A80     		strh	r2, [r3]
 311:tsl2561.c     ****     tU8 readValue[1] = {0};
 466              		.loc 1 311 0
 467 02a4 3B00     		movs	r3, r7
 468 02a6 0022     		movs	r2, #0
 469 02a8 1A70     		strb	r2, [r3]
 312:tsl2561.c     **** 
 313:tsl2561.c     ****     // Variables for each channel value.
 314:tsl2561.c     ****     tU16 channel0 = 0;
 470              		.loc 1 314 0
 471 02aa 1423     		movs	r3, #20
 472 02ac FB18     		adds	r3, r7, r3
 473 02ae 0022     		movs	r2, #0
 474 02b0 1A80     		strh	r2, [r3]
 315:tsl2561.c     ****     tU16 channel1 = 0;
 475              		.loc 1 315 0
 476 02b2 1223     		movs	r3, #18
 477 02b4 FB18     		adds	r3, r7, r3
 478 02b6 0022     		movs	r2, #0
 479 02b8 1A80     		strh	r2, [r3]
 316:tsl2561.c     **** 
 317:tsl2561.c     ****     // Sending a command to the device to power it up.
 318:tsl2561.c     ****     command[0] = 0x80;      // Change target register to control register (0x80 = 0b 1000 0000)
 480              		.loc 1 318 0
ARM GAS  C:\Users\embedded\AppData\Local\Temp\ccT3fr4S.s 			page 15


 481 02ba 3B1D     		adds	r3, r7, #4
 482 02bc 8022     		movs	r2, #128
 483 02be 1A70     		strb	r2, [r3]
 319:tsl2561.c     ****     command[1] = 0x03;      // Write 0x03 (so power up) the device
 484              		.loc 1 319 0
 485 02c0 3B1D     		adds	r3, r7, #4
 486 02c2 0322     		movs	r2, #3
 487 02c4 5A70     		strb	r2, [r3, #1]
 320:tsl2561.c     ****     retCode = i2cWrite(tsl2561WriteAddressFloat, command, 2);
 488              		.loc 1 320 0
 489 02c6 7C19     		adds	r4, r7, r5
 490 02c8 3B1D     		adds	r3, r7, #4
 491 02ca 0222     		movs	r2, #2
 492 02cc 1900     		movs	r1, r3
 493 02ce 7220     		movs	r0, #114
 494 02d0 FFF7FEFF 		bl	i2cWrite
 495 02d4 0300     		movs	r3, r0
 496 02d6 2370     		strb	r3, [r4]
 321:tsl2561.c     **** 
 322:tsl2561.c     ****     // Debug:
 323:tsl2561.c     ****     // retCode = i2cRead(tsl2561ReadAddressFloat, readValue, 1);
 324:tsl2561.c     ****     // if (readValue[0] == 0x03) {
 325:tsl2561.c     ****     //    lcdPuts("OK.");
 326:tsl2561.c     ****     // } else {
 327:tsl2561.c     ****     //    lcdPuts("Not OK.");
 328:tsl2561.c     ****     // }
 329:tsl2561.c     **** 
 330:tsl2561.c     ****     // Setting gain and integration time value.
 331:tsl2561.c     **** 
 332:tsl2561.c     ****     tU8 integTime = LOW_INTEG_TIME;
 497              		.loc 1 332 0
 498 02d8 1126     		movs	r6, #17
 499 02da BB19     		adds	r3, r7, r6
 500 02dc 0022     		movs	r2, #0
 501 02de 1A70     		strb	r2, [r3]
 333:tsl2561.c     ****     tU8 gainValue = HIGH_GAIN;
 502              		.loc 1 333 0
 503 02e0 1021     		movs	r1, #16
 504 02e2 7B18     		adds	r3, r7, r1
 505 02e4 0122     		movs	r2, #1
 506 02e6 1A70     		strb	r2, [r3]
 334:tsl2561.c     **** 
 335:tsl2561.c     ****     command[0] = (((tU8)0x08 << 4) | (tU8)0x01);
 507              		.loc 1 335 0
 508 02e8 3B1D     		adds	r3, r7, #4
 509 02ea 8122     		movs	r2, #129
 510 02ec 1A70     		strb	r2, [r3]
 336:tsl2561.c     ****     command[1] = ((gainValue << 4) | integTime); // 0x10 = 0b 0001 0000
 511              		.loc 1 336 0
 512 02ee 7B18     		adds	r3, r7, r1
 513 02f0 1B78     		ldrb	r3, [r3]
 514 02f2 1B01     		lsls	r3, r3, #4
 515 02f4 1B06     		lsls	r3, r3, #24
 516 02f6 1A16     		asrs	r2, r3, #24
 517 02f8 BB19     		adds	r3, r7, r6
 518 02fa 1B78     		ldrb	r3, [r3]
 519 02fc 1B06     		lsls	r3, r3, #24
ARM GAS  C:\Users\embedded\AppData\Local\Temp\ccT3fr4S.s 			page 16


 520 02fe 1B16     		asrs	r3, r3, #24
 521 0300 1343     		orrs	r3, r2
 522 0302 1B06     		lsls	r3, r3, #24
 523 0304 1B16     		asrs	r3, r3, #24
 524 0306 1B06     		lsls	r3, r3, #24
 525 0308 1A0E     		lsrs	r2, r3, #24
 526 030a 3B1D     		adds	r3, r7, #4
 527 030c 5A70     		strb	r2, [r3, #1]
 337:tsl2561.c     **** 
 338:tsl2561.c     ****     retCode = i2cWrite(tsl2561WriteAddressFloat, command, 2);
 528              		.loc 1 338 0
 529 030e 7C19     		adds	r4, r7, r5
 530 0310 3B1D     		adds	r3, r7, #4
 531 0312 0222     		movs	r2, #2
 532 0314 1900     		movs	r1, r3
 533 0316 7220     		movs	r0, #114
 534 0318 FFF7FEFF 		bl	i2cWrite
 535 031c 0300     		movs	r3, r0
 536 031e 2370     		strb	r3, [r4]
 339:tsl2561.c     **** 
 340:tsl2561.c     ****     if (integTime == LOW_INTEG_TIME)
 537              		.loc 1 340 0
 538 0320 BB19     		adds	r3, r7, r6
 539 0322 1B78     		ldrb	r3, [r3]
 540 0324 002B     		cmp	r3, #0
 541 0326 03D1     		bne	.L31
 542              	.LBB2:
 341:tsl2561.c     ****     {
 342:tsl2561.c     ****         mdelay(14);  // Waiting for 14 ms, since it takes 13.7 ms for both channels to integrate
 543              		.loc 1 342 0
 544 0328 0E20     		movs	r0, #14
 545 032a FFF7FEFF 		bl	mdelay
 546              	.LBE2:
 547 032e 0DE0     		b	.L32
 548              	.L31:
 343:tsl2561.c     ****     }
 344:tsl2561.c     ****     else if (integTime == MED_INTEG_TIME)
 549              		.loc 1 344 0
 550 0330 1123     		movs	r3, #17
 551 0332 FB18     		adds	r3, r7, r3
 552 0334 1B78     		ldrb	r3, [r3]
 553 0336 012B     		cmp	r3, #1
 554 0338 03D1     		bne	.L33
 555              	.LBB3:
 345:tsl2561.c     ****     {
 346:tsl2561.c     ****         mdelay(102); // Waiting for 102 ms, since it takes 101 ms for both channels to integrate
 556              		.loc 1 346 0
 557 033a 6620     		movs	r0, #102
 558 033c FFF7FEFF 		bl	mdelay
 559              	.LBE3:
 560 0340 04E0     		b	.L32
 561              	.L33:
 562              	.LBB4:
 347:tsl2561.c     ****     }
 348:tsl2561.c     ****     else
 349:tsl2561.c     ****     {
 350:tsl2561.c     ****         mdelay(403); // Waiting for 403 ms, since it takes 402 ms for both channels to integrate
ARM GAS  C:\Users\embedded\AppData\Local\Temp\ccT3fr4S.s 			page 17


 563              		.loc 1 350 0
 564 0342 9423     		movs	r3, #148
 565 0344 FF33     		adds	r3, r3, #255
 566 0346 1800     		movs	r0, r3
 567 0348 FFF7FEFF 		bl	mdelay
 568              	.L32:
 569              	.LBE4:
 351:tsl2561.c     ****     }
 352:tsl2561.c     **** 
 353:tsl2561.c     ****     // Command for reading low byte of 16 bit channel 0
 354:tsl2561.c     ****     command[0] = (((tU8)0x08 << 4) | (tU8)0x0C);
 570              		.loc 1 354 0
 571 034c 3B1D     		adds	r3, r7, #4
 572 034e 8C22     		movs	r2, #140
 573 0350 1A70     		strb	r2, [r3]
 355:tsl2561.c     ****     retCode = i2cWrite(tsl2561WriteAddressFloat, command, 1);
 574              		.loc 1 355 0
 575 0352 1725     		movs	r5, #23
 576 0354 7C19     		adds	r4, r7, r5
 577 0356 3B1D     		adds	r3, r7, #4
 578 0358 0122     		movs	r2, #1
 579 035a 1900     		movs	r1, r3
 580 035c 7220     		movs	r0, #114
 581 035e FFF7FEFF 		bl	i2cWrite
 582 0362 0300     		movs	r3, r0
 583 0364 2370     		strb	r3, [r4]
 356:tsl2561.c     ****     retCode = i2cRead(tsl2561ReadAddressFloat, readValue, 1);
 584              		.loc 1 356 0
 585 0366 7C19     		adds	r4, r7, r5
 586 0368 3B00     		movs	r3, r7
 587 036a 0122     		movs	r2, #1
 588 036c 1900     		movs	r1, r3
 589 036e 7320     		movs	r0, #115
 590 0370 FFF7FEFF 		bl	i2cRead
 591 0374 0300     		movs	r3, r0
 592 0376 2370     		strb	r3, [r4]
 357:tsl2561.c     ****     channel0 = channel0 + (tU16)readValue[0];
 593              		.loc 1 357 0
 594 0378 3B00     		movs	r3, r7
 595 037a 1B78     		ldrb	r3, [r3]
 596 037c 1B04     		lsls	r3, r3, #16
 597 037e 190C     		lsrs	r1, r3, #16
 598 0380 1426     		movs	r6, #20
 599 0382 BB19     		adds	r3, r7, r6
 600 0384 BA19     		adds	r2, r7, r6
 601 0386 1288     		ldrh	r2, [r2]
 602 0388 8A18     		adds	r2, r1, r2
 603 038a 1A80     		strh	r2, [r3]
 358:tsl2561.c     **** 
 359:tsl2561.c     ****     // Command for reading high byte of 16 bit channel 0
 360:tsl2561.c     ****     command[0] = (((tU8)0x08 << 4) | (tU8)0x0D);
 604              		.loc 1 360 0
 605 038c 3B1D     		adds	r3, r7, #4
 606 038e 8D22     		movs	r2, #141
 607 0390 1A70     		strb	r2, [r3]
 361:tsl2561.c     ****     retCode = i2cWrite(tsl2561WriteAddressFloat, command, 1);
 608              		.loc 1 361 0
ARM GAS  C:\Users\embedded\AppData\Local\Temp\ccT3fr4S.s 			page 18


 609 0392 7C19     		adds	r4, r7, r5
 610 0394 3B1D     		adds	r3, r7, #4
 611 0396 0122     		movs	r2, #1
 612 0398 1900     		movs	r1, r3
 613 039a 7220     		movs	r0, #114
 614 039c FFF7FEFF 		bl	i2cWrite
 615 03a0 0300     		movs	r3, r0
 616 03a2 2370     		strb	r3, [r4]
 362:tsl2561.c     ****     retCode = i2cRead(tsl2561ReadAddressFloat, readValue, 1);
 617              		.loc 1 362 0
 618 03a4 7C19     		adds	r4, r7, r5
 619 03a6 3B00     		movs	r3, r7
 620 03a8 0122     		movs	r2, #1
 621 03aa 1900     		movs	r1, r3
 622 03ac 7320     		movs	r0, #115
 623 03ae FFF7FEFF 		bl	i2cRead
 624 03b2 0300     		movs	r3, r0
 625 03b4 2370     		strb	r3, [r4]
 363:tsl2561.c     ****     channel0 = channel0 + ((tU16)256 * (tU16)readValue[0]);
 626              		.loc 1 363 0
 627 03b6 3B00     		movs	r3, r7
 628 03b8 1B78     		ldrb	r3, [r3]
 629 03ba 1B04     		lsls	r3, r3, #16
 630 03bc 1B0C     		lsrs	r3, r3, #16
 631 03be 1B02     		lsls	r3, r3, #8
 632 03c0 1B04     		lsls	r3, r3, #16
 633 03c2 190C     		lsrs	r1, r3, #16
 634 03c4 BB19     		adds	r3, r7, r6
 635 03c6 BA19     		adds	r2, r7, r6
 636 03c8 1288     		ldrh	r2, [r2]
 637 03ca 8A18     		adds	r2, r1, r2
 638 03cc 1A80     		strh	r2, [r3]
 364:tsl2561.c     **** 
 365:tsl2561.c     ****     // Command for reading low byte of 16 bit channel 1
 366:tsl2561.c     ****     command[0] = (((tU8)0x08 << 4) | (tU8)0x0E);
 639              		.loc 1 366 0
 640 03ce 3B1D     		adds	r3, r7, #4
 641 03d0 8E22     		movs	r2, #142
 642 03d2 1A70     		strb	r2, [r3]
 367:tsl2561.c     ****     retCode = i2cWrite(tsl2561WriteAddressFloat, command, 1);
 643              		.loc 1 367 0
 644 03d4 7C19     		adds	r4, r7, r5
 645 03d6 3B1D     		adds	r3, r7, #4
 646 03d8 0122     		movs	r2, #1
 647 03da 1900     		movs	r1, r3
 648 03dc 7220     		movs	r0, #114
 649 03de FFF7FEFF 		bl	i2cWrite
 650 03e2 0300     		movs	r3, r0
 651 03e4 2370     		strb	r3, [r4]
 368:tsl2561.c     ****     retCode = i2cRead(tsl2561ReadAddressFloat, readValue, 1);
 652              		.loc 1 368 0
 653 03e6 7C19     		adds	r4, r7, r5
 654 03e8 3B00     		movs	r3, r7
 655 03ea 0122     		movs	r2, #1
 656 03ec 1900     		movs	r1, r3
 657 03ee 7320     		movs	r0, #115
 658 03f0 FFF7FEFF 		bl	i2cRead
ARM GAS  C:\Users\embedded\AppData\Local\Temp\ccT3fr4S.s 			page 19


 659 03f4 0300     		movs	r3, r0
 660 03f6 2370     		strb	r3, [r4]
 369:tsl2561.c     ****     channel1 = channel1 + (tU16)readValue[0];
 661              		.loc 1 369 0
 662 03f8 3B00     		movs	r3, r7
 663 03fa 1B78     		ldrb	r3, [r3]
 664 03fc 1B04     		lsls	r3, r3, #16
 665 03fe 190C     		lsrs	r1, r3, #16
 666 0400 1222     		movs	r2, #18
 667 0402 BB18     		adds	r3, r7, r2
 668 0404 BA18     		adds	r2, r7, r2
 669 0406 1288     		ldrh	r2, [r2]
 670 0408 8A18     		adds	r2, r1, r2
 671 040a 1A80     		strh	r2, [r3]
 370:tsl2561.c     **** 
 371:tsl2561.c     ****     // Command for reading high byte of 16 bit channel 1
 372:tsl2561.c     ****     command[0] = (((tU8)0x08 << 4) | (tU8)0x0F);
 672              		.loc 1 372 0
 673 040c 3B1D     		adds	r3, r7, #4
 674 040e 8F22     		movs	r2, #143
 675 0410 1A70     		strb	r2, [r3]
 373:tsl2561.c     ****     retCode = i2cWrite(tsl2561WriteAddressFloat, command, 1);
 676              		.loc 1 373 0
 677 0412 7C19     		adds	r4, r7, r5
 678 0414 3B1D     		adds	r3, r7, #4
 679 0416 0122     		movs	r2, #1
 680 0418 1900     		movs	r1, r3
 681 041a 7220     		movs	r0, #114
 682 041c FFF7FEFF 		bl	i2cWrite
 683 0420 0300     		movs	r3, r0
 684 0422 2370     		strb	r3, [r4]
 374:tsl2561.c     ****     retCode = i2cRead(tsl2561ReadAddressFloat, readValue, 1);
 685              		.loc 1 374 0
 686 0424 7C19     		adds	r4, r7, r5
 687 0426 3B00     		movs	r3, r7
 688 0428 0122     		movs	r2, #1
 689 042a 1900     		movs	r1, r3
 690 042c 7320     		movs	r0, #115
 691 042e FFF7FEFF 		bl	i2cRead
 692 0432 0300     		movs	r3, r0
 693 0434 2370     		strb	r3, [r4]
 375:tsl2561.c     ****     channel1 = channel1 + ((tU16)256 * (tU16)readValue[0]);
 694              		.loc 1 375 0
 695 0436 3B00     		movs	r3, r7
 696 0438 1B78     		ldrb	r3, [r3]
 697 043a 1B04     		lsls	r3, r3, #16
 698 043c 1B0C     		lsrs	r3, r3, #16
 699 043e 1B02     		lsls	r3, r3, #8
 700 0440 1B04     		lsls	r3, r3, #16
 701 0442 190C     		lsrs	r1, r3, #16
 702 0444 1222     		movs	r2, #18
 703 0446 BB18     		adds	r3, r7, r2
 704 0448 BA18     		adds	r2, r7, r2
 705 044a 1288     		ldrh	r2, [r2]
 706 044c 8A18     		adds	r2, r1, r2
 707 044e 1A80     		strh	r2, [r3]
 376:tsl2561.c     **** 
ARM GAS  C:\Users\embedded\AppData\Local\Temp\ccT3fr4S.s 			page 20


 377:tsl2561.c     ****     // Sending a command to the device to power it down.
 378:tsl2561.c     ****     command[0] = 0x80;      // Change target register to control register (0x80 = 0b 1000 0000)
 708              		.loc 1 378 0
 709 0450 3B1D     		adds	r3, r7, #4
 710 0452 8022     		movs	r2, #128
 711 0454 1A70     		strb	r2, [r3]
 379:tsl2561.c     ****     command[0] = 0x00;      // Write 0x00 (so power down) the device
 712              		.loc 1 379 0
 713 0456 3B1D     		adds	r3, r7, #4
 714 0458 0022     		movs	r2, #0
 715 045a 1A70     		strb	r2, [r3]
 380:tsl2561.c     ****     retCode = i2cWrite(tsl2561WriteAddressFloat, command, 2);
 716              		.loc 1 380 0
 717 045c 7C19     		adds	r4, r7, r5
 718 045e 3B1D     		adds	r3, r7, #4
 719 0460 0222     		movs	r2, #2
 720 0462 1900     		movs	r1, r3
 721 0464 7220     		movs	r0, #114
 722 0466 FFF7FEFF 		bl	i2cWrite
 723 046a 0300     		movs	r3, r0
 724 046c 2370     		strb	r3, [r4]
 381:tsl2561.c     **** 
 382:tsl2561.c     ****     // tU64 brightnessValue = calculateBrightnessFloat(channel0, channel1);
 383:tsl2561.c     ****     tU64 brightnessValue = calculateBrightness(channel0, channel1, integTime, gainValue);
 725              		.loc 1 383 0
 726 046e 1021     		movs	r1, #16
 727 0470 7B18     		adds	r3, r7, r1
 728 0472 1C78     		ldrb	r4, [r3]
 729 0474 1121     		movs	r1, #17
 730 0476 7B18     		adds	r3, r7, r1
 731 0478 1A78     		ldrb	r2, [r3]
 732 047a 1223     		movs	r3, #18
 733 047c FB18     		adds	r3, r7, r3
 734 047e 1988     		ldrh	r1, [r3]
 735 0480 BB19     		adds	r3, r7, r6
 736 0482 1888     		ldrh	r0, [r3]
 737 0484 2300     		movs	r3, r4
 738 0486 FFF7FEFF 		bl	calculateBrightness
 739 048a 0300     		movs	r3, r0
 740 048c 0C00     		movs	r4, r1
 741 048e BB60     		str	r3, [r7, #8]
 742 0490 FC60     		str	r4, [r7, #12]
 384:tsl2561.c     **** 
 385:tsl2561.c     ****     return brightnessValue;
 743              		.loc 1 385 0
 744 0492 BB68     		ldr	r3, [r7, #8]
 745 0494 FC68     		ldr	r4, [r7, #12]
 386:tsl2561.c     **** }
 746              		.loc 1 386 0
 747 0496 1800     		movs	r0, r3
 748 0498 2100     		movs	r1, r4
 749 049a BD46     		mov	sp, r7
 750 049c 07B0     		add	sp, sp, #28
 751              		@ sp needed
 752 049e F0BC     		pop	{r4, r5, r6, r7}
 753 04a0 04BC     		pop	{r2}
 754 04a2 1047     		bx	r2
ARM GAS  C:\Users\embedded\AppData\Local\Temp\ccT3fr4S.s 			page 21


 755              		.cfi_endproc
 756              	.LFE1:
 757              		.size	measureBrightness, .-measureBrightness
 758              	.Letext0:
 759              		.file 2 "general.h"