ARM GAS  C:\Users\embedded\AppData\Local\Temp\ccmWcDjN.s 			page 1


   1              		.cpu arm7tdmi
   2              		.eabi_attribute 20, 1
   3              		.eabi_attribute 21, 1
   4              		.eabi_attribute 23, 3
   5              		.eabi_attribute 24, 1
   6              		.eabi_attribute 25, 1
   7              		.eabi_attribute 26, 1
   8              		.eabi_attribute 30, 6
   9              		.eabi_attribute 34, 0
  10              		.eabi_attribute 18, 4
  11              		.file	"irq_handler.c"
  12              		.text
  13              	.Ltext0:
  14              		.cfi_sections	.debug_frame
  15              		.align	2
  16              		.global	IRQ_Test
  17              		.syntax unified
  18              		.arm
  19              		.fpu softvfp
  20              		.type	IRQ_Test, %function
  21              	IRQ_Test:
  22              	.LFB0:
  23              		.file 1 "irq_handler.c"
   1:irq_handler.c **** /*************************************************************************************
   2:irq_handler.c ****  *
   3:irq_handler.c ****  * @Description:
   4:irq_handler.c ****  * Przykładowa procedura obsługi przerwania dostosowania do 
   5:irq_handler.c ****  * obsługi przerwań wektoryzowanych.
   6:irq_handler.c ****  * Procedura ta przełącza stan diody P0.9.
   7:irq_handler.c ****  * 
   8:irq_handler.c ****  * 
   9:irq_handler.c ****  * @Authors: Michał Morawski, 
  10:irq_handler.c ****  *           Daniel Arendt, 
  11:irq_handler.c ****  *           Przemysław Ignaciuk,
  12:irq_handler.c ****  *           Marcin Kwapisz
  13:irq_handler.c ****  *
  14:irq_handler.c ****  * @Change log:
  15:irq_handler.c ****  *           2016.12.01: Wersja oryginalna.
  16:irq_handler.c ****  *
  17:irq_handler.c ****  ******************************************************************************/
  18:irq_handler.c **** 
  19:irq_handler.c **** #include "../general.h"
  20:irq_handler.c **** #include <lpc2xxx.h>
  21:irq_handler.c **** #include "irq_handler.h"
  22:irq_handler.c **** #include "../timer.h"
  23:irq_handler.c **** 
  24:irq_handler.c **** #include "../Common_Def.h"
  25:irq_handler.c **** 
  26:irq_handler.c **** void IRQ_Test(void)
  27:irq_handler.c **** {
  24              		.loc 1 27 0
  25              		.cfi_startproc
  26              		@ Interrupt Service Routine.
  27              		@ args = 0, pretend = 0, frame = 0
  28              		@ frame_needed = 1, uses_anonymous_args = 0
  29              		@ link register save eliminated.
  30 0000 0C082DE9 		push	{r2, r3, fp}
ARM GAS  C:\Users\embedded\AppData\Local\Temp\ccmWcDjN.s 			page 2


  31              	.LCFI0:
  32              		.cfi_def_cfa_offset 12
  33              		.cfi_offset 2, -12
  34              		.cfi_offset 3, -8
  35              		.cfi_offset 11, -4
  36 0004 08B08DE2 		add	fp, sp, #8
  37              	.LCFI1:
  38              		.cfi_def_cfa 11, 4
  28:irq_handler.c **** 	if (TIMER_MR0_INT & T1IR)
  39              		.loc 1 28 0
  40 0008 70309FE5 		ldr	r3, .L4
  41 000c 003093E5 		ldr	r3, [r3]
  42 0010 013003E2 		and	r3, r3, #1
  43 0014 000053E3 		cmp	r3, #0
  44 0018 0600000A 		beq	.L2
  29:irq_handler.c ****     {
  30:irq_handler.c **** 		IOCLR1 = DIODA_PRAWA;         // (1 << 17)
  45              		.loc 1 30 0
  46 001c 60309FE5 		ldr	r3, .L4+4
  47 0020 0228A0E3 		mov	r2, #131072
  48 0024 002083E5 		str	r2, [r3]
  31:irq_handler.c ****         T1IR   = TIMER_MR0_INT;       // Informacja dla Timera #1,
  49              		.loc 1 31 0
  50 0028 50309FE5 		ldr	r3, .L4
  51 002c 0120A0E3 		mov	r2, #1
  52 0030 002083E5 		str	r2, [r3]
  53 0034 0A0000EA 		b	.L3
  54              	.L2:
  32:irq_handler.c **** 	                                  // że jego przerwanie zostało obsłużone.
  33:irq_handler.c ****     }
  34:irq_handler.c ****     else if (TIMER_MR1_INT & T1IR)
  55              		.loc 1 34 0
  56 0038 40309FE5 		ldr	r3, .L4
  57 003c 003093E5 		ldr	r3, [r3]
  58 0040 023003E2 		and	r3, r3, #2
  59 0044 000053E3 		cmp	r3, #0
  60 0048 0500000A 		beq	.L3
  35:irq_handler.c ****     {
  36:irq_handler.c ****         IOSET1 = DIODA_PRAWA;         // (1 << 17)
  61              		.loc 1 36 0
  62 004c 34309FE5 		ldr	r3, .L4+8
  63 0050 0228A0E3 		mov	r2, #131072
  64 0054 002083E5 		str	r2, [r3]
  37:irq_handler.c ****         T1IR   = TIMER_MR1_INT;       // Informacja dla Timera #1,
  65              		.loc 1 37 0
  66 0058 20309FE5 		ldr	r3, .L4
  67 005c 0220A0E3 		mov	r2, #2
  68 0060 002083E5 		str	r2, [r3]
  69              	.L3:
  38:irq_handler.c **** 	                                  // że jego przerwanie zostało obsłużone.
  39:irq_handler.c ****     }
  40:irq_handler.c ****     VICVectAddr = 0;                  // End of Interrupt -> informacja dla
  70              		.loc 1 40 0
  71 0064 20309FE5 		ldr	r3, .L4+12
  72 0068 0020A0E3 		mov	r2, #0
  73 006c 002083E5 		str	r2, [r3]
  41:irq_handler.c ****                                       // kontrolera przerwań
ARM GAS  C:\Users\embedded\AppData\Local\Temp\ccmWcDjN.s 			page 3


  42:irq_handler.c **** }
  74              		.loc 1 42 0
  75 0070 0000A0E1 		nop
  76 0074 08D04BE2 		sub	sp, fp, #8
  77              	.LCFI2:
  78              		.cfi_def_cfa 13, 12
  79              		@ sp needed
  80 0078 0C08BDE8 		pop	{r2, r3, fp}
  81              	.LCFI3:
  82              		.cfi_restore 11
  83              		.cfi_restore 3
  84              		.cfi_restore 2
  85              		.cfi_def_cfa_offset 0
  86 007c 04F05EE2 		subs	pc, lr, #4
  87              	.L5:
  88              		.align	2
  89              	.L4:
  90 0080 008000E0 		.word	-536838144
  91 0084 1C8002E0 		.word	-536707044
  92 0088 148002E0 		.word	-536707052
  93 008c 30F0FFFF 		.word	-4048
  94              		.cfi_endproc
  95              	.LFE0:
  96              		.size	IRQ_Test, .-IRQ_Test
  97              	.Letext0: