ARM GAS  C:\Users\embedded\AppData\Local\Temp\ccNHEFpA.s 			page 1


   1              		.cpu arm7tdmi
   2              		.eabi_attribute 20, 1
   3              		.eabi_attribute 21, 1
   4              		.eabi_attribute 23, 3
   5              		.eabi_attribute 24, 1
   6              		.eabi_attribute 25, 1
   7              		.eabi_attribute 26, 1
   8              		.eabi_attribute 30, 6
   9              		.eabi_attribute 34, 0
  10              		.eabi_attribute 18, 4
  11              		.file	"consol.c"
  12              		.text
  13              	.Ltext0:
  14              		.cfi_sections	.debug_frame
  15              		.global	__aeabi_uidivmod
  16              		.global	__aeabi_uidiv
  17              		.section	.rodata
  18              		.align	2
  19              	.LC0:
  20 0000 30313233 		.ascii	"0123456789abcdef\000"
  20      34353637 
  20      38396162 
  20      63646566 
  20      00
  21              		.text
  22              		.align	2
  23              		.syntax unified
  24              		.arm
  25              		.fpu softvfp
  26              		.type	printNum, %function
  27              	printNum:
  28              	.LFB0:
  29              		.file 1 "consol.c"
   1:consol.c      **** /******************************************************************************
   2:consol.c      ****  *
   3:consol.c      ****  * Copyright:
   4:consol.c      ****  *    (C) 2000 - 2005 Embedded Artists AB
   5:consol.c      ****  *
   6:consol.c      ****  * Description:
   7:consol.c      ****  *    Framework specific implementation of consol
   8:consol.c      ****  *
   9:consol.c      ****  *****************************************************************************/
  10:consol.c      **** 
  11:consol.c      **** 
  12:consol.c      **** /******************************************************************************
  13:consol.c      ****  * Includes
  14:consol.c      ****  *****************************************************************************/
  15:consol.c      **** 
  16:consol.c      **** #include "lpc2xxx.h"                            /* LPC2xxx definitions */
  17:consol.c      **** #include <string.h>
  18:consol.c      **** #include <stdlib.h>
  19:consol.c      **** #include "config.h"
  20:consol.c      **** #include "consol.h"
  21:consol.c      **** #include "framework.h"
  22:consol.c      **** 
  23:consol.c      **** #if (CONSOLE_API_PRINTF == 1) || (CONSOLE_API_SCANF == 1) //own simple printf() or scanf()
  24:consol.c      **** #include <stdarg.h>
ARM GAS  C:\Users\embedded\AppData\Local\Temp\ccNHEFpA.s 			page 2


  25:consol.c      **** #endif
  26:consol.c      **** 
  27:consol.c      **** #define UART_DLL_VALUE (unsigned short)((PCLK / (CONSOL_BITRATE * 16.0)) + 0.5)
  28:consol.c      **** 
  29:consol.c      **** #if (CONSOLE_API_SCANF == 1)  //SIMPLE
  30:consol.c      **** #define __isalpha(c) (c >'9')
  31:consol.c      **** #define __isupper(c) !(c & 0x20)
  32:consol.c      **** #define __ishex(c) (((c >= '0')&&(c <= '9'))||((c >= 'A')&&(c <= 'F')))
  33:consol.c      **** #define __ascii2hex(c) ((c <= '9')? c-'0': c-'A'+10)
  34:consol.c      **** #endif
  35:consol.c      **** 
  36:consol.c      **** /******************************************************************************
  37:consol.c      ****  * Implementation of local functions
  38:consol.c      ****  *****************************************************************************/
  39:consol.c      **** 
  40:consol.c      **** #if (CONSOLE_API_PRINTF == 1)  //OWN_PRINTF
  41:consol.c      **** /*****************************************************************************
  42:consol.c      ****  *
  43:consol.c      ****  * Description:
  44:consol.c      ****  *    Print a number. 
  45:consol.c      ****  *
  46:consol.c      ****  * Params:
  47:consol.c      ****  *    [in] outputFnk - Output function where characters to be printed are 
  48:consol.c      ****  *                      sent 
  49:consol.c      ****  * 
  50:consol.c      ****  *                Params (callback):
  51:consol.c      ****  *                   ch - Character to be printed 
  52:consol.c      ****  *    [in] number    - Number to be printed 
  53:consol.c      ****  *    [in] base      - Base when printing number (2-16) 
  54:consol.c      ****  *
  55:consol.c      ****  ****************************************************************************/
  56:consol.c      **** static void
  57:consol.c      **** printNum(void (*outputFnk) (char ch),
  58:consol.c      ****          unsigned int number,
  59:consol.c      ****          unsigned int base)
  60:consol.c      **** {
  30              		.loc 1 60 0
  31              		.cfi_startproc
  32              		@ Function supports interworking.
  33              		@ args = 0, pretend = 0, frame = 80
  34              		@ frame_needed = 1, uses_anonymous_args = 0
  35 0000 00482DE9 		push	{fp, lr}
  36              	.LCFI0:
  37              		.cfi_def_cfa_offset 8
  38              		.cfi_offset 11, -8
  39              		.cfi_offset 14, -4
  40 0004 04B08DE2 		add	fp, sp, #4
  41              	.LCFI1:
  42              		.cfi_def_cfa 11, 4
  43 0008 50D04DE2 		sub	sp, sp, #80
  44 000c 48000BE5 		str	r0, [fp, #-72]
  45 0010 4C100BE5 		str	r1, [fp, #-76]
  46 0014 50200BE5 		str	r2, [fp, #-80]
  61:consol.c      **** 	char *p;
  62:consol.c      **** 	char  buf[33];
  63:consol.c      **** 	char  hexChars[] = "0123456789abcdef";
  47              		.loc 1 63 0
ARM GAS  C:\Users\embedded\AppData\Local\Temp\ccNHEFpA.s 			page 3


  48 0018 B4309FE5 		ldr	r3, .L4
  49 001c 40C04BE2 		sub	ip, fp, #64
  50 0020 03E0A0E1 		mov	lr, r3
  51 0024 0F00BEE8 		ldmia	lr!, {r0, r1, r2, r3}
  52 0028 0F00ACE8 		stmia	ip!, {r0, r1, r2, r3}
  53 002c 00309EE5 		ldr	r3, [lr]
  54 0030 0030CCE5 		strb	r3, [ip]
  64:consol.c      **** 	
  65:consol.c      **** 	p = buf;
  55              		.loc 1 65 0
  56 0034 2C304BE2 		sub	r3, fp, #44
  57 0038 08300BE5 		str	r3, [fp, #-8]
  58              	.L2:
  66:consol.c      **** 	
  67:consol.c      **** 	do {
  68:consol.c      **** 		*p++ = hexChars[number % base];
  59              		.loc 1 68 0 discriminator 1
  60 003c 4C301BE5 		ldr	r3, [fp, #-76]
  61 0040 50101BE5 		ldr	r1, [fp, #-80]
  62 0044 0300A0E1 		mov	r0, r3
  63 0048 FEFFFFEB 		bl	__aeabi_uidivmod
  64              	.LVL0:
  65 004c 0130A0E1 		mov	r3, r1
  66 0050 0310A0E1 		mov	r1, r3
  67 0054 08301BE5 		ldr	r3, [fp, #-8]
  68 0058 012083E2 		add	r2, r3, #1
  69 005c 08200BE5 		str	r2, [fp, #-8]
  70 0060 04204BE2 		sub	r2, fp, #4
  71 0064 012082E0 		add	r2, r2, r1
  72 0068 3C2052E5 		ldrb	r2, [r2, #-60]	@ zero_extendqisi2
  73 006c 0020C3E5 		strb	r2, [r3]
  69:consol.c      **** 	} while (number /= base);
  74              		.loc 1 69 0 discriminator 1
  75 0070 50101BE5 		ldr	r1, [fp, #-80]
  76 0074 4C001BE5 		ldr	r0, [fp, #-76]
  77 0078 FEFFFFEB 		bl	__aeabi_uidiv
  78              	.LVL1:
  79 007c 0030A0E1 		mov	r3, r0
  80 0080 4C300BE5 		str	r3, [fp, #-76]
  81 0084 4C301BE5 		ldr	r3, [fp, #-76]
  82 0088 000053E3 		cmp	r3, #0
  83 008c EAFFFF1A 		bne	.L2
  84              	.L3:
  70:consol.c      **** 	
  71:consol.c      **** 	do {
  72:consol.c      **** 		outputFnk(*--p);
  85              		.loc 1 72 0 discriminator 1
  86 0090 08301BE5 		ldr	r3, [fp, #-8]
  87 0094 013043E2 		sub	r3, r3, #1
  88 0098 08300BE5 		str	r3, [fp, #-8]
  89 009c 08301BE5 		ldr	r3, [fp, #-8]
  90 00a0 0020D3E5 		ldrb	r2, [r3]	@ zero_extendqisi2
  91 00a4 48301BE5 		ldr	r3, [fp, #-72]
  92 00a8 0200A0E1 		mov	r0, r2
  93 00ac 0FE0A0E1 		mov	lr, pc
  94 00b0 13FF2FE1 		bx	r3
  95              	.LVL2:
ARM GAS  C:\Users\embedded\AppData\Local\Temp\ccNHEFpA.s 			page 4


  73:consol.c      **** 	} while (p > buf);
  96              		.loc 1 73 0 discriminator 1
  97 00b4 2C304BE2 		sub	r3, fp, #44
  98 00b8 08201BE5 		ldr	r2, [fp, #-8]
  99 00bc 030052E1 		cmp	r2, r3
 100 00c0 F2FFFF8A 		bhi	.L3
  74:consol.c      **** }
 101              		.loc 1 74 0
 102 00c4 0000A0E1 		nop
 103 00c8 04D04BE2 		sub	sp, fp, #4
 104              	.LCFI2:
 105              		.cfi_def_cfa 13, 8
 106              		@ sp needed
 107 00cc 0048BDE8 		pop	{fp, lr}
 108              	.LCFI3:
 109              		.cfi_restore 14
 110              		.cfi_restore 11
 111              		.cfi_def_cfa_offset 0
 112 00d0 1EFF2FE1 		bx	lr
 113              	.L5:
 114              		.align	2
 115              	.L4:
 116 00d4 00000000 		.word	.LC0
 117              		.cfi_endproc
 118              	.LFE0:
 119              		.size	printNum, .-printNum
 120              		.align	2
 121              		.syntax unified
 122              		.arm
 123              		.fpu softvfp
 124              		.type	simplePrint, %function
 125              	simplePrint:
 126              	.LFB1:
  75:consol.c      **** 
  76:consol.c      **** /*****************************************************************************
  77:consol.c      ****  *
  78:consol.c      ****  * Description:
  79:consol.c      ****  *    A simple implementation of printf that uses a minimum of stack space.
  80:consol.c      ****  *
  81:consol.c      ****  * Params:
  82:consol.c      ****  *    [in] outputFnk - Output function where characters to be printed are 
  83:consol.c      ****  *                      sent 
  84:consol.c      ****  * 
  85:consol.c      ****  *                Params (callback):
  86:consol.c      ****  *                   ch - Character to be printed 
  87:consol.c      ****  *    [in] fmt       - Format string that specifies what to be printed 
  88:consol.c      ****  *    [in] ap        - Structure that hold information about the variable 
  89:consol.c      ****  *                     number of parameters 
  90:consol.c      ****  *
  91:consol.c      ****  ****************************************************************************/
  92:consol.c      **** static void
  93:consol.c      **** simplePrint(void         (*outputFnk) (char ch),
  94:consol.c      ****             const char * fmt,
  95:consol.c      ****             va_list      ap)
  96:consol.c      **** {
 127              		.loc 1 96 0
 128              		.cfi_startproc
ARM GAS  C:\Users\embedded\AppData\Local\Temp\ccNHEFpA.s 			page 5


 129              		@ Function supports interworking.
 130              		@ args = 0, pretend = 0, frame = 32
 131              		@ frame_needed = 1, uses_anonymous_args = 0
 132 00d8 00482DE9 		push	{fp, lr}
 133              	.LCFI4:
 134              		.cfi_def_cfa_offset 8
 135              		.cfi_offset 11, -8
 136              		.cfi_offset 14, -4
 137 00dc 04B08DE2 		add	fp, sp, #4
 138              	.LCFI5:
 139              		.cfi_def_cfa 11, 4
 140 00e0 20D04DE2 		sub	sp, sp, #32
 141 00e4 18000BE5 		str	r0, [fp, #-24]
 142 00e8 1C100BE5 		str	r1, [fp, #-28]
 143 00ec 20200BE5 		str	r2, [fp, #-32]
  97:consol.c      ****   char          *p;
  98:consol.c      ****   char           ch;
  99:consol.c      ****   unsigned long  ul;
 100:consol.c      ****   unsigned char  lflag;
 101:consol.c      **** 
 102:consol.c      ****   for (;;)
 103:consol.c      ****   {
 104:consol.c      ****     while ((ch = *fmt++) != '%')
 144              		.loc 1 104 0
 145 00f0 070000EA 		b	.L7
 146              	.L10:
 105:consol.c      ****     {
 106:consol.c      ****       if (ch == '\0')
 147              		.loc 1 106 0
 148 00f4 0E305BE5 		ldrb	r3, [fp, #-14]	@ zero_extendqisi2
 149 00f8 000053E3 		cmp	r3, #0
 150 00fc A600000A 		beq	.L33
 107:consol.c      ****         	return;
 108:consol.c      ****       outputFnk(ch);
 151              		.loc 1 108 0
 152 0100 0E205BE5 		ldrb	r2, [fp, #-14]	@ zero_extendqisi2
 153 0104 18301BE5 		ldr	r3, [fp, #-24]
 154 0108 0200A0E1 		mov	r0, r2
 155 010c 0FE0A0E1 		mov	lr, pc
 156 0110 13FF2FE1 		bx	r3
 157              	.LVL3:
 158              	.L7:
 104:consol.c      ****     {
 159              		.loc 1 104 0
 160 0114 1C301BE5 		ldr	r3, [fp, #-28]
 161 0118 012083E2 		add	r2, r3, #1
 162 011c 1C200BE5 		str	r2, [fp, #-28]
 163 0120 0030D3E5 		ldrb	r3, [r3]
 164 0124 0E304BE5 		strb	r3, [fp, #-14]
 165 0128 0E305BE5 		ldrb	r3, [fp, #-14]	@ zero_extendqisi2
 166 012c 250053E3 		cmp	r3, #37
 167 0130 EFFFFF1A 		bne	.L10
 109:consol.c      ****     }
 110:consol.c      ****     lflag = 0;
 168              		.loc 1 110 0
 169 0134 0030A0E3 		mov	r3, #0
 170 0138 0D304BE5 		strb	r3, [fp, #-13]
ARM GAS  C:\Users\embedded\AppData\Local\Temp\ccNHEFpA.s 			page 6


 171              	.L11:
 111:consol.c      **** 
 112:consol.c      **** reswitch:
 113:consol.c      **** 
 114:consol.c      ****     switch (ch = *fmt++)
 172              		.loc 1 114 0
 173 013c 1C301BE5 		ldr	r3, [fp, #-28]
 174 0140 012083E2 		add	r2, r3, #1
 175 0144 1C200BE5 		str	r2, [fp, #-28]
 176 0148 0030D3E5 		ldrb	r3, [r3]
 177 014c 0E304BE5 		strb	r3, [fp, #-14]
 178 0150 0E305BE5 		ldrb	r3, [fp, #-14]	@ zero_extendqisi2
 179 0154 6F0053E3 		cmp	r3, #111
 180 0158 5A00000A 		beq	.L13
 181 015c 6F0053E3 		cmp	r3, #111
 182 0160 0B0000CA 		bgt	.L14
 183 0164 630053E3 		cmp	r3, #99
 184 0168 1800000A 		beq	.L15
 185 016c 630053E3 		cmp	r3, #99
 186 0170 020000CA 		bgt	.L16
 187 0174 000053E3 		cmp	r3, #0
 188 0178 8900000A 		beq	.L34
 189 017c 790000EA 		b	.L12
 190              	.L16:
 191 0180 640053E3 		cmp	r3, #100
 192 0184 3200000A 		beq	.L18
 193 0188 6C0053E3 		cmp	r3, #108
 194 018c 0C00000A 		beq	.L19
 195 0190 740000EA 		b	.L12
 196              	.L14:
 197 0194 730053E3 		cmp	r3, #115
 198 0198 1900000A 		beq	.L20
 199 019c 730053E3 		cmp	r3, #115
 200 01a0 020000CA 		bgt	.L21
 201 01a4 700053E3 		cmp	r3, #112
 202 01a8 5A00000A 		beq	.L22
 203 01ac 6D0000EA 		b	.L12
 204              	.L21:
 205 01b0 750053E3 		cmp	r3, #117
 206 01b4 4D00000A 		beq	.L23
 207 01b8 780053E3 		cmp	r3, #120
 208 01bc 5F00000A 		beq	.L24
 209 01c0 680000EA 		b	.L12
 210              	.L19:
 115:consol.c      ****     {
 116:consol.c      ****     case '\0':
 117:consol.c      ****       return;
 118:consol.c      **** 
 119:consol.c      ****     case 'l':
 120:consol.c      ****       lflag = 1;
 211              		.loc 1 120 0
 212 01c4 0130A0E3 		mov	r3, #1
 213 01c8 0D304BE5 		strb	r3, [fp, #-13]
 121:consol.c      ****       goto reswitch;
 214              		.loc 1 121 0
 215 01cc DAFFFFEA 		b	.L11
 216              	.L15:
ARM GAS  C:\Users\embedded\AppData\Local\Temp\ccNHEFpA.s 			page 7


 122:consol.c      **** 
 123:consol.c      ****     case 'c':
 124:consol.c      **** 	    ch = va_arg(ap, unsigned int);
 217              		.loc 1 124 0
 218 01d0 20301BE5 		ldr	r3, [fp, #-32]
 219 01d4 042083E2 		add	r2, r3, #4
 220 01d8 20200BE5 		str	r2, [fp, #-32]
 221 01dc 003093E5 		ldr	r3, [r3]
 222 01e0 0E304BE5 		strb	r3, [fp, #-14]
 125:consol.c      **** 	    outputFnk(ch & 0x7f);
 223              		.loc 1 125 0
 224 01e4 0E305BE5 		ldrb	r3, [fp, #-14]
 225 01e8 7F3003E2 		and	r3, r3, #127
 226 01ec FF2003E2 		and	r2, r3, #255
 227 01f0 18301BE5 		ldr	r3, [fp, #-24]
 228 01f4 0200A0E1 		mov	r0, r2
 229 01f8 0FE0A0E1 		mov	lr, pc
 230 01fc 13FF2FE1 		bx	r3
 231              	.LVL4:
 126:consol.c      **** 	    break;
 232              		.loc 1 126 0
 233 0200 640000EA 		b	.L25
 234              	.L20:
 127:consol.c      **** 
 128:consol.c      ****     case 's':
 129:consol.c      ****       p = va_arg(ap, char *);
 235              		.loc 1 129 0
 236 0204 20301BE5 		ldr	r3, [fp, #-32]
 237 0208 042083E2 		add	r2, r3, #4
 238 020c 20200BE5 		str	r2, [fp, #-32]
 239 0210 003093E5 		ldr	r3, [r3]
 240 0214 08300BE5 		str	r3, [fp, #-8]
 130:consol.c      ****       while ((ch = *p++) != 0)
 241              		.loc 1 130 0
 242 0218 040000EA 		b	.L26
 243              	.L27:
 131:consol.c      **** 	    {
 132:consol.c      ****           outputFnk(ch);
 244              		.loc 1 132 0
 245 021c 0E205BE5 		ldrb	r2, [fp, #-14]	@ zero_extendqisi2
 246 0220 18301BE5 		ldr	r3, [fp, #-24]
 247 0224 0200A0E1 		mov	r0, r2
 248 0228 0FE0A0E1 		mov	lr, pc
 249 022c 13FF2FE1 		bx	r3
 250              	.LVL5:
 251              	.L26:
 130:consol.c      ****       while ((ch = *p++) != 0)
 252              		.loc 1 130 0
 253 0230 08301BE5 		ldr	r3, [fp, #-8]
 254 0234 012083E2 		add	r2, r3, #1
 255 0238 08200BE5 		str	r2, [fp, #-8]
 256 023c 0030D3E5 		ldrb	r3, [r3]
 257 0240 0E304BE5 		strb	r3, [fp, #-14]
 258 0244 0E305BE5 		ldrb	r3, [fp, #-14]	@ zero_extendqisi2
 259 0248 000053E3 		cmp	r3, #0
 260 024c F2FFFF1A 		bne	.L27
 133:consol.c      **** 		}
ARM GAS  C:\Users\embedded\AppData\Local\Temp\ccNHEFpA.s 			page 8


 134:consol.c      ****       break;
 261              		.loc 1 134 0
 262 0250 500000EA 		b	.L25
 263              	.L18:
 135:consol.c      **** 
 136:consol.c      ****     case 'd':
 137:consol.c      ****       if (lflag)
 264              		.loc 1 137 0
 265 0254 0D305BE5 		ldrb	r3, [fp, #-13]	@ zero_extendqisi2
 266 0258 000053E3 		cmp	r3, #0
 267 025c 0500000A 		beq	.L28
 138:consol.c      **** 	    {
 139:consol.c      **** 		  ul = va_arg(ap, int);
 268              		.loc 1 139 0
 269 0260 20301BE5 		ldr	r3, [fp, #-32]
 270 0264 042083E2 		add	r2, r3, #4
 271 0268 20200BE5 		str	r2, [fp, #-32]
 272 026c 003093E5 		ldr	r3, [r3]
 273 0270 0C300BE5 		str	r3, [fp, #-12]
 274 0274 040000EA 		b	.L29
 275              	.L28:
 140:consol.c      ****         }
 141:consol.c      **** 		else
 142:consol.c      **** 		{
 143:consol.c      **** 			ul = va_arg(ap, unsigned int);
 276              		.loc 1 143 0
 277 0278 20301BE5 		ldr	r3, [fp, #-32]
 278 027c 042083E2 		add	r2, r3, #4
 279 0280 20200BE5 		str	r2, [fp, #-32]
 280 0284 003093E5 		ldr	r3, [r3]
 281 0288 0C300BE5 		str	r3, [fp, #-12]
 282              	.L29:
 144:consol.c      **** 		};
 145:consol.c      ****       if ((long)ul < 0)
 283              		.loc 1 145 0
 284 028c 0C301BE5 		ldr	r3, [fp, #-12]
 285 0290 000053E3 		cmp	r3, #0
 286 0294 060000AA 		bge	.L30
 146:consol.c      ****       {
 147:consol.c      ****         outputFnk('-');
 287              		.loc 1 147 0
 288 0298 18301BE5 		ldr	r3, [fp, #-24]
 289 029c 2D00A0E3 		mov	r0, #45
 290 02a0 0FE0A0E1 		mov	lr, pc
 291 02a4 13FF2FE1 		bx	r3
 292              	.LVL6:
 148:consol.c      ****         ul = -(long)ul;
 293              		.loc 1 148 0
 294 02a8 0C301BE5 		ldr	r3, [fp, #-12]
 295 02ac 003063E2 		rsb	r3, r3, #0
 296 02b0 0C300BE5 		str	r3, [fp, #-12]
 297              	.L30:
 149:consol.c      ****       }
 150:consol.c      ****       printNum(outputFnk, ul, 10);
 298              		.loc 1 150 0
 299 02b4 0A20A0E3 		mov	r2, #10
 300 02b8 0C101BE5 		ldr	r1, [fp, #-12]
ARM GAS  C:\Users\embedded\AppData\Local\Temp\ccNHEFpA.s 			page 9


 301 02bc 18001BE5 		ldr	r0, [fp, #-24]
 302 02c0 4EFFFFEB 		bl	printNum
 151:consol.c      ****       break;
 303              		.loc 1 151 0
 304 02c4 330000EA 		b	.L25
 305              	.L13:
 152:consol.c      **** 
 153:consol.c      ****     case 'o':
 154:consol.c      ****       ul = va_arg(ap, unsigned int);
 306              		.loc 1 154 0
 307 02c8 20301BE5 		ldr	r3, [fp, #-32]
 308 02cc 042083E2 		add	r2, r3, #4
 309 02d0 20200BE5 		str	r2, [fp, #-32]
 310 02d4 003093E5 		ldr	r3, [r3]
 311 02d8 0C300BE5 		str	r3, [fp, #-12]
 155:consol.c      ****       printNum(outputFnk, ul, 8);
 312              		.loc 1 155 0
 313 02dc 0820A0E3 		mov	r2, #8
 314 02e0 0C101BE5 		ldr	r1, [fp, #-12]
 315 02e4 18001BE5 		ldr	r0, [fp, #-24]
 316 02e8 44FFFFEB 		bl	printNum
 156:consol.c      ****       break;
 317              		.loc 1 156 0
 318 02ec 290000EA 		b	.L25
 319              	.L23:
 157:consol.c      **** 
 158:consol.c      ****     case 'u':
 159:consol.c      ****       ul = va_arg(ap, unsigned int);
 320              		.loc 1 159 0
 321 02f0 20301BE5 		ldr	r3, [fp, #-32]
 322 02f4 042083E2 		add	r2, r3, #4
 323 02f8 20200BE5 		str	r2, [fp, #-32]
 324 02fc 003093E5 		ldr	r3, [r3]
 325 0300 0C300BE5 		str	r3, [fp, #-12]
 160:consol.c      ****       printNum(outputFnk, ul, 10);
 326              		.loc 1 160 0
 327 0304 0A20A0E3 		mov	r2, #10
 328 0308 0C101BE5 		ldr	r1, [fp, #-12]
 329 030c 18001BE5 		ldr	r0, [fp, #-24]
 330 0310 3AFFFFEB 		bl	printNum
 161:consol.c      ****       break;
 331              		.loc 1 161 0
 332 0314 1F0000EA 		b	.L25
 333              	.L22:
 162:consol.c      **** 
 163:consol.c      ****     case 'p':
 164:consol.c      ****       outputFnk('0');
 334              		.loc 1 164 0
 335 0318 18301BE5 		ldr	r3, [fp, #-24]
 336 031c 3000A0E3 		mov	r0, #48
 337 0320 0FE0A0E1 		mov	lr, pc
 338 0324 13FF2FE1 		bx	r3
 339              	.LVL7:
 165:consol.c      ****       outputFnk('x');
 340              		.loc 1 165 0
 341 0328 18301BE5 		ldr	r3, [fp, #-24]
 342 032c 7800A0E3 		mov	r0, #120
ARM GAS  C:\Users\embedded\AppData\Local\Temp\ccNHEFpA.s 			page 10


 343 0330 0FE0A0E1 		mov	lr, pc
 344 0334 13FF2FE1 		bx	r3
 345              	.LVL8:
 166:consol.c      ****       lflag = 1;
 346              		.loc 1 166 0
 347 0338 0130A0E3 		mov	r3, #1
 348 033c 0D304BE5 		strb	r3, [fp, #-13]
 349              	.L24:
 167:consol.c      ****       // fall through
 168:consol.c      **** 
 169:consol.c      ****     case 'x':
 170:consol.c      ****       ul = va_arg(ap, unsigned int);
 350              		.loc 1 170 0
 351 0340 20301BE5 		ldr	r3, [fp, #-32]
 352 0344 042083E2 		add	r2, r3, #4
 353 0348 20200BE5 		str	r2, [fp, #-32]
 354 034c 003093E5 		ldr	r3, [r3]
 355 0350 0C300BE5 		str	r3, [fp, #-12]
 171:consol.c      ****       printNum(outputFnk, ul, 16);
 356              		.loc 1 171 0
 357 0354 1020A0E3 		mov	r2, #16
 358 0358 0C101BE5 		ldr	r1, [fp, #-12]
 359 035c 18001BE5 		ldr	r0, [fp, #-24]
 360 0360 26FFFFEB 		bl	printNum
 172:consol.c      ****       break;
 361              		.loc 1 172 0
 362 0364 0B0000EA 		b	.L25
 363              	.L12:
 173:consol.c      **** 
 174:consol.c      ****     default:
 175:consol.c      **** //      outputFnk('%');
 176:consol.c      ****       if (lflag)
 364              		.loc 1 176 0
 365 0368 0D305BE5 		ldrb	r3, [fp, #-13]	@ zero_extendqisi2
 366 036c 000053E3 		cmp	r3, #0
 367 0370 0300000A 		beq	.L31
 177:consol.c      ****         outputFnk('l');
 368              		.loc 1 177 0
 369 0374 18301BE5 		ldr	r3, [fp, #-24]
 370 0378 6C00A0E3 		mov	r0, #108
 371 037c 0FE0A0E1 		mov	lr, pc
 372 0380 13FF2FE1 		bx	r3
 373              	.LVL9:
 374              	.L31:
 178:consol.c      ****       outputFnk(ch);
 375              		.loc 1 178 0
 376 0384 0E205BE5 		ldrb	r2, [fp, #-14]	@ zero_extendqisi2
 377 0388 18301BE5 		ldr	r3, [fp, #-24]
 378 038c 0200A0E1 		mov	r0, r2
 379 0390 0FE0A0E1 		mov	lr, pc
 380 0394 13FF2FE1 		bx	r3
 381              	.LVL10:
 382              	.L25:
 104:consol.c      ****     {
 383              		.loc 1 104 0
 384 0398 5DFFFFEA 		b	.L7
 385              	.L33:
ARM GAS  C:\Users\embedded\AppData\Local\Temp\ccNHEFpA.s 			page 11


 107:consol.c      ****       outputFnk(ch);
 386              		.loc 1 107 0
 387 039c 0000A0E1 		nop
 388 03a0 000000EA 		b	.L6
 389              	.L34:
 117:consol.c      **** 
 390              		.loc 1 117 0
 391 03a4 0000A0E1 		nop
 392              	.L6:
 179:consol.c      ****     }
 180:consol.c      ****   }
 181:consol.c      ****   va_end(ap);
 182:consol.c      **** }
 393              		.loc 1 182 0
 394 03a8 04D04BE2 		sub	sp, fp, #4
 395              	.LCFI6:
 396              		.cfi_def_cfa 13, 8
 397              		@ sp needed
 398 03ac 0048BDE8 		pop	{fp, lr}
 399              	.LCFI7:
 400              		.cfi_restore 14
 401              		.cfi_restore 11
 402              		.cfi_def_cfa_offset 0
 403 03b0 1EFF2FE1 		bx	lr
 404              		.cfi_endproc
 405              	.LFE1:
 406              		.size	simplePrint, .-simplePrint
 407              		.align	2
 408              		.global	consolInit
 409              		.syntax unified
 410              		.arm
 411              		.fpu softvfp
 412              		.type	consolInit, %function
 413              	consolInit:
 414              	.LFB2:
 183:consol.c      **** #endif
 184:consol.c      **** 
 185:consol.c      **** /******************************************************************************
 186:consol.c      ****  * Implementation of public functions
 187:consol.c      ****  *****************************************************************************/
 188:consol.c      **** 
 189:consol.c      **** 
 190:consol.c      **** /*****************************************************************************
 191:consol.c      ****  *
 192:consol.c      ****  * Description:
 193:consol.c      ****  *    Initializes the consol channel (init UART, including setting bitrate and 
 194:consol.c      ****  *    GPIO). 
 195:consol.c      ****  *
 196:consol.c      ****  ****************************************************************************/
 197:consol.c      **** void
 198:consol.c      **** consolInit(void)
 199:consol.c      **** {
 415              		.loc 1 199 0
 416              		.cfi_startproc
 417              		@ Function supports interworking.
 418              		@ args = 0, pretend = 0, frame = 0
 419              		@ frame_needed = 1, uses_anonymous_args = 0
ARM GAS  C:\Users\embedded\AppData\Local\Temp\ccNHEFpA.s 			page 12


 420              		@ link register save eliminated.
 421 03b4 04B02DE5 		str	fp, [sp, #-4]!
 422              	.LCFI8:
 423              		.cfi_def_cfa_offset 4
 424              		.cfi_offset 11, -4
 425 03b8 00B08DE2 		add	fp, sp, #0
 426              	.LCFI9:
 427              		.cfi_def_cfa_register 11
 200:consol.c      **** #if (CONSOL_UART == 0)
 201:consol.c      ****   //enable uart #0 pins in GPIO (P0.0 = TxD0, P0.1 = RxD0)
 202:consol.c      ****   PINSEL0 = (PINSEL0 & 0xfffffff0) | 0x00000005;
 428              		.loc 1 202 0
 429 03bc 74309FE5 		ldr	r3, .L36
 430 03c0 003093E5 		ldr	r3, [r3]
 431 03c4 0F30C3E3 		bic	r3, r3, #15
 432 03c8 68209FE5 		ldr	r2, .L36
 433 03cc 053083E3 		orr	r3, r3, #5
 434 03d0 003082E5 		str	r3, [r2]
 203:consol.c      **** #else
 204:consol.c      ****   //enable uart #1 pins in GPIO (P0.8 = TxD1, P9.1 = RxD1)
 205:consol.c      ****   PINSEL0 = (PINSEL0 & 0xfff0ffff) | 0x00050000;
 206:consol.c      **** #endif
 207:consol.c      **** 
 208:consol.c      ****   //initialize bitrate (by first enable DL registers, DLAB-bit = 1)
 209:consol.c      ****   UART_LCR = 0x80;
 435              		.loc 1 209 0
 436 03d4 60309FE5 		ldr	r3, .L36+4
 437 03d8 8020A0E3 		mov	r2, #128
 438 03dc 002083E5 		str	r2, [r3]
 210:consol.c      ****   UART_DLL = (unsigned char)(UART_DLL_VALUE & 0x00ff);
 439              		.loc 1 210 0
 440 03e0 58309FE5 		ldr	r3, .L36+8
 441 03e4 2020A0E3 		mov	r2, #32
 442 03e8 002083E5 		str	r2, [r3]
 211:consol.c      ****   UART_DLM = (unsigned char)(UART_DLL_VALUE>>8);
 443              		.loc 1 211 0
 444 03ec 50309FE5 		ldr	r3, .L36+12
 445 03f0 0020A0E3 		mov	r2, #0
 446 03f4 002083E5 		str	r2, [r3]
 212:consol.c      ****   UART_LCR = 0x00;
 447              		.loc 1 212 0
 448 03f8 3C309FE5 		ldr	r3, .L36+4
 449 03fc 0020A0E3 		mov	r2, #0
 450 0400 002083E5 		str	r2, [r3]
 213:consol.c      **** 
 214:consol.c      ****   //initialize LCR: 8N1
 215:consol.c      ****   UART_LCR = 0x03;
 451              		.loc 1 215 0
 452 0404 30309FE5 		ldr	r3, .L36+4
 453 0408 0320A0E3 		mov	r2, #3
 454 040c 002083E5 		str	r2, [r3]
 216:consol.c      **** 
 217:consol.c      ****   //reset FIFO
 218:consol.c      ****   UART_FCR = 0x00;
 455              		.loc 1 218 0
 456 0410 30309FE5 		ldr	r3, .L36+16
 457 0414 0020A0E3 		mov	r2, #0
ARM GAS  C:\Users\embedded\AppData\Local\Temp\ccNHEFpA.s 			page 13


 458 0418 002083E5 		str	r2, [r3]
 219:consol.c      **** 
 220:consol.c      ****   //clear interrupt bits
 221:consol.c      ****   UART_IER = 0x00;
 459              		.loc 1 221 0
 460 041c 20309FE5 		ldr	r3, .L36+12
 461 0420 0020A0E3 		mov	r2, #0
 462 0424 002083E5 		str	r2, [r3]
 222:consol.c      **** }
 463              		.loc 1 222 0
 464 0428 0000A0E1 		nop
 465 042c 00D08BE2 		add	sp, fp, #0
 466              	.LCFI10:
 467              		.cfi_def_cfa_register 13
 468              		@ sp needed
 469 0430 04B09DE4 		ldr	fp, [sp], #4
 470              	.LCFI11:
 471              		.cfi_restore 11
 472              		.cfi_def_cfa_offset 0
 473 0434 1EFF2FE1 		bx	lr
 474              	.L37:
 475              		.align	2
 476              	.L36:
 477 0438 00C002E0 		.word	-536690688
 478 043c 0CC000E0 		.word	-536821748
 479 0440 00C000E0 		.word	-536821760
 480 0444 04C000E0 		.word	-536821756
 481 0448 08C000E0 		.word	-536821752
 482              		.cfi_endproc
 483              	.LFE2:
 484              		.size	consolInit, .-consolInit
 485              		.align	2
 486              		.global	consolSendChar
 487              		.syntax unified
 488              		.arm
 489              		.fpu softvfp
 490              		.type	consolSendChar, %function
 491              	consolSendChar:
 492              	.LFB3:
 223:consol.c      **** 
 224:consol.c      **** /*****************************************************************************
 225:consol.c      ****  *
 226:consol.c      ****  * Description:
 227:consol.c      ****  *    Blocking consol output routine, i.e., the routine waits until the uart 
 228:consol.c      ****  *    buffer is free and then sends the character. 
 229:consol.c      ****  *
 230:consol.c      ****  * Params:
 231:consol.c      ****  *    [in] charToSend - The character to print (to the consol) 
 232:consol.c      ****  *
 233:consol.c      ****  ****************************************************************************/
 234:consol.c      **** void
 235:consol.c      **** consolSendChar(char charToSend)
 236:consol.c      **** {
 493              		.loc 1 236 0
 494              		.cfi_startproc
 495              		@ Function supports interworking.
 496              		@ args = 0, pretend = 0, frame = 8
ARM GAS  C:\Users\embedded\AppData\Local\Temp\ccNHEFpA.s 			page 14


 497              		@ frame_needed = 1, uses_anonymous_args = 0
 498              		@ link register save eliminated.
 499 044c 04B02DE5 		str	fp, [sp, #-4]!
 500              	.LCFI12:
 501              		.cfi_def_cfa_offset 4
 502              		.cfi_offset 11, -4
 503 0450 00B08DE2 		add	fp, sp, #0
 504              	.LCFI13:
 505              		.cfi_def_cfa_register 11
 506 0454 0CD04DE2 		sub	sp, sp, #12
 507 0458 0030A0E1 		mov	r3, r0
 508 045c 05304BE5 		strb	r3, [fp, #-5]
 237:consol.c      ****   //Wait until THR is empty
 238:consol.c      ****   while(!(UART_LSR & 0x20))
 509              		.loc 1 238 0
 510 0460 0000A0E1 		nop
 511              	.L39:
 512              		.loc 1 238 0 is_stmt 0 discriminator 1
 513 0464 28309FE5 		ldr	r3, .L40
 514 0468 003093E5 		ldr	r3, [r3]
 515 046c 203003E2 		and	r3, r3, #32
 516 0470 000053E3 		cmp	r3, #0
 517 0474 FAFFFF0A 		beq	.L39
 239:consol.c      ****     ;
 240:consol.c      ****   UART_THR = charToSend;
 518              		.loc 1 240 0 is_stmt 1
 519 0478 18209FE5 		ldr	r2, .L40+4
 520 047c 05305BE5 		ldrb	r3, [fp, #-5]	@ zero_extendqisi2
 521 0480 003082E5 		str	r3, [r2]
 241:consol.c      **** }
 522              		.loc 1 241 0
 523 0484 0000A0E1 		nop
 524 0488 00D08BE2 		add	sp, fp, #0
 525              	.LCFI14:
 526              		.cfi_def_cfa_register 13
 527              		@ sp needed
 528 048c 04B09DE4 		ldr	fp, [sp], #4
 529              	.LCFI15:
 530              		.cfi_restore 11
 531              		.cfi_def_cfa_offset 0
 532 0490 1EFF2FE1 		bx	lr
 533              	.L41:
 534              		.align	2
 535              	.L40:
 536 0494 14C000E0 		.word	-536821740
 537 0498 00C000E0 		.word	-536821760
 538              		.cfi_endproc
 539              	.LFE3:
 540              		.size	consolSendChar, .-consolSendChar
 541              		.align	2
 542              		.global	consolSendCh
 543              		.syntax unified
 544              		.arm
 545              		.fpu softvfp
 546              		.type	consolSendCh, %function
 547              	consolSendCh:
 548              	.LFB4:
ARM GAS  C:\Users\embedded\AppData\Local\Temp\ccNHEFpA.s 			page 15


 242:consol.c      **** 
 243:consol.c      **** /*****************************************************************************
 244:consol.c      ****  *
 245:consol.c      ****  * Description:
 246:consol.c      ****  *    Consol output routine that adds extra line feeds at line breaks. 
 247:consol.c      ****  *
 248:consol.c      ****  * Params:
 249:consol.c      ****  *    [in] charToSend - The character to print (to the consol) 
 250:consol.c      ****  *
 251:consol.c      ****  ****************************************************************************/
 252:consol.c      **** void
 253:consol.c      **** consolSendCh(char charToSend)
 254:consol.c      **** {
 549              		.loc 1 254 0
 550              		.cfi_startproc
 551              		@ Function supports interworking.
 552              		@ args = 0, pretend = 0, frame = 8
 553              		@ frame_needed = 1, uses_anonymous_args = 0
 554 049c 00482DE9 		push	{fp, lr}
 555              	.LCFI16:
 556              		.cfi_def_cfa_offset 8
 557              		.cfi_offset 11, -8
 558              		.cfi_offset 14, -4
 559 04a0 04B08DE2 		add	fp, sp, #4
 560              	.LCFI17:
 561              		.cfi_def_cfa 11, 4
 562 04a4 08D04DE2 		sub	sp, sp, #8
 563 04a8 0030A0E1 		mov	r3, r0
 564 04ac 05304BE5 		strb	r3, [fp, #-5]
 255:consol.c      ****   if(charToSend == '\n')
 565              		.loc 1 255 0
 566 04b0 05305BE5 		ldrb	r3, [fp, #-5]	@ zero_extendqisi2
 567 04b4 0A0053E3 		cmp	r3, #10
 568 04b8 0100001A 		bne	.L43
 256:consol.c      ****     consolSendChar('\r');
 569              		.loc 1 256 0
 570 04bc 0D00A0E3 		mov	r0, #13
 571 04c0 FEFFFFEB 		bl	consolSendChar
 572              	.L43:
 257:consol.c      **** 
 258:consol.c      ****   consolSendChar(charToSend);
 573              		.loc 1 258 0
 574 04c4 05305BE5 		ldrb	r3, [fp, #-5]	@ zero_extendqisi2
 575 04c8 0300A0E1 		mov	r0, r3
 576 04cc FEFFFFEB 		bl	consolSendChar
 259:consol.c      **** }
 577              		.loc 1 259 0
 578 04d0 0000A0E1 		nop
 579 04d4 04D04BE2 		sub	sp, fp, #4
 580              	.LCFI18:
 581              		.cfi_def_cfa 13, 8
 582              		@ sp needed
 583 04d8 0048BDE8 		pop	{fp, lr}
 584              	.LCFI19:
 585              		.cfi_restore 14
 586              		.cfi_restore 11
 587              		.cfi_def_cfa_offset 0
ARM GAS  C:\Users\embedded\AppData\Local\Temp\ccNHEFpA.s 			page 16


 588 04dc 1EFF2FE1 		bx	lr
 589              		.cfi_endproc
 590              	.LFE4:
 591              		.size	consolSendCh, .-consolSendCh
 592              		.align	2
 593              		.global	consolSendString
 594              		.syntax unified
 595              		.arm
 596              		.fpu softvfp
 597              		.type	consolSendString, %function
 598              	consolSendString:
 599              	.LFB5:
 260:consol.c      **** 
 261:consol.c      **** /*****************************************************************************
 262:consol.c      ****  *
 263:consol.c      ****  * Description:
 264:consol.c      ****  *    Print string to consol. 
 265:consol.c      ****  *
 266:consol.c      ****  * Params:
 267:consol.c      ****  *    [in] pString - Pointer to string to be printed 
 268:consol.c      ****  *
 269:consol.c      ****  ****************************************************************************/
 270:consol.c      **** void
 271:consol.c      **** consolSendString(char *pString)
 272:consol.c      **** {
 600              		.loc 1 272 0
 601              		.cfi_startproc
 602              		@ Function supports interworking.
 603              		@ args = 0, pretend = 0, frame = 8
 604              		@ frame_needed = 1, uses_anonymous_args = 0
 605 04e0 00482DE9 		push	{fp, lr}
 606              	.LCFI20:
 607              		.cfi_def_cfa_offset 8
 608              		.cfi_offset 11, -8
 609              		.cfi_offset 14, -4
 610 04e4 04B08DE2 		add	fp, sp, #4
 611              	.LCFI21:
 612              		.cfi_def_cfa 11, 4
 613 04e8 08D04DE2 		sub	sp, sp, #8
 614 04ec 08000BE5 		str	r0, [fp, #-8]
 273:consol.c      ****   while(*pString)
 615              		.loc 1 273 0
 616 04f0 050000EA 		b	.L45
 617              	.L46:
 274:consol.c      ****     consolSendCh(*pString++);
 618              		.loc 1 274 0
 619 04f4 08301BE5 		ldr	r3, [fp, #-8]
 620 04f8 012083E2 		add	r2, r3, #1
 621 04fc 08200BE5 		str	r2, [fp, #-8]
 622 0500 0030D3E5 		ldrb	r3, [r3]	@ zero_extendqisi2
 623 0504 0300A0E1 		mov	r0, r3
 624 0508 FEFFFFEB 		bl	consolSendCh
 625              	.L45:
 273:consol.c      ****   while(*pString)
 626              		.loc 1 273 0
 627 050c 08301BE5 		ldr	r3, [fp, #-8]
 628 0510 0030D3E5 		ldrb	r3, [r3]	@ zero_extendqisi2
ARM GAS  C:\Users\embedded\AppData\Local\Temp\ccNHEFpA.s 			page 17


 629 0514 000053E3 		cmp	r3, #0
 630 0518 F5FFFF1A 		bne	.L46
 275:consol.c      **** }
 631              		.loc 1 275 0
 632 051c 0000A0E1 		nop
 633 0520 04D04BE2 		sub	sp, fp, #4
 634              	.LCFI22:
 635              		.cfi_def_cfa 13, 8
 636              		@ sp needed
 637 0524 0048BDE8 		pop	{fp, lr}
 638              	.LCFI23:
 639              		.cfi_restore 14
 640              		.cfi_restore 11
 641              		.cfi_def_cfa_offset 0
 642 0528 1EFF2FE1 		bx	lr
 643              		.cfi_endproc
 644              	.LFE5:
 645              		.size	consolSendString, .-consolSendString
 646              		.align	2
 647              		.global	consolSendNumber
 648              		.syntax unified
 649              		.arm
 650              		.fpu softvfp
 651              		.type	consolSendNumber, %function
 652              	consolSendNumber:
 653              	.LFB6:
 276:consol.c      **** 
 277:consol.c      **** /*****************************************************************************
 278:consol.c      ****  *
 279:consol.c      ****  * Description:
 280:consol.c      ****  *    Routine for printing integer numbers in various formats. The number is 
 281:consol.c      ****  *    printed in the specified 'base' using exactly 'noDigits', using +/- if 
 282:consol.c      ****  *    signed flag 'sign' is TRUE, and using the character specified in 'pad' 
 283:consol.c      ****  *    to pad extra characters. 
 284:consol.c      ****  *
 285:consol.c      ****  * Params:
 286:consol.c      ****  *    [in] base     - Base to print number in (2-16) 
 287:consol.c      ****  *    [in] noDigits - Number of digits to print (max 32) 
 288:consol.c      ****  *    [in] sign     - Flag if sign is to be used (TRUE), or not (FALSE) 
 289:consol.c      ****  *    [in] pad      - Character to pad any unused positions 
 290:consol.c      ****  *    [in] number   - Signed number to print 
 291:consol.c      ****  *
 292:consol.c      ****  ****************************************************************************/
 293:consol.c      **** void
 294:consol.c      **** consolSendNumber(unsigned char base,
 295:consol.c      ****                  unsigned char noDigits,
 296:consol.c      ****                  unsigned char sign,
 297:consol.c      ****                  char          pad,
 298:consol.c      ****                  int           number)
 299:consol.c      **** {
 654              		.loc 1 299 0
 655              		.cfi_startproc
 656              		@ Function supports interworking.
 657              		@ args = 4, pretend = 0, frame = 56
 658              		@ frame_needed = 1, uses_anonymous_args = 0
 659 052c 00482DE9 		push	{fp, lr}
 660              	.LCFI24:
ARM GAS  C:\Users\embedded\AppData\Local\Temp\ccNHEFpA.s 			page 18


 661              		.cfi_def_cfa_offset 8
 662              		.cfi_offset 11, -8
 663              		.cfi_offset 14, -4
 664 0530 04B08DE2 		add	fp, sp, #4
 665              	.LCFI25:
 666              		.cfi_def_cfa 11, 4
 667 0534 38D04DE2 		sub	sp, sp, #56
 668 0538 00C0A0E1 		mov	ip, r0
 669 053c 0100A0E1 		mov	r0, r1
 670 0540 0210A0E1 		mov	r1, r2
 671 0544 0320A0E1 		mov	r2, r3
 672 0548 0C30A0E1 		mov	r3, ip
 673 054c 35304BE5 		strb	r3, [fp, #-53]
 674 0550 0030A0E1 		mov	r3, r0
 675 0554 36304BE5 		strb	r3, [fp, #-54]
 676 0558 0130A0E1 		mov	r3, r1
 677 055c 37304BE5 		strb	r3, [fp, #-55]
 678 0560 0230A0E1 		mov	r3, r2
 679 0564 38304BE5 		strb	r3, [fp, #-56]
 300:consol.c      ****   static char    hexChars[16] = "0123456789ABCDEF";
 301:consol.c      ****   char          *pBuf;
 302:consol.c      ****   char           buf[32];
 303:consol.c      ****   unsigned int   numberAbs;
 304:consol.c      ****   unsigned char  count;
 305:consol.c      **** 
 306:consol.c      ****   // prepare negative number
 307:consol.c      ****   if(sign && (number < 0))
 680              		.loc 1 307 0
 681 0568 37305BE5 		ldrb	r3, [fp, #-55]	@ zero_extendqisi2
 682 056c 000053E3 		cmp	r3, #0
 683 0570 0600000A 		beq	.L48
 684              		.loc 1 307 0 is_stmt 0 discriminator 1
 685 0574 04309BE5 		ldr	r3, [fp, #4]
 686 0578 000053E3 		cmp	r3, #0
 687 057c 030000AA 		bge	.L48
 308:consol.c      ****     numberAbs = -number;
 688              		.loc 1 308 0 is_stmt 1
 689 0580 04309BE5 		ldr	r3, [fp, #4]
 690 0584 003063E2 		rsb	r3, r3, #0
 691 0588 0C300BE5 		str	r3, [fp, #-12]
 692 058c 010000EA 		b	.L49
 693              	.L48:
 309:consol.c      ****   else
 310:consol.c      ****     numberAbs = number;
 694              		.loc 1 310 0
 695 0590 04309BE5 		ldr	r3, [fp, #4]
 696 0594 0C300BE5 		str	r3, [fp, #-12]
 697              	.L49:
 311:consol.c      **** 
 312:consol.c      ****   // setup little string buffer
 313:consol.c      ****   count = (noDigits - 1) - (sign ? 1 : 0);
 698              		.loc 1 313 0
 699 0598 37305BE5 		ldrb	r3, [fp, #-55]	@ zero_extendqisi2
 700 059c 000053E3 		cmp	r3, #0
 701 05a0 0130A013 		movne	r3, #1
 702 05a4 0030A003 		moveq	r3, #0
 703 05a8 FF3003E2 		and	r3, r3, #255
ARM GAS  C:\Users\embedded\AppData\Local\Temp\ccNHEFpA.s 			page 19


 704 05ac 0320A0E1 		mov	r2, r3
 705 05b0 36305BE5 		ldrb	r3, [fp, #-54]
 706 05b4 023043E0 		sub	r3, r3, r2
 707 05b8 FF3003E2 		and	r3, r3, #255
 708 05bc 013043E2 		sub	r3, r3, #1
 709 05c0 0D304BE5 		strb	r3, [fp, #-13]
 314:consol.c      ****   pBuf = buf + sizeof(buf);
 710              		.loc 1 314 0
 711 05c4 30304BE2 		sub	r3, fp, #48
 712 05c8 203083E2 		add	r3, r3, #32
 713 05cc 08300BE5 		str	r3, [fp, #-8]
 315:consol.c      ****   *--pBuf = '\0';
 714              		.loc 1 315 0
 715 05d0 08301BE5 		ldr	r3, [fp, #-8]
 716 05d4 013043E2 		sub	r3, r3, #1
 717 05d8 08300BE5 		str	r3, [fp, #-8]
 718 05dc 08301BE5 		ldr	r3, [fp, #-8]
 719 05e0 0020A0E3 		mov	r2, #0
 720 05e4 0020C3E5 		strb	r2, [r3]
 316:consol.c      **** 
 317:consol.c      ****   // force calculation of first digit
 318:consol.c      ****   // (to prevent zero from not printing at all!!!)
 319:consol.c      ****   *--pBuf = hexChars[(numberAbs % base)];
 721              		.loc 1 319 0
 722 05e8 35205BE5 		ldrb	r2, [fp, #-53]	@ zero_extendqisi2
 723 05ec 0C301BE5 		ldr	r3, [fp, #-12]
 724 05f0 0210A0E1 		mov	r1, r2
 725 05f4 0300A0E1 		mov	r0, r3
 726 05f8 FEFFFFEB 		bl	__aeabi_uidivmod
 727              	.LVL11:
 728 05fc 0130A0E1 		mov	r3, r1
 729 0600 0320A0E1 		mov	r2, r3
 730 0604 08301BE5 		ldr	r3, [fp, #-8]
 731 0608 013043E2 		sub	r3, r3, #1
 732 060c 08300BE5 		str	r3, [fp, #-8]
 733 0610 3C319FE5 		ldr	r3, .L56
 734 0614 0220D3E7 		ldrb	r2, [r3, r2]	@ zero_extendqisi2
 735 0618 08301BE5 		ldr	r3, [fp, #-8]
 736 061c 0020C3E5 		strb	r2, [r3]
 320:consol.c      ****   numberAbs /= base;
 737              		.loc 1 320 0
 738 0620 35305BE5 		ldrb	r3, [fp, #-53]	@ zero_extendqisi2
 739 0624 0310A0E1 		mov	r1, r3
 740 0628 0C001BE5 		ldr	r0, [fp, #-12]
 741 062c FEFFFFEB 		bl	__aeabi_uidiv
 742              	.LVL12:
 743 0630 0030A0E1 		mov	r3, r0
 744 0634 0C300BE5 		str	r3, [fp, #-12]
 321:consol.c      **** 
 322:consol.c      ****   // calculate remaining digits
 323:consol.c      ****   while(count--)
 745              		.loc 1 323 0
 746 0638 1D0000EA 		b	.L50
 747              	.L52:
 324:consol.c      ****   {
 325:consol.c      ****     if(numberAbs != 0)
 748              		.loc 1 325 0
ARM GAS  C:\Users\embedded\AppData\Local\Temp\ccNHEFpA.s 			page 20


 749 063c 0C301BE5 		ldr	r3, [fp, #-12]
 750 0640 000053E3 		cmp	r3, #0
 751 0644 1400000A 		beq	.L51
 326:consol.c      ****     {
 327:consol.c      ****       //calculate next digit
 328:consol.c      ****       *--pBuf = hexChars[(numberAbs % base)];
 752              		.loc 1 328 0
 753 0648 35205BE5 		ldrb	r2, [fp, #-53]	@ zero_extendqisi2
 754 064c 0C301BE5 		ldr	r3, [fp, #-12]
 755 0650 0210A0E1 		mov	r1, r2
 756 0654 0300A0E1 		mov	r0, r3
 757 0658 FEFFFFEB 		bl	__aeabi_uidivmod
 758              	.LVL13:
 759 065c 0130A0E1 		mov	r3, r1
 760 0660 0320A0E1 		mov	r2, r3
 761 0664 08301BE5 		ldr	r3, [fp, #-8]
 762 0668 013043E2 		sub	r3, r3, #1
 763 066c 08300BE5 		str	r3, [fp, #-8]
 764 0670 DC309FE5 		ldr	r3, .L56
 765 0674 0220D3E7 		ldrb	r2, [r3, r2]	@ zero_extendqisi2
 766 0678 08301BE5 		ldr	r3, [fp, #-8]
 767 067c 0020C3E5 		strb	r2, [r3]
 329:consol.c      ****       numberAbs /= base;
 768              		.loc 1 329 0
 769 0680 35305BE5 		ldrb	r3, [fp, #-53]	@ zero_extendqisi2
 770 0684 0310A0E1 		mov	r1, r3
 771 0688 0C001BE5 		ldr	r0, [fp, #-12]
 772 068c FEFFFFEB 		bl	__aeabi_uidiv
 773              	.LVL14:
 774 0690 0030A0E1 		mov	r3, r0
 775 0694 0C300BE5 		str	r3, [fp, #-12]
 776 0698 050000EA 		b	.L50
 777              	.L51:
 330:consol.c      ****     }
 331:consol.c      ****     else
 332:consol.c      ****       // no more digits left, pad out to desired length
 333:consol.c      ****       *--pBuf = pad;
 778              		.loc 1 333 0
 779 069c 08301BE5 		ldr	r3, [fp, #-8]
 780 06a0 013043E2 		sub	r3, r3, #1
 781 06a4 08300BE5 		str	r3, [fp, #-8]
 782 06a8 08301BE5 		ldr	r3, [fp, #-8]
 783 06ac 38205BE5 		ldrb	r2, [fp, #-56]
 784 06b0 0020C3E5 		strb	r2, [r3]
 785              	.L50:
 323:consol.c      ****   {
 786              		.loc 1 323 0
 787 06b4 0D305BE5 		ldrb	r3, [fp, #-13]	@ zero_extendqisi2
 788 06b8 012043E2 		sub	r2, r3, #1
 789 06bc 0D204BE5 		strb	r2, [fp, #-13]
 790 06c0 000053E3 		cmp	r3, #0
 791 06c4 DCFFFF1A 		bne	.L52
 334:consol.c      ****   }
 335:consol.c      **** 
 336:consol.c      ****   // apply signed notation if requested
 337:consol.c      ****   if(sign)
 792              		.loc 1 337 0
ARM GAS  C:\Users\embedded\AppData\Local\Temp\ccNHEFpA.s 			page 21


 793 06c8 37305BE5 		ldrb	r3, [fp, #-55]	@ zero_extendqisi2
 794 06cc 000053E3 		cmp	r3, #0
 795 06d0 1900000A 		beq	.L53
 338:consol.c      ****   {
 339:consol.c      ****     if(number < 0)
 796              		.loc 1 339 0
 797 06d4 04309BE5 		ldr	r3, [fp, #4]
 798 06d8 000053E3 		cmp	r3, #0
 799 06dc 060000AA 		bge	.L54
 340:consol.c      ****       *--pBuf = '-';
 800              		.loc 1 340 0
 801 06e0 08301BE5 		ldr	r3, [fp, #-8]
 802 06e4 013043E2 		sub	r3, r3, #1
 803 06e8 08300BE5 		str	r3, [fp, #-8]
 804 06ec 08301BE5 		ldr	r3, [fp, #-8]
 805 06f0 2D20A0E3 		mov	r2, #45
 806 06f4 0020C3E5 		strb	r2, [r3]
 807 06f8 0F0000EA 		b	.L53
 808              	.L54:
 341:consol.c      ****     else if(number > 0)
 809              		.loc 1 341 0
 810 06fc 04309BE5 		ldr	r3, [fp, #4]
 811 0700 000053E3 		cmp	r3, #0
 812 0704 060000DA 		ble	.L55
 342:consol.c      ****        *--pBuf = '+';
 813              		.loc 1 342 0
 814 0708 08301BE5 		ldr	r3, [fp, #-8]
 815 070c 013043E2 		sub	r3, r3, #1
 816 0710 08300BE5 		str	r3, [fp, #-8]
 817 0714 08301BE5 		ldr	r3, [fp, #-8]
 818 0718 2B20A0E3 		mov	r2, #43
 819 071c 0020C3E5 		strb	r2, [r3]
 820 0720 050000EA 		b	.L53
 821              	.L55:
 343:consol.c      ****     else
 344:consol.c      ****        *--pBuf = ' ';
 822              		.loc 1 344 0
 823 0724 08301BE5 		ldr	r3, [fp, #-8]
 824 0728 013043E2 		sub	r3, r3, #1
 825 072c 08300BE5 		str	r3, [fp, #-8]
 826 0730 08301BE5 		ldr	r3, [fp, #-8]
 827 0734 2020A0E3 		mov	r2, #32
 828 0738 0020C3E5 		strb	r2, [r3]
 829              	.L53:
 345:consol.c      ****   }
 346:consol.c      **** 
 347:consol.c      ****   // print the string right-justified
 348:consol.c      ****   consolSendString(pBuf);
 830              		.loc 1 348 0
 831 073c 08001BE5 		ldr	r0, [fp, #-8]
 832 0740 FEFFFFEB 		bl	consolSendString
 349:consol.c      **** }
 833              		.loc 1 349 0
 834 0744 0000A0E1 		nop
 835 0748 04D04BE2 		sub	sp, fp, #4
 836              	.LCFI26:
 837              		.cfi_def_cfa 13, 8
ARM GAS  C:\Users\embedded\AppData\Local\Temp\ccNHEFpA.s 			page 22


 838              		@ sp needed
 839 074c 0048BDE8 		pop	{fp, lr}
 840              	.LCFI27:
 841              		.cfi_restore 14
 842              		.cfi_restore 11
 843              		.cfi_def_cfa_offset 0
 844 0750 1EFF2FE1 		bx	lr
 845              	.L57:
 846              		.align	2
 847              	.L56:
 848 0754 00000000 		.word	hexChars.5041
 849              		.cfi_endproc
 850              	.LFE6:
 851              		.size	consolSendNumber, .-consolSendNumber
 852              		.align	2
 853              		.global	simplePrintf
 854              		.syntax unified
 855              		.arm
 856              		.fpu softvfp
 857              		.type	simplePrintf, %function
 858              	simplePrintf:
 859              	.LFB7:
 350:consol.c      **** 
 351:consol.c      **** #if (CONSOLE_API_PRINTF == 1)  //OWN_PRINTF
 352:consol.c      **** /*****************************************************************************
 353:consol.c      ****  *
 354:consol.c      ****  * Description:
 355:consol.c      ****  *    Simple implementation of printf 
 356:consol.c      ****  *
 357:consol.c      ****  * Params:
 358:consol.c      ****  *    [in] fmt - Format string that specifies what to be printed 
 359:consol.c      ****  *    [in] ... - Variable number of parameters to match format string 
 360:consol.c      ****  *
 361:consol.c      ****  ****************************************************************************/
 362:consol.c      **** void
 363:consol.c      **** simplePrintf(const char * fmt,
 364:consol.c      ****              ...          )
 365:consol.c      **** {
 860              		.loc 1 365 0
 861              		.cfi_startproc
 862              		@ Function supports interworking.
 863              		@ args = 4, pretend = 16, frame = 8
 864              		@ frame_needed = 1, uses_anonymous_args = 1
 865 0758 0F002DE9 		push	{r0, r1, r2, r3}
 866              	.LCFI28:
 867              		.cfi_def_cfa_offset 16
 868              		.cfi_offset 0, -16
 869              		.cfi_offset 1, -12
 870              		.cfi_offset 2, -8
 871              		.cfi_offset 3, -4
 872 075c 00482DE9 		push	{fp, lr}
 873              	.LCFI29:
 874              		.cfi_def_cfa_offset 24
 875              		.cfi_offset 11, -24
 876              		.cfi_offset 14, -20
 877 0760 04B08DE2 		add	fp, sp, #4
 878              	.LCFI30:
ARM GAS  C:\Users\embedded\AppData\Local\Temp\ccNHEFpA.s 			page 23


 879              		.cfi_def_cfa 11, 20
 880 0764 08D04DE2 		sub	sp, sp, #8
 366:consol.c      **** 	va_list ap;
 367:consol.c      **** 
 368:consol.c      **** 	va_start(ap, fmt);
 881              		.loc 1 368 0
 882 0768 08308BE2 		add	r3, fp, #8
 883 076c 08300BE5 		str	r3, [fp, #-8]
 369:consol.c      **** 	simplePrint(consolSendCh, fmt, ap);
 884              		.loc 1 369 0
 885 0770 08201BE5 		ldr	r2, [fp, #-8]
 886 0774 04109BE5 		ldr	r1, [fp, #4]
 887 0778 14009FE5 		ldr	r0, .L59
 888 077c 55FEFFEB 		bl	simplePrint
 370:consol.c      **** 	va_end(ap);
 371:consol.c      **** }
 889              		.loc 1 371 0
 890 0780 0000A0E1 		nop
 891 0784 04D04BE2 		sub	sp, fp, #4
 892              	.LCFI31:
 893              		.cfi_def_cfa 13, 24
 894              		@ sp needed
 895 0788 0048BDE8 		pop	{fp, lr}
 896              	.LCFI32:
 897              		.cfi_restore 14
 898              		.cfi_restore 11
 899              		.cfi_def_cfa_offset 16
 900 078c 10D08DE2 		add	sp, sp, #16
 901              	.LCFI33:
 902              		.cfi_restore 3
 903              		.cfi_restore 2
 904              		.cfi_restore 1
 905              		.cfi_restore 0
 906              		.cfi_def_cfa_offset 0
 907 0790 1EFF2FE1 		bx	lr
 908              	.L60:
 909              		.align	2
 910              	.L59:
 911 0794 00000000 		.word	consolSendCh
 912              		.cfi_endproc
 913              	.LFE7:
 914              		.size	simplePrintf, .-simplePrintf
 915              		.align	2
 916              		.global	consolGetCh
 917              		.syntax unified
 918              		.arm
 919              		.fpu softvfp
 920              		.type	consolGetCh, %function
 921              	consolGetCh:
 922              	.LFB8:
 372:consol.c      **** #endif
 373:consol.c      **** 
 374:consol.c      **** 
 375:consol.c      **** #if (CONSOLE_API_SCANF == 1)  //SIMPLE
 376:consol.c      **** 
 377:consol.c      **** /*****************************************************************************
 378:consol.c      ****  *
ARM GAS  C:\Users\embedded\AppData\Local\Temp\ccNHEFpA.s 			page 24


 379:consol.c      ****  * Description:
 380:consol.c      ****  *    Wait (blocking call) for a character to be received. 
 381:consol.c      ****  *
 382:consol.c      ****  * Returns:
 383:consol.c      ****  *    char - Received character
 384:consol.c      ****  *
 385:consol.c      ****  ****************************************************************************/
 386:consol.c      **** char
 387:consol.c      **** consolGetCh(void)
 388:consol.c      **** {
 923              		.loc 1 388 0
 924              		.cfi_startproc
 925              		@ Function supports interworking.
 926              		@ args = 0, pretend = 0, frame = 0
 927              		@ frame_needed = 1, uses_anonymous_args = 0
 928              		@ link register save eliminated.
 929 0798 04B02DE5 		str	fp, [sp, #-4]!
 930              	.LCFI34:
 931              		.cfi_def_cfa_offset 4
 932              		.cfi_offset 11, -4
 933 079c 00B08DE2 		add	fp, sp, #0
 934              	.LCFI35:
 935              		.cfi_def_cfa_register 11
 389:consol.c      ****   while(!(UART_LSR & (0x01<<0)))
 936              		.loc 1 389 0
 937 07a0 0000A0E1 		nop
 938              	.L62:
 939              		.loc 1 389 0 is_stmt 0 discriminator 1
 940 07a4 28309FE5 		ldr	r3, .L64
 941 07a8 003093E5 		ldr	r3, [r3]
 942 07ac 013003E2 		and	r3, r3, #1
 943 07b0 000053E3 		cmp	r3, #0
 944 07b4 FAFFFF0A 		beq	.L62
 390:consol.c      ****     ;
 391:consol.c      ****   return UART_RBR;
 945              		.loc 1 391 0 is_stmt 1
 946 07b8 18309FE5 		ldr	r3, .L64+4
 947 07bc 003093E5 		ldr	r3, [r3]
 948 07c0 FF3003E2 		and	r3, r3, #255
 392:consol.c      **** }
 949              		.loc 1 392 0
 950 07c4 0300A0E1 		mov	r0, r3
 951 07c8 00D08BE2 		add	sp, fp, #0
 952              	.LCFI36:
 953              		.cfi_def_cfa_register 13
 954              		@ sp needed
 955 07cc 04B09DE4 		ldr	fp, [sp], #4
 956              	.LCFI37:
 957              		.cfi_restore 11
 958              		.cfi_def_cfa_offset 0
 959 07d0 1EFF2FE1 		bx	lr
 960              	.L65:
 961              		.align	2
 962              	.L64:
 963 07d4 14C000E0 		.word	-536821740
 964 07d8 00C000E0 		.word	-536821760
 965              		.cfi_endproc
ARM GAS  C:\Users\embedded\AppData\Local\Temp\ccNHEFpA.s 			page 25


 966              	.LFE8:
 967              		.size	consolGetCh, .-consolGetCh
 968              		.align	2
 969              		.global	consolGetChar
 970              		.syntax unified
 971              		.arm
 972              		.fpu softvfp
 973              		.type	consolGetChar, %function
 974              	consolGetChar:
 975              	.LFB9:
 393:consol.c      **** 
 394:consol.c      **** /*****************************************************************************
 395:consol.c      ****  *
 396:consol.c      ****  * Description:
 397:consol.c      ****  *    Check (non-blocking call) if a character has been received. 
 398:consol.c      ****  *
 399:consol.c      ****  * Params:
 400:consol.c      ****  *    [inout] pChar - pointer to where to place received character
 401:consol.c      ****  *
 402:consol.c      ****  * Returns:
 403:consol.c      ****  *    char - TRUE if character has been received (placed at pointed location)
 404:consol.c      ****  *           FALSE if no character has been received.
 405:consol.c      ****  *
 406:consol.c      ****  ****************************************************************************/
 407:consol.c      **** char
 408:consol.c      **** consolGetChar(char *pChar)
 409:consol.c      **** {
 976              		.loc 1 409 0
 977              		.cfi_startproc
 978              		@ Function supports interworking.
 979              		@ args = 0, pretend = 0, frame = 8
 980              		@ frame_needed = 1, uses_anonymous_args = 0
 981              		@ link register save eliminated.
 982 07dc 04B02DE5 		str	fp, [sp, #-4]!
 983              	.LCFI38:
 984              		.cfi_def_cfa_offset 4
 985              		.cfi_offset 11, -4
 986 07e0 00B08DE2 		add	fp, sp, #0
 987              	.LCFI39:
 988              		.cfi_def_cfa_register 11
 989 07e4 0CD04DE2 		sub	sp, sp, #12
 990 07e8 08000BE5 		str	r0, [fp, #-8]
 410:consol.c      ****   if((UART_LSR & 0x01) != 0x00)
 991              		.loc 1 410 0
 992 07ec 3C309FE5 		ldr	r3, .L69
 993 07f0 003093E5 		ldr	r3, [r3]
 994 07f4 013003E2 		and	r3, r3, #1
 995 07f8 000053E3 		cmp	r3, #0
 996 07fc 0600000A 		beq	.L67
 411:consol.c      ****   {
 412:consol.c      ****     *pChar = UART_RBR;
 997              		.loc 1 412 0
 998 0800 2C309FE5 		ldr	r3, .L69+4
 999 0804 003093E5 		ldr	r3, [r3]
 1000 0808 FF2003E2 		and	r2, r3, #255
 1001 080c 08301BE5 		ldr	r3, [fp, #-8]
 1002 0810 0020C3E5 		strb	r2, [r3]
ARM GAS  C:\Users\embedded\AppData\Local\Temp\ccNHEFpA.s 			page 26


 413:consol.c      ****     return 1;
 1003              		.loc 1 413 0
 1004 0814 0130A0E3 		mov	r3, #1
 1005 0818 000000EA 		b	.L68
 1006              	.L67:
 414:consol.c      ****   }
 415:consol.c      ****   return 0;
 1007              		.loc 1 415 0
 1008 081c 0030A0E3 		mov	r3, #0
 1009              	.L68:
 416:consol.c      **** }
 1010              		.loc 1 416 0
 1011 0820 0300A0E1 		mov	r0, r3
 1012 0824 00D08BE2 		add	sp, fp, #0
 1013              	.LCFI40:
 1014              		.cfi_def_cfa_register 13
 1015              		@ sp needed
 1016 0828 04B09DE4 		ldr	fp, [sp], #4
 1017              	.LCFI41:
 1018              		.cfi_restore 11
 1019              		.cfi_def_cfa_offset 0
 1020 082c 1EFF2FE1 		bx	lr
 1021              	.L70:
 1022              		.align	2
 1023              	.L69:
 1024 0830 14C000E0 		.word	-536821740
 1025 0834 00C000E0 		.word	-536821760
 1026              		.cfi_endproc
 1027              	.LFE9:
 1028              		.size	consolGetChar, .-consolGetChar
 1029              		.section	.rodata
 1030 0011 000000   		.align	2
 1031              	.LC1:
 1032 0014 08200800 		.ascii	"\010 \010\000"
 1033              		.text
 1034              		.align	2
 1035              		.global	consolGetString
 1036              		.syntax unified
 1037              		.arm
 1038              		.fpu softvfp
 1039              		.type	consolGetString, %function
 1040              	consolGetString:
 1041              	.LFB10:
 417:consol.c      **** 
 418:consol.c      **** /*****************************************************************************
 419:consol.c      ****  *
 420:consol.c      ****  * Description:
 421:consol.c      ****  *    Receive (blocking call) a string (end with '\r'). 
 422:consol.c      ****  *
 423:consol.c      ****  * Params:
 424:consol.c      ****  *    [inout] pString - pointer to return the received string
 425:consol.c      ****  *
 426:consol.c      ****  ****************************************************************************/
 427:consol.c      **** void
 428:consol.c      **** consolGetString(char *pString)
 429:consol.c      **** {
 1042              		.loc 1 429 0
ARM GAS  C:\Users\embedded\AppData\Local\Temp\ccNHEFpA.s 			page 27


 1043              		.cfi_startproc
 1044              		@ Function supports interworking.
 1045              		@ args = 0, pretend = 0, frame = 16
 1046              		@ frame_needed = 1, uses_anonymous_args = 0
 1047 0838 00482DE9 		push	{fp, lr}
 1048              	.LCFI42:
 1049              		.cfi_def_cfa_offset 8
 1050              		.cfi_offset 11, -8
 1051              		.cfi_offset 14, -4
 1052 083c 04B08DE2 		add	fp, sp, #4
 1053              	.LCFI43:
 1054              		.cfi_def_cfa 11, 4
 1055 0840 10D04DE2 		sub	sp, sp, #16
 1056 0844 10000BE5 		str	r0, [fp, #-16]
 430:consol.c      ****   char *pString2;
 431:consol.c      ****   char rxChar;
 432:consol.c      **** 
 433:consol.c      ****   pString2 = pString;
 1057              		.loc 1 433 0
 1058 0848 10301BE5 		ldr	r3, [fp, #-16]
 1059 084c 08300BE5 		str	r3, [fp, #-8]
 434:consol.c      ****   while((rxChar = consolGetCh()) != '\r')
 1060              		.loc 1 434 0
 1061 0850 140000EA 		b	.L72
 1062              	.L75:
 435:consol.c      ****   {
 436:consol.c      ****     if (rxChar == '\b')
 1063              		.loc 1 436 0
 1064 0854 09305BE5 		ldrb	r3, [fp, #-9]	@ zero_extendqisi2
 1065 0858 080053E3 		cmp	r3, #8
 1066 085c 0900001A 		bne	.L73
 437:consol.c      ****     {
 438:consol.c      ****       if ((int)pString2 < (int)pString)
 1067              		.loc 1 438 0
 1068 0860 08201BE5 		ldr	r2, [fp, #-8]
 1069 0864 10301BE5 		ldr	r3, [fp, #-16]
 1070 0868 030052E1 		cmp	r2, r3
 1071 086c 0D0000AA 		bge	.L72
 439:consol.c      ****       {
 440:consol.c      ****         consolSendString("\b \b");
 1072              		.loc 1 440 0
 1073 0870 6C009FE5 		ldr	r0, .L76
 1074 0874 FEFFFFEB 		bl	consolSendString
 441:consol.c      ****         pString--;
 1075              		.loc 1 441 0
 1076 0878 10301BE5 		ldr	r3, [fp, #-16]
 1077 087c 013043E2 		sub	r3, r3, #1
 1078 0880 10300BE5 		str	r3, [fp, #-16]
 1079 0884 070000EA 		b	.L72
 1080              	.L73:
 442:consol.c      ****       }
 443:consol.c      ****     }
 444:consol.c      ****     else
 445:consol.c      ****     {
 446:consol.c      ****       *pString++ = rxChar;
 1081              		.loc 1 446 0
 1082 0888 10301BE5 		ldr	r3, [fp, #-16]
ARM GAS  C:\Users\embedded\AppData\Local\Temp\ccNHEFpA.s 			page 28


 1083 088c 012083E2 		add	r2, r3, #1
 1084 0890 10200BE5 		str	r2, [fp, #-16]
 1085 0894 09205BE5 		ldrb	r2, [fp, #-9]
 1086 0898 0020C3E5 		strb	r2, [r3]
 447:consol.c      ****       consolSendCh(rxChar);
 1087              		.loc 1 447 0
 1088 089c 09305BE5 		ldrb	r3, [fp, #-9]	@ zero_extendqisi2
 1089 08a0 0300A0E1 		mov	r0, r3
 1090 08a4 FEFFFFEB 		bl	consolSendCh
 1091              	.L72:
 434:consol.c      ****   {
 1092              		.loc 1 434 0
 1093 08a8 FEFFFFEB 		bl	consolGetCh
 1094 08ac 0030A0E1 		mov	r3, r0
 1095 08b0 09304BE5 		strb	r3, [fp, #-9]
 1096 08b4 09305BE5 		ldrb	r3, [fp, #-9]	@ zero_extendqisi2
 1097 08b8 0D0053E3 		cmp	r3, #13
 1098 08bc E4FFFF1A 		bne	.L75
 448:consol.c      ****     }
 449:consol.c      ****   }
 450:consol.c      ****   *pString = '\0';
 1099              		.loc 1 450 0
 1100 08c0 10301BE5 		ldr	r3, [fp, #-16]
 1101 08c4 0020A0E3 		mov	r2, #0
 1102 08c8 0020C3E5 		strb	r2, [r3]
 451:consol.c      ****   consolSendCh('\n');
 1103              		.loc 1 451 0
 1104 08cc 0A00A0E3 		mov	r0, #10
 1105 08d0 FEFFFFEB 		bl	consolSendCh
 452:consol.c      **** }
 1106              		.loc 1 452 0
 1107 08d4 0000A0E1 		nop
 1108 08d8 04D04BE2 		sub	sp, fp, #4
 1109              	.LCFI44:
 1110              		.cfi_def_cfa 13, 8
 1111              		@ sp needed
 1112 08dc 0048BDE8 		pop	{fp, lr}
 1113              	.LCFI45:
 1114              		.cfi_restore 14
 1115              		.cfi_restore 11
 1116              		.cfi_def_cfa_offset 0
 1117 08e0 1EFF2FE1 		bx	lr
 1118              	.L77:
 1119              		.align	2
 1120              	.L76:
 1121 08e4 14000000 		.word	.LC1
 1122              		.cfi_endproc
 1123              	.LFE10:
 1124              		.size	consolGetString, .-consolGetString
 1125              		.align	2
 1126              		.global	consolGetIntNum
 1127              		.syntax unified
 1128              		.arm
 1129              		.fpu softvfp
 1130              		.type	consolGetIntNum, %function
 1131              	consolGetIntNum:
 1132              	.LFB11:
ARM GAS  C:\Users\embedded\AppData\Local\Temp\ccNHEFpA.s 			page 29


 453:consol.c      **** 
 454:consol.c      **** /*****************************************************************************
 455:consol.c      ****  *
 456:consol.c      ****  * Description:
 457:consol.c      ****  *    Receive (blocking call) a number (end with '\r').
 458:consol.c      ****  *    Accepts hexadecimal (radix 16) and integer (radix 10) numbers.
 459:consol.c      ****  *
 460:consol.c      ****  * Returns:
 461:consol.c      ****  *    int - the received number
 462:consol.c      ****  *
 463:consol.c      ****  ****************************************************************************/
 464:consol.c      **** int
 465:consol.c      **** consolGetIntNum(void)
 466:consol.c      **** {
 1133              		.loc 1 466 0
 1134              		.cfi_startproc
 1135              		@ Function supports interworking.
 1136              		@ args = 0, pretend = 0, frame = 56
 1137              		@ frame_needed = 1, uses_anonymous_args = 0
 1138 08e8 00482DE9 		push	{fp, lr}
 1139              	.LCFI46:
 1140              		.cfi_def_cfa_offset 8
 1141              		.cfi_offset 11, -8
 1142              		.cfi_offset 14, -4
 1143 08ec 04B08DE2 		add	fp, sp, #4
 1144              	.LCFI47:
 1145              		.cfi_def_cfa 11, 4
 1146 08f0 38D04DE2 		sub	sp, sp, #56
 467:consol.c      ****   char  abStr[30];
 468:consol.c      ****   char *pString = abStr;
 1147              		.loc 1 468 0
 1148 08f4 3C304BE2 		sub	r3, fp, #60
 1149 08f8 08300BE5 		str	r3, [fp, #-8]
 469:consol.c      ****   int   wBase=10;
 1150              		.loc 1 469 0
 1151 08fc 0A30A0E3 		mov	r3, #10
 1152 0900 0C300BE5 		str	r3, [fp, #-12]
 470:consol.c      ****   int   wMinus=0;
 1153              		.loc 1 470 0
 1154 0904 0030A0E3 		mov	r3, #0
 1155 0908 10300BE5 		str	r3, [fp, #-16]
 471:consol.c      ****   int   wLastIndex;
 472:consol.c      ****   int   wResult=0;
 1156              		.loc 1 472 0
 1157 090c 0030A0E3 		mov	r3, #0
 1158 0910 18300BE5 		str	r3, [fp, #-24]
 473:consol.c      ****   int   wI;
 474:consol.c      ****         
 475:consol.c      ****   consolGetString(pString);
 1159              		.loc 1 475 0
 1160 0914 08001BE5 		ldr	r0, [fp, #-8]
 1161 0918 FEFFFFEB 		bl	consolGetString
 476:consol.c      ****         
 477:consol.c      ****   if(pString[0] == '-')
 1162              		.loc 1 477 0
 1163 091c 08301BE5 		ldr	r3, [fp, #-8]
 1164 0920 0030D3E5 		ldrb	r3, [r3]	@ zero_extendqisi2
ARM GAS  C:\Users\embedded\AppData\Local\Temp\ccNHEFpA.s 			page 30


 1165 0924 2D0053E3 		cmp	r3, #45
 1166 0928 0400001A 		bne	.L79
 478:consol.c      ****   {
 479:consol.c      ****     wMinus = 1;
 1167              		.loc 1 479 0
 1168 092c 0130A0E3 		mov	r3, #1
 1169 0930 10300BE5 		str	r3, [fp, #-16]
 480:consol.c      ****     pString++;
 1170              		.loc 1 480 0
 1171 0934 08301BE5 		ldr	r3, [fp, #-8]
 1172 0938 013083E2 		add	r3, r3, #1
 1173 093c 08300BE5 		str	r3, [fp, #-8]
 1174              	.L79:
 481:consol.c      ****   }
 482:consol.c      **** 
 483:consol.c      ****   if(pString[0] == '0' && (pString[1] == 'x' || pString[1] == 'X'))
 1175              		.loc 1 483 0
 1176 0940 08301BE5 		ldr	r3, [fp, #-8]
 1177 0944 0030D3E5 		ldrb	r3, [r3]	@ zero_extendqisi2
 1178 0948 300053E3 		cmp	r3, #48
 1179 094c 0E00001A 		bne	.L80
 1180              		.loc 1 483 0 is_stmt 0 discriminator 1
 1181 0950 08301BE5 		ldr	r3, [fp, #-8]
 1182 0954 013083E2 		add	r3, r3, #1
 1183 0958 0030D3E5 		ldrb	r3, [r3]	@ zero_extendqisi2
 1184 095c 780053E3 		cmp	r3, #120
 1185 0960 0400000A 		beq	.L81
 1186              		.loc 1 483 0 discriminator 2
 1187 0964 08301BE5 		ldr	r3, [fp, #-8]
 1188 0968 013083E2 		add	r3, r3, #1
 1189 096c 0030D3E5 		ldrb	r3, [r3]	@ zero_extendqisi2
 1190 0970 580053E3 		cmp	r3, #88
 1191 0974 0400001A 		bne	.L80
 1192              	.L81:
 484:consol.c      ****   {
 485:consol.c      ****     wBase = 16;
 1193              		.loc 1 485 0 is_stmt 1
 1194 0978 1030A0E3 		mov	r3, #16
 1195 097c 0C300BE5 		str	r3, [fp, #-12]
 486:consol.c      ****     pString += 2;
 1196              		.loc 1 486 0
 1197 0980 08301BE5 		ldr	r3, [fp, #-8]
 1198 0984 023083E2 		add	r3, r3, #2
 1199 0988 08300BE5 		str	r3, [fp, #-8]
 1200              	.L80:
 487:consol.c      ****   }
 488:consol.c      **** 
 489:consol.c      ****   wLastIndex = strlen(pString) - 1;
 1201              		.loc 1 489 0
 1202 098c 08001BE5 		ldr	r0, [fp, #-8]
 1203 0990 FEFFFFEB 		bl	strlen
 1204 0994 0030A0E1 		mov	r3, r0
 1205 0998 013043E2 		sub	r3, r3, #1
 1206 099c 14300BE5 		str	r3, [fp, #-20]
 490:consol.c      ****   if(pString[wLastIndex] == 'h' || pString[wLastIndex] == 'H')
 1207              		.loc 1 490 0
 1208 09a0 14301BE5 		ldr	r3, [fp, #-20]
ARM GAS  C:\Users\embedded\AppData\Local\Temp\ccNHEFpA.s 			page 31


 1209 09a4 08201BE5 		ldr	r2, [fp, #-8]
 1210 09a8 033082E0 		add	r3, r2, r3
 1211 09ac 0030D3E5 		ldrb	r3, [r3]	@ zero_extendqisi2
 1212 09b0 680053E3 		cmp	r3, #104
 1213 09b4 0500000A 		beq	.L82
 1214              		.loc 1 490 0 is_stmt 0 discriminator 1
 1215 09b8 14301BE5 		ldr	r3, [fp, #-20]
 1216 09bc 08201BE5 		ldr	r2, [fp, #-8]
 1217 09c0 033082E0 		add	r3, r2, r3
 1218 09c4 0030D3E5 		ldrb	r3, [r3]	@ zero_extendqisi2
 1219 09c8 480053E3 		cmp	r3, #72
 1220 09cc 0900001A 		bne	.L83
 1221              	.L82:
 491:consol.c      ****   {
 492:consol.c      ****     wBase = 16;
 1222              		.loc 1 492 0 is_stmt 1
 1223 09d0 1030A0E3 		mov	r3, #16
 1224 09d4 0C300BE5 		str	r3, [fp, #-12]
 493:consol.c      ****     pString[wLastIndex] = 0;
 1225              		.loc 1 493 0
 1226 09d8 14301BE5 		ldr	r3, [fp, #-20]
 1227 09dc 08201BE5 		ldr	r2, [fp, #-8]
 1228 09e0 033082E0 		add	r3, r2, r3
 1229 09e4 0020A0E3 		mov	r2, #0
 1230 09e8 0020C3E5 		strb	r2, [r3]
 494:consol.c      ****     wLastIndex--;
 1231              		.loc 1 494 0
 1232 09ec 14301BE5 		ldr	r3, [fp, #-20]
 1233 09f0 013043E2 		sub	r3, r3, #1
 1234 09f4 14300BE5 		str	r3, [fp, #-20]
 1235              	.L83:
 495:consol.c      ****   }
 496:consol.c      **** 
 497:consol.c      ****   if(wBase == 10)
 1236              		.loc 1 497 0
 1237 09f8 0C301BE5 		ldr	r3, [fp, #-12]
 1238 09fc 0A0053E3 		cmp	r3, #10
 1239 0a00 0B00001A 		bne	.L84
 498:consol.c      ****   {
 499:consol.c      ****     wResult = atoi(pString);
 1240              		.loc 1 499 0
 1241 0a04 08001BE5 		ldr	r0, [fp, #-8]
 1242 0a08 FEFFFFEB 		bl	atoi
 1243 0a0c 18000BE5 		str	r0, [fp, #-24]
 500:consol.c      ****     wResult = wMinus ? (-1*wResult):wResult;
 1244              		.loc 1 500 0
 1245 0a10 10301BE5 		ldr	r3, [fp, #-16]
 1246 0a14 000053E3 		cmp	r3, #0
 1247 0a18 0200000A 		beq	.L85
 1248              		.loc 1 500 0 is_stmt 0 discriminator 1
 1249 0a1c 18301BE5 		ldr	r3, [fp, #-24]
 1250 0a20 003063E2 		rsb	r3, r3, #0
 1251 0a24 000000EA 		b	.L86
 1252              	.L85:
 1253              		.loc 1 500 0 discriminator 2
 1254 0a28 18301BE5 		ldr	r3, [fp, #-24]
 1255              	.L86:
ARM GAS  C:\Users\embedded\AppData\Local\Temp\ccNHEFpA.s 			page 32


 1256              		.loc 1 500 0 discriminator 4
 1257 0a2c 18300BE5 		str	r3, [fp, #-24]
 1258 0a30 3B0000EA 		b	.L87
 1259              	.L84:
 501:consol.c      ****   }
 502:consol.c      ****   else
 503:consol.c      ****   {
 504:consol.c      ****     for(wI=0; wI<=wLastIndex; wI++)
 1260              		.loc 1 504 0 is_stmt 1
 1261 0a34 0030A0E3 		mov	r3, #0
 1262 0a38 1C300BE5 		str	r3, [fp, #-28]
 1263 0a3c 2C0000EA 		b	.L88
 1264              	.L93:
 505:consol.c      ****     {
 506:consol.c      ****       if(__isalpha(pString[wI]))
 1265              		.loc 1 506 0
 1266 0a40 1C301BE5 		ldr	r3, [fp, #-28]
 1267 0a44 08201BE5 		ldr	r2, [fp, #-8]
 1268 0a48 033082E0 		add	r3, r2, r3
 1269 0a4c 0030D3E5 		ldrb	r3, [r3]	@ zero_extendqisi2
 1270 0a50 390053E3 		cmp	r3, #57
 1271 0a54 1A00009A 		bls	.L89
 507:consol.c      ****       {
 508:consol.c      ****         if(__isupper(pString[wI]))
 1272              		.loc 1 508 0
 1273 0a58 1C301BE5 		ldr	r3, [fp, #-28]
 1274 0a5c 08201BE5 		ldr	r2, [fp, #-8]
 1275 0a60 033082E0 		add	r3, r2, r3
 1276 0a64 0030D3E5 		ldrb	r3, [r3]	@ zero_extendqisi2
 1277 0a68 203003E2 		and	r3, r3, #32
 1278 0a6c 000053E3 		cmp	r3, #0
 1279 0a70 0900001A 		bne	.L90
 509:consol.c      ****           wResult = (wResult<<4) + pString[wI] - 'A' + 10;
 1280              		.loc 1 509 0
 1281 0a74 18301BE5 		ldr	r3, [fp, #-24]
 1282 0a78 0332A0E1 		lsl	r3, r3, #4
 1283 0a7c 1C201BE5 		ldr	r2, [fp, #-28]
 1284 0a80 08101BE5 		ldr	r1, [fp, #-8]
 1285 0a84 022081E0 		add	r2, r1, r2
 1286 0a88 0020D2E5 		ldrb	r2, [r2]	@ zero_extendqisi2
 1287 0a8c 023083E0 		add	r3, r3, r2
 1288 0a90 373043E2 		sub	r3, r3, #55
 1289 0a94 18300BE5 		str	r3, [fp, #-24]
 1290 0a98 120000EA 		b	.L92
 1291              	.L90:
 510:consol.c      ****         else
 511:consol.c      ****           wResult = (wResult<<4) + pString[wI] - 'a' + 10;
 1292              		.loc 1 511 0
 1293 0a9c 18301BE5 		ldr	r3, [fp, #-24]
 1294 0aa0 0332A0E1 		lsl	r3, r3, #4
 1295 0aa4 1C201BE5 		ldr	r2, [fp, #-28]
 1296 0aa8 08101BE5 		ldr	r1, [fp, #-8]
 1297 0aac 022081E0 		add	r2, r1, r2
 1298 0ab0 0020D2E5 		ldrb	r2, [r2]	@ zero_extendqisi2
 1299 0ab4 023083E0 		add	r3, r3, r2
 1300 0ab8 573043E2 		sub	r3, r3, #87
 1301 0abc 18300BE5 		str	r3, [fp, #-24]
ARM GAS  C:\Users\embedded\AppData\Local\Temp\ccNHEFpA.s 			page 33


 1302 0ac0 080000EA 		b	.L92
 1303              	.L89:
 512:consol.c      ****       }
 513:consol.c      ****       else
 514:consol.c      ****       {
 515:consol.c      ****         wResult = (wResult<<4) + pString[wI] - '0';
 1304              		.loc 1 515 0
 1305 0ac4 18301BE5 		ldr	r3, [fp, #-24]
 1306 0ac8 0332A0E1 		lsl	r3, r3, #4
 1307 0acc 1C201BE5 		ldr	r2, [fp, #-28]
 1308 0ad0 08101BE5 		ldr	r1, [fp, #-8]
 1309 0ad4 022081E0 		add	r2, r1, r2
 1310 0ad8 0020D2E5 		ldrb	r2, [r2]	@ zero_extendqisi2
 1311 0adc 023083E0 		add	r3, r3, r2
 1312 0ae0 303043E2 		sub	r3, r3, #48
 1313 0ae4 18300BE5 		str	r3, [fp, #-24]
 1314              	.L92:
 504:consol.c      ****     {
 1315              		.loc 1 504 0 discriminator 2
 1316 0ae8 1C301BE5 		ldr	r3, [fp, #-28]
 1317 0aec 013083E2 		add	r3, r3, #1
 1318 0af0 1C300BE5 		str	r3, [fp, #-28]
 1319              	.L88:
 504:consol.c      ****     {
 1320              		.loc 1 504 0 is_stmt 0 discriminator 1
 1321 0af4 1C201BE5 		ldr	r2, [fp, #-28]
 1322 0af8 14301BE5 		ldr	r3, [fp, #-20]
 1323 0afc 030052E1 		cmp	r2, r3
 1324 0b00 CEFFFFDA 		ble	.L93
 516:consol.c      ****       }
 517:consol.c      ****     }
 518:consol.c      ****     wResult = wMinus ? (-1*wResult):wResult;
 1325              		.loc 1 518 0 is_stmt 1
 1326 0b04 10301BE5 		ldr	r3, [fp, #-16]
 1327 0b08 000053E3 		cmp	r3, #0
 1328 0b0c 0200000A 		beq	.L94
 1329              		.loc 1 518 0 is_stmt 0 discriminator 1
 1330 0b10 18301BE5 		ldr	r3, [fp, #-24]
 1331 0b14 003063E2 		rsb	r3, r3, #0
 1332 0b18 000000EA 		b	.L95
 1333              	.L94:
 1334              		.loc 1 518 0 discriminator 2
 1335 0b1c 18301BE5 		ldr	r3, [fp, #-24]
 1336              	.L95:
 1337              		.loc 1 518 0 discriminator 4
 1338 0b20 18300BE5 		str	r3, [fp, #-24]
 1339              	.L87:
 519:consol.c      ****   }
 520:consol.c      ****   return wResult;
 1340              		.loc 1 520 0 is_stmt 1
 1341 0b24 18301BE5 		ldr	r3, [fp, #-24]
 521:consol.c      **** }
 1342              		.loc 1 521 0
 1343 0b28 0300A0E1 		mov	r0, r3
 1344 0b2c 04D04BE2 		sub	sp, fp, #4
 1345              	.LCFI48:
 1346              		.cfi_def_cfa 13, 8
ARM GAS  C:\Users\embedded\AppData\Local\Temp\ccNHEFpA.s 			page 34


 1347              		@ sp needed
 1348 0b30 0048BDE8 		pop	{fp, lr}
 1349              	.LCFI49:
 1350              		.cfi_restore 14
 1351              		.cfi_restore 11
 1352              		.cfi_def_cfa_offset 0
 1353 0b34 1EFF2FE1 		bx	lr
 1354              		.cfi_endproc
 1355              	.LFE11:
 1356              		.size	consolGetIntNum, .-consolGetIntNum
 1357              		.align	2
 1358              		.global	consolScanf
 1359              		.syntax unified
 1360              		.arm
 1361              		.fpu softvfp
 1362              		.type	consolScanf, %function
 1363              	consolScanf:
 1364              	.LFB12:
 522:consol.c      **** 
 523:consol.c      **** /*****************************************************************************
 524:consol.c      ****  *
 525:consol.c      ****  * Description:
 526:consol.c      ****  *    A simple implementation of the scanf()-function. 
 527:consol.c      ****  *
 528:consol.c      ****  * Params:
 529:consol.c      ****  *    [inout] pFmt - format string, accepts:
 530:consol.c      ****  *                   %s - string
 531:consol.c      ****  *                   %c - character
 532:consol.c      ****  *                   %i - integer
 533:consol.c      ****  *
 534:consol.c      ****  ****************************************************************************/
 535:consol.c      **** void
 536:consol.c      **** consolScanf(char *pFmt, ...)
 537:consol.c      **** {
 1365              		.loc 1 537 0
 1366              		.cfi_startproc
 1367              		@ Function supports interworking.
 1368              		@ args = 4, pretend = 16, frame = 16
 1369              		@ frame_needed = 1, uses_anonymous_args = 1
 1370 0b38 0F002DE9 		push	{r0, r1, r2, r3}
 1371              	.LCFI50:
 1372              		.cfi_def_cfa_offset 16
 1373              		.cfi_offset 0, -16
 1374              		.cfi_offset 1, -12
 1375              		.cfi_offset 2, -8
 1376              		.cfi_offset 3, -4
 1377 0b3c 00482DE9 		push	{fp, lr}
 1378              	.LCFI51:
 1379              		.cfi_def_cfa_offset 24
 1380              		.cfi_offset 11, -24
 1381              		.cfi_offset 14, -20
 1382 0b40 04B08DE2 		add	fp, sp, #4
 1383              	.LCFI52:
 1384              		.cfi_def_cfa 11, 20
 1385 0b44 10D04DE2 		sub	sp, sp, #16
 538:consol.c      ****   va_list pArg;
 539:consol.c      ****   char    character;
ARM GAS  C:\Users\embedded\AppData\Local\Temp\ccNHEFpA.s 			page 35


 540:consol.c      ****   int    *pInt;
 541:consol.c      ****   char   *pChar;
 542:consol.c      ****         
 543:consol.c      ****   va_start(pArg, pFmt);
 1386              		.loc 1 543 0
 1387 0b48 08308BE2 		add	r3, fp, #8
 1388 0b4c 14300BE5 		str	r3, [fp, #-20]
 544:consol.c      ****   while((character = *pFmt++) != '\0')
 1389              		.loc 1 544 0
 1390 0b50 570000EA 		b	.L98
 1391              	.L104:
 545:consol.c      ****   {
 546:consol.c      ****     if(character != '%')continue;
 1392              		.loc 1 546 0
 1393 0b54 05305BE5 		ldrb	r3, [fp, #-5]	@ zero_extendqisi2
 1394 0b58 250053E3 		cmp	r3, #37
 1395 0b5c 0000000A 		beq	.L99
 1396              		.loc 1 546 0 is_stmt 0 discriminator 1
 1397 0b60 530000EA 		b	.L98
 1398              	.L99:
 547:consol.c      ****     switch(*pFmt)
 1399              		.loc 1 547 0 is_stmt 1
 1400 0b64 04309BE5 		ldr	r3, [fp, #4]
 1401 0b68 0030D3E5 		ldrb	r3, [r3]	@ zero_extendqisi2
 1402 0b6c 433043E2 		sub	r3, r3, #67
 1403 0b70 300053E3 		cmp	r3, #48
 1404 0b74 03F19F97 		ldrls	pc, [pc, r3, asl #2]
 1405 0b78 4D0000EA 		b	.L98
 1406              	.L101:
 1407 0b7c 880C0000 		.word	.L100
 1408 0b80 B40C0000 		.word	.L98
 1409 0b84 B40C0000 		.word	.L98
 1410 0b88 B40C0000 		.word	.L98
 1411 0b8c B40C0000 		.word	.L98
 1412 0b90 B40C0000 		.word	.L98
 1413 0b94 600C0000 		.word	.L102
 1414 0b98 B40C0000 		.word	.L98
 1415 0b9c B40C0000 		.word	.L98
 1416 0ba0 B40C0000 		.word	.L98
 1417 0ba4 B40C0000 		.word	.L98
 1418 0ba8 B40C0000 		.word	.L98
 1419 0bac B40C0000 		.word	.L98
 1420 0bb0 B40C0000 		.word	.L98
 1421 0bb4 B40C0000 		.word	.L98
 1422 0bb8 B40C0000 		.word	.L98
 1423 0bbc 400C0000 		.word	.L103
 1424 0bc0 B40C0000 		.word	.L98
 1425 0bc4 B40C0000 		.word	.L98
 1426 0bc8 B40C0000 		.word	.L98
 1427 0bcc B40C0000 		.word	.L98
 1428 0bd0 B40C0000 		.word	.L98
 1429 0bd4 B40C0000 		.word	.L98
 1430 0bd8 B40C0000 		.word	.L98
 1431 0bdc B40C0000 		.word	.L98
 1432 0be0 B40C0000 		.word	.L98
 1433 0be4 B40C0000 		.word	.L98
 1434 0be8 B40C0000 		.word	.L98
ARM GAS  C:\Users\embedded\AppData\Local\Temp\ccNHEFpA.s 			page 36


 1435 0bec B40C0000 		.word	.L98
 1436 0bf0 B40C0000 		.word	.L98
 1437 0bf4 B40C0000 		.word	.L98
 1438 0bf8 B40C0000 		.word	.L98
 1439 0bfc 880C0000 		.word	.L100
 1440 0c00 B40C0000 		.word	.L98
 1441 0c04 B40C0000 		.word	.L98
 1442 0c08 B40C0000 		.word	.L98
 1443 0c0c B40C0000 		.word	.L98
 1444 0c10 B40C0000 		.word	.L98
 1445 0c14 600C0000 		.word	.L102
 1446 0c18 B40C0000 		.word	.L98
 1447 0c1c B40C0000 		.word	.L98
 1448 0c20 B40C0000 		.word	.L98
 1449 0c24 B40C0000 		.word	.L98
 1450 0c28 B40C0000 		.word	.L98
 1451 0c2c B40C0000 		.word	.L98
 1452 0c30 B40C0000 		.word	.L98
 1453 0c34 B40C0000 		.word	.L98
 1454 0c38 B40C0000 		.word	.L98
 1455 0c3c 400C0000 		.word	.L103
 1456              	.L103:
 548:consol.c      ****     {
 549:consol.c      ****     case 's':
 550:consol.c      ****     case 'S':
 551:consol.c      ****       pChar = va_arg (pArg, char *);
 1457              		.loc 1 551 0
 1458 0c40 14301BE5 		ldr	r3, [fp, #-20]
 1459 0c44 042083E2 		add	r2, r3, #4
 1460 0c48 14200BE5 		str	r2, [fp, #-20]
 1461 0c4c 003093E5 		ldr	r3, [r3]
 1462 0c50 0C300BE5 		str	r3, [fp, #-12]
 552:consol.c      ****       consolGetString(pChar);
 1463              		.loc 1 552 0
 1464 0c54 0C001BE5 		ldr	r0, [fp, #-12]
 1465 0c58 FEFFFFEB 		bl	consolGetString
 553:consol.c      ****       break;
 1466              		.loc 1 553 0
 1467 0c5c 140000EA 		b	.L98
 1468              	.L102:
 554:consol.c      ****     case 'i':
 555:consol.c      ****     case 'I':
 556:consol.c      ****       pInt  = va_arg (pArg, int *);
 1469              		.loc 1 556 0
 1470 0c60 14301BE5 		ldr	r3, [fp, #-20]
 1471 0c64 042083E2 		add	r2, r3, #4
 1472 0c68 14200BE5 		str	r2, [fp, #-20]
 1473 0c6c 003093E5 		ldr	r3, [r3]
 1474 0c70 10300BE5 		str	r3, [fp, #-16]
 557:consol.c      ****       *pInt = consolGetIntNum();
 1475              		.loc 1 557 0
 1476 0c74 FEFFFFEB 		bl	consolGetIntNum
 1477 0c78 0020A0E1 		mov	r2, r0
 1478 0c7c 10301BE5 		ldr	r3, [fp, #-16]
 1479 0c80 002083E5 		str	r2, [r3]
 558:consol.c      ****       break;
 1480              		.loc 1 558 0
ARM GAS  C:\Users\embedded\AppData\Local\Temp\ccNHEFpA.s 			page 37


 1481 0c84 0A0000EA 		b	.L98
 1482              	.L100:
 559:consol.c      ****     case 'c':
 560:consol.c      ****     case 'C':
 561:consol.c      ****       pChar  = va_arg (pArg, char *);
 1483              		.loc 1 561 0
 1484 0c88 14301BE5 		ldr	r3, [fp, #-20]
 1485 0c8c 042083E2 		add	r2, r3, #4
 1486 0c90 14200BE5 		str	r2, [fp, #-20]
 1487 0c94 003093E5 		ldr	r3, [r3]
 1488 0c98 0C300BE5 		str	r3, [fp, #-12]
 562:consol.c      ****       *pChar = consolGetCh();
 1489              		.loc 1 562 0
 1490 0c9c FEFFFFEB 		bl	consolGetCh
 1491 0ca0 0030A0E1 		mov	r3, r0
 1492 0ca4 0320A0E1 		mov	r2, r3
 1493 0ca8 0C301BE5 		ldr	r3, [fp, #-12]
 1494 0cac 0020C3E5 		strb	r2, [r3]
 563:consol.c      ****       break;
 1495              		.loc 1 563 0
 1496 0cb0 0000A0E1 		nop
 1497              	.L98:
 544:consol.c      ****   {
 1498              		.loc 1 544 0
 1499 0cb4 04309BE5 		ldr	r3, [fp, #4]
 1500 0cb8 012083E2 		add	r2, r3, #1
 1501 0cbc 04208BE5 		str	r2, [fp, #4]
 1502 0cc0 0030D3E5 		ldrb	r3, [r3]
 1503 0cc4 05304BE5 		strb	r3, [fp, #-5]
 1504 0cc8 05305BE5 		ldrb	r3, [fp, #-5]	@ zero_extendqisi2
 1505 0ccc 000053E3 		cmp	r3, #0
 1506 0cd0 9FFFFF1A 		bne	.L104
 564:consol.c      ****     }
 565:consol.c      ****   }
 566:consol.c      ****   va_end(pArg);
 567:consol.c      **** }
 1507              		.loc 1 567 0
 1508 0cd4 0000A0E1 		nop
 1509 0cd8 04D04BE2 		sub	sp, fp, #4
 1510              	.LCFI53:
 1511              		.cfi_def_cfa 13, 24
 1512              		@ sp needed
 1513 0cdc 0048BDE8 		pop	{fp, lr}
 1514              	.LCFI54:
 1515              		.cfi_restore 14
 1516              		.cfi_restore 11
 1517              		.cfi_def_cfa_offset 16
 1518 0ce0 10D08DE2 		add	sp, sp, #16
 1519              	.LCFI55:
 1520              		.cfi_restore 3
 1521              		.cfi_restore 2
 1522              		.cfi_restore 1
 1523              		.cfi_restore 0
 1524              		.cfi_def_cfa_offset 0
 1525 0ce4 1EFF2FE1 		bx	lr
 1526              		.cfi_endproc
 1527              	.LFE12:
ARM GAS  C:\Users\embedded\AppData\Local\Temp\ccNHEFpA.s 			page 38


 1528              		.size	consolScanf, .-consolScanf
 1529              		.data
 1530              		.align	2
 1531              		.type	hexChars.5041, %object
 1532              		.size	hexChars.5041, 16
 1533              	hexChars.5041:
 1534 0000 30313233 		.ascii	"0123456789ABCDEF"
 1534      34353637 
 1534      38394142 
 1534      43444546 
 1535              		.text
 1536              	.Letext0:
 1537              		.file 2 "c:\\embedded\\tools\\arm-none-eabi\\include\\sys\\lock.h"
 1538              		.file 3 "c:\\embedded\\tools\\arm-none-eabi\\include\\sys\\_types.h"
 1539              		.file 4 "c:\\embedded\\tools\\lib\\gcc\\arm-none-eabi\\7.3.1\\include\\stddef.h"
 1540              		.file 5 "c:\\embedded\\tools\\arm-none-eabi\\include\\sys\\reent.h"
 1541              		.file 6 "c:\\embedded\\tools\\arm-none-eabi\\include\\stdlib.h"
 1542              		.file 7 "framework.h"
 1543              		.file 8 "c:\\embedded\\tools\\lib\\gcc\\arm-none-eabi\\7.3.1\\include\\stdarg.h"
 1544              		.file 9 "<built-in>"