ARM GAS  C:\Users\embedded\AppData\Local\Temp\cc1muK08.s 			page 1


   1              		.cpu arm7tdmi
   2              		.eabi_attribute 20, 1
   3              		.eabi_attribute 21, 1
   4              		.eabi_attribute 23, 3
   5              		.eabi_attribute 24, 1
   6              		.eabi_attribute 25, 1
   7              		.eabi_attribute 26, 1
   8              		.eabi_attribute 30, 6
   9              		.eabi_attribute 34, 0
  10              		.eabi_attribute 18, 4
  11              		.file	"additional.c"
  12              		.text
  13              	.Ltext0:
  14              		.cfi_sections	.debug_frame
  15              		.global	__aeabi_idiv
  16              		.align	1
  17              		.global	mdelay
  18              		.syntax unified
  19              		.code	16
  20              		.thumb_func
  21              		.fpu softvfp
  22              		.type	mdelay, %function
  23              	mdelay:
  24              	.LFB0:
  25              		.file 1 "additional.c"
   1:additional.c  **** /*
   2:additional.c  ****     Plik, zawierający kod źródłowy funkcji 
   3:additional.c  ****     pomocniczych.
   4:additional.c  **** */
   5:additional.c  **** 
   6:additional.c  **** #include "general.h"
   7:additional.c  **** #include "lpc2xxx.h"
   8:additional.c  **** #include "config.h"
   9:additional.c  **** 
  10:additional.c  **** /******************************************************************************
  11:additional.c  **** ** Function name:		mdelay
  12:additional.c  **** **
  13:additional.c  **** ** Descriptions:		
  14:additional.c  **** **
  15:additional.c  **** ** parameters:			delay length
  16:additional.c  **** ** Returned value:		None
  17:additional.c  **** ** 
  18:additional.c  **** ******************************************************************************/
  19:additional.c  **** void mdelay( unsigned int delayInMs )
  20:additional.c  **** {
  26              		.loc 1 20 0
  27              		.cfi_startproc
  28              		@ Function supports interworking.
  29              		@ args = 0, pretend = 0, frame = 8
  30              		@ frame_needed = 1, uses_anonymous_args = 0
  31 0000 80B5     		push	{r7, lr}
  32              	.LCFI0:
  33              		.cfi_def_cfa_offset 8
  34              		.cfi_offset 7, -8
  35              		.cfi_offset 14, -4
  36 0002 82B0     		sub	sp, sp, #8
  37              	.LCFI1:
ARM GAS  C:\Users\embedded\AppData\Local\Temp\cc1muK08.s 			page 2


  38              		.cfi_def_cfa_offset 16
  39 0004 00AF     		add	r7, sp, #0
  40              	.LCFI2:
  41              		.cfi_def_cfa_register 7
  42 0006 7860     		str	r0, [r7, #4]
  21:additional.c  ****   /*
  22:additional.c  ****    * setup timer #1 for delay
  23:additional.c  ****    */
  24:additional.c  ****   T1TCR = 0x02;          //stop and reset timer
  43              		.loc 1 24 0
  44 0008 164B     		ldr	r3, .L3
  45 000a 0222     		movs	r2, #2
  46 000c 1A60     		str	r2, [r3]
  25:additional.c  ****   T1PR  = 0x00;          //set prescaler to zero
  47              		.loc 1 25 0
  48 000e 164B     		ldr	r3, .L3+4
  49 0010 0022     		movs	r2, #0
  50 0012 1A60     		str	r2, [r3]
  26:additional.c  ****   T1MR0 = (((long)delayInMs - 1) * (long)CORE_FREQ / 1000);
  51              		.loc 1 26 0
  52 0014 7B68     		ldr	r3, [r7, #4]
  53 0016 5A1E     		subs	r2, r3, #1
  54 0018 1300     		movs	r3, r2
  55 001a 1B01     		lsls	r3, r3, #4
  56 001c 9B1A     		subs	r3, r3, r2
  57 001e 1A01     		lsls	r2, r3, #4
  58 0020 D21A     		subs	r2, r2, r3
  59 0022 9304     		lsls	r3, r2, #18
  60 0024 1A00     		movs	r2, r3
  61 0026 FA23     		movs	r3, #250
  62 0028 9900     		lsls	r1, r3, #2
  63 002a 1000     		movs	r0, r2
  64 002c FFF7FEFF 		bl	__aeabi_idiv
  65              	.LVL0:
  66 0030 0300     		movs	r3, r0
  67 0032 1A00     		movs	r2, r3
  68 0034 0D4B     		ldr	r3, .L3+8
  69 0036 1A60     		str	r2, [r3]
  27:additional.c  ****   T1IR  = 0xff;          //reset all interrrupt flags
  70              		.loc 1 27 0
  71 0038 0D4B     		ldr	r3, .L3+12
  72 003a FF22     		movs	r2, #255
  73 003c 1A60     		str	r2, [r3]
  28:additional.c  ****   T1MCR = 0x04;          //stop timer on match
  74              		.loc 1 28 0
  75 003e 0D4B     		ldr	r3, .L3+16
  76 0040 0422     		movs	r2, #4
  77 0042 1A60     		str	r2, [r3]
  29:additional.c  ****   T1TCR = 0x01;          //start timer
  78              		.loc 1 29 0
  79 0044 074B     		ldr	r3, .L3
  80 0046 0122     		movs	r2, #1
  81 0048 1A60     		str	r2, [r3]
  30:additional.c  ****   
  31:additional.c  ****   //wait until delay time has elapsed
  32:additional.c  ****   while (T1TCR & 0x01)
  82              		.loc 1 32 0
ARM GAS  C:\Users\embedded\AppData\Local\Temp\cc1muK08.s 			page 3


  83 004a C046     		nop
  84              	.L2:
  85              		.loc 1 32 0 is_stmt 0 discriminator 1
  86 004c 054B     		ldr	r3, .L3
  87 004e 1B68     		ldr	r3, [r3]
  88 0050 0122     		movs	r2, #1
  89 0052 1340     		ands	r3, r2
  90 0054 FAD1     		bne	.L2
  33:additional.c  ****     ;
  34:additional.c  **** }
  91              		.loc 1 34 0 is_stmt 1
  92 0056 C046     		nop
  93 0058 BD46     		mov	sp, r7
  94 005a 02B0     		add	sp, sp, #8
  95              		@ sp needed
  96 005c 80BC     		pop	{r7}
  97 005e 01BC     		pop	{r0}
  98 0060 0047     		bx	r0
  99              	.L4:
 100 0062 C046     		.align	2
 101              	.L3:
 102 0064 048000E0 		.word	-536838140
 103 0068 0C8000E0 		.word	-536838132
 104 006c 188000E0 		.word	-536838120
 105 0070 008000E0 		.word	-536838144
 106 0074 148000E0 		.word	-536838124
 107              		.cfi_endproc
 108              	.LFE0:
 109              		.size	mdelay, .-mdelay
 110              		.align	1
 111              		.global	sdelay
 112              		.syntax unified
 113              		.code	16
 114              		.thumb_func
 115              		.fpu softvfp
 116              		.type	sdelay, %function
 117              	sdelay:
 118              	.LFB1:
  35:additional.c  **** 
  36:additional.c  **** void sdelay( unsigned int delayInS )
  37:additional.c  **** {
 119              		.loc 1 37 0
 120              		.cfi_startproc
 121              		@ Function supports interworking.
 122              		@ args = 0, pretend = 0, frame = 8
 123              		@ frame_needed = 1, uses_anonymous_args = 0
 124 0078 80B5     		push	{r7, lr}
 125              	.LCFI3:
 126              		.cfi_def_cfa_offset 8
 127              		.cfi_offset 7, -8
 128              		.cfi_offset 14, -4
 129 007a 82B0     		sub	sp, sp, #8
 130              	.LCFI4:
 131              		.cfi_def_cfa_offset 16
 132 007c 00AF     		add	r7, sp, #0
 133              	.LCFI5:
 134              		.cfi_def_cfa_register 7
ARM GAS  C:\Users\embedded\AppData\Local\Temp\cc1muK08.s 			page 4


 135 007e 7860     		str	r0, [r7, #4]
  38:additional.c  ****   /*
  39:additional.c  ****    * setup timer #1 for delay
  40:additional.c  ****    */
  41:additional.c  ****   T1TCR = 0x02;          //stop and reset timer
 136              		.loc 1 41 0
 137 0080 124B     		ldr	r3, .L7
 138 0082 0222     		movs	r2, #2
 139 0084 1A60     		str	r2, [r3]
  42:additional.c  ****   T1PR  = 0x00;          //set prescaler to zero
 140              		.loc 1 42 0
 141 0086 124B     		ldr	r3, .L7+4
 142 0088 0022     		movs	r2, #0
 143 008a 1A60     		str	r2, [r3]
  43:additional.c  ****   T1MR0 = (((long)delayInS) * (long)CORE_FREQ);
 144              		.loc 1 43 0
 145 008c 7A68     		ldr	r2, [r7, #4]
 146 008e 1300     		movs	r3, r2
 147 0090 1B01     		lsls	r3, r3, #4
 148 0092 9B1A     		subs	r3, r3, r2
 149 0094 1A01     		lsls	r2, r3, #4
 150 0096 D21A     		subs	r2, r2, r3
 151 0098 9304     		lsls	r3, r2, #18
 152 009a 1A00     		movs	r2, r3
 153 009c 0D4B     		ldr	r3, .L7+8
 154 009e 1A60     		str	r2, [r3]
  44:additional.c  ****   T1IR  = 0xff;          //reset all interrrupt flags
 155              		.loc 1 44 0
 156 00a0 0D4B     		ldr	r3, .L7+12
 157 00a2 FF22     		movs	r2, #255
 158 00a4 1A60     		str	r2, [r3]
  45:additional.c  ****   T1MCR = 0x04;          //stop timer on match
 159              		.loc 1 45 0
 160 00a6 0D4B     		ldr	r3, .L7+16
 161 00a8 0422     		movs	r2, #4
 162 00aa 1A60     		str	r2, [r3]
  46:additional.c  ****   T1TCR = 0x01;          //start timer
 163              		.loc 1 46 0
 164 00ac 074B     		ldr	r3, .L7
 165 00ae 0122     		movs	r2, #1
 166 00b0 1A60     		str	r2, [r3]
  47:additional.c  **** 
  48:additional.c  ****   //wait until delay time has elapsed
  49:additional.c  ****   while (T1TCR & 0x01)
 167              		.loc 1 49 0
 168 00b2 C046     		nop
 169              	.L6:
 170              		.loc 1 49 0 is_stmt 0 discriminator 1
 171 00b4 054B     		ldr	r3, .L7
 172 00b6 1B68     		ldr	r3, [r3]
 173 00b8 0122     		movs	r2, #1
 174 00ba 1340     		ands	r3, r2
 175 00bc FAD1     		bne	.L6
  50:additional.c  ****     ;
  51:additional.c  **** }
 176              		.loc 1 51 0 is_stmt 1
 177 00be C046     		nop
ARM GAS  C:\Users\embedded\AppData\Local\Temp\cc1muK08.s 			page 5


 178 00c0 BD46     		mov	sp, r7
 179 00c2 02B0     		add	sp, sp, #8
 180              		@ sp needed
 181 00c4 80BC     		pop	{r7}
 182 00c6 01BC     		pop	{r0}
 183 00c8 0047     		bx	r0
 184              	.L8:
 185 00ca C046     		.align	2
 186              	.L7:
 187 00cc 048000E0 		.word	-536838140
 188 00d0 0C8000E0 		.word	-536838132
 189 00d4 188000E0 		.word	-536838120
 190 00d8 008000E0 		.word	-536838144
 191 00dc 148000E0 		.word	-536838124
 192              		.cfi_endproc
 193              	.LFE1:
 194              		.size	sdelay, .-sdelay
 195              	.Letext0: