ARM GAS  C:\Users\embedded\AppData\Local\Temp\ccOJJvYT.s 			page 1


   1              		.cpu arm7tdmi
   2              		.eabi_attribute 20, 1
   3              		.eabi_attribute 21, 1
   4              		.eabi_attribute 23, 3
   5              		.eabi_attribute 24, 1
   6              		.eabi_attribute 25, 1
   7              		.eabi_attribute 26, 1
   8              		.eabi_attribute 30, 6
   9              		.eabi_attribute 34, 0
  10              		.eabi_attribute 18, 4
  11              		.file	"bmp180.c"
  12              		.text
  13              	.Ltext0:
  14              		.cfi_sections	.debug_frame
  15              		.global	__aeabi_lmul
  16              		.global	__aeabi_idiv
  17              		.global	__aeabi_uidiv
  18              		.align	1
  19              		.global	calculatePressure
  20              		.syntax unified
  21              		.code	16
  22              		.thumb_func
  23              		.fpu softvfp
  24              		.type	calculatePressure, %function
  25              	calculatePressure:
  26              	.LFB0:
  27              		.file 1 "bmp180.c"
   1:bmp180.c      **** /*
   2:bmp180.c      ****     Plik, zawierajcy kod źródłowy funkcji przeznaczonych
   3:bmp180.c      ****     do obsługi czujnika ciśnienia BMP180.
   4:bmp180.c      **** */
   5:bmp180.c      **** 
   6:bmp180.c      **** #include "bmp180.h"
   7:bmp180.c      **** 
   8:bmp180.c      **** tS64 calculatePressure(tS64 readPress, tS64 readTemp, tS16 *calibrationArray, tU8 pressureOss)
   9:bmp180.c      **** {
  28              		.loc 1 9 0
  29              		.cfi_startproc
  30              		@ Function supports interworking.
  31              		@ args = 8, pretend = 0, frame = 104
  32              		@ frame_needed = 1, uses_anonymous_args = 0
  33 0000 F0B5     		push	{r4, r5, r6, r7, lr}
  34              	.LCFI0:
  35              		.cfi_def_cfa_offset 20
  36              		.cfi_offset 4, -20
  37              		.cfi_offset 5, -16
  38              		.cfi_offset 6, -12
  39              		.cfi_offset 7, -8
  40              		.cfi_offset 14, -4
  41 0002 9BB0     		sub	sp, sp, #108
  42              	.LCFI1:
  43              		.cfi_def_cfa_offset 128
  44 0004 00AF     		add	r7, sp, #0
  45              	.LCFI2:
  46              		.cfi_def_cfa_register 7
  47 0006 3862     		str	r0, [r7, #32]
  48 0008 7962     		str	r1, [r7, #36]
ARM GAS  C:\Users\embedded\AppData\Local\Temp\ccOJJvYT.s 			page 2


  49 000a BA61     		str	r2, [r7, #24]
  50 000c FB61     		str	r3, [r7, #28]
  10:bmp180.c      ****     // Compensation data read from BMP180 EEPROM.
  11:bmp180.c      ****     tS16 AC1;
  12:bmp180.c      ****     tS16 AC2; 
  13:bmp180.c      ****     tS16 AC3; 
  14:bmp180.c      ****     tS16 B1; 
  15:bmp180.c      ****     tS16 B2; 
  16:bmp180.c      ****     tS16 MB; 
  17:bmp180.c      ****     tS16 MC; 
  18:bmp180.c      ****     tS16 MD;
  19:bmp180.c      ****     tU16 AC4;
  20:bmp180.c      ****     tU16 AC5; 
  21:bmp180.c      ****     tU16 AC6;
  22:bmp180.c      **** 
  23:bmp180.c      ****     // Getting coefficient value with correct types, according to documentation.
  24:bmp180.c      **** 
  25:bmp180.c      ****     AC1 = calibrationArray[0];
  51              		.loc 1 25 0
  52 000e 4A26     		movs	r6, #74
  53 0010 1823     		movs	r3, #24
  54 0012 FB18     		adds	r3, r7, r3
  55 0014 9B19     		adds	r3, r3, r6
  56 0016 8022     		movs	r2, #128
  57 0018 BA18     		adds	r2, r7, r2
  58 001a 1268     		ldr	r2, [r2]
  59 001c 1288     		ldrh	r2, [r2]
  60 001e 1A80     		strh	r2, [r3]
  26:bmp180.c      ****     AC2 = calibrationArray[1];
  61              		.loc 1 26 0
  62 0020 4823     		movs	r3, #72
  63 0022 1822     		movs	r2, #24
  64 0024 9446     		mov	ip, r2
  65 0026 BC44     		add	ip, ip, r7
  66 0028 6344     		add	r3, r3, ip
  67 002a 8022     		movs	r2, #128
  68 002c BA18     		adds	r2, r7, r2
  69 002e 1268     		ldr	r2, [r2]
  70 0030 5288     		ldrh	r2, [r2, #2]
  71 0032 1A80     		strh	r2, [r3]
  27:bmp180.c      ****     AC3 = calibrationArray[2];
  72              		.loc 1 27 0
  73 0034 4622     		movs	r2, #70
  74 0036 1823     		movs	r3, #24
  75 0038 FB18     		adds	r3, r7, r3
  76 003a 9B18     		adds	r3, r3, r2
  77 003c 8022     		movs	r2, #128
  78 003e BA18     		adds	r2, r7, r2
  79 0040 1268     		ldr	r2, [r2]
  80 0042 9288     		ldrh	r2, [r2, #4]
  81 0044 1A80     		strh	r2, [r3]
  28:bmp180.c      ****     AC4 = calibrationArray[3];
  82              		.loc 1 28 0
  83 0046 8023     		movs	r3, #128
  84 0048 FB18     		adds	r3, r7, r3
  85 004a 1B68     		ldr	r3, [r3]
  86 004c 0633     		adds	r3, r3, #6
ARM GAS  C:\Users\embedded\AppData\Local\Temp\ccOJJvYT.s 			page 3


  87 004e 0021     		movs	r1, #0
  88 0050 5A5E     		ldrsh	r2, [r3, r1]
  89 0052 4421     		movs	r1, #68
  90 0054 1823     		movs	r3, #24
  91 0056 FB18     		adds	r3, r7, r3
  92 0058 5B18     		adds	r3, r3, r1
  93 005a 1A80     		strh	r2, [r3]
  29:bmp180.c      ****     AC5 = calibrationArray[4];
  94              		.loc 1 29 0
  95 005c 8023     		movs	r3, #128
  96 005e FB18     		adds	r3, r7, r3
  97 0060 1B68     		ldr	r3, [r3]
  98 0062 0833     		adds	r3, r3, #8
  99 0064 0020     		movs	r0, #0
 100 0066 1A5E     		ldrsh	r2, [r3, r0]
 101 0068 4220     		movs	r0, #66
 102 006a 1823     		movs	r3, #24
 103 006c FB18     		adds	r3, r7, r3
 104 006e 1B18     		adds	r3, r3, r0
 105 0070 1A80     		strh	r2, [r3]
  30:bmp180.c      ****     AC6 = calibrationArray[5];
 106              		.loc 1 30 0
 107 0072 8023     		movs	r3, #128
 108 0074 FB18     		adds	r3, r7, r3
 109 0076 1B68     		ldr	r3, [r3]
 110 0078 0A33     		adds	r3, r3, #10
 111 007a 0020     		movs	r0, #0
 112 007c 1A5E     		ldrsh	r2, [r3, r0]
 113 007e 4020     		movs	r0, #64
 114 0080 1823     		movs	r3, #24
 115 0082 FB18     		adds	r3, r7, r3
 116 0084 1B18     		adds	r3, r3, r0
 117 0086 1A80     		strh	r2, [r3]
  31:bmp180.c      ****     B1 = calibrationArray[6];
 118              		.loc 1 31 0
 119 0088 3E22     		movs	r2, #62
 120 008a 1823     		movs	r3, #24
 121 008c FB18     		adds	r3, r7, r3
 122 008e 9B18     		adds	r3, r3, r2
 123 0090 8022     		movs	r2, #128
 124 0092 BA18     		adds	r2, r7, r2
 125 0094 1268     		ldr	r2, [r2]
 126 0096 9289     		ldrh	r2, [r2, #12]
 127 0098 1A80     		strh	r2, [r3]
  32:bmp180.c      ****     B2 = calibrationArray[7];
 128              		.loc 1 32 0
 129 009a 3C21     		movs	r1, #60
 130 009c 1823     		movs	r3, #24
 131 009e FB18     		adds	r3, r7, r3
 132 00a0 5B18     		adds	r3, r3, r1
 133 00a2 8022     		movs	r2, #128
 134 00a4 BA18     		adds	r2, r7, r2
 135 00a6 1268     		ldr	r2, [r2]
 136 00a8 D289     		ldrh	r2, [r2, #14]
 137 00aa 1A80     		strh	r2, [r3]
  33:bmp180.c      ****     MB = calibrationArray[8];
 138              		.loc 1 33 0
ARM GAS  C:\Users\embedded\AppData\Local\Temp\ccOJJvYT.s 			page 4


 139 00ac 3A23     		movs	r3, #58
 140 00ae 1822     		movs	r2, #24
 141 00b0 9446     		mov	ip, r2
 142 00b2 BC44     		add	ip, ip, r7
 143 00b4 6344     		add	r3, r3, ip
 144 00b6 8022     		movs	r2, #128
 145 00b8 BA18     		adds	r2, r7, r2
 146 00ba 1268     		ldr	r2, [r2]
 147 00bc 128A     		ldrh	r2, [r2, #16]
 148 00be 1A80     		strh	r2, [r3]
  34:bmp180.c      ****     MC = calibrationArray[9];
 149              		.loc 1 34 0
 150 00c0 3823     		movs	r3, #56
 151 00c2 1822     		movs	r2, #24
 152 00c4 9446     		mov	ip, r2
 153 00c6 BC44     		add	ip, ip, r7
 154 00c8 6344     		add	r3, r3, ip
 155 00ca 8022     		movs	r2, #128
 156 00cc BA18     		adds	r2, r7, r2
 157 00ce 1268     		ldr	r2, [r2]
 158 00d0 528A     		ldrh	r2, [r2, #18]
 159 00d2 1A80     		strh	r2, [r3]
  35:bmp180.c      ****     MD = calibrationArray[10];
 160              		.loc 1 35 0
 161 00d4 3621     		movs	r1, #54
 162 00d6 1823     		movs	r3, #24
 163 00d8 FB18     		adds	r3, r7, r3
 164 00da 5B18     		adds	r3, r3, r1
 165 00dc 8022     		movs	r2, #128
 166 00de BA18     		adds	r2, r7, r2
 167 00e0 1268     		ldr	r2, [r2]
 168 00e2 928A     		ldrh	r2, [r2, #20]
 169 00e4 1A80     		strh	r2, [r3]
  36:bmp180.c      **** 
  37:bmp180.c      ****     // Calculations for temperature.
  38:bmp180.c      **** 
  39:bmp180.c      ****     tS32 X1 = (((readTemp - AC6) * AC5) >> 15);
 170              		.loc 1 39 0
 171 00e6 1823     		movs	r3, #24
 172 00e8 FB18     		adds	r3, r7, r3
 173 00ea 1B18     		adds	r3, r3, r0
 174 00ec 1B88     		ldrh	r3, [r3]
 175 00ee 1B04     		lsls	r3, r3, #16
 176 00f0 1B0C     		lsrs	r3, r3, #16
 177 00f2 3B61     		str	r3, [r7, #16]
 178 00f4 0023     		movs	r3, #0
 179 00f6 7B61     		str	r3, [r7, #20]
 180 00f8 BA69     		ldr	r2, [r7, #24]
 181 00fa FB69     		ldr	r3, [r7, #28]
 182 00fc 3869     		ldr	r0, [r7, #16]
 183 00fe 7969     		ldr	r1, [r7, #20]
 184 0100 121A     		subs	r2, r2, r0
 185 0102 8B41     		sbcs	r3, r3, r1
 186 0104 1000     		movs	r0, r2
 187 0106 1900     		movs	r1, r3
 188 0108 4223     		movs	r3, #66
 189 010a 1822     		movs	r2, #24
ARM GAS  C:\Users\embedded\AppData\Local\Temp\ccOJJvYT.s 			page 5


 190 010c 9446     		mov	ip, r2
 191 010e BC44     		add	ip, ip, r7
 192 0110 6344     		add	r3, r3, ip
 193 0112 1B88     		ldrh	r3, [r3]
 194 0114 1B04     		lsls	r3, r3, #16
 195 0116 1B0C     		lsrs	r3, r3, #16
 196 0118 BB60     		str	r3, [r7, #8]
 197 011a 0023     		movs	r3, #0
 198 011c FB60     		str	r3, [r7, #12]
 199 011e BA68     		ldr	r2, [r7, #8]
 200 0120 FB68     		ldr	r3, [r7, #12]
 201 0122 FFF7FEFF 		bl	__aeabi_lmul
 202              	.LVL0:
 203 0126 0200     		movs	r2, r0
 204 0128 0B00     		movs	r3, r1
 205 012a 5904     		lsls	r1, r3, #17
 206 012c D40B     		lsrs	r4, r2, #15
 207 012e 0C43     		orrs	r4, r1
 208 0130 DD13     		asrs	r5, r3, #15
 209 0132 2300     		movs	r3, r4
 210 0134 BB64     		str	r3, [r7, #72]
  40:bmp180.c      ****     tS32 X2 = ((MC << 11) / (X1 + MD));
 211              		.loc 1 40 0
 212 0136 3824     		movs	r4, #56
 213 0138 1823     		movs	r3, #24
 214 013a FB18     		adds	r3, r7, r3
 215 013c 1B19     		adds	r3, r3, r4
 216 013e 0025     		movs	r5, #0
 217 0140 5B5F     		ldrsh	r3, [r3, r5]
 218 0142 D802     		lsls	r0, r3, #11
 219 0144 3624     		movs	r4, #54
 220 0146 1823     		movs	r3, #24
 221 0148 FB18     		adds	r3, r7, r3
 222 014a 1B19     		adds	r3, r3, r4
 223 014c 0024     		movs	r4, #0
 224 014e 1A5F     		ldrsh	r2, [r3, r4]
 225 0150 BB6C     		ldr	r3, [r7, #72]
 226 0152 D318     		adds	r3, r2, r3
 227 0154 1900     		movs	r1, r3
 228 0156 FFF7FEFF 		bl	__aeabi_idiv
 229              	.LVL1:
 230 015a 0300     		movs	r3, r0
 231 015c 7B64     		str	r3, [r7, #68]
  41:bmp180.c      ****     tS32 B5 = X1 + X2;
 232              		.loc 1 41 0
 233 015e BA6C     		ldr	r2, [r7, #72]
 234 0160 7B6C     		ldr	r3, [r7, #68]
 235 0162 D318     		adds	r3, r2, r3
 236 0164 3B64     		str	r3, [r7, #64]
  42:bmp180.c      ****     tS32 T = ((B5 + 8) >> 4);
 237              		.loc 1 42 0
 238 0166 3B6C     		ldr	r3, [r7, #64]
 239 0168 0833     		adds	r3, r3, #8
 240 016a 1B11     		asrs	r3, r3, #4
 241 016c FB63     		str	r3, [r7, #60]
  43:bmp180.c      **** 
  44:bmp180.c      ****     // Calculations for pressure.
ARM GAS  C:\Users\embedded\AppData\Local\Temp\ccOJJvYT.s 			page 6


  45:bmp180.c      **** 
  46:bmp180.c      ****     tS32 B6 = B5 - 4000;
 242              		.loc 1 46 0
 243 016e 3B6C     		ldr	r3, [r7, #64]
 244 0170 5B4C     		ldr	r4, .L5
 245 0172 A446     		mov	ip, r4
 246 0174 6344     		add	r3, r3, ip
 247 0176 BB63     		str	r3, [r7, #56]
  47:bmp180.c      ****     X1 = (((tS32)B2 * ((B6 * B6) >> 12)) >> 11);
 248              		.loc 1 47 0
 249 0178 3C20     		movs	r0, #60
 250 017a 1823     		movs	r3, #24
 251 017c FB18     		adds	r3, r7, r3
 252 017e 1B18     		adds	r3, r3, r0
 253 0180 0020     		movs	r0, #0
 254 0182 1C5E     		ldrsh	r4, [r3, r0]
 255 0184 BA6B     		ldr	r2, [r7, #56]
 256 0186 B96B     		ldr	r1, [r7, #56]
 257 0188 1000     		movs	r0, r2
 258 018a 4843     		muls	r0, r1
 259 018c 0213     		asrs	r2, r0, #12
 260 018e 2300     		movs	r3, r4
 261 0190 5343     		muls	r3, r2
 262 0192 DB12     		asrs	r3, r3, #11
 263 0194 BB64     		str	r3, [r7, #72]
  48:bmp180.c      ****     X2 = (((tS32)AC2 * B6) >> 11);
 264              		.loc 1 48 0
 265 0196 4823     		movs	r3, #72
 266 0198 1822     		movs	r2, #24
 267 019a 9446     		mov	ip, r2
 268 019c BC44     		add	ip, ip, r7
 269 019e 6344     		add	r3, r3, ip
 270 01a0 0020     		movs	r0, #0
 271 01a2 185E     		ldrsh	r0, [r3, r0]
 272 01a4 BA6B     		ldr	r2, [r7, #56]
 273 01a6 0300     		movs	r3, r0
 274 01a8 5343     		muls	r3, r2
 275 01aa DB12     		asrs	r3, r3, #11
 276 01ac 7B64     		str	r3, [r7, #68]
  49:bmp180.c      ****     tS32 X3 = X1 + X2;
 277              		.loc 1 49 0
 278 01ae BA6C     		ldr	r2, [r7, #72]
 279 01b0 7B6C     		ldr	r3, [r7, #68]
 280 01b2 D318     		adds	r3, r2, r3
 281 01b4 7B63     		str	r3, [r7, #52]
  50:bmp180.c      **** 
  51:bmp180.c      ****     tS32 B3 = ((((tS32)AC1 * 4 + X3) << pressureOss) + 2) >> 2;
 282              		.loc 1 51 0
 283 01b6 1823     		movs	r3, #24
 284 01b8 FB18     		adds	r3, r7, r3
 285 01ba 9B19     		adds	r3, r3, r6
 286 01bc 0020     		movs	r0, #0
 287 01be 1B5E     		ldrsh	r3, [r3, r0]
 288 01c0 9A00     		lsls	r2, r3, #2
 289 01c2 7B6B     		ldr	r3, [r7, #52]
 290 01c4 D218     		adds	r2, r2, r3
 291 01c6 6420     		movs	r0, #100
ARM GAS  C:\Users\embedded\AppData\Local\Temp\ccOJJvYT.s 			page 7


 292 01c8 0825     		movs	r5, #8
 293 01ca 1823     		movs	r3, #24
 294 01cc FB18     		adds	r3, r7, r3
 295 01ce 5B19     		adds	r3, r3, r5
 296 01d0 1B18     		adds	r3, r3, r0
 297 01d2 1B78     		ldrb	r3, [r3]
 298 01d4 1400     		movs	r4, r2
 299 01d6 9C40     		lsls	r4, r4, r3
 300 01d8 2300     		movs	r3, r4
 301 01da 0233     		adds	r3, r3, #2
 302 01dc 9B10     		asrs	r3, r3, #2
 303 01de 3B63     		str	r3, [r7, #48]
  52:bmp180.c      ****     X1 = (tS32)AC3 * B6 >> 13;
 304              		.loc 1 52 0
 305 01e0 4622     		movs	r2, #70
 306 01e2 1823     		movs	r3, #24
 307 01e4 FB18     		adds	r3, r7, r3
 308 01e6 9B18     		adds	r3, r3, r2
 309 01e8 0024     		movs	r4, #0
 310 01ea 1C5F     		ldrsh	r4, [r3, r4]
 311 01ec BA6B     		ldr	r2, [r7, #56]
 312 01ee 2300     		movs	r3, r4
 313 01f0 5343     		muls	r3, r2
 314 01f2 5B13     		asrs	r3, r3, #13
 315 01f4 BB64     		str	r3, [r7, #72]
  53:bmp180.c      ****     X2 = ((tS32)B1 * (B6 * B6 >> 12)) >> 16;
 316              		.loc 1 53 0
 317 01f6 3E22     		movs	r2, #62
 318 01f8 1823     		movs	r3, #24
 319 01fa FB18     		adds	r3, r7, r3
 320 01fc 9B18     		adds	r3, r3, r2
 321 01fe 0024     		movs	r4, #0
 322 0200 1C5F     		ldrsh	r4, [r3, r4]
 323 0202 BA6B     		ldr	r2, [r7, #56]
 324 0204 B96B     		ldr	r1, [r7, #56]
 325 0206 1300     		movs	r3, r2
 326 0208 4B43     		muls	r3, r1
 327 020a 1A13     		asrs	r2, r3, #12
 328 020c 2300     		movs	r3, r4
 329 020e 5343     		muls	r3, r2
 330 0210 1B14     		asrs	r3, r3, #16
 331 0212 7B64     		str	r3, [r7, #68]
  54:bmp180.c      ****     X3 = (((X1 + X2) + 2) >> 2);
 332              		.loc 1 54 0
 333 0214 BA6C     		ldr	r2, [r7, #72]
 334 0216 7B6C     		ldr	r3, [r7, #68]
 335 0218 D318     		adds	r3, r2, r3
 336 021a 0233     		adds	r3, r3, #2
 337 021c 9B10     		asrs	r3, r3, #2
 338 021e 7B63     		str	r3, [r7, #52]
  55:bmp180.c      ****     tU32 B4 = (tS32)AC4 * (tU32)(X3 + 32768) >> 15;
 339              		.loc 1 55 0
 340 0220 4421     		movs	r1, #68
 341 0222 1823     		movs	r3, #24
 342 0224 FB18     		adds	r3, r7, r3
 343 0226 5B18     		adds	r3, r3, r1
 344 0228 1988     		ldrh	r1, [r3]
ARM GAS  C:\Users\embedded\AppData\Local\Temp\ccOJJvYT.s 			page 8


 345 022a 7A6B     		ldr	r2, [r7, #52]
 346 022c 8023     		movs	r3, #128
 347 022e 1B02     		lsls	r3, r3, #8
 348 0230 9C46     		mov	ip, r3
 349 0232 6244     		add	r2, r2, ip
 350 0234 0B00     		movs	r3, r1
 351 0236 5343     		muls	r3, r2
 352 0238 DB0B     		lsrs	r3, r3, #15
 353 023a FB62     		str	r3, [r7, #44]
  56:bmp180.c      ****     tU32 B7 = ((tU32)readPress - B3) * (tS32)(50000 >> pressureOss);
 354              		.loc 1 56 0
 355 023c 3A6A     		ldr	r2, [r7, #32]
 356 023e 3B6B     		ldr	r3, [r7, #48]
 357 0240 D41A     		subs	r4, r2, r3
 358 0242 1823     		movs	r3, #24
 359 0244 FB18     		adds	r3, r7, r3
 360 0246 5B19     		adds	r3, r3, r5
 361 0248 1A18     		adds	r2, r3, r0
 362 024a 1278     		ldrb	r2, [r2]
 363 024c 2549     		ldr	r1, .L5+4
 364 024e 1141     		asrs	r1, r1, r2
 365 0250 0A00     		movs	r2, r1
 366 0252 2300     		movs	r3, r4
 367 0254 5343     		muls	r3, r2
 368 0256 BB62     		str	r3, [r7, #40]
  57:bmp180.c      ****     tS32 p;
  58:bmp180.c      ****     if (B7 < 0x80000000)
 369              		.loc 1 58 0
 370 0258 BB6A     		ldr	r3, [r7, #40]
 371 025a 002B     		cmp	r3, #0
 372 025c 08DB     		blt	.L2
  59:bmp180.c      ****     {
  60:bmp180.c      ****         p = (B7 * 2) / B4;
 373              		.loc 1 60 0
 374 025e BB6A     		ldr	r3, [r7, #40]
 375 0260 5B00     		lsls	r3, r3, #1
 376 0262 F96A     		ldr	r1, [r7, #44]
 377 0264 1800     		movs	r0, r3
 378 0266 FFF7FEFF 		bl	__aeabi_uidiv
 379              	.LVL2:
 380 026a 0300     		movs	r3, r0
 381 026c 7B66     		str	r3, [r7, #100]
 382 026e 06E0     		b	.L3
 383              	.L2:
  61:bmp180.c      ****     }
  62:bmp180.c      ****     else
  63:bmp180.c      ****     {
  64:bmp180.c      ****         p = (B7 / B4) * 2;
 384              		.loc 1 64 0
 385 0270 F96A     		ldr	r1, [r7, #44]
 386 0272 B86A     		ldr	r0, [r7, #40]
 387 0274 FFF7FEFF 		bl	__aeabi_uidiv
 388              	.LVL3:
 389 0278 0300     		movs	r3, r0
 390 027a 5B00     		lsls	r3, r3, #1
 391 027c 7B66     		str	r3, [r7, #100]
 392              	.L3:
ARM GAS  C:\Users\embedded\AppData\Local\Temp\ccOJJvYT.s 			page 9


  65:bmp180.c      ****     }
  66:bmp180.c      **** 
  67:bmp180.c      ****     X1 = (p >> 8) * (p >> 8);
 393              		.loc 1 67 0
 394 027e 7B6E     		ldr	r3, [r7, #100]
 395 0280 1912     		asrs	r1, r3, #8
 396 0282 7A6E     		ldr	r2, [r7, #100]
 397 0284 1212     		asrs	r2, r2, #8
 398 0286 0B00     		movs	r3, r1
 399 0288 5343     		muls	r3, r2
 400 028a BB64     		str	r3, [r7, #72]
  68:bmp180.c      ****     X1 = ((X1 * 3038) >> 16);
 401              		.loc 1 68 0
 402 028c BB6C     		ldr	r3, [r7, #72]
 403 028e 164A     		ldr	r2, .L5+8
 404 0290 1900     		movs	r1, r3
 405 0292 5143     		muls	r1, r2
 406 0294 0B14     		asrs	r3, r1, #16
 407 0296 BB64     		str	r3, [r7, #72]
  69:bmp180.c      ****     X2 = ((-7357 * p) >> 16);
 408              		.loc 1 69 0
 409 0298 7A6E     		ldr	r2, [r7, #100]
 410 029a 1300     		movs	r3, r2
 411 029c 5B01     		lsls	r3, r3, #5
 412 029e 9B18     		adds	r3, r3, r2
 413 02a0 DB00     		lsls	r3, r3, #3
 414 02a2 9B1A     		subs	r3, r3, r2
 415 02a4 9B00     		lsls	r3, r3, #2
 416 02a6 9B1A     		subs	r3, r3, r2
 417 02a8 DA00     		lsls	r2, r3, #3
 418 02aa D31A     		subs	r3, r2, r3
 419 02ac 5B42     		rsbs	r3, r3, #0
 420 02ae 1B14     		asrs	r3, r3, #16
 421 02b0 7B64     		str	r3, [r7, #68]
  70:bmp180.c      **** 
  71:bmp180.c      ****     p = p + ((X1 + X2 + (tS32)3791) >> 4);
 422              		.loc 1 71 0
 423 02b2 BA6C     		ldr	r2, [r7, #72]
 424 02b4 7B6C     		ldr	r3, [r7, #68]
 425 02b6 D318     		adds	r3, r2, r3
 426 02b8 0C4A     		ldr	r2, .L5+12
 427 02ba 9446     		mov	ip, r2
 428 02bc 6344     		add	r3, r3, ip
 429 02be 1B11     		asrs	r3, r3, #4
 430 02c0 7A6E     		ldr	r2, [r7, #100]
 431 02c2 D318     		adds	r3, r2, r3
 432 02c4 7B66     		str	r3, [r7, #100]
  72:bmp180.c      **** 
  73:bmp180.c      ****     return p;
 433              		.loc 1 73 0
 434 02c6 7B6E     		ldr	r3, [r7, #100]
 435 02c8 3B60     		str	r3, [r7]
 436 02ca DB17     		asrs	r3, r3, #31
 437 02cc 7B60     		str	r3, [r7, #4]
 438 02ce 3B68     		ldr	r3, [r7]
 439 02d0 7C68     		ldr	r4, [r7, #4]
  74:bmp180.c      **** }
ARM GAS  C:\Users\embedded\AppData\Local\Temp\ccOJJvYT.s 			page 10


 440              		.loc 1 74 0
 441 02d2 1800     		movs	r0, r3
 442 02d4 2100     		movs	r1, r4
 443 02d6 BD46     		mov	sp, r7
 444 02d8 1BB0     		add	sp, sp, #108
 445              		@ sp needed
 446 02da F0BC     		pop	{r4, r5, r6, r7}
 447 02dc 04BC     		pop	{r2}
 448 02de 1047     		bx	r2
 449              	.L6:
 450              		.align	2
 451              	.L5:
 452 02e0 60F0FFFF 		.word	-4000
 453 02e4 50C30000 		.word	50000
 454 02e8 DE0B0000 		.word	3038
 455 02ec CF0E0000 		.word	3791
 456              		.cfi_endproc
 457              	.LFE0:
 458              		.size	calculatePressure, .-calculatePressure
 459              		.align	1
 460              		.global	measurePressure
 461              		.syntax unified
 462              		.code	16
 463              		.thumb_func
 464              		.fpu softvfp
 465              		.type	measurePressure, %function
 466              	measurePressure:
 467              	.LFB1:
  75:bmp180.c      **** 
  76:bmp180.c      **** tS64 measurePressure(void)
  77:bmp180.c      **** {
 468              		.loc 1 77 0
 469              		.cfi_startproc
 470              		@ Function supports interworking.
 471              		@ args = 0, pretend = 0, frame = 72
 472              		@ frame_needed = 1, uses_anonymous_args = 0
 473 02f0 F0B5     		push	{r4, r5, r6, r7, lr}
 474              	.LCFI3:
 475              		.cfi_def_cfa_offset 20
 476              		.cfi_offset 4, -20
 477              		.cfi_offset 5, -16
 478              		.cfi_offset 6, -12
 479              		.cfi_offset 7, -8
 480              		.cfi_offset 14, -4
 481 02f2 95B0     		sub	sp, sp, #84
 482              	.LCFI4:
 483              		.cfi_def_cfa_offset 104
 484 02f4 02AF     		add	r7, sp, #8
 485              	.LCFI5:
 486              		.cfi_def_cfa 7, 96
  78:bmp180.c      ****     // Return code for I2C operations.
  79:bmp180.c      ****     tS8 retCode = 0;
 487              		.loc 1 79 0
 488 02f6 4524     		movs	r4, #69
 489 02f8 3B19     		adds	r3, r7, r4
 490 02fa 0022     		movs	r2, #0
 491 02fc 1A70     		strb	r2, [r3]
ARM GAS  C:\Users\embedded\AppData\Local\Temp\ccOJJvYT.s 			page 11


  80:bmp180.c      ****     // BMP180 read address: 7 bit address -> 1110111 and additional bit of value 1 for read operati
  81:bmp180.c      ****     tU8 bmpReadAddress = (((tU8)0x77 << 1) | (tU8)1); // Address: 0xEF
 492              		.loc 1 81 0
 493 02fe 4423     		movs	r3, #68
 494 0300 FB18     		adds	r3, r7, r3
 495 0302 EF22     		movs	r2, #239
 496 0304 1A70     		strb	r2, [r3]
  82:bmp180.c      ****     // BMP180 write address: 7 bit address -> 1110111 and additional bit of value 0 for write opera
  83:bmp180.c      ****     tU8 bmpWriteAddress = ((tU8)0x77 << 1); // Address: 0xEE
 497              		.loc 1 83 0
 498 0306 4323     		movs	r3, #67
 499 0308 FB18     		adds	r3, r7, r3
 500 030a EE22     		movs	r2, #238
 501 030c 1A70     		strb	r2, [r3]
  84:bmp180.c      ****     // Array of bytes used for reading compensation values.
  85:bmp180.c      ****     tU8 registerContents[3] = {0};
 502              		.loc 1 85 0
 503 030e 2422     		movs	r2, #36
 504 0310 BB18     		adds	r3, r7, r2
 505 0312 1800     		movs	r0, r3
 506 0314 0323     		movs	r3, #3
 507 0316 1A00     		movs	r2, r3
 508 0318 0021     		movs	r1, #0
 509 031a FFF7FEFF 		bl	memset
  86:bmp180.c      **** 
  87:bmp180.c      ****     // Array holding calibration values
  88:bmp180.c      ****     tS16 calibrationArray[11] = {0};
 510              		.loc 1 88 0
 511 031e 0C22     		movs	r2, #12
 512 0320 BB18     		adds	r3, r7, r2
 513 0322 1800     		movs	r0, r3
 514 0324 1623     		movs	r3, #22
 515 0326 1A00     		movs	r2, r3
 516 0328 0021     		movs	r1, #0
 517 032a FFF7FEFF 		bl	memset
  89:bmp180.c      **** 
  90:bmp180.c      ****     // Address of register, where calibration data starts.
  91:bmp180.c      ****     tU8 staringRegister = (tU8)0xAA; // From 0xAA to 0xBF
 518              		.loc 1 91 0
 519 032e 4721     		movs	r1, #71
 520 0330 7B18     		adds	r3, r7, r1
 521 0332 AA22     		movs	r2, #170
 522 0334 1A70     		strb	r2, [r3]
  92:bmp180.c      **** 
  93:bmp180.c      ****     // Reading calibration value for all coefficients
  94:bmp180.c      ****     tU8 iterator;
  95:bmp180.c      ****     // Making device "aware" we are going to read compenstaion data.
  96:bmp180.c      ****     retCode = i2cWrite(bmpWriteAddress, staringRegister, 1);
 523              		.loc 1 96 0
 524 0336 7B18     		adds	r3, r7, r1
 525 0338 1B78     		ldrb	r3, [r3]
 526 033a 1900     		movs	r1, r3
 527 033c 3C19     		adds	r4, r7, r4
 528 033e 4323     		movs	r3, #67
 529 0340 FB18     		adds	r3, r7, r3
 530 0342 1B78     		ldrb	r3, [r3]
 531 0344 0122     		movs	r2, #1
ARM GAS  C:\Users\embedded\AppData\Local\Temp\ccOJJvYT.s 			page 12


 532 0346 1800     		movs	r0, r3
 533 0348 FFF7FEFF 		bl	i2cWrite
 534 034c 0300     		movs	r3, r0
 535 034e 2370     		strb	r3, [r4]
  97:bmp180.c      ****     for (iterator = 0; iterator < (tU8)11; iterator = iterator + (tU8)1)
 536              		.loc 1 97 0
 537 0350 4623     		movs	r3, #70
 538 0352 FB18     		adds	r3, r7, r3
 539 0354 0022     		movs	r2, #0
 540 0356 1A70     		strb	r2, [r3]
 541 0358 2BE0     		b	.L8
 542              	.L9:
  98:bmp180.c      ****     {
  99:bmp180.c      ****         retCode = i2cRead(bmpReadAddress, registerContents, 2);
 543              		.loc 1 99 0 discriminator 3
 544 035a 4523     		movs	r3, #69
 545 035c FC18     		adds	r4, r7, r3
 546 035e 2421     		movs	r1, #36
 547 0360 7918     		adds	r1, r7, r1
 548 0362 4423     		movs	r3, #68
 549 0364 FB18     		adds	r3, r7, r3
 550 0366 1B78     		ldrb	r3, [r3]
 551 0368 0222     		movs	r2, #2
 552 036a 1800     		movs	r0, r3
 553 036c FFF7FEFF 		bl	i2cRead
 554 0370 0300     		movs	r3, r0
 555 0372 2370     		strb	r3, [r4]
 100:bmp180.c      ****         calibrationArray[iterator] = ((registerContents[0] << 8) | registerContents[1]);
 556              		.loc 1 100 0 discriminator 3
 557 0374 2421     		movs	r1, #36
 558 0376 7B18     		adds	r3, r7, r1
 559 0378 1B78     		ldrb	r3, [r3]
 560 037a 1B02     		lsls	r3, r3, #8
 561 037c 1A04     		lsls	r2, r3, #16
 562 037e 1214     		asrs	r2, r2, #16
 563 0380 7B18     		adds	r3, r7, r1
 564 0382 5B78     		ldrb	r3, [r3, #1]
 565 0384 1B04     		lsls	r3, r3, #16
 566 0386 1B14     		asrs	r3, r3, #16
 567 0388 4620     		movs	r0, #70
 568 038a 3918     		adds	r1, r7, r0
 569 038c 0978     		ldrb	r1, [r1]
 570 038e 1343     		orrs	r3, r2
 571 0390 1B04     		lsls	r3, r3, #16
 572 0392 1B14     		asrs	r3, r3, #16
 573 0394 0C22     		movs	r2, #12
 574 0396 BA18     		adds	r2, r7, r2
 575 0398 4900     		lsls	r1, r1, #1
 576 039a 8B52     		strh	r3, [r1, r2]
 101:bmp180.c      ****         // We increment by 2 starting register to be able to read next calibration value.
 102:bmp180.c      ****         staringRegister = staringRegister + (tU8)2;
 577              		.loc 1 102 0 discriminator 3
 578 039c 4722     		movs	r2, #71
 579 039e BB18     		adds	r3, r7, r2
 580 03a0 BA18     		adds	r2, r7, r2
 581 03a2 1278     		ldrb	r2, [r2]
 582 03a4 0232     		adds	r2, r2, #2
ARM GAS  C:\Users\embedded\AppData\Local\Temp\ccOJJvYT.s 			page 13


 583 03a6 1A70     		strb	r2, [r3]
  97:bmp180.c      ****     {
 584              		.loc 1 97 0 discriminator 3
 585 03a8 3B18     		adds	r3, r7, r0
 586 03aa 3A18     		adds	r2, r7, r0
 587 03ac 1278     		ldrb	r2, [r2]
 588 03ae 0132     		adds	r2, r2, #1
 589 03b0 1A70     		strb	r2, [r3]
 590              	.L8:
  97:bmp180.c      ****     {
 591              		.loc 1 97 0 is_stmt 0 discriminator 1
 592 03b2 4623     		movs	r3, #70
 593 03b4 FB18     		adds	r3, r7, r3
 594 03b6 1B78     		ldrb	r3, [r3]
 595 03b8 0A2B     		cmp	r3, #10
 596 03ba CED9     		bls	.L9
 103:bmp180.c      ****     }
 104:bmp180.c      **** 
 105:bmp180.c      ****     // ++++++++++++++++++++++++++++++++++++++++++++++++++++++++++++++++++++++++ //
 106:bmp180.c      **** 
 107:bmp180.c      ****     // Temperature / pressure value location registers: 0xF6 (MSB), 0xF7 (LSB), 0xF8 (XLSB)
 108:bmp180.c      ****     tU8 resultLocationAddress[1];
 109:bmp180.c      ****     resultLocationAddress[0] = 0xF6;
 597              		.loc 1 109 0 is_stmt 1
 598 03bc 0823     		movs	r3, #8
 599 03be FB18     		adds	r3, r7, r3
 600 03c0 F622     		movs	r2, #246
 601 03c2 1A70     		strb	r2, [r3]
 110:bmp180.c      **** 
 111:bmp180.c      ****     // Value for pressure oversampling setting.
 112:bmp180.c      ****     tU8 pressureOss = 0x03;
 602              		.loc 1 112 0
 603 03c4 4220     		movs	r0, #66
 604 03c6 3B18     		adds	r3, r7, r0
 605 03c8 0322     		movs	r2, #3
 606 03ca 1A70     		strb	r2, [r3]
 113:bmp180.c      **** 
 114:bmp180.c      ****     // Control register value for measuring temperature
 115:bmp180.c      ****     tU8 controlRegisterTemperatureValue = 0x2E;
 607              		.loc 1 115 0
 608 03cc 4122     		movs	r2, #65
 609 03ce 1100     		movs	r1, r2
 610 03d0 BB18     		adds	r3, r7, r2
 611 03d2 2E22     		movs	r2, #46
 612 03d4 1A70     		strb	r2, [r3]
 116:bmp180.c      **** 
 117:bmp180.c      ****     // Control register value for measuring pressure
 118:bmp180.c      ****     tU8 controlRegisterPressureValue = ((tU8)0x34 + (pressureOss << 6));
 613              		.loc 1 118 0
 614 03d6 3B18     		adds	r3, r7, r0
 615 03d8 1B78     		ldrb	r3, [r3]
 616 03da 9B01     		lsls	r3, r3, #6
 617 03dc 1B06     		lsls	r3, r3, #24
 618 03de 1A0E     		lsrs	r2, r3, #24
 619 03e0 4024     		movs	r4, #64
 620 03e2 3B19     		adds	r3, r7, r4
 621 03e4 3432     		adds	r2, r2, #52
ARM GAS  C:\Users\embedded\AppData\Local\Temp\ccOJJvYT.s 			page 14


 622 03e6 1A70     		strb	r2, [r3]
 119:bmp180.c      **** 
 120:bmp180.c      ****     // Measurement control register address
 121:bmp180.c      ****     tU8 registerAddress = (tU8)0xF4;
 623              		.loc 1 121 0
 624 03e8 3F24     		movs	r4, #63
 625 03ea 3B19     		adds	r3, r7, r4
 626 03ec F422     		movs	r2, #244
 627 03ee 1A70     		strb	r2, [r3]
 122:bmp180.c      **** 
 123:bmp180.c      ****     tU8 commandArr[2] = {0};
 628              		.loc 1 123 0
 629 03f0 3B1D     		adds	r3, r7, #4
 630 03f2 0022     		movs	r2, #0
 631 03f4 1A80     		strh	r2, [r3]
 124:bmp180.c      **** 
 125:bmp180.c      ****     // Command for getting temperature value
 126:bmp180.c      ****     commandArr[0] = registerAddress;
 632              		.loc 1 126 0
 633 03f6 3B1D     		adds	r3, r7, #4
 634 03f8 3A19     		adds	r2, r7, r4
 635 03fa 1278     		ldrb	r2, [r2]
 636 03fc 1A70     		strb	r2, [r3]
 127:bmp180.c      ****     commandArr[1] = controlRegisterTemperatureValue;
 637              		.loc 1 127 0
 638 03fe 3B1D     		adds	r3, r7, #4
 639 0400 0A00     		movs	r2, r1
 640 0402 BA18     		adds	r2, r7, r2
 641 0404 1278     		ldrb	r2, [r2]
 642 0406 5A70     		strb	r2, [r3, #1]
 128:bmp180.c      **** 
 129:bmp180.c      ****     // I2C write to BMP180 for reading temperature value.
 130:bmp180.c      ****     retCode = i2cWrite(bmpWriteAddress, commandArr, 2);
 643              		.loc 1 130 0
 644 0408 4523     		movs	r3, #69
 645 040a FC18     		adds	r4, r7, r3
 646 040c 391D     		adds	r1, r7, #4
 647 040e 4322     		movs	r2, #67
 648 0410 BB18     		adds	r3, r7, r2
 649 0412 1B78     		ldrb	r3, [r3]
 650 0414 0222     		movs	r2, #2
 651 0416 1800     		movs	r0, r3
 652 0418 FFF7FEFF 		bl	i2cWrite
 653 041c 0300     		movs	r3, r0
 654 041e 2370     		strb	r3, [r4]
 131:bmp180.c      ****     // Waiting for 5 ms to read temperature ; Minimum waiting time - 4.5 ms.
 132:bmp180.c      ****     mdelay(5);
 655              		.loc 1 132 0
 656 0420 0520     		movs	r0, #5
 657 0422 FFF7FEFF 		bl	mdelay
 133:bmp180.c      ****     // I2C read to retrieve temperature value from slave.
 134:bmp180.c      ****     retCode = i2cWrite(bmpWriteAddress, resultLocationAddress, 1);
 658              		.loc 1 134 0
 659 0426 4523     		movs	r3, #69
 660 0428 FC18     		adds	r4, r7, r3
 661 042a 0821     		movs	r1, #8
 662 042c 7918     		adds	r1, r7, r1
ARM GAS  C:\Users\embedded\AppData\Local\Temp\ccOJJvYT.s 			page 15


 663 042e 4322     		movs	r2, #67
 664 0430 BB18     		adds	r3, r7, r2
 665 0432 1B78     		ldrb	r3, [r3]
 666 0434 0122     		movs	r2, #1
 667 0436 1800     		movs	r0, r3
 668 0438 FFF7FEFF 		bl	i2cWrite
 669 043c 0300     		movs	r3, r0
 670 043e 2370     		strb	r3, [r4]
 135:bmp180.c      ****     retCode = i2cRead(bmpReadAddress, registerContents, 2);
 671              		.loc 1 135 0
 672 0440 4523     		movs	r3, #69
 673 0442 FC18     		adds	r4, r7, r3
 674 0444 2421     		movs	r1, #36
 675 0446 7918     		adds	r1, r7, r1
 676 0448 4422     		movs	r2, #68
 677 044a BB18     		adds	r3, r7, r2
 678 044c 1B78     		ldrb	r3, [r3]
 679 044e 0222     		movs	r2, #2
 680 0450 1800     		movs	r0, r3
 681 0452 FFF7FEFF 		bl	i2cRead
 682 0456 0300     		movs	r3, r0
 683 0458 2370     		strb	r3, [r4]
 136:bmp180.c      ****     tS32 readTemp = ((registerContents[0] << 8) | (registerContents[1]));
 684              		.loc 1 136 0
 685 045a 2421     		movs	r1, #36
 686 045c 7B18     		adds	r3, r7, r1
 687 045e 1B78     		ldrb	r3, [r3]
 688 0460 1B02     		lsls	r3, r3, #8
 689 0462 7A18     		adds	r2, r7, r1
 690 0464 5278     		ldrb	r2, [r2, #1]
 691 0466 1343     		orrs	r3, r2
 692 0468 BB63     		str	r3, [r7, #56]
 137:bmp180.c      **** 
 138:bmp180.c      ****     // Command for getting pressure value with oversampling setting equal to 1.
 139:bmp180.c      ****     commandArr[0] = registerAddress;
 693              		.loc 1 139 0
 694 046a 3B1D     		adds	r3, r7, #4
 695 046c 3F24     		movs	r4, #63
 696 046e 3A19     		adds	r2, r7, r4
 697 0470 1278     		ldrb	r2, [r2]
 698 0472 1A70     		strb	r2, [r3]
 140:bmp180.c      ****     commandArr[1] = controlRegisterPressureValue;
 699              		.loc 1 140 0
 700 0474 3B1D     		adds	r3, r7, #4
 701 0476 4024     		movs	r4, #64
 702 0478 3A19     		adds	r2, r7, r4
 703 047a 1278     		ldrb	r2, [r2]
 704 047c 5A70     		strb	r2, [r3, #1]
 141:bmp180.c      **** 
 142:bmp180.c      ****     // I2C write to BMP180 for reading temperature value.
 143:bmp180.c      ****     retCode = i2cWrite(bmpWriteAddress, commandArr, 2);
 705              		.loc 1 143 0
 706 047e 4523     		movs	r3, #69
 707 0480 FC18     		adds	r4, r7, r3
 708 0482 391D     		adds	r1, r7, #4
 709 0484 4322     		movs	r2, #67
 710 0486 BB18     		adds	r3, r7, r2
ARM GAS  C:\Users\embedded\AppData\Local\Temp\ccOJJvYT.s 			page 16


 711 0488 1B78     		ldrb	r3, [r3]
 712 048a 0222     		movs	r2, #2
 713 048c 1800     		movs	r0, r3
 714 048e FFF7FEFF 		bl	i2cWrite
 715 0492 0300     		movs	r3, r0
 716 0494 2370     		strb	r3, [r4]
 144:bmp180.c      ****     // Waiting for 26 ms to read pressure ; Minimum waiting time = 25.5 ms
 145:bmp180.c      ****     mdelay(26);
 717              		.loc 1 145 0
 718 0496 1A20     		movs	r0, #26
 719 0498 FFF7FEFF 		bl	mdelay
 146:bmp180.c      ****     // I2C read to retrieve presssure value from slave.
 147:bmp180.c      ****     retCode = i2cWrite(bmpWriteAddress, resultLocationAddress, 1);
 720              		.loc 1 147 0
 721 049c 4523     		movs	r3, #69
 722 049e FC18     		adds	r4, r7, r3
 723 04a0 0820     		movs	r0, #8
 724 04a2 3918     		adds	r1, r7, r0
 725 04a4 4322     		movs	r2, #67
 726 04a6 BB18     		adds	r3, r7, r2
 727 04a8 1B78     		ldrb	r3, [r3]
 728 04aa 0122     		movs	r2, #1
 729 04ac 1800     		movs	r0, r3
 730 04ae FFF7FEFF 		bl	i2cWrite
 731 04b2 0300     		movs	r3, r0
 732 04b4 2370     		strb	r3, [r4]
 148:bmp180.c      ****     retCode = i2cRead(bmpReadAddress, registerContents, 3);
 733              		.loc 1 148 0
 734 04b6 4523     		movs	r3, #69
 735 04b8 FC18     		adds	r4, r7, r3
 736 04ba 2421     		movs	r1, #36
 737 04bc 7918     		adds	r1, r7, r1
 738 04be 4422     		movs	r2, #68
 739 04c0 BB18     		adds	r3, r7, r2
 740 04c2 1B78     		ldrb	r3, [r3]
 741 04c4 0322     		movs	r2, #3
 742 04c6 1800     		movs	r0, r3
 743 04c8 FFF7FEFF 		bl	i2cRead
 744 04cc 0300     		movs	r3, r0
 745 04ce 2370     		strb	r3, [r4]
 149:bmp180.c      **** 
 150:bmp180.c      ****     tU64 readPress = ((registerContents[0] << 16) | (registerContents[1] << 8) | (registerContents[
 746              		.loc 1 150 0
 747 04d0 2421     		movs	r1, #36
 748 04d2 7B18     		adds	r3, r7, r1
 749 04d4 1B78     		ldrb	r3, [r3]
 750 04d6 1A04     		lsls	r2, r3, #16
 751 04d8 7B18     		adds	r3, r7, r1
 752 04da 5B78     		ldrb	r3, [r3, #1]
 753 04dc 1B02     		lsls	r3, r3, #8
 754 04de 1343     		orrs	r3, r2
 755 04e0 7A18     		adds	r2, r7, r1
 756 04e2 9278     		ldrb	r2, [r2, #2]
 757 04e4 1343     		orrs	r3, r2
 758 04e6 3B63     		str	r3, [r7, #48]
 759 04e8 DB17     		asrs	r3, r3, #31
 760 04ea 7B63     		str	r3, [r7, #52]
ARM GAS  C:\Users\embedded\AppData\Local\Temp\ccOJJvYT.s 			page 17


 151:bmp180.c      ****     readPress = (readPress >> ((tU64)8 - (tU64)pressureOss));
 761              		.loc 1 151 0
 762 04ec 4220     		movs	r0, #66
 763 04ee 3B18     		adds	r3, r7, r0
 764 04f0 1B78     		ldrb	r3, [r3]
 765 04f2 0822     		movs	r2, #8
 766 04f4 D31A     		subs	r3, r2, r3
 767 04f6 1A00     		movs	r2, r3
 768 04f8 203A     		subs	r2, r2, #32
 769 04fa 002A     		cmp	r2, #0
 770 04fc 04DB     		blt	.L10
 771 04fe 796B     		ldr	r1, [r7, #52]
 772 0500 D140     		lsrs	r1, r1, r2
 773 0502 0A00     		movs	r2, r1
 774 0504 3A63     		str	r2, [r7, #48]
 775 0506 08E0     		b	.L11
 776              	.L10:
 777 0508 2022     		movs	r2, #32
 778 050a D21A     		subs	r2, r2, r3
 779 050c 796B     		ldr	r1, [r7, #52]
 780 050e 9140     		lsls	r1, r1, r2
 781 0510 0A00     		movs	r2, r1
 782 0512 396B     		ldr	r1, [r7, #48]
 783 0514 D940     		lsrs	r1, r1, r3
 784 0516 0A43     		orrs	r2, r1
 785 0518 3A63     		str	r2, [r7, #48]
 786              	.L11:
 787 051a 7A6B     		ldr	r2, [r7, #52]
 788 051c DA40     		lsrs	r2, r2, r3
 789 051e 1300     		movs	r3, r2
 790 0520 7B63     		str	r3, [r7, #52]
 152:bmp180.c      **** 
 153:bmp180.c      ****     tS64 calculatedPressure = calculatePressure(readPress, readTemp, calibrationArray, pressureOss)
 791              		.loc 1 153 0
 792 0522 386B     		ldr	r0, [r7, #48]
 793 0524 796B     		ldr	r1, [r7, #52]
 794 0526 BB6B     		ldr	r3, [r7, #56]
 795 0528 1D00     		movs	r5, r3
 796 052a DB17     		asrs	r3, r3, #31
 797 052c 1E00     		movs	r6, r3
 798 052e 4223     		movs	r3, #66
 799 0530 FB18     		adds	r3, r7, r3
 800 0532 1B78     		ldrb	r3, [r3]
 801 0534 0193     		str	r3, [sp, #4]
 802 0536 0C23     		movs	r3, #12
 803 0538 FB18     		adds	r3, r7, r3
 804 053a 0093     		str	r3, [sp]
 805 053c 2A00     		movs	r2, r5
 806 053e 3300     		movs	r3, r6
 807 0540 FFF7FEFF 		bl	calculatePressure
 808 0544 0300     		movs	r3, r0
 809 0546 0C00     		movs	r4, r1
 810 0548 BB62     		str	r3, [r7, #40]
 811 054a FC62     		str	r4, [r7, #44]
 154:bmp180.c      **** 
 155:bmp180.c      ****     return calculatedPressure;
 812              		.loc 1 155 0
ARM GAS  C:\Users\embedded\AppData\Local\Temp\ccOJJvYT.s 			page 18


 813 054c BB6A     		ldr	r3, [r7, #40]
 814 054e FC6A     		ldr	r4, [r7, #44]
 156:bmp180.c      **** }
 815              		.loc 1 156 0
 816 0550 1800     		movs	r0, r3
 817 0552 2100     		movs	r1, r4
 818 0554 BD46     		mov	sp, r7
 819 0556 13B0     		add	sp, sp, #76
 820              		@ sp needed
 821 0558 F0BC     		pop	{r4, r5, r6, r7}
 822 055a 04BC     		pop	{r2}
 823 055c 1047     		bx	r2
 824              		.cfi_endproc
 825              	.LFE1:
 826              		.size	measurePressure, .-measurePressure
 827              	.Letext0:
 828              		.file 2 "general.h"
 829 055e C046     		.section	.debug_info,"",%progbits
 830              	.Ldebug_info0:
 831 0000 6E030000 		.4byte	0x36e
 832 0004 0200     		.2byte	0x2
 833 0006 00000000 		.4byte	.Ldebug_abbrev0
 834 000a 04       		.byte	0x4
 835 000b 01       		.uleb128 0x1
 836 000c 4B000000 		.4byte	.LASF31
 837 0010 0C       		.byte	0xc
 838 0011 88010000 		.4byte	.LASF32
 839 0015 6A010000 		.4byte	.LASF33
 840 0019 00000000 		.4byte	.Ltext0
 841 001d 5E050000 		.4byte	.Letext0
 842 0021 00000000 		.4byte	.Ldebug_line0
 843 0025 02       		.uleb128 0x2
 844 0026 74553800 		.ascii	"tU8\000"
 845 002a 02       		.byte	0x2
 846 002b 17       		.byte	0x17
 847 002c 30000000 		.4byte	0x30
 848 0030 03       		.uleb128 0x3
 849 0031 01       		.byte	0x1
 850 0032 08       		.byte	0x8
 851 0033 1B010000 		.4byte	.LASF1
 852 0037 04       		.uleb128 0x4
 853 0038 DE010000 		.4byte	.LASF0
 854 003c 02       		.byte	0x2
 855 003d 18       		.byte	0x18
 856 003e 42000000 		.4byte	0x42
 857 0042 03       		.uleb128 0x3
 858 0043 02       		.byte	0x2
 859 0044 07       		.byte	0x7
 860 0045 2E010000 		.4byte	.LASF2
 861 0049 04       		.uleb128 0x4
 862 004a F1010000 		.4byte	.LASF3
 863 004e 02       		.byte	0x2
 864 004f 19       		.byte	0x19
 865 0050 54000000 		.4byte	0x54
 866 0054 03       		.uleb128 0x3
 867 0055 04       		.byte	0x4
 868 0056 07       		.byte	0x7
ARM GAS  C:\Users\embedded\AppData\Local\Temp\ccOJJvYT.s 			page 19


 869 0057 A1010000 		.4byte	.LASF4
 870 005b 04       		.uleb128 0x4
 871 005c 29010000 		.4byte	.LASF5
 872 0060 02       		.byte	0x2
 873 0061 1A       		.byte	0x1a
 874 0062 66000000 		.4byte	0x66
 875 0066 03       		.uleb128 0x3
 876 0067 08       		.byte	0x8
 877 0068 07       		.byte	0x7
 878 0069 AE010000 		.4byte	.LASF6
 879 006d 02       		.uleb128 0x2
 880 006e 74533800 		.ascii	"tS8\000"
 881 0072 02       		.byte	0x2
 882 0073 1B       		.byte	0x1b
 883 0074 78000000 		.4byte	0x78
 884 0078 03       		.uleb128 0x3
 885 0079 01       		.byte	0x1
 886 007a 06       		.byte	0x6
 887 007b 35020000 		.4byte	.LASF7
 888 007f 04       		.uleb128 0x4
 889 0080 0F000000 		.4byte	.LASF8
 890 0084 02       		.byte	0x2
 891 0085 1C       		.byte	0x1c
 892 0086 8A000000 		.4byte	0x8a
 893 008a 03       		.uleb128 0x3
 894 008b 02       		.byte	0x2
 895 008c 05       		.byte	0x5
 896 008d 07020000 		.4byte	.LASF9
 897 0091 04       		.uleb128 0x4
 898 0092 14000000 		.4byte	.LASF10
 899 0096 02       		.byte	0x2
 900 0097 1D       		.byte	0x1d
 901 0098 9C000000 		.4byte	0x9c
 902 009c 05       		.uleb128 0x5
 903 009d 04       		.byte	0x4
 904 009e 05       		.byte	0x5
 905 009f 696E7400 		.ascii	"int\000"
 906 00a3 04       		.uleb128 0x4
 907 00a4 D1010000 		.4byte	.LASF11
 908 00a8 02       		.byte	0x2
 909 00a9 1E       		.byte	0x1e
 910 00aa AE000000 		.4byte	0xae
 911 00ae 03       		.uleb128 0x3
 912 00af 08       		.byte	0x8
 913 00b0 05       		.byte	0x5
 914 00b1 E3010000 		.4byte	.LASF12
 915 00b5 06       		.uleb128 0x6
 916 00b6 01       		.byte	0x1
 917 00b7 11020000 		.4byte	.LASF29
 918 00bb 01       		.byte	0x1
 919 00bc 4C       		.byte	0x4c
 920 00bd 01       		.byte	0x1
 921 00be A3000000 		.4byte	0xa3
 922 00c2 F0020000 		.4byte	.LFB1
 923 00c6 5E050000 		.4byte	.LFE1
 924 00ca 00000000 		.4byte	.LLST1
 925 00ce 01       		.byte	0x1
ARM GAS  C:\Users\embedded\AppData\Local\Temp\ccOJJvYT.s 			page 20


 926 00cf B7010000 		.4byte	0x1b7
 927 00d3 07       		.uleb128 0x7
 928 00d4 D6010000 		.4byte	.LASF13
 929 00d8 01       		.byte	0x1
 930 00d9 4F       		.byte	0x4f
 931 00da 6D000000 		.4byte	0x6d
 932 00de 02       		.byte	0x2
 933 00df 91       		.byte	0x91
 934 00e0 65       		.sleb128 -27
 935 00e1 07       		.uleb128 0x7
 936 00e2 00000000 		.4byte	.LASF14
 937 00e6 01       		.byte	0x1
 938 00e7 51       		.byte	0x51
 939 00e8 25000000 		.4byte	0x25
 940 00ec 02       		.byte	0x2
 941 00ed 91       		.byte	0x91
 942 00ee 64       		.sleb128 -28
 943 00ef 07       		.uleb128 0x7
 944 00f0 91010000 		.4byte	.LASF15
 945 00f4 01       		.byte	0x1
 946 00f5 53       		.byte	0x53
 947 00f6 25000000 		.4byte	0x25
 948 00fa 02       		.byte	0x2
 949 00fb 91       		.byte	0x91
 950 00fc 63       		.sleb128 -29
 951 00fd 07       		.uleb128 0x7
 952 00fe F6010000 		.4byte	.LASF16
 953 0102 01       		.byte	0x1
 954 0103 55       		.byte	0x55
 955 0104 B7010000 		.4byte	0x1b7
 956 0108 02       		.byte	0x2
 957 0109 91       		.byte	0x91
 958 010a 44       		.sleb128 -60
 959 010b 07       		.uleb128 0x7
 960 010c 41020000 		.4byte	.LASF17
 961 0110 01       		.byte	0x1
 962 0111 58       		.byte	0x58
 963 0112 C7010000 		.4byte	0x1c7
 964 0116 03       		.byte	0x3
 965 0117 91       		.byte	0x91
 966 0118 AC7F     		.sleb128 -84
 967 011a 07       		.uleb128 0x7
 968 011b 19000000 		.4byte	.LASF18
 969 011f 01       		.byte	0x1
 970 0120 5B       		.byte	0x5b
 971 0121 25000000 		.4byte	0x25
 972 0125 02       		.byte	0x2
 973 0126 91       		.byte	0x91
 974 0127 67       		.sleb128 -25
 975 0128 07       		.uleb128 0x7
 976 0129 21020000 		.4byte	.LASF19
 977 012d 01       		.byte	0x1
 978 012e 5E       		.byte	0x5e
 979 012f 25000000 		.4byte	0x25
 980 0133 02       		.byte	0x2
 981 0134 91       		.byte	0x91
 982 0135 66       		.sleb128 -26
ARM GAS  C:\Users\embedded\AppData\Local\Temp\ccOJJvYT.s 			page 21


 983 0136 07       		.uleb128 0x7
 984 0137 54010000 		.4byte	.LASF20
 985 013b 01       		.byte	0x1
 986 013c 6C       		.byte	0x6c
 987 013d D7010000 		.4byte	0x1d7
 988 0141 03       		.byte	0x3
 989 0142 91       		.byte	0x91
 990 0143 A87F     		.sleb128 -88
 991 0145 07       		.uleb128 0x7
 992 0146 C5010000 		.4byte	.LASF21
 993 014a 01       		.byte	0x1
 994 014b 70       		.byte	0x70
 995 014c 25000000 		.4byte	0x25
 996 0150 02       		.byte	0x2
 997 0151 91       		.byte	0x91
 998 0152 62       		.sleb128 -30
 999 0153 07       		.uleb128 0x7
 1000 0154 D4000000 		.4byte	.LASF22
 1001 0158 01       		.byte	0x1
 1002 0159 73       		.byte	0x73
 1003 015a 25000000 		.4byte	0x25
 1004 015e 02       		.byte	0x2
 1005 015f 91       		.byte	0x91
 1006 0160 61       		.sleb128 -31
 1007 0161 07       		.uleb128 0x7
 1008 0162 F4000000 		.4byte	.LASF23
 1009 0166 01       		.byte	0x1
 1010 0167 76       		.byte	0x76
 1011 0168 25000000 		.4byte	0x25
 1012 016c 02       		.byte	0x2
 1013 016d 91       		.byte	0x91
 1014 016e 60       		.sleb128 -32
 1015 016f 07       		.uleb128 0x7
 1016 0170 29000000 		.4byte	.LASF24
 1017 0174 01       		.byte	0x1
 1018 0175 79       		.byte	0x79
 1019 0176 25000000 		.4byte	0x25
 1020 017a 02       		.byte	0x2
 1021 017b 91       		.byte	0x91
 1022 017c 5F       		.sleb128 -33
 1023 017d 07       		.uleb128 0x7
 1024 017e 2A020000 		.4byte	.LASF25
 1025 0182 01       		.byte	0x1
 1026 0183 7B       		.byte	0x7b
 1027 0184 E7010000 		.4byte	0x1e7
 1028 0188 03       		.byte	0x3
 1029 0189 91       		.byte	0x91
 1030 018a A47F     		.sleb128 -92
 1031 018c 07       		.uleb128 0x7
 1032 018d CB000000 		.4byte	.LASF26
 1033 0191 01       		.byte	0x1
 1034 0192 88       		.byte	0x88
 1035 0193 91000000 		.4byte	0x91
 1036 0197 02       		.byte	0x2
 1037 0198 91       		.byte	0x91
 1038 0199 58       		.sleb128 -40
 1039 019a 07       		.uleb128 0x7
ARM GAS  C:\Users\embedded\AppData\Local\Temp\ccOJJvYT.s 			page 22


 1040 019b 11010000 		.4byte	.LASF27
 1041 019f 01       		.byte	0x1
 1042 01a0 96       		.byte	0x96
 1043 01a1 5B000000 		.4byte	0x5b
 1044 01a5 02       		.byte	0x2
 1045 01a6 91       		.byte	0x91
 1046 01a7 50       		.sleb128 -48
 1047 01a8 07       		.uleb128 0x7
 1048 01a9 41010000 		.4byte	.LASF28
 1049 01ad 01       		.byte	0x1
 1050 01ae 99       		.byte	0x99
 1051 01af A3000000 		.4byte	0xa3
 1052 01b3 02       		.byte	0x2
 1053 01b4 91       		.byte	0x91
 1054 01b5 48       		.sleb128 -56
 1055 01b6 00       		.byte	0
 1056 01b7 08       		.uleb128 0x8
 1057 01b8 25000000 		.4byte	0x25
 1058 01bc C7010000 		.4byte	0x1c7
 1059 01c0 09       		.uleb128 0x9
 1060 01c1 54000000 		.4byte	0x54
 1061 01c5 02       		.byte	0x2
 1062 01c6 00       		.byte	0
 1063 01c7 08       		.uleb128 0x8
 1064 01c8 7F000000 		.4byte	0x7f
 1065 01cc D7010000 		.4byte	0x1d7
 1066 01d0 09       		.uleb128 0x9
 1067 01d1 54000000 		.4byte	0x54
 1068 01d5 0A       		.byte	0xa
 1069 01d6 00       		.byte	0
 1070 01d7 08       		.uleb128 0x8
 1071 01d8 25000000 		.4byte	0x25
 1072 01dc E7010000 		.4byte	0x1e7
 1073 01e0 09       		.uleb128 0x9
 1074 01e1 54000000 		.4byte	0x54
 1075 01e5 00       		.byte	0
 1076 01e6 00       		.byte	0
 1077 01e7 08       		.uleb128 0x8
 1078 01e8 25000000 		.4byte	0x25
 1079 01ec F7010000 		.4byte	0x1f7
 1080 01f0 09       		.uleb128 0x9
 1081 01f1 54000000 		.4byte	0x54
 1082 01f5 01       		.byte	0x1
 1083 01f6 00       		.byte	0
 1084 01f7 06       		.uleb128 0x6
 1085 01f8 01       		.byte	0x1
 1086 01f9 39000000 		.4byte	.LASF30
 1087 01fd 01       		.byte	0x1
 1088 01fe 08       		.byte	0x8
 1089 01ff 01       		.byte	0x1
 1090 0200 A3000000 		.4byte	0xa3
 1091 0204 00000000 		.4byte	.LFB0
 1092 0208 F0020000 		.4byte	.LFE0
 1093 020c 3A000000 		.4byte	.LLST0
 1094 0210 01       		.byte	0x1
 1095 0211 6B030000 		.4byte	0x36b
 1096 0215 0A       		.uleb128 0xa
ARM GAS  C:\Users\embedded\AppData\Local\Temp\ccOJJvYT.s 			page 23


 1097 0216 11010000 		.4byte	.LASF27
 1098 021a 01       		.byte	0x1
 1099 021b 08       		.byte	0x8
 1100 021c A3000000 		.4byte	0xa3
 1101 0220 03       		.byte	0x3
 1102 0221 91       		.byte	0x91
 1103 0222 A07F     		.sleb128 -96
 1104 0224 0A       		.uleb128 0xa
 1105 0225 CB000000 		.4byte	.LASF26
 1106 0229 01       		.byte	0x1
 1107 022a 08       		.byte	0x8
 1108 022b A3000000 		.4byte	0xa3
 1109 022f 03       		.byte	0x3
 1110 0230 91       		.byte	0x91
 1111 0231 987F     		.sleb128 -104
 1112 0233 0A       		.uleb128 0xa
 1113 0234 41020000 		.4byte	.LASF17
 1114 0238 01       		.byte	0x1
 1115 0239 08       		.byte	0x8
 1116 023a 6B030000 		.4byte	0x36b
 1117 023e 02       		.byte	0x2
 1118 023f 91       		.byte	0x91
 1119 0240 00       		.sleb128 0
 1120 0241 0A       		.uleb128 0xa
 1121 0242 C5010000 		.4byte	.LASF21
 1122 0246 01       		.byte	0x1
 1123 0247 08       		.byte	0x8
 1124 0248 25000000 		.4byte	0x25
 1125 024c 02       		.byte	0x2
 1126 024d 91       		.byte	0x91
 1127 024e 04       		.sleb128 4
 1128 024f 0B       		.uleb128 0xb
 1129 0250 41433100 		.ascii	"AC1\000"
 1130 0254 01       		.byte	0x1
 1131 0255 0B       		.byte	0xb
 1132 0256 7F000000 		.4byte	0x7f
 1133 025a 02       		.byte	0x2
 1134 025b 91       		.byte	0x91
 1135 025c 62       		.sleb128 -30
 1136 025d 0B       		.uleb128 0xb
 1137 025e 41433200 		.ascii	"AC2\000"
 1138 0262 01       		.byte	0x1
 1139 0263 0C       		.byte	0xc
 1140 0264 7F000000 		.4byte	0x7f
 1141 0268 02       		.byte	0x2
 1142 0269 91       		.byte	0x91
 1143 026a 60       		.sleb128 -32
 1144 026b 0B       		.uleb128 0xb
 1145 026c 41433300 		.ascii	"AC3\000"
 1146 0270 01       		.byte	0x1
 1147 0271 0D       		.byte	0xd
 1148 0272 7F000000 		.4byte	0x7f
 1149 0276 02       		.byte	0x2
 1150 0277 91       		.byte	0x91
 1151 0278 5E       		.sleb128 -34
 1152 0279 0B       		.uleb128 0xb
 1153 027a 423100   		.ascii	"B1\000"
ARM GAS  C:\Users\embedded\AppData\Local\Temp\ccOJJvYT.s 			page 24


 1154 027d 01       		.byte	0x1
 1155 027e 0E       		.byte	0xe
 1156 027f 7F000000 		.4byte	0x7f
 1157 0283 02       		.byte	0x2
 1158 0284 91       		.byte	0x91
 1159 0285 56       		.sleb128 -42
 1160 0286 0B       		.uleb128 0xb
 1161 0287 423200   		.ascii	"B2\000"
 1162 028a 01       		.byte	0x1
 1163 028b 0F       		.byte	0xf
 1164 028c 7F000000 		.4byte	0x7f
 1165 0290 02       		.byte	0x2
 1166 0291 91       		.byte	0x91
 1167 0292 54       		.sleb128 -44
 1168 0293 0B       		.uleb128 0xb
 1169 0294 4D4200   		.ascii	"MB\000"
 1170 0297 01       		.byte	0x1
 1171 0298 10       		.byte	0x10
 1172 0299 7F000000 		.4byte	0x7f
 1173 029d 02       		.byte	0x2
 1174 029e 91       		.byte	0x91
 1175 029f 52       		.sleb128 -46
 1176 02a0 0B       		.uleb128 0xb
 1177 02a1 4D4300   		.ascii	"MC\000"
 1178 02a4 01       		.byte	0x1
 1179 02a5 11       		.byte	0x11
 1180 02a6 7F000000 		.4byte	0x7f
 1181 02aa 02       		.byte	0x2
 1182 02ab 91       		.byte	0x91
 1183 02ac 50       		.sleb128 -48
 1184 02ad 0B       		.uleb128 0xb
 1185 02ae 4D4400   		.ascii	"MD\000"
 1186 02b1 01       		.byte	0x1
 1187 02b2 12       		.byte	0x12
 1188 02b3 7F000000 		.4byte	0x7f
 1189 02b7 02       		.byte	0x2
 1190 02b8 91       		.byte	0x91
 1191 02b9 4E       		.sleb128 -50
 1192 02ba 0B       		.uleb128 0xb
 1193 02bb 41433400 		.ascii	"AC4\000"
 1194 02bf 01       		.byte	0x1
 1195 02c0 13       		.byte	0x13
 1196 02c1 37000000 		.4byte	0x37
 1197 02c5 02       		.byte	0x2
 1198 02c6 91       		.byte	0x91
 1199 02c7 5C       		.sleb128 -36
 1200 02c8 0B       		.uleb128 0xb
 1201 02c9 41433500 		.ascii	"AC5\000"
 1202 02cd 01       		.byte	0x1
 1203 02ce 14       		.byte	0x14
 1204 02cf 37000000 		.4byte	0x37
 1205 02d3 02       		.byte	0x2
 1206 02d4 91       		.byte	0x91
 1207 02d5 5A       		.sleb128 -38
 1208 02d6 0B       		.uleb128 0xb
 1209 02d7 41433600 		.ascii	"AC6\000"
 1210 02db 01       		.byte	0x1
ARM GAS  C:\Users\embedded\AppData\Local\Temp\ccOJJvYT.s 			page 25


 1211 02dc 15       		.byte	0x15
 1212 02dd 37000000 		.4byte	0x37
 1213 02e1 02       		.byte	0x2
 1214 02e2 91       		.byte	0x91
 1215 02e3 58       		.sleb128 -40
 1216 02e4 0B       		.uleb128 0xb
 1217 02e5 583100   		.ascii	"X1\000"
 1218 02e8 01       		.byte	0x1
 1219 02e9 27       		.byte	0x27
 1220 02ea 91000000 		.4byte	0x91
 1221 02ee 02       		.byte	0x2
 1222 02ef 91       		.byte	0x91
 1223 02f0 48       		.sleb128 -56
 1224 02f1 0B       		.uleb128 0xb
 1225 02f2 583200   		.ascii	"X2\000"
 1226 02f5 01       		.byte	0x1
 1227 02f6 28       		.byte	0x28
 1228 02f7 91000000 		.4byte	0x91
 1229 02fb 02       		.byte	0x2
 1230 02fc 91       		.byte	0x91
 1231 02fd 44       		.sleb128 -60
 1232 02fe 0B       		.uleb128 0xb
 1233 02ff 423500   		.ascii	"B5\000"
 1234 0302 01       		.byte	0x1
 1235 0303 29       		.byte	0x29
 1236 0304 91000000 		.4byte	0x91
 1237 0308 02       		.byte	0x2
 1238 0309 91       		.byte	0x91
 1239 030a 40       		.sleb128 -64
 1240 030b 0B       		.uleb128 0xb
 1241 030c 5400     		.ascii	"T\000"
 1242 030e 01       		.byte	0x1
 1243 030f 2A       		.byte	0x2a
 1244 0310 91000000 		.4byte	0x91
 1245 0314 03       		.byte	0x3
 1246 0315 91       		.byte	0x91
 1247 0316 BC7F     		.sleb128 -68
 1248 0318 0B       		.uleb128 0xb
 1249 0319 423600   		.ascii	"B6\000"
 1250 031c 01       		.byte	0x1
 1251 031d 2E       		.byte	0x2e
 1252 031e 91000000 		.4byte	0x91
 1253 0322 03       		.byte	0x3
 1254 0323 91       		.byte	0x91
 1255 0324 B87F     		.sleb128 -72
 1256 0326 0B       		.uleb128 0xb
 1257 0327 583300   		.ascii	"X3\000"
 1258 032a 01       		.byte	0x1
 1259 032b 31       		.byte	0x31
 1260 032c 91000000 		.4byte	0x91
 1261 0330 03       		.byte	0x3
 1262 0331 91       		.byte	0x91
 1263 0332 B47F     		.sleb128 -76
 1264 0334 0B       		.uleb128 0xb
 1265 0335 423300   		.ascii	"B3\000"
 1266 0338 01       		.byte	0x1
 1267 0339 33       		.byte	0x33
ARM GAS  C:\Users\embedded\AppData\Local\Temp\ccOJJvYT.s 			page 26


 1268 033a 91000000 		.4byte	0x91
 1269 033e 03       		.byte	0x3
 1270 033f 91       		.byte	0x91
 1271 0340 B07F     		.sleb128 -80
 1272 0342 0B       		.uleb128 0xb
 1273 0343 423400   		.ascii	"B4\000"
 1274 0346 01       		.byte	0x1
 1275 0347 37       		.byte	0x37
 1276 0348 49000000 		.4byte	0x49
 1277 034c 03       		.byte	0x3
 1278 034d 91       		.byte	0x91
 1279 034e AC7F     		.sleb128 -84
 1280 0350 0B       		.uleb128 0xb
 1281 0351 423700   		.ascii	"B7\000"
 1282 0354 01       		.byte	0x1
 1283 0355 38       		.byte	0x38
 1284 0356 49000000 		.4byte	0x49
 1285 035a 03       		.byte	0x3
 1286 035b 91       		.byte	0x91
 1287 035c A87F     		.sleb128 -88
 1288 035e 0B       		.uleb128 0xb
 1289 035f 7000     		.ascii	"p\000"
 1290 0361 01       		.byte	0x1
 1291 0362 39       		.byte	0x39
 1292 0363 91000000 		.4byte	0x91
 1293 0367 02       		.byte	0x2
 1294 0368 91       		.byte	0x91
 1295 0369 64       		.sleb128 -28
 1296 036a 00       		.byte	0
 1297 036b 0C       		.uleb128 0xc
 1298 036c 04       		.byte	0x4
 1299 036d 7F000000 		.4byte	0x7f
 1300 0371 00       		.byte	0
 1301              		.section	.debug_abbrev,"",%progbits
 1302              	.Ldebug_abbrev0:
 1303 0000 01       		.uleb128 0x1
 1304 0001 11       		.uleb128 0x11
 1305 0002 01       		.byte	0x1
 1306 0003 25       		.uleb128 0x25
 1307 0004 0E       		.uleb128 0xe
 1308 0005 13       		.uleb128 0x13
 1309 0006 0B       		.uleb128 0xb
 1310 0007 03       		.uleb128 0x3
 1311 0008 0E       		.uleb128 0xe
 1312 0009 1B       		.uleb128 0x1b
 1313 000a 0E       		.uleb128 0xe
 1314 000b 11       		.uleb128 0x11
 1315 000c 01       		.uleb128 0x1
 1316 000d 12       		.uleb128 0x12
 1317 000e 01       		.uleb128 0x1
 1318 000f 10       		.uleb128 0x10
 1319 0010 06       		.uleb128 0x6
 1320 0011 00       		.byte	0
 1321 0012 00       		.byte	0
 1322 0013 02       		.uleb128 0x2
 1323 0014 16       		.uleb128 0x16
 1324 0015 00       		.byte	0
ARM GAS  C:\Users\embedded\AppData\Local\Temp\ccOJJvYT.s 			page 27


 1325 0016 03       		.uleb128 0x3
 1326 0017 08       		.uleb128 0x8
 1327 0018 3A       		.uleb128 0x3a
 1328 0019 0B       		.uleb128 0xb
 1329 001a 3B       		.uleb128 0x3b
 1330 001b 0B       		.uleb128 0xb
 1331 001c 49       		.uleb128 0x49
 1332 001d 13       		.uleb128 0x13
 1333 001e 00       		.byte	0
 1334 001f 00       		.byte	0
 1335 0020 03       		.uleb128 0x3
 1336 0021 24       		.uleb128 0x24
 1337 0022 00       		.byte	0
 1338 0023 0B       		.uleb128 0xb
 1339 0024 0B       		.uleb128 0xb
 1340 0025 3E       		.uleb128 0x3e
 1341 0026 0B       		.uleb128 0xb
 1342 0027 03       		.uleb128 0x3
 1343 0028 0E       		.uleb128 0xe
 1344 0029 00       		.byte	0
 1345 002a 00       		.byte	0
 1346 002b 04       		.uleb128 0x4
 1347 002c 16       		.uleb128 0x16
 1348 002d 00       		.byte	0
 1349 002e 03       		.uleb128 0x3
 1350 002f 0E       		.uleb128 0xe
 1351 0030 3A       		.uleb128 0x3a
 1352 0031 0B       		.uleb128 0xb
 1353 0032 3B       		.uleb128 0x3b
 1354 0033 0B       		.uleb128 0xb
 1355 0034 49       		.uleb128 0x49
 1356 0035 13       		.uleb128 0x13
 1357 0036 00       		.byte	0
 1358 0037 00       		.byte	0
 1359 0038 05       		.uleb128 0x5
 1360 0039 24       		.uleb128 0x24
 1361 003a 00       		.byte	0
 1362 003b 0B       		.uleb128 0xb
 1363 003c 0B       		.uleb128 0xb
 1364 003d 3E       		.uleb128 0x3e
 1365 003e 0B       		.uleb128 0xb
 1366 003f 03       		.uleb128 0x3
 1367 0040 08       		.uleb128 0x8
 1368 0041 00       		.byte	0
 1369 0042 00       		.byte	0
 1370 0043 06       		.uleb128 0x6
 1371 0044 2E       		.uleb128 0x2e
 1372 0045 01       		.byte	0x1
 1373 0046 3F       		.uleb128 0x3f
 1374 0047 0C       		.uleb128 0xc
 1375 0048 03       		.uleb128 0x3
 1376 0049 0E       		.uleb128 0xe
 1377 004a 3A       		.uleb128 0x3a
 1378 004b 0B       		.uleb128 0xb
 1379 004c 3B       		.uleb128 0x3b
 1380 004d 0B       		.uleb128 0xb
 1381 004e 27       		.uleb128 0x27
ARM GAS  C:\Users\embedded\AppData\Local\Temp\ccOJJvYT.s 			page 28


 1382 004f 0C       		.uleb128 0xc
 1383 0050 49       		.uleb128 0x49
 1384 0051 13       		.uleb128 0x13
 1385 0052 11       		.uleb128 0x11
 1386 0053 01       		.uleb128 0x1
 1387 0054 12       		.uleb128 0x12
 1388 0055 01       		.uleb128 0x1
 1389 0056 40       		.uleb128 0x40
 1390 0057 06       		.uleb128 0x6
 1391 0058 9642     		.uleb128 0x2116
 1392 005a 0C       		.uleb128 0xc
 1393 005b 01       		.uleb128 0x1
 1394 005c 13       		.uleb128 0x13
 1395 005d 00       		.byte	0
 1396 005e 00       		.byte	0
 1397 005f 07       		.uleb128 0x7
 1398 0060 34       		.uleb128 0x34
 1399 0061 00       		.byte	0
 1400 0062 03       		.uleb128 0x3
 1401 0063 0E       		.uleb128 0xe
 1402 0064 3A       		.uleb128 0x3a
 1403 0065 0B       		.uleb128 0xb
 1404 0066 3B       		.uleb128 0x3b
 1405 0067 0B       		.uleb128 0xb
 1406 0068 49       		.uleb128 0x49
 1407 0069 13       		.uleb128 0x13
 1408 006a 02       		.uleb128 0x2
 1409 006b 0A       		.uleb128 0xa
 1410 006c 00       		.byte	0
 1411 006d 00       		.byte	0
 1412 006e 08       		.uleb128 0x8
 1413 006f 01       		.uleb128 0x1
 1414 0070 01       		.byte	0x1
 1415 0071 49       		.uleb128 0x49
 1416 0072 13       		.uleb128 0x13
 1417 0073 01       		.uleb128 0x1
 1418 0074 13       		.uleb128 0x13
 1419 0075 00       		.byte	0
 1420 0076 00       		.byte	0
 1421 0077 09       		.uleb128 0x9
 1422 0078 21       		.uleb128 0x21
 1423 0079 00       		.byte	0
 1424 007a 49       		.uleb128 0x49
 1425 007b 13       		.uleb128 0x13
 1426 007c 2F       		.uleb128 0x2f
 1427 007d 0B       		.uleb128 0xb
 1428 007e 00       		.byte	0
 1429 007f 00       		.byte	0
 1430 0080 0A       		.uleb128 0xa
 1431 0081 05       		.uleb128 0x5
 1432 0082 00       		.byte	0
 1433 0083 03       		.uleb128 0x3
 1434 0084 0E       		.uleb128 0xe
 1435 0085 3A       		.uleb128 0x3a
 1436 0086 0B       		.uleb128 0xb
 1437 0087 3B       		.uleb128 0x3b
 1438 0088 0B       		.uleb128 0xb
ARM GAS  C:\Users\embedded\AppData\Local\Temp\ccOJJvYT.s 			page 29


 1439 0089 49       		.uleb128 0x49
 1440 008a 13       		.uleb128 0x13
 1441 008b 02       		.uleb128 0x2
 1442 008c 0A       		.uleb128 0xa
 1443 008d 00       		.byte	0
 1444 008e 00       		.byte	0
 1445 008f 0B       		.uleb128 0xb
 1446 0090 34       		.uleb128 0x34
 1447 0091 00       		.byte	0
 1448 0092 03       		.uleb128 0x3
 1449 0093 08       		.uleb128 0x8
 1450 0094 3A       		.uleb128 0x3a
 1451 0095 0B       		.uleb128 0xb
 1452 0096 3B       		.uleb128 0x3b
 1453 0097 0B       		.uleb128 0xb
 1454 0098 49       		.uleb128 0x49
 1455 0099 13       		.uleb128 0x13
 1456 009a 02       		.uleb128 0x2
 1457 009b 0A       		.uleb128 0xa
 1458 009c 00       		.byte	0
 1459 009d 00       		.byte	0
 1460 009e 0C       		.uleb128 0xc
 1461 009f 0F       		.uleb128 0xf
 1462 00a0 00       		.byte	0
 1463 00a1 0B       		.uleb128 0xb
 1464 00a2 0B       		.uleb128 0xb
 1465 00a3 49       		.uleb128 0x49
 1466 00a4 13       		.uleb128 0x13
 1467 00a5 00       		.byte	0
 1468 00a6 00       		.byte	0
 1469 00a7 00       		.byte	0
 1470              		.section	.debug_loc,"",%progbits
 1471              	.Ldebug_loc0:
 1472              	.LLST1:
 1473 0000 F0020000 		.4byte	.LFB1-.Ltext0
 1474 0004 F2020000 		.4byte	.LCFI3-.Ltext0
 1475 0008 0200     		.2byte	0x2
 1476 000a 7D       		.byte	0x7d
 1477 000b 00       		.sleb128 0
 1478 000c F2020000 		.4byte	.LCFI3-.Ltext0
 1479 0010 F4020000 		.4byte	.LCFI4-.Ltext0
 1480 0014 0200     		.2byte	0x2
 1481 0016 7D       		.byte	0x7d
 1482 0017 14       		.sleb128 20
 1483 0018 F4020000 		.4byte	.LCFI4-.Ltext0
 1484 001c F6020000 		.4byte	.LCFI5-.Ltext0
 1485 0020 0300     		.2byte	0x3
 1486 0022 7D       		.byte	0x7d
 1487 0023 E800     		.sleb128 104
 1488 0025 F6020000 		.4byte	.LCFI5-.Ltext0
 1489 0029 5E050000 		.4byte	.LFE1-.Ltext0
 1490 002d 0300     		.2byte	0x3
 1491 002f 77       		.byte	0x77
 1492 0030 E000     		.sleb128 96
 1493 0032 00000000 		.4byte	0
 1494 0036 00000000 		.4byte	0
 1495              	.LLST0:
ARM GAS  C:\Users\embedded\AppData\Local\Temp\ccOJJvYT.s 			page 30


 1496 003a 00000000 		.4byte	.LFB0-.Ltext0
 1497 003e 02000000 		.4byte	.LCFI0-.Ltext0
 1498 0042 0200     		.2byte	0x2
 1499 0044 7D       		.byte	0x7d
 1500 0045 00       		.sleb128 0
 1501 0046 02000000 		.4byte	.LCFI0-.Ltext0
 1502 004a 04000000 		.4byte	.LCFI1-.Ltext0
 1503 004e 0200     		.2byte	0x2
 1504 0050 7D       		.byte	0x7d
 1505 0051 14       		.sleb128 20
 1506 0052 04000000 		.4byte	.LCFI1-.Ltext0
 1507 0056 06000000 		.4byte	.LCFI2-.Ltext0
 1508 005a 0300     		.2byte	0x3
 1509 005c 7D       		.byte	0x7d
 1510 005d 8001     		.sleb128 128
 1511 005f 06000000 		.4byte	.LCFI2-.Ltext0
 1512 0063 F0020000 		.4byte	.LFE0-.Ltext0
 1513 0067 0300     		.2byte	0x3
 1514 0069 77       		.byte	0x77
 1515 006a 8001     		.sleb128 128
 1516 006c 00000000 		.4byte	0
 1517 0070 00000000 		.4byte	0
 1518              		.section	.debug_aranges,"",%progbits
 1519 0000 1C000000 		.4byte	0x1c
 1520 0004 0200     		.2byte	0x2
 1521 0006 00000000 		.4byte	.Ldebug_info0
 1522 000a 04       		.byte	0x4
 1523 000b 00       		.byte	0
 1524 000c 0000     		.2byte	0
 1525 000e 0000     		.2byte	0
 1526 0010 00000000 		.4byte	.Ltext0
 1527 0014 5E050000 		.4byte	.Letext0-.Ltext0
 1528 0018 00000000 		.4byte	0
 1529 001c 00000000 		.4byte	0
 1530              		.section	.debug_line,"",%progbits
 1531              	.Ldebug_line0:
 1532 0000 A8000000 		.section	.debug_str,"MS",%progbits,1
 1532      02002C00 
 1532      00000201 
 1532      FB0E0D00 
 1532      01010101 
 1533              	.LASF14:
 1534 0000 626D7052 		.ascii	"bmpReadAddress\000"
 1534      65616441 
 1534      64647265 
 1534      737300
 1535              	.LASF8:
 1536 000f 74533136 		.ascii	"tS16\000"
 1536      00
 1537              	.LASF10:
 1538 0014 74533332 		.ascii	"tS32\000"
 1538      00
 1539              	.LASF18:
 1540 0019 73746172 		.ascii	"staringRegister\000"
 1540      696E6752 
 1540      65676973 
 1540      74657200 
ARM GAS  C:\Users\embedded\AppData\Local\Temp\ccOJJvYT.s 			page 31


 1541              	.LASF24:
 1542 0029 72656769 		.ascii	"registerAddress\000"
 1542      73746572 
 1542      41646472 
 1542      65737300 
 1543              	.LASF30:
 1544 0039 63616C63 		.ascii	"calculatePressure\000"
 1544      756C6174 
 1544      65507265 
 1544      73737572 
 1544      6500
 1545              	.LASF31:
 1546 004b 474E5520 		.ascii	"GNU C11 7.3.1 20180622 (release) [ARM/embedded-7-br"
 1546      43313120 
 1546      372E332E 
 1546      31203230 
 1546      31383036 
 1547 007e 616E6368 		.ascii	"anch revision 261907] -mcpu=arm7tdmi -mthumb -mthum"
 1547      20726576 
 1547      6973696F 
 1547      6E203236 
 1547      31393037 
 1548 00b1 622D696E 		.ascii	"b-interwork -gdwarf-2 -O0\000"
 1548      74657277 
 1548      6F726B20 
 1548      2D676477 
 1548      6172662D 
 1549              	.LASF26:
 1550 00cb 72656164 		.ascii	"readTemp\000"
 1550      54656D70 
 1550      00
 1551              	.LASF22:
 1552 00d4 636F6E74 		.ascii	"controlRegisterTemperatureValue\000"
 1552      726F6C52 
 1552      65676973 
 1552      74657254 
 1552      656D7065 
 1553              	.LASF23:
 1554 00f4 636F6E74 		.ascii	"controlRegisterPressureValue\000"
 1554      726F6C52 
 1554      65676973 
 1554      74657250 
 1554      72657373 
 1555              	.LASF27:
 1556 0111 72656164 		.ascii	"readPress\000"
 1556      50726573 
 1556      7300
 1557              	.LASF1:
 1558 011b 756E7369 		.ascii	"unsigned char\000"
 1558      676E6564 
 1558      20636861 
 1558      7200
 1559              	.LASF5:
 1560 0129 74553634 		.ascii	"tU64\000"
 1560      00
 1561              	.LASF2:
 1562 012e 73686F72 		.ascii	"short unsigned int\000"
ARM GAS  C:\Users\embedded\AppData\Local\Temp\ccOJJvYT.s 			page 32


 1562      7420756E 
 1562      7369676E 
 1562      65642069 
 1562      6E7400
 1563              	.LASF28:
 1564 0141 63616C63 		.ascii	"calculatedPressure\000"
 1564      756C6174 
 1564      65645072 
 1564      65737375 
 1564      726500
 1565              	.LASF20:
 1566 0154 72657375 		.ascii	"resultLocationAddress\000"
 1566      6C744C6F 
 1566      63617469 
 1566      6F6E4164 
 1566      64726573 
 1567              	.LASF33:
 1568 016a 433A5C45 		.ascii	"C:\\Embedded\\2138MiniDemo\\2138\000"
 1568      6D626564 
 1568      6465645C 
 1568      32313338 
 1568      4D696E69 
 1569              	.LASF32:
 1570 0188 626D7031 		.ascii	"bmp180.c\000"
 1570      38302E63 
 1570      00
 1571              	.LASF15:
 1572 0191 626D7057 		.ascii	"bmpWriteAddress\000"
 1572      72697465 
 1572      41646472 
 1572      65737300 
 1573              	.LASF4:
 1574 01a1 756E7369 		.ascii	"unsigned int\000"
 1574      676E6564 
 1574      20696E74 
 1574      00
 1575              	.LASF6:
 1576 01ae 6C6F6E67 		.ascii	"long long unsigned int\000"
 1576      206C6F6E 
 1576      6720756E 
 1576      7369676E 
 1576      65642069 
 1577              	.LASF21:
 1578 01c5 70726573 		.ascii	"pressureOss\000"
 1578      73757265 
 1578      4F737300 
 1579              	.LASF11:
 1580 01d1 74533634 		.ascii	"tS64\000"
 1580      00
 1581              	.LASF13:
 1582 01d6 72657443 		.ascii	"retCode\000"
 1582      6F646500 
 1583              	.LASF0:
 1584 01de 74553136 		.ascii	"tU16\000"
 1584      00
 1585              	.LASF12:
 1586 01e3 6C6F6E67 		.ascii	"long long int\000"
ARM GAS  C:\Users\embedded\AppData\Local\Temp\ccOJJvYT.s 			page 33


 1586      206C6F6E 
 1586      6720696E 
 1586      7400
 1587              	.LASF3:
 1588 01f1 74553332 		.ascii	"tU32\000"
 1588      00
 1589              	.LASF16:
 1590 01f6 72656769 		.ascii	"registerContents\000"
 1590      73746572 
 1590      436F6E74 
 1590      656E7473 
 1590      00
 1591              	.LASF9:
 1592 0207 73686F72 		.ascii	"short int\000"
 1592      7420696E 
 1592      7400
 1593              	.LASF29:
 1594 0211 6D656173 		.ascii	"measurePressure\000"
 1594      75726550 
 1594      72657373 
 1594      75726500 
 1595              	.LASF19:
 1596 0221 69746572 		.ascii	"iterator\000"
 1596      61746F72 
 1596      00
 1597              	.LASF25:
 1598 022a 636F6D6D 		.ascii	"commandArr\000"
 1598      616E6441 
 1598      727200
 1599              	.LASF7:
 1600 0235 7369676E 		.ascii	"signed char\000"
 1600      65642063 
 1600      68617200 
 1601              	.LASF17:
 1602 0241 63616C69 		.ascii	"calibrationArray\000"
 1602      62726174 
 1602      696F6E41 
 1602      72726179 
 1602      00
 1603              		.ident	"GCC: (GNU Tools for Arm Embedded Processors 7-2018-q2-update) 7.3.1 20180622 (release) [AR
ARM GAS  C:\Users\embedded\AppData\Local\Temp\ccOJJvYT.s 			page 34


DEFINED SYMBOLS
                            *ABS*:00000000 bmp180.c
C:\Users\embedded\AppData\Local\Temp\ccOJJvYT.s:25     .text:00000000 calculatePressure
C:\Users\embedded\AppData\Local\Temp\ccOJJvYT.s:33     .text:00000000 $t
C:\Users\embedded\AppData\Local\Temp\ccOJJvYT.s:452    .text:000002e0 $d
C:\Users\embedded\AppData\Local\Temp\ccOJJvYT.s:459    .text:000002f0 $t
C:\Users\embedded\AppData\Local\Temp\ccOJJvYT.s:466    .text:000002f0 measurePressure

UNDEFINED SYMBOLS
__aeabi_lmul
__aeabi_idiv
__aeabi_uidiv
memset
i2cWrite
i2cRead
mdelay
