ARM GAS  C:\Users\embedded\AppData\Local\Temp\ccTOAqr7.s 			page 1


   1              		.cpu arm7tdmi
   2              		.eabi_attribute 20, 1
   3              		.eabi_attribute 21, 1
   4              		.eabi_attribute 23, 3
   5              		.eabi_attribute 24, 1
   6              		.eabi_attribute 25, 1
   7              		.eabi_attribute 26, 1
   8              		.eabi_attribute 30, 6
   9              		.eabi_attribute 34, 0
  10              		.eabi_attribute 18, 4
  11              		.file	"htu21df.c"
  12              		.text
  13              	.Ltext0:
  14              		.cfi_sections	.debug_frame
  15              		.align	1
  16              		.global	measureHumidity
  17              		.syntax unified
  18              		.code	16
  19              		.thumb_func
  20              		.fpu softvfp
  21              		.type	measureHumidity, %function
  22              	measureHumidity:
  23              	.LFB0:
  24              		.file 1 "htu21df.c"
   1:htu21df.c     **** /*
   2:htu21df.c     ****     Plik z kodem źródłowym funkcji do obsługi
   3:htu21df.c     ****     czujnika wilgotności HTU21D(F)
   4:htu21df.c     **** */
   5:htu21df.c     **** 
   6:htu21df.c     **** #include "htu21df.h"
   7:htu21df.c     **** 
   8:htu21df.c     **** /*
   9:htu21df.c     ****  * @brief   Funkcja measureHumidity() wykorzystywana jest do odczytania z czujnika wilgotności
  10:htu21df.c     ****  *          nieprzeliczonej wartości wilgotności i następnie jej przeliczenie, tak aby reprezent
  11:htu21df.c     ****  *          wilgotność wyrażoną w procentach.
  12:htu21df.c     ****  *
  13:htu21df.c     ****  * @param   void
  14:htu21df.c     ****  *
  15:htu21df.c     ****  * @returns
  16:htu21df.c     ****  *          Przeliczona wartość ciśnienia, która wyrażona jest w procentach.
  17:htu21df.c     ****  *
  18:htu21df.c     ****  * @side effects:
  19:htu21df.c     ****  *          Brak
  20:htu21df.c     ****  */
  21:htu21df.c     **** 
  22:htu21df.c     **** tS8 measureHumidity(void)
  23:htu21df.c     **** {
  25              		.loc 1 23 0
  26              		.cfi_startproc
  27              		@ Function supports interworking.
  28              		@ args = 0, pretend = 0, frame = 24
  29              		@ frame_needed = 1, uses_anonymous_args = 0
  30 0000 F0B5     		push	{r4, r5, r6, r7, lr}
  31              	.LCFI0:
  32              		.cfi_def_cfa_offset 20
  33              		.cfi_offset 4, -20
  34              		.cfi_offset 5, -16
ARM GAS  C:\Users\embedded\AppData\Local\Temp\ccTOAqr7.s 			page 2


  35              		.cfi_offset 6, -12
  36              		.cfi_offset 7, -8
  37              		.cfi_offset 14, -4
  38 0002 87B0     		sub	sp, sp, #28
  39              	.LCFI1:
  40              		.cfi_def_cfa_offset 48
  41 0004 00AF     		add	r7, sp, #0
  42              	.LCFI2:
  43              		.cfi_def_cfa_register 7
  24:htu21df.c     ****     // Adres urządzenia HTU21DF
  25:htu21df.c     ****     tU8 htu21Address = 0x40;
  44              		.loc 1 25 0
  45 0006 1621     		movs	r1, #22
  46 0008 7B18     		adds	r3, r7, r1
  47 000a 4022     		movs	r2, #64
  48 000c 1A70     		strb	r2, [r3]
  26:htu21df.c     **** 
  27:htu21df.c     ****     // Adres do zapisu do urządzenia HTU21DF
  28:htu21df.c     ****     tU8 htu21WriteAddress = ((tU8)htu21Address << 1);
  49              		.loc 1 28 0
  50 000e 1520     		movs	r0, #21
  51 0010 3A18     		adds	r2, r7, r0
  52 0012 7B18     		adds	r3, r7, r1
  53 0014 1B78     		ldrb	r3, [r3]
  54 0016 DB18     		adds	r3, r3, r3
  55 0018 1370     		strb	r3, [r2]
  29:htu21df.c     **** 
  30:htu21df.c     ****     // Adres do odczytu do urządzenia HTU21DF
  31:htu21df.c     ****     tU8 htu21ReadAddress = ((tU8)htu21Address << 1 | (tU8)1);
  56              		.loc 1 31 0
  57 001a 7B18     		adds	r3, r7, r1
  58 001c 1B78     		ldrb	r3, [r3]
  59 001e 5B00     		lsls	r3, r3, #1
  60 0020 1B06     		lsls	r3, r3, #24
  61 0022 1B16     		asrs	r3, r3, #24
  62 0024 0122     		movs	r2, #1
  63 0026 1343     		orrs	r3, r2
  64 0028 1B06     		lsls	r3, r3, #24
  65 002a 1A16     		asrs	r2, r3, #24
  66 002c 1426     		movs	r6, #20
  67 002e BB19     		adds	r3, r7, r6
  68 0030 1A70     		strb	r2, [r3]
  32:htu21df.c     **** 
  33:htu21df.c     ****     // Bufor 2-bajtowy do przechowania wartości odczytanej z czujnika HTU21DF
  34:htu21df.c     ****     tU8 readHumidity[2] = {0};
  69              		.loc 1 34 0
  70 0032 0825     		movs	r5, #8
  71 0034 7B19     		adds	r3, r7, r5
  72 0036 0022     		movs	r2, #0
  73 0038 1A80     		strh	r2, [r3]
  35:htu21df.c     **** 
  36:htu21df.c     ****     /*
  37:htu21df.c     ****         Adres rejestru do którego trzeba wpisać komendę: (0x40 << 1)
  38:htu21df.c     ****         Adres rejestru z którego trzeba odczytać wynik pomiaru: ((0x40 << 1) | 1)
  39:htu21df.c     ****     */
  40:htu21df.c     **** 
  41:htu21df.c     ****     tS8 retCode;
ARM GAS  C:\Users\embedded\AppData\Local\Temp\ccTOAqr7.s 			page 3


  42:htu21df.c     **** 
  43:htu21df.c     ****     // Komenda odczytu wilgotności w trybie "No Hold Master".
  44:htu21df.c     ****     tU8 commandNoHoldMaster[1] = {0};
  74              		.loc 1 44 0
  75 003a 3B1D     		adds	r3, r7, #4
  76 003c 0022     		movs	r2, #0
  77 003e 1A70     		strb	r2, [r3]
  45:htu21df.c     ****     commandNoHoldMaster[0] = 0xF5;
  78              		.loc 1 45 0
  79 0040 3B1D     		adds	r3, r7, #4
  80 0042 F522     		movs	r2, #245
  81 0044 1A70     		strb	r2, [r3]
  46:htu21df.c     ****     retCode = i2cWrite(htu21WriteAddress, commandNoHoldMaster, 1);
  82              		.loc 1 46 0
  83 0046 1323     		movs	r3, #19
  84 0048 FC18     		adds	r4, r7, r3
  85 004a 391D     		adds	r1, r7, #4
  86 004c 3B18     		adds	r3, r7, r0
  87 004e 1B78     		ldrb	r3, [r3]
  88 0050 0122     		movs	r2, #1
  89 0052 1800     		movs	r0, r3
  90 0054 FFF7FEFF 		bl	i2cWrite
  91 0058 0300     		movs	r3, r0
  92 005a 2370     		strb	r3, [r4]
  47:htu21df.c     ****     mdelay(16);
  93              		.loc 1 47 0
  94 005c 1020     		movs	r0, #16
  95 005e FFF7FEFF 		bl	mdelay
  48:htu21df.c     ****     retCode = i2cRead(htu21ReadAddress, readHumidity, 2);
  96              		.loc 1 48 0
  97 0062 1323     		movs	r3, #19
  98 0064 FC18     		adds	r4, r7, r3
  99 0066 7919     		adds	r1, r7, r5
 100 0068 BB19     		adds	r3, r7, r6
 101 006a 1B78     		ldrb	r3, [r3]
 102 006c 0222     		movs	r2, #2
 103 006e 1800     		movs	r0, r3
 104 0070 FFF7FEFF 		bl	i2cRead
 105 0074 0300     		movs	r3, r0
 106 0076 2370     		strb	r3, [r4]
  49:htu21df.c     **** 
  50:htu21df.c     ****     /*
  51:htu21df.c     ****         Konwersja tablicy 2 bajtów na jedną zmienną 16 bitową.
  52:htu21df.c     ****         Wyłączenie bitów stanu - dla wilgotności są to ostatnie 4 bity.
  53:htu21df.c     ****     */
  54:htu21df.c     **** 
  55:htu21df.c     ****     tU8 mask = ~(0x0F);
 107              		.loc 1 55 0
 108 0078 1221     		movs	r1, #18
 109 007a 7B18     		adds	r3, r7, r1
 110 007c F022     		movs	r2, #240
 111 007e 1A70     		strb	r2, [r3]
  56:htu21df.c     **** 	readHumidity[1] = (readHumidity[1] & mask);
 112              		.loc 1 56 0
 113 0080 7B19     		adds	r3, r7, r5
 114 0082 5B78     		ldrb	r3, [r3, #1]
 115 0084 7A18     		adds	r2, r7, r1
ARM GAS  C:\Users\embedded\AppData\Local\Temp\ccTOAqr7.s 			page 4


 116 0086 1278     		ldrb	r2, [r2]
 117 0088 1340     		ands	r3, r2
 118 008a 1B06     		lsls	r3, r3, #24
 119 008c 1A0E     		lsrs	r2, r3, #24
 120 008e 7B19     		adds	r3, r7, r5
 121 0090 5A70     		strb	r2, [r3, #1]
  57:htu21df.c     ****     tU16 readData = ((readHumidity[0] << 8) | readHumidity[1]);
 122              		.loc 1 57 0
 123 0092 7B19     		adds	r3, r7, r5
 124 0094 1B78     		ldrb	r3, [r3]
 125 0096 1B02     		lsls	r3, r3, #8
 126 0098 1A04     		lsls	r2, r3, #16
 127 009a 1214     		asrs	r2, r2, #16
 128 009c 7B19     		adds	r3, r7, r5
 129 009e 5B78     		ldrb	r3, [r3, #1]
 130 00a0 1B04     		lsls	r3, r3, #16
 131 00a2 1B14     		asrs	r3, r3, #16
 132 00a4 1343     		orrs	r3, r2
 133 00a6 1B04     		lsls	r3, r3, #16
 134 00a8 1B14     		asrs	r3, r3, #16
 135 00aa 1021     		movs	r1, #16
 136 00ac 7A18     		adds	r2, r7, r1
 137 00ae 1380     		strh	r3, [r2]
  58:htu21df.c     **** 
  59:htu21df.c     ****     tU32 upperValue = ((tU32)125 * (tU32)readData);
 138              		.loc 1 59 0
 139 00b0 7B18     		adds	r3, r7, r1
 140 00b2 1A88     		ldrh	r2, [r3]
 141 00b4 1300     		movs	r3, r2
 142 00b6 5B01     		lsls	r3, r3, #5
 143 00b8 9B1A     		subs	r3, r3, r2
 144 00ba 9B00     		lsls	r3, r3, #2
 145 00bc 9B18     		adds	r3, r3, r2
 146 00be FB60     		str	r3, [r7, #12]
  60:htu21df.c     ****     tS8 humidityValue = ((tS8)(upperValue / (tU32)65536) - (tS8)6);
 147              		.loc 1 60 0
 148 00c0 FB68     		ldr	r3, [r7, #12]
 149 00c2 1B0C     		lsrs	r3, r3, #16
 150 00c4 1B06     		lsls	r3, r3, #24
 151 00c6 1B0E     		lsrs	r3, r3, #24
 152 00c8 063B     		subs	r3, r3, #6
 153 00ca 1B06     		lsls	r3, r3, #24
 154 00cc 1A0E     		lsrs	r2, r3, #24
 155 00ce 1721     		movs	r1, #23
 156 00d0 7B18     		adds	r3, r7, r1
 157 00d2 1A70     		strb	r2, [r3]
  61:htu21df.c     **** 
  62:htu21df.c     ****     if (humidityValue < 0) {
 158              		.loc 1 62 0
 159 00d4 7B18     		adds	r3, r7, r1
 160 00d6 1B78     		ldrb	r3, [r3]
 161 00d8 7F2B     		cmp	r3, #127
 162 00da 04D9     		bls	.L2
  63:htu21df.c     ****         humidityValue = 0;
 163              		.loc 1 63 0
 164 00dc 1723     		movs	r3, #23
 165 00de FB18     		adds	r3, r7, r3
ARM GAS  C:\Users\embedded\AppData\Local\Temp\ccTOAqr7.s 			page 5


 166 00e0 0022     		movs	r2, #0
 167 00e2 1A70     		strb	r2, [r3]
 168 00e4 0AE0     		b	.L3
 169              	.L2:
  64:htu21df.c     ****     }
  65:htu21df.c     ****     else if (humidityValue > 100)
 170              		.loc 1 65 0
 171 00e6 1723     		movs	r3, #23
 172 00e8 FB18     		adds	r3, r7, r3
 173 00ea 1B78     		ldrb	r3, [r3]
 174 00ec 1B06     		lsls	r3, r3, #24
 175 00ee 1B16     		asrs	r3, r3, #24
 176 00f0 642B     		cmp	r3, #100
 177 00f2 03DD     		ble	.L3
  66:htu21df.c     ****     {
  67:htu21df.c     ****         humidityValue = 100;
 178              		.loc 1 67 0
 179 00f4 1723     		movs	r3, #23
 180 00f6 FB18     		adds	r3, r7, r3
 181 00f8 6422     		movs	r2, #100
 182 00fa 1A70     		strb	r2, [r3]
 183              	.L3:
  68:htu21df.c     ****     }
  69:htu21df.c     **** 
  70:htu21df.c     **** 
  71:htu21df.c     ****     return humidityValue;
 184              		.loc 1 71 0
 185 00fc 1723     		movs	r3, #23
 186 00fe FB18     		adds	r3, r7, r3
 187 0100 1B78     		ldrb	r3, [r3]
 188 0102 1B06     		lsls	r3, r3, #24
 189 0104 1B16     		asrs	r3, r3, #24
  72:htu21df.c     **** }
 190              		.loc 1 72 0
 191 0106 1800     		movs	r0, r3
 192 0108 BD46     		mov	sp, r7
 193 010a 07B0     		add	sp, sp, #28
 194              		@ sp needed
 195 010c F0BC     		pop	{r4, r5, r6, r7}
 196 010e 02BC     		pop	{r1}
 197 0110 0847     		bx	r1
 198              		.cfi_endproc
 199              	.LFE0:
 200              		.size	measureHumidity, .-measureHumidity
 201              	.Letext0:
 202              		.file 2 "general.h"