ARM GAS  C:\Users\embedded\AppData\Local\Temp\ccWX71zC.s 			page 1


   1              		.cpu arm7tdmi
   2              		.eabi_attribute 20, 1
   3              		.eabi_attribute 21, 1
   4              		.eabi_attribute 23, 3
   5              		.eabi_attribute 24, 1
   6              		.eabi_attribute 25, 1
   7              		.eabi_attribute 26, 1
   8              		.eabi_attribute 30, 6
   9              		.eabi_attribute 34, 0
  10              		.eabi_attribute 18, 4
  11              		.file	"htu21df.c"
  12              		.text
  13              	.Ltext0:
  14              		.cfi_sections	.debug_frame
  15              		.align	1
  16              		.global	measureHumidity
  17              		.syntax unified
  18              		.code	16
  19              		.thumb_func
  20              		.fpu softvfp
  21              		.type	measureHumidity, %function
  22              	measureHumidity:
  23              	.LFB0:
  24              		.file 1 "htu21df.c"
   1:htu21df.c     **** /*
   2:htu21df.c     ****     Plik z kodem źródłowym funkcji do obsługi
   3:htu21df.c     ****     czujnika wilgotności HTU21D(F)
   4:htu21df.c     **** */
   5:htu21df.c     **** 
   6:htu21df.c     **** #include "general.h"
   7:htu21df.c     **** #include "i2c.h"
   8:htu21df.c     **** #include "additional.h"
   9:htu21df.c     **** 
  10:htu21df.c     **** tS8 measureHumidity(tU8 address,
  11:htu21df.c     ****                         tU8 *pBuf,
  12:htu21df.c     ****                         tU16 length)
  13:htu21df.c     **** {
  25              		.loc 1 13 0
  26              		.cfi_startproc
  27              		@ Function supports interworking.
  28              		@ args = 0, pretend = 0, frame = 16
  29              		@ frame_needed = 1, uses_anonymous_args = 0
  30 0000 F0B5     		push	{r4, r5, r6, r7, lr}
  31              	.LCFI0:
  32              		.cfi_def_cfa_offset 20
  33              		.cfi_offset 4, -20
  34              		.cfi_offset 5, -16
  35              		.cfi_offset 6, -12
  36              		.cfi_offset 7, -8
  37              		.cfi_offset 14, -4
  38 0002 85B0     		sub	sp, sp, #20
  39              	.LCFI1:
  40              		.cfi_def_cfa_offset 40
  41 0004 00AF     		add	r7, sp, #0
  42              	.LCFI2:
  43              		.cfi_def_cfa_register 7
  44 0006 3960     		str	r1, [r7]
ARM GAS  C:\Users\embedded\AppData\Local\Temp\ccWX71zC.s 			page 2


  45 0008 1100     		movs	r1, r2
  46 000a FB1D     		adds	r3, r7, #7
  47 000c 021C     		adds	r2, r0, #0
  48 000e 1A70     		strb	r2, [r3]
  49 0010 3B1D     		adds	r3, r7, #4
  50 0012 0A1C     		adds	r2, r1, #0
  51 0014 1A80     		strh	r2, [r3]
  14:htu21df.c     ****     tS8 retCode;
  15:htu21df.c     ****     /*
  16:htu21df.c     ****         Komenda odczytu wilgotności w trybie "No Hold Master".
  17:htu21df.c     ****     */
  18:htu21df.c     ****     tU8 commandNoHoldMaster[1] = {};
  52              		.loc 1 18 0
  53 0016 0C21     		movs	r1, #12
  54 0018 7B18     		adds	r3, r7, r1
  55 001a 0022     		movs	r2, #0
  56 001c 1A70     		strb	r2, [r3]
  19:htu21df.c     ****     commandNoHoldMaster[0] = 0xF5;
  57              		.loc 1 19 0
  58 001e 7B18     		adds	r3, r7, r1
  59 0020 F522     		movs	r2, #245
  60 0022 1A70     		strb	r2, [r3]
  20:htu21df.c     ****     /*
  21:htu21df.c     ****         Adres rejestru do którego trzeba wpisać komendę: (0x40 << 1)
  22:htu21df.c     ****         Adres rejestru z którego trzeba odczytać wynik pomiaru: ((0x40 << 1) | 1)
  23:htu21df.c     ****     */
  24:htu21df.c     ****     tU8 finalAddress = (address << 1);
  61              		.loc 1 24 0
  62 0024 0F25     		movs	r5, #15
  63 0026 7A19     		adds	r2, r7, r5
  64 0028 FB1D     		adds	r3, r7, #7
  65 002a 1B78     		ldrb	r3, [r3]
  66 002c DB18     		adds	r3, r3, r3
  67 002e 1370     		strb	r3, [r2]
  25:htu21df.c     ****     retCode = i2cWrite(finalAddress, commandNoHoldMaster, 1);
  68              		.loc 1 25 0
  69 0030 0E26     		movs	r6, #14
  70 0032 BC19     		adds	r4, r7, r6
  71 0034 7918     		adds	r1, r7, r1
  72 0036 7B19     		adds	r3, r7, r5
  73 0038 1B78     		ldrb	r3, [r3]
  74 003a 0122     		movs	r2, #1
  75 003c 1800     		movs	r0, r3
  76 003e FFF7FEFF 		bl	i2cWrite
  77 0042 0300     		movs	r3, r0
  78 0044 2370     		strb	r3, [r4]
  26:htu21df.c     ****     mdelay(16);
  79              		.loc 1 26 0
  80 0046 1020     		movs	r0, #16
  81 0048 FFF7FEFF 		bl	mdelay
  27:htu21df.c     ****     finalAddress = ((address << 1) | 1);
  82              		.loc 1 27 0
  83 004c FB1D     		adds	r3, r7, #7
  84 004e 1B78     		ldrb	r3, [r3]
  85 0050 5B00     		lsls	r3, r3, #1
  86 0052 1B06     		lsls	r3, r3, #24
  87 0054 1B16     		asrs	r3, r3, #24
ARM GAS  C:\Users\embedded\AppData\Local\Temp\ccWX71zC.s 			page 3


  88 0056 0122     		movs	r2, #1
  89 0058 1343     		orrs	r3, r2
  90 005a 1B06     		lsls	r3, r3, #24
  91 005c 1A16     		asrs	r2, r3, #24
  92 005e 7B19     		adds	r3, r7, r5
  93 0060 1A70     		strb	r2, [r3]
  28:htu21df.c     ****     retCode = i2cRead(finalAddress, pBuf, 2);
  94              		.loc 1 28 0
  95 0062 BC19     		adds	r4, r7, r6
  96 0064 3968     		ldr	r1, [r7]
  97 0066 7B19     		adds	r3, r7, r5
  98 0068 1B78     		ldrb	r3, [r3]
  99 006a 0222     		movs	r2, #2
 100 006c 1800     		movs	r0, r3
 101 006e FFF7FEFF 		bl	i2cRead
 102 0072 0300     		movs	r3, r0
 103 0074 2370     		strb	r3, [r4]
  29:htu21df.c     ****     return retCode;
 104              		.loc 1 29 0
 105 0076 BB19     		adds	r3, r7, r6
 106 0078 1B78     		ldrb	r3, [r3]
 107 007a 1B06     		lsls	r3, r3, #24
 108 007c 1B16     		asrs	r3, r3, #24
  30:htu21df.c     **** }
 109              		.loc 1 30 0
 110 007e 1800     		movs	r0, r3
 111 0080 BD46     		mov	sp, r7
 112 0082 05B0     		add	sp, sp, #20
 113              		@ sp needed
 114 0084 F0BC     		pop	{r4, r5, r6, r7}
 115 0086 02BC     		pop	{r1}
 116 0088 0847     		bx	r1
 117              		.cfi_endproc
 118              	.LFE0:
 119              		.size	measureHumidity, .-measureHumidity
 120              		.global	__aeabi_i2d
 121              		.global	__aeabi_ddiv
 122              		.global	__aeabi_dsub
 123              		.global	__aeabi_d2iz
 124              		.align	1
 125              		.global	calculateHumidity
 126              		.syntax unified
 127              		.code	16
 128              		.thumb_func
 129              		.fpu softvfp
 130              		.type	calculateHumidity, %function
 131              	calculateHumidity:
 132              	.LFB1:
  31:htu21df.c     **** 
  32:htu21df.c     **** tS8 calculateHumidity(tU8 *byteArray)
  33:htu21df.c     **** {
 133              		.loc 1 33 0
 134              		.cfi_startproc
 135              		@ Function supports interworking.
 136              		@ args = 0, pretend = 0, frame = 16
 137              		@ frame_needed = 1, uses_anonymous_args = 0
 138 008a 90B5     		push	{r4, r7, lr}
ARM GAS  C:\Users\embedded\AppData\Local\Temp\ccWX71zC.s 			page 4


 139              	.LCFI3:
 140              		.cfi_def_cfa_offset 12
 141              		.cfi_offset 4, -12
 142              		.cfi_offset 7, -8
 143              		.cfi_offset 14, -4
 144 008c 85B0     		sub	sp, sp, #20
 145              	.LCFI4:
 146              		.cfi_def_cfa_offset 32
 147 008e 00AF     		add	r7, sp, #0
 148              	.LCFI5:
 149              		.cfi_def_cfa_register 7
 150 0090 7860     		str	r0, [r7, #4]
  34:htu21df.c     ****     /*
  35:htu21df.c     ****         Konwersja tablicy 2 bajtów na jedną zmienną 16 bitową.
  36:htu21df.c     ****         Wyłączenie bitów stanu - dla wilgotności są to ostatnie 4 bity.
  37:htu21df.c     ****     */
  38:htu21df.c     **** 
  39:htu21df.c     **** 	tU8 mask = ~(0x0F);
 151              		.loc 1 39 0
 152 0092 0F21     		movs	r1, #15
 153 0094 7B18     		adds	r3, r7, r1
 154 0096 F022     		movs	r2, #240
 155 0098 1A70     		strb	r2, [r3]
  40:htu21df.c     **** 	byteArray[1] = (byteArray[1] & mask);
 156              		.loc 1 40 0
 157 009a 7B68     		ldr	r3, [r7, #4]
 158 009c 0133     		adds	r3, r3, #1
 159 009e 1A78     		ldrb	r2, [r3]
 160 00a0 7B68     		ldr	r3, [r7, #4]
 161 00a2 0133     		adds	r3, r3, #1
 162 00a4 7918     		adds	r1, r7, r1
 163 00a6 0978     		ldrb	r1, [r1]
 164 00a8 0A40     		ands	r2, r1
 165 00aa 1206     		lsls	r2, r2, #24
 166 00ac 120E     		lsrs	r2, r2, #24
 167 00ae 1A70     		strb	r2, [r3]
  41:htu21df.c     ****     tU16 readData = ((byteArray[0] << 8) | byteArray[1]);
 168              		.loc 1 41 0
 169 00b0 7B68     		ldr	r3, [r7, #4]
 170 00b2 1B78     		ldrb	r3, [r3]
 171 00b4 1B02     		lsls	r3, r3, #8
 172 00b6 1A04     		lsls	r2, r3, #16
 173 00b8 1214     		asrs	r2, r2, #16
 174 00ba 7B68     		ldr	r3, [r7, #4]
 175 00bc 0133     		adds	r3, r3, #1
 176 00be 1B78     		ldrb	r3, [r3]
 177 00c0 1B04     		lsls	r3, r3, #16
 178 00c2 1B14     		asrs	r3, r3, #16
 179 00c4 1343     		orrs	r3, r2
 180 00c6 1B04     		lsls	r3, r3, #16
 181 00c8 1B14     		asrs	r3, r3, #16
 182 00ca 0C21     		movs	r1, #12
 183 00cc 7A18     		adds	r2, r7, r1
 184 00ce 1380     		strh	r3, [r2]
  42:htu21df.c     **** 
  43:htu21df.c     ****     return (((125 * (readData)) / 65536.0) - 6.0);
 185              		.loc 1 43 0
ARM GAS  C:\Users\embedded\AppData\Local\Temp\ccWX71zC.s 			page 5


 186 00d0 7B18     		adds	r3, r7, r1
 187 00d2 1A88     		ldrh	r2, [r3]
 188 00d4 1300     		movs	r3, r2
 189 00d6 5B01     		lsls	r3, r3, #5
 190 00d8 9B1A     		subs	r3, r3, r2
 191 00da 9B00     		lsls	r3, r3, #2
 192 00dc 9B18     		adds	r3, r3, r2
 193 00de 1800     		movs	r0, r3
 194 00e0 FFF7FEFF 		bl	__aeabi_i2d
 195              	.LVL0:
 196 00e4 0022     		movs	r2, #0
 197 00e6 0D4B     		ldr	r3, .L5
 198 00e8 FFF7FEFF 		bl	__aeabi_ddiv
 199              	.LVL1:
 200 00ec 0300     		movs	r3, r0
 201 00ee 0C00     		movs	r4, r1
 202 00f0 1800     		movs	r0, r3
 203 00f2 2100     		movs	r1, r4
 204 00f4 0022     		movs	r2, #0
 205 00f6 0A4B     		ldr	r3, .L5+4
 206 00f8 FFF7FEFF 		bl	__aeabi_dsub
 207              	.LVL2:
 208 00fc 0300     		movs	r3, r0
 209 00fe 0C00     		movs	r4, r1
 210 0100 1800     		movs	r0, r3
 211 0102 2100     		movs	r1, r4
 212 0104 FFF7FEFF 		bl	__aeabi_d2iz
 213              	.LVL3:
 214 0108 0300     		movs	r3, r0
 215 010a 1B06     		lsls	r3, r3, #24
 216 010c 1B16     		asrs	r3, r3, #24
  44:htu21df.c     **** }
 217              		.loc 1 44 0
 218 010e 1800     		movs	r0, r3
 219 0110 BD46     		mov	sp, r7
 220 0112 05B0     		add	sp, sp, #20
 221              		@ sp needed
 222 0114 90BC     		pop	{r4, r7}
 223 0116 02BC     		pop	{r1}
 224 0118 0847     		bx	r1
 225              	.L6:
 226 011a C046     		.align	2
 227              	.L5:
 228 011c 0000F040 		.word	1089470464
 229 0120 00001840 		.word	1075314688
 230              		.cfi_endproc
 231              	.LFE1:
 232              		.size	calculateHumidity, .-calculateHumidity
 233              	.Letext0:
 234              		.file 2 "general.h"
 235              		.section	.debug_info,"",%progbits
 236              	.Ldebug_info0:
 237 0000 49010000 		.4byte	0x149
 238 0004 0200     		.2byte	0x2
 239 0006 00000000 		.4byte	.Ldebug_abbrev0
 240 000a 04       		.byte	0x4
 241 000b 01       		.uleb128 0x1
ARM GAS  C:\Users\embedded\AppData\Local\Temp\ccWX71zC.s 			page 6


 242 000c 7D000000 		.4byte	.LASF19
 243 0010 0C       		.byte	0xc
 244 0011 2A000000 		.4byte	.LASF20
 245 0015 0F010000 		.4byte	.LASF21
 246 0019 00000000 		.4byte	.Ltext0
 247 001d 24010000 		.4byte	.Letext0
 248 0021 00000000 		.4byte	.Ldebug_line0
 249 0025 02       		.uleb128 0x2
 250 0026 74553800 		.ascii	"tU8\000"
 251 002a 02       		.byte	0x2
 252 002b 17       		.byte	0x17
 253 002c 30000000 		.4byte	0x30
 254 0030 03       		.uleb128 0x3
 255 0031 01       		.byte	0x1
 256 0032 08       		.byte	0x8
 257 0033 5A000000 		.4byte	.LASF1
 258 0037 04       		.uleb128 0x4
 259 0038 60010000 		.4byte	.LASF0
 260 003c 02       		.byte	0x2
 261 003d 18       		.byte	0x18
 262 003e 42000000 		.4byte	0x42
 263 0042 03       		.uleb128 0x3
 264 0043 02       		.byte	0x2
 265 0044 07       		.byte	0x7
 266 0045 2D010000 		.4byte	.LASF2
 267 0049 03       		.uleb128 0x3
 268 004a 04       		.byte	0x4
 269 004b 07       		.byte	0x7
 270 004c 0E000000 		.4byte	.LASF3
 271 0050 03       		.uleb128 0x3
 272 0051 08       		.byte	0x8
 273 0052 07       		.byte	0x7
 274 0053 34000000 		.4byte	.LASF4
 275 0057 02       		.uleb128 0x2
 276 0058 74533800 		.ascii	"tS8\000"
 277 005c 02       		.byte	0x2
 278 005d 1B       		.byte	0x1b
 279 005e 62000000 		.4byte	0x62
 280 0062 03       		.uleb128 0x3
 281 0063 01       		.byte	0x1
 282 0064 06       		.byte	0x6
 283 0065 40010000 		.4byte	.LASF5
 284 0069 03       		.uleb128 0x3
 285 006a 02       		.byte	0x2
 286 006b 05       		.byte	0x5
 287 006c 65010000 		.4byte	.LASF6
 288 0070 05       		.uleb128 0x5
 289 0071 04       		.byte	0x4
 290 0072 05       		.byte	0x5
 291 0073 696E7400 		.ascii	"int\000"
 292 0077 03       		.uleb128 0x3
 293 0078 08       		.byte	0x8
 294 0079 05       		.byte	0x5
 295 007a 00000000 		.4byte	.LASF7
 296 007e 06       		.uleb128 0x6
 297 007f 01       		.byte	0x1
 298 0080 FD000000 		.4byte	.LASF10
ARM GAS  C:\Users\embedded\AppData\Local\Temp\ccWX71zC.s 			page 7


 299 0084 01       		.byte	0x1
 300 0085 20       		.byte	0x20
 301 0086 01       		.byte	0x1
 302 0087 57000000 		.4byte	0x57
 303 008b 8A000000 		.4byte	.LFB1
 304 008f 24010000 		.4byte	.LFE1
 305 0093 00000000 		.4byte	.LLST1
 306 0097 01       		.byte	0x1
 307 0098 C7000000 		.4byte	0xc7
 308 009c 07       		.uleb128 0x7
 309 009d 4B000000 		.4byte	.LASF12
 310 00a1 01       		.byte	0x1
 311 00a2 20       		.byte	0x20
 312 00a3 C7000000 		.4byte	0xc7
 313 00a7 02       		.byte	0x2
 314 00a8 91       		.byte	0x91
 315 00a9 64       		.sleb128 -28
 316 00aa 08       		.uleb128 0x8
 317 00ab 55000000 		.4byte	.LASF8
 318 00af 01       		.byte	0x1
 319 00b0 27       		.byte	0x27
 320 00b1 25000000 		.4byte	0x25
 321 00b5 02       		.byte	0x2
 322 00b6 91       		.byte	0x91
 323 00b7 6F       		.sleb128 -17
 324 00b8 08       		.uleb128 0x8
 325 00b9 7F010000 		.4byte	.LASF9
 326 00bd 01       		.byte	0x1
 327 00be 29       		.byte	0x29
 328 00bf 37000000 		.4byte	0x37
 329 00c3 02       		.byte	0x2
 330 00c4 91       		.byte	0x91
 331 00c5 6C       		.sleb128 -20
 332 00c6 00       		.byte	0
 333 00c7 09       		.uleb128 0x9
 334 00c8 04       		.byte	0x4
 335 00c9 25000000 		.4byte	0x25
 336 00cd 06       		.uleb128 0x6
 337 00ce 01       		.byte	0x1
 338 00cf 6F010000 		.4byte	.LASF11
 339 00d3 01       		.byte	0x1
 340 00d4 0A       		.byte	0xa
 341 00d5 01       		.byte	0x1
 342 00d6 57000000 		.4byte	0x57
 343 00da 00000000 		.4byte	.LFB0
 344 00de 8A000000 		.4byte	.LFE0
 345 00e2 38000000 		.4byte	.LLST0
 346 00e6 01       		.byte	0x1
 347 00e7 40010000 		.4byte	0x140
 348 00eb 07       		.uleb128 0x7
 349 00ec 75000000 		.4byte	.LASF13
 350 00f0 01       		.byte	0x1
 351 00f1 0A       		.byte	0xa
 352 00f2 25000000 		.4byte	0x25
 353 00f6 02       		.byte	0x2
 354 00f7 91       		.byte	0x91
 355 00f8 5F       		.sleb128 -33
ARM GAS  C:\Users\embedded\AppData\Local\Temp\ccWX71zC.s 			page 8


 356 00f9 07       		.uleb128 0x7
 357 00fa 88010000 		.4byte	.LASF14
 358 00fe 01       		.byte	0x1
 359 00ff 0B       		.byte	0xb
 360 0100 C7000000 		.4byte	0xc7
 361 0104 02       		.byte	0x2
 362 0105 91       		.byte	0x91
 363 0106 58       		.sleb128 -40
 364 0107 07       		.uleb128 0x7
 365 0108 23000000 		.4byte	.LASF15
 366 010c 01       		.byte	0x1
 367 010d 0C       		.byte	0xc
 368 010e 37000000 		.4byte	0x37
 369 0112 02       		.byte	0x2
 370 0113 91       		.byte	0x91
 371 0114 5C       		.sleb128 -36
 372 0115 08       		.uleb128 0x8
 373 0116 1B000000 		.4byte	.LASF16
 374 011a 01       		.byte	0x1
 375 011b 0E       		.byte	0xe
 376 011c 57000000 		.4byte	0x57
 377 0120 02       		.byte	0x2
 378 0121 91       		.byte	0x91
 379 0122 66       		.sleb128 -26
 380 0123 08       		.uleb128 0x8
 381 0124 4C010000 		.4byte	.LASF17
 382 0128 01       		.byte	0x1
 383 0129 12       		.byte	0x12
 384 012a 40010000 		.4byte	0x140
 385 012e 02       		.byte	0x2
 386 012f 91       		.byte	0x91
 387 0130 64       		.sleb128 -28
 388 0131 08       		.uleb128 0x8
 389 0132 68000000 		.4byte	.LASF18
 390 0136 01       		.byte	0x1
 391 0137 18       		.byte	0x18
 392 0138 25000000 		.4byte	0x25
 393 013c 02       		.byte	0x2
 394 013d 91       		.byte	0x91
 395 013e 67       		.sleb128 -25
 396 013f 00       		.byte	0
 397 0140 0A       		.uleb128 0xa
 398 0141 25000000 		.4byte	0x25
 399 0145 0B       		.uleb128 0xb
 400 0146 49000000 		.4byte	0x49
 401 014a 00       		.byte	0
 402 014b 00       		.byte	0
 403 014c 00       		.byte	0
 404              		.section	.debug_abbrev,"",%progbits
 405              	.Ldebug_abbrev0:
 406 0000 01       		.uleb128 0x1
 407 0001 11       		.uleb128 0x11
 408 0002 01       		.byte	0x1
 409 0003 25       		.uleb128 0x25
 410 0004 0E       		.uleb128 0xe
 411 0005 13       		.uleb128 0x13
 412 0006 0B       		.uleb128 0xb
ARM GAS  C:\Users\embedded\AppData\Local\Temp\ccWX71zC.s 			page 9


 413 0007 03       		.uleb128 0x3
 414 0008 0E       		.uleb128 0xe
 415 0009 1B       		.uleb128 0x1b
 416 000a 0E       		.uleb128 0xe
 417 000b 11       		.uleb128 0x11
 418 000c 01       		.uleb128 0x1
 419 000d 12       		.uleb128 0x12
 420 000e 01       		.uleb128 0x1
 421 000f 10       		.uleb128 0x10
 422 0010 06       		.uleb128 0x6
 423 0011 00       		.byte	0
 424 0012 00       		.byte	0
 425 0013 02       		.uleb128 0x2
 426 0014 16       		.uleb128 0x16
 427 0015 00       		.byte	0
 428 0016 03       		.uleb128 0x3
 429 0017 08       		.uleb128 0x8
 430 0018 3A       		.uleb128 0x3a
 431 0019 0B       		.uleb128 0xb
 432 001a 3B       		.uleb128 0x3b
 433 001b 0B       		.uleb128 0xb
 434 001c 49       		.uleb128 0x49
 435 001d 13       		.uleb128 0x13
 436 001e 00       		.byte	0
 437 001f 00       		.byte	0
 438 0020 03       		.uleb128 0x3
 439 0021 24       		.uleb128 0x24
 440 0022 00       		.byte	0
 441 0023 0B       		.uleb128 0xb
 442 0024 0B       		.uleb128 0xb
 443 0025 3E       		.uleb128 0x3e
 444 0026 0B       		.uleb128 0xb
 445 0027 03       		.uleb128 0x3
 446 0028 0E       		.uleb128 0xe
 447 0029 00       		.byte	0
 448 002a 00       		.byte	0
 449 002b 04       		.uleb128 0x4
 450 002c 16       		.uleb128 0x16
 451 002d 00       		.byte	0
 452 002e 03       		.uleb128 0x3
 453 002f 0E       		.uleb128 0xe
 454 0030 3A       		.uleb128 0x3a
 455 0031 0B       		.uleb128 0xb
 456 0032 3B       		.uleb128 0x3b
 457 0033 0B       		.uleb128 0xb
 458 0034 49       		.uleb128 0x49
 459 0035 13       		.uleb128 0x13
 460 0036 00       		.byte	0
 461 0037 00       		.byte	0
 462 0038 05       		.uleb128 0x5
 463 0039 24       		.uleb128 0x24
 464 003a 00       		.byte	0
 465 003b 0B       		.uleb128 0xb
 466 003c 0B       		.uleb128 0xb
 467 003d 3E       		.uleb128 0x3e
 468 003e 0B       		.uleb128 0xb
 469 003f 03       		.uleb128 0x3
ARM GAS  C:\Users\embedded\AppData\Local\Temp\ccWX71zC.s 			page 10


 470 0040 08       		.uleb128 0x8
 471 0041 00       		.byte	0
 472 0042 00       		.byte	0
 473 0043 06       		.uleb128 0x6
 474 0044 2E       		.uleb128 0x2e
 475 0045 01       		.byte	0x1
 476 0046 3F       		.uleb128 0x3f
 477 0047 0C       		.uleb128 0xc
 478 0048 03       		.uleb128 0x3
 479 0049 0E       		.uleb128 0xe
 480 004a 3A       		.uleb128 0x3a
 481 004b 0B       		.uleb128 0xb
 482 004c 3B       		.uleb128 0x3b
 483 004d 0B       		.uleb128 0xb
 484 004e 27       		.uleb128 0x27
 485 004f 0C       		.uleb128 0xc
 486 0050 49       		.uleb128 0x49
 487 0051 13       		.uleb128 0x13
 488 0052 11       		.uleb128 0x11
 489 0053 01       		.uleb128 0x1
 490 0054 12       		.uleb128 0x12
 491 0055 01       		.uleb128 0x1
 492 0056 40       		.uleb128 0x40
 493 0057 06       		.uleb128 0x6
 494 0058 9642     		.uleb128 0x2116
 495 005a 0C       		.uleb128 0xc
 496 005b 01       		.uleb128 0x1
 497 005c 13       		.uleb128 0x13
 498 005d 00       		.byte	0
 499 005e 00       		.byte	0
 500 005f 07       		.uleb128 0x7
 501 0060 05       		.uleb128 0x5
 502 0061 00       		.byte	0
 503 0062 03       		.uleb128 0x3
 504 0063 0E       		.uleb128 0xe
 505 0064 3A       		.uleb128 0x3a
 506 0065 0B       		.uleb128 0xb
 507 0066 3B       		.uleb128 0x3b
 508 0067 0B       		.uleb128 0xb
 509 0068 49       		.uleb128 0x49
 510 0069 13       		.uleb128 0x13
 511 006a 02       		.uleb128 0x2
 512 006b 0A       		.uleb128 0xa
 513 006c 00       		.byte	0
 514 006d 00       		.byte	0
 515 006e 08       		.uleb128 0x8
 516 006f 34       		.uleb128 0x34
 517 0070 00       		.byte	0
 518 0071 03       		.uleb128 0x3
 519 0072 0E       		.uleb128 0xe
 520 0073 3A       		.uleb128 0x3a
 521 0074 0B       		.uleb128 0xb
 522 0075 3B       		.uleb128 0x3b
 523 0076 0B       		.uleb128 0xb
 524 0077 49       		.uleb128 0x49
 525 0078 13       		.uleb128 0x13
 526 0079 02       		.uleb128 0x2
ARM GAS  C:\Users\embedded\AppData\Local\Temp\ccWX71zC.s 			page 11


 527 007a 0A       		.uleb128 0xa
 528 007b 00       		.byte	0
 529 007c 00       		.byte	0
 530 007d 09       		.uleb128 0x9
 531 007e 0F       		.uleb128 0xf
 532 007f 00       		.byte	0
 533 0080 0B       		.uleb128 0xb
 534 0081 0B       		.uleb128 0xb
 535 0082 49       		.uleb128 0x49
 536 0083 13       		.uleb128 0x13
 537 0084 00       		.byte	0
 538 0085 00       		.byte	0
 539 0086 0A       		.uleb128 0xa
 540 0087 01       		.uleb128 0x1
 541 0088 01       		.byte	0x1
 542 0089 49       		.uleb128 0x49
 543 008a 13       		.uleb128 0x13
 544 008b 00       		.byte	0
 545 008c 00       		.byte	0
 546 008d 0B       		.uleb128 0xb
 547 008e 21       		.uleb128 0x21
 548 008f 00       		.byte	0
 549 0090 49       		.uleb128 0x49
 550 0091 13       		.uleb128 0x13
 551 0092 2F       		.uleb128 0x2f
 552 0093 0B       		.uleb128 0xb
 553 0094 00       		.byte	0
 554 0095 00       		.byte	0
 555 0096 00       		.byte	0
 556              		.section	.debug_loc,"",%progbits
 557              	.Ldebug_loc0:
 558              	.LLST1:
 559 0000 8A000000 		.4byte	.LFB1-.Ltext0
 560 0004 8C000000 		.4byte	.LCFI3-.Ltext0
 561 0008 0200     		.2byte	0x2
 562 000a 7D       		.byte	0x7d
 563 000b 00       		.sleb128 0
 564 000c 8C000000 		.4byte	.LCFI3-.Ltext0
 565 0010 8E000000 		.4byte	.LCFI4-.Ltext0
 566 0014 0200     		.2byte	0x2
 567 0016 7D       		.byte	0x7d
 568 0017 0C       		.sleb128 12
 569 0018 8E000000 		.4byte	.LCFI4-.Ltext0
 570 001c 90000000 		.4byte	.LCFI5-.Ltext0
 571 0020 0200     		.2byte	0x2
 572 0022 7D       		.byte	0x7d
 573 0023 20       		.sleb128 32
 574 0024 90000000 		.4byte	.LCFI5-.Ltext0
 575 0028 24010000 		.4byte	.LFE1-.Ltext0
 576 002c 0200     		.2byte	0x2
 577 002e 77       		.byte	0x77
 578 002f 20       		.sleb128 32
 579 0030 00000000 		.4byte	0
 580 0034 00000000 		.4byte	0
 581              	.LLST0:
 582 0038 00000000 		.4byte	.LFB0-.Ltext0
 583 003c 02000000 		.4byte	.LCFI0-.Ltext0
ARM GAS  C:\Users\embedded\AppData\Local\Temp\ccWX71zC.s 			page 12


 584 0040 0200     		.2byte	0x2
 585 0042 7D       		.byte	0x7d
 586 0043 00       		.sleb128 0
 587 0044 02000000 		.4byte	.LCFI0-.Ltext0
 588 0048 04000000 		.4byte	.LCFI1-.Ltext0
 589 004c 0200     		.2byte	0x2
 590 004e 7D       		.byte	0x7d
 591 004f 14       		.sleb128 20
 592 0050 04000000 		.4byte	.LCFI1-.Ltext0
 593 0054 06000000 		.4byte	.LCFI2-.Ltext0
 594 0058 0200     		.2byte	0x2
 595 005a 7D       		.byte	0x7d
 596 005b 28       		.sleb128 40
 597 005c 06000000 		.4byte	.LCFI2-.Ltext0
 598 0060 8A000000 		.4byte	.LFE0-.Ltext0
 599 0064 0200     		.2byte	0x2
 600 0066 77       		.byte	0x77
 601 0067 28       		.sleb128 40
 602 0068 00000000 		.4byte	0
 603 006c 00000000 		.4byte	0
 604              		.section	.debug_aranges,"",%progbits
 605 0000 1C000000 		.4byte	0x1c
 606 0004 0200     		.2byte	0x2
 607 0006 00000000 		.4byte	.Ldebug_info0
 608 000a 04       		.byte	0x4
 609 000b 00       		.byte	0
 610 000c 0000     		.2byte	0
 611 000e 0000     		.2byte	0
 612 0010 00000000 		.4byte	.Ltext0
 613 0014 24010000 		.4byte	.Letext0-.Ltext0
 614 0018 00000000 		.4byte	0
 615 001c 00000000 		.4byte	0
 616              		.section	.debug_line,"",%progbits
 617              	.Ldebug_line0:
 618 0000 52000000 		.section	.debug_str,"MS",%progbits,1
 618      02002D00 
 618      00000201 
 618      FB0E0D00 
 618      01010101 
 619              	.LASF7:
 620 0000 6C6F6E67 		.ascii	"long long int\000"
 620      206C6F6E 
 620      6720696E 
 620      7400
 621              	.LASF3:
 622 000e 756E7369 		.ascii	"unsigned int\000"
 622      676E6564 
 622      20696E74 
 622      00
 623              	.LASF16:
 624 001b 72657443 		.ascii	"retCode\000"
 624      6F646500 
 625              	.LASF15:
 626 0023 6C656E67 		.ascii	"length\000"
 626      746800
 627              	.LASF20:
 628 002a 68747532 		.ascii	"htu21df.c\000"
ARM GAS  C:\Users\embedded\AppData\Local\Temp\ccWX71zC.s 			page 13


 628      3164662E 
 628      6300
 629              	.LASF4:
 630 0034 6C6F6E67 		.ascii	"long long unsigned int\000"
 630      206C6F6E 
 630      6720756E 
 630      7369676E 
 630      65642069 
 631              	.LASF12:
 632 004b 62797465 		.ascii	"byteArray\000"
 632      41727261 
 632      7900
 633              	.LASF8:
 634 0055 6D61736B 		.ascii	"mask\000"
 634      00
 635              	.LASF1:
 636 005a 756E7369 		.ascii	"unsigned char\000"
 636      676E6564 
 636      20636861 
 636      7200
 637              	.LASF18:
 638 0068 66696E61 		.ascii	"finalAddress\000"
 638      6C416464 
 638      72657373 
 638      00
 639              	.LASF13:
 640 0075 61646472 		.ascii	"address\000"
 640      65737300 
 641              	.LASF19:
 642 007d 474E5520 		.ascii	"GNU C11 7.3.1 20180622 (release) [ARM/embedded-7-br"
 642      43313120 
 642      372E332E 
 642      31203230 
 642      31383036 
 643 00b0 616E6368 		.ascii	"anch revision 261907] -mcpu=arm7tdmi -mthumb -mthum"
 643      20726576 
 643      6973696F 
 643      6E203236 
 643      31393037 
 644 00e3 622D696E 		.ascii	"b-interwork -gdwarf-2 -O0\000"
 644      74657277 
 644      6F726B20 
 644      2D676477 
 644      6172662D 
 645              	.LASF10:
 646 00fd 63616C63 		.ascii	"calculateHumidity\000"
 646      756C6174 
 646      6548756D 
 646      69646974 
 646      7900
 647              	.LASF21:
 648 010f 433A5C45 		.ascii	"C:\\Embedded\\2138MiniDemo\\2138\000"
 648      6D626564 
 648      6465645C 
 648      32313338 
 648      4D696E69 
 649              	.LASF2:
ARM GAS  C:\Users\embedded\AppData\Local\Temp\ccWX71zC.s 			page 14


 650 012d 73686F72 		.ascii	"short unsigned int\000"
 650      7420756E 
 650      7369676E 
 650      65642069 
 650      6E7400
 651              	.LASF5:
 652 0140 7369676E 		.ascii	"signed char\000"
 652      65642063 
 652      68617200 
 653              	.LASF17:
 654 014c 636F6D6D 		.ascii	"commandNoHoldMaster\000"
 654      616E644E 
 654      6F486F6C 
 654      644D6173 
 654      74657200 
 655              	.LASF0:
 656 0160 74553136 		.ascii	"tU16\000"
 656      00
 657              	.LASF6:
 658 0165 73686F72 		.ascii	"short int\000"
 658      7420696E 
 658      7400
 659              	.LASF11:
 660 016f 6D656173 		.ascii	"measureHumidity\000"
 660      75726548 
 660      756D6964 
 660      69747900 
 661              	.LASF9:
 662 017f 72656164 		.ascii	"readData\000"
 662      44617461 
 662      00
 663              	.LASF14:
 664 0188 70427566 		.ascii	"pBuf\000"
 664      00
 665              		.ident	"GCC: (GNU Tools for Arm Embedded Processors 7-2018-q2-update) 7.3.1 20180622 (release) [AR
ARM GAS  C:\Users\embedded\AppData\Local\Temp\ccWX71zC.s 			page 15


DEFINED SYMBOLS
                            *ABS*:00000000 htu21df.c
C:\Users\embedded\AppData\Local\Temp\ccWX71zC.s:22     .text:00000000 measureHumidity
C:\Users\embedded\AppData\Local\Temp\ccWX71zC.s:30     .text:00000000 $t
C:\Users\embedded\AppData\Local\Temp\ccWX71zC.s:131    .text:0000008a calculateHumidity
C:\Users\embedded\AppData\Local\Temp\ccWX71zC.s:228    .text:0000011c $d

UNDEFINED SYMBOLS
i2cWrite
mdelay
i2cRead
__aeabi_i2d
__aeabi_ddiv
__aeabi_dsub
__aeabi_d2iz
