ARM GAS  C:\Users\embedded\AppData\Local\Temp\ccTOAqr7.s 			page 1


   1              		.cpu arm7tdmi
   2              		.eabi_attribute 20, 1
   3              		.eabi_attribute 21, 1
   4              		.eabi_attribute 23, 3
   5              		.eabi_attribute 24, 1
   6              		.eabi_attribute 25, 1
   7              		.eabi_attribute 26, 1
   8              		.eabi_attribute 30, 6
   9              		.eabi_attribute 34, 0
  10              		.eabi_attribute 18, 4
  11              		.file	"htu21df.c"
  12              		.text
  13              	.Ltext0:
  14              		.cfi_sections	.debug_frame
  15              		.align	1
  16              		.global	measureHumidity
  17              		.syntax unified
  18              		.code	16
  19              		.thumb_func
  20              		.fpu softvfp
  21              		.type	measureHumidity, %function
  22              	measureHumidity:
  23              	.LFB0:
  24              		.file 1 "htu21df.c"
   1:htu21df.c     **** /*
   2:htu21df.c     ****     Plik z kodem źródłowym funkcji do obsługi
   3:htu21df.c     ****     czujnika wilgotności HTU21D(F)
   4:htu21df.c     **** */
   5:htu21df.c     **** 
   6:htu21df.c     **** #include "htu21df.h"
   7:htu21df.c     **** 
   8:htu21df.c     **** /*
   9:htu21df.c     ****  * @brief   Funkcja measureHumidity() wykorzystywana jest do odczytania z czujnika wilgotności
  10:htu21df.c     ****  *          nieprzeliczonej wartości wilgotności i następnie jej przeliczenie, tak aby reprezent
  11:htu21df.c     ****  *          wilgotność wyrażoną w procentach.
  12:htu21df.c     ****  *
  13:htu21df.c     ****  * @param   void
  14:htu21df.c     ****  *
  15:htu21df.c     ****  * @returns
  16:htu21df.c     ****  *          Przeliczona wartość ciśnienia, która wyrażona jest w procentach.
  17:htu21df.c     ****  *
  18:htu21df.c     ****  * @side effects:
  19:htu21df.c     ****  *          Brak
  20:htu21df.c     ****  */
  21:htu21df.c     **** 
  22:htu21df.c     **** tS8 measureHumidity(void)
  23:htu21df.c     **** {
  25              		.loc 1 23 0
  26              		.cfi_startproc
  27              		@ Function supports interworking.
  28              		@ args = 0, pretend = 0, frame = 24
  29              		@ frame_needed = 1, uses_anonymous_args = 0
  30 0000 F0B5     		push	{r4, r5, r6, r7, lr}
  31              	.LCFI0:
  32              		.cfi_def_cfa_offset 20
  33              		.cfi_offset 4, -20
  34              		.cfi_offset 5, -16
ARM GAS  C:\Users\embedded\AppData\Local\Temp\ccTOAqr7.s 			page 2


  35              		.cfi_offset 6, -12
  36              		.cfi_offset 7, -8
  37              		.cfi_offset 14, -4
  38 0002 87B0     		sub	sp, sp, #28
  39              	.LCFI1:
  40              		.cfi_def_cfa_offset 48
  41 0004 00AF     		add	r7, sp, #0
  42              	.LCFI2:
  43              		.cfi_def_cfa_register 7
  24:htu21df.c     ****     // Adres urządzenia HTU21DF
  25:htu21df.c     ****     tU8 htu21Address = 0x40;
  44              		.loc 1 25 0
  45 0006 1621     		movs	r1, #22
  46 0008 7B18     		adds	r3, r7, r1
  47 000a 4022     		movs	r2, #64
  48 000c 1A70     		strb	r2, [r3]
  26:htu21df.c     **** 
  27:htu21df.c     ****     // Adres do zapisu do urządzenia HTU21DF
  28:htu21df.c     ****     tU8 htu21WriteAddress = ((tU8)htu21Address << 1);
  49              		.loc 1 28 0
  50 000e 1520     		movs	r0, #21
  51 0010 3A18     		adds	r2, r7, r0
  52 0012 7B18     		adds	r3, r7, r1
  53 0014 1B78     		ldrb	r3, [r3]
  54 0016 DB18     		adds	r3, r3, r3
  55 0018 1370     		strb	r3, [r2]
  29:htu21df.c     **** 
  30:htu21df.c     ****     // Adres do odczytu do urządzenia HTU21DF
  31:htu21df.c     ****     tU8 htu21ReadAddress = ((tU8)htu21Address << 1 | (tU8)1);
  56              		.loc 1 31 0
  57 001a 7B18     		adds	r3, r7, r1
  58 001c 1B78     		ldrb	r3, [r3]
  59 001e 5B00     		lsls	r3, r3, #1
  60 0020 1B06     		lsls	r3, r3, #24
  61 0022 1B16     		asrs	r3, r3, #24
  62 0024 0122     		movs	r2, #1
  63 0026 1343     		orrs	r3, r2
  64 0028 1B06     		lsls	r3, r3, #24
  65 002a 1A16     		asrs	r2, r3, #24
  66 002c 1426     		movs	r6, #20
  67 002e BB19     		adds	r3, r7, r6
  68 0030 1A70     		strb	r2, [r3]
  32:htu21df.c     **** 
  33:htu21df.c     ****     // Bufor 2-bajtowy do przechowania wartości odczytanej z czujnika HTU21DF
  34:htu21df.c     ****     tU8 readHumidity[2] = {0};
  69              		.loc 1 34 0
  70 0032 0825     		movs	r5, #8
  71 0034 7B19     		adds	r3, r7, r5
  72 0036 0022     		movs	r2, #0
  73 0038 1A80     		strh	r2, [r3]
  35:htu21df.c     **** 
  36:htu21df.c     ****     /*
  37:htu21df.c     ****         Adres rejestru do którego trzeba wpisać komendę: (0x40 << 1)
  38:htu21df.c     ****         Adres rejestru z którego trzeba odczytać wynik pomiaru: ((0x40 << 1) | 1)
  39:htu21df.c     ****     */
  40:htu21df.c     **** 
  41:htu21df.c     ****     tS8 retCode;
ARM GAS  C:\Users\embedded\AppData\Local\Temp\ccTOAqr7.s 			page 3


  42:htu21df.c     **** 
  43:htu21df.c     ****     // Komenda odczytu wilgotności w trybie "No Hold Master".
  44:htu21df.c     ****     tU8 commandNoHoldMaster[1] = {0};
  74              		.loc 1 44 0
  75 003a 3B1D     		adds	r3, r7, #4
  76 003c 0022     		movs	r2, #0
  77 003e 1A70     		strb	r2, [r3]
  45:htu21df.c     ****     commandNoHoldMaster[0] = 0xF5;
  78              		.loc 1 45 0
  79 0040 3B1D     		adds	r3, r7, #4
  80 0042 F522     		movs	r2, #245
  81 0044 1A70     		strb	r2, [r3]
  46:htu21df.c     ****     retCode = i2cWrite(htu21WriteAddress, commandNoHoldMaster, 1);
  82              		.loc 1 46 0
  83 0046 1323     		movs	r3, #19
  84 0048 FC18     		adds	r4, r7, r3
  85 004a 391D     		adds	r1, r7, #4
  86 004c 3B18     		adds	r3, r7, r0
  87 004e 1B78     		ldrb	r3, [r3]
  88 0050 0122     		movs	r2, #1
  89 0052 1800     		movs	r0, r3
  90 0054 FFF7FEFF 		bl	i2cWrite
  91 0058 0300     		movs	r3, r0
  92 005a 2370     		strb	r3, [r4]
  47:htu21df.c     ****     mdelay(16);
  93              		.loc 1 47 0
  94 005c 1020     		movs	r0, #16
  95 005e FFF7FEFF 		bl	mdelay
  48:htu21df.c     ****     retCode = i2cRead(htu21ReadAddress, readHumidity, 2);
  96              		.loc 1 48 0
  97 0062 1323     		movs	r3, #19
  98 0064 FC18     		adds	r4, r7, r3
  99 0066 7919     		adds	r1, r7, r5
 100 0068 BB19     		adds	r3, r7, r6
 101 006a 1B78     		ldrb	r3, [r3]
 102 006c 0222     		movs	r2, #2
 103 006e 1800     		movs	r0, r3
 104 0070 FFF7FEFF 		bl	i2cRead
 105 0074 0300     		movs	r3, r0
 106 0076 2370     		strb	r3, [r4]
  49:htu21df.c     **** 
  50:htu21df.c     ****     /*
  51:htu21df.c     ****         Konwersja tablicy 2 bajtów na jedną zmienną 16 bitową.
  52:htu21df.c     ****         Wyłączenie bitów stanu - dla wilgotności są to ostatnie 4 bity.
  53:htu21df.c     ****     */
  54:htu21df.c     **** 
  55:htu21df.c     ****     tU8 mask = ~(0x0F);
 107              		.loc 1 55 0
 108 0078 1221     		movs	r1, #18
 109 007a 7B18     		adds	r3, r7, r1
 110 007c F022     		movs	r2, #240
 111 007e 1A70     		strb	r2, [r3]
  56:htu21df.c     **** 	readHumidity[1] = (readHumidity[1] & mask);
 112              		.loc 1 56 0
 113 0080 7B19     		adds	r3, r7, r5
 114 0082 5B78     		ldrb	r3, [r3, #1]
 115 0084 7A18     		adds	r2, r7, r1
ARM GAS  C:\Users\embedded\AppData\Local\Temp\ccTOAqr7.s 			page 4


 116 0086 1278     		ldrb	r2, [r2]
 117 0088 1340     		ands	r3, r2
 118 008a 1B06     		lsls	r3, r3, #24
 119 008c 1A0E     		lsrs	r2, r3, #24
 120 008e 7B19     		adds	r3, r7, r5
 121 0090 5A70     		strb	r2, [r3, #1]
  57:htu21df.c     ****     tU16 readData = ((readHumidity[0] << 8) | readHumidity[1]);
 122              		.loc 1 57 0
 123 0092 7B19     		adds	r3, r7, r5
 124 0094 1B78     		ldrb	r3, [r3]
 125 0096 1B02     		lsls	r3, r3, #8
 126 0098 1A04     		lsls	r2, r3, #16
 127 009a 1214     		asrs	r2, r2, #16
 128 009c 7B19     		adds	r3, r7, r5
 129 009e 5B78     		ldrb	r3, [r3, #1]
 130 00a0 1B04     		lsls	r3, r3, #16
 131 00a2 1B14     		asrs	r3, r3, #16
 132 00a4 1343     		orrs	r3, r2
 133 00a6 1B04     		lsls	r3, r3, #16
 134 00a8 1B14     		asrs	r3, r3, #16
 135 00aa 1021     		movs	r1, #16
 136 00ac 7A18     		adds	r2, r7, r1
 137 00ae 1380     		strh	r3, [r2]
  58:htu21df.c     **** 
  59:htu21df.c     ****     tU32 upperValue = ((tU32)125 * (tU32)readData);
 138              		.loc 1 59 0
 139 00b0 7B18     		adds	r3, r7, r1
 140 00b2 1A88     		ldrh	r2, [r3]
 141 00b4 1300     		movs	r3, r2
 142 00b6 5B01     		lsls	r3, r3, #5
 143 00b8 9B1A     		subs	r3, r3, r2
 144 00ba 9B00     		lsls	r3, r3, #2
 145 00bc 9B18     		adds	r3, r3, r2
 146 00be FB60     		str	r3, [r7, #12]
  60:htu21df.c     ****     tS8 humidityValue = ((tS8)(upperValue / (tU32)65536) - (tS8)6);
 147              		.loc 1 60 0
 148 00c0 FB68     		ldr	r3, [r7, #12]
 149 00c2 1B0C     		lsrs	r3, r3, #16
 150 00c4 1B06     		lsls	r3, r3, #24
 151 00c6 1B0E     		lsrs	r3, r3, #24
 152 00c8 063B     		subs	r3, r3, #6
 153 00ca 1B06     		lsls	r3, r3, #24
 154 00cc 1A0E     		lsrs	r2, r3, #24
 155 00ce 1721     		movs	r1, #23
 156 00d0 7B18     		adds	r3, r7, r1
 157 00d2 1A70     		strb	r2, [r3]
  61:htu21df.c     **** 
  62:htu21df.c     ****     if (humidityValue < 0) {
 158              		.loc 1 62 0
 159 00d4 7B18     		adds	r3, r7, r1
 160 00d6 1B78     		ldrb	r3, [r3]
 161 00d8 7F2B     		cmp	r3, #127
 162 00da 04D9     		bls	.L2
  63:htu21df.c     ****         humidityValue = 0;
 163              		.loc 1 63 0
 164 00dc 1723     		movs	r3, #23
 165 00de FB18     		adds	r3, r7, r3
ARM GAS  C:\Users\embedded\AppData\Local\Temp\ccTOAqr7.s 			page 5


 166 00e0 0022     		movs	r2, #0
 167 00e2 1A70     		strb	r2, [r3]
 168 00e4 0AE0     		b	.L3
 169              	.L2:
  64:htu21df.c     ****     }
  65:htu21df.c     ****     else if (humidityValue > 100)
 170              		.loc 1 65 0
 171 00e6 1723     		movs	r3, #23
 172 00e8 FB18     		adds	r3, r7, r3
 173 00ea 1B78     		ldrb	r3, [r3]
 174 00ec 1B06     		lsls	r3, r3, #24
 175 00ee 1B16     		asrs	r3, r3, #24
 176 00f0 642B     		cmp	r3, #100
 177 00f2 03DD     		ble	.L3
  66:htu21df.c     ****     {
  67:htu21df.c     ****         humidityValue = 100;
 178              		.loc 1 67 0
 179 00f4 1723     		movs	r3, #23
 180 00f6 FB18     		adds	r3, r7, r3
 181 00f8 6422     		movs	r2, #100
 182 00fa 1A70     		strb	r2, [r3]
 183              	.L3:
  68:htu21df.c     ****     }
  69:htu21df.c     **** 
  70:htu21df.c     **** 
  71:htu21df.c     ****     return humidityValue;
 184              		.loc 1 71 0
 185 00fc 1723     		movs	r3, #23
 186 00fe FB18     		adds	r3, r7, r3
 187 0100 1B78     		ldrb	r3, [r3]
 188 0102 1B06     		lsls	r3, r3, #24
 189 0104 1B16     		asrs	r3, r3, #24
  72:htu21df.c     **** }
 190              		.loc 1 72 0
 191 0106 1800     		movs	r0, r3
 192 0108 BD46     		mov	sp, r7
 193 010a 07B0     		add	sp, sp, #28
 194              		@ sp needed
 195 010c F0BC     		pop	{r4, r5, r6, r7}
 196 010e 02BC     		pop	{r1}
 197 0110 0847     		bx	r1
 198              		.cfi_endproc
 199              	.LFE0:
 200              		.size	measureHumidity, .-measureHumidity
 201              	.Letext0:
 202              		.file 2 "general.h"
 203              		.section	.debug_info,"",%progbits
 204              	.Ldebug_info0:
 205 0000 4D010000 		.4byte	0x14d
 206 0004 0200     		.2byte	0x2
 207 0006 00000000 		.4byte	.Ldebug_abbrev0
 208 000a 04       		.byte	0x4
 209 000b 01       		.uleb128 0x1
 210 000c B4000000 		.4byte	.LASF19
 211 0010 0C       		.byte	0xc
 212 0011 5A000000 		.4byte	.LASF20
 213 0015 34010000 		.4byte	.LASF21
ARM GAS  C:\Users\embedded\AppData\Local\Temp\ccTOAqr7.s 			page 6


 214 0019 00000000 		.4byte	.Ltext0
 215 001d 12010000 		.4byte	.Letext0
 216 0021 00000000 		.4byte	.Ldebug_line0
 217 0025 02       		.uleb128 0x2
 218 0026 74553800 		.ascii	"tU8\000"
 219 002a 02       		.byte	0x2
 220 002b 17       		.byte	0x17
 221 002c 30000000 		.4byte	0x30
 222 0030 03       		.uleb128 0x3
 223 0031 01       		.byte	0x1
 224 0032 08       		.byte	0x8
 225 0033 92000000 		.4byte	.LASF1
 226 0037 04       		.uleb128 0x4
 227 0038 7E010000 		.4byte	.LASF0
 228 003c 02       		.byte	0x2
 229 003d 18       		.byte	0x18
 230 003e 42000000 		.4byte	0x42
 231 0042 03       		.uleb128 0x3
 232 0043 02       		.byte	0x2
 233 0044 07       		.byte	0x7
 234 0045 52010000 		.4byte	.LASF2
 235 0049 04       		.uleb128 0x4
 236 004a A6010000 		.4byte	.LASF3
 237 004e 02       		.byte	0x2
 238 004f 19       		.byte	0x19
 239 0050 54000000 		.4byte	0x54
 240 0054 03       		.uleb128 0x3
 241 0055 04       		.byte	0x4
 242 0056 07       		.byte	0x7
 243 0057 0E000000 		.4byte	.LASF4
 244 005b 03       		.uleb128 0x3
 245 005c 08       		.byte	0x8
 246 005d 07       		.byte	0x7
 247 005e 64000000 		.4byte	.LASF5
 248 0062 02       		.uleb128 0x2
 249 0063 74533800 		.ascii	"tS8\000"
 250 0067 02       		.byte	0x2
 251 0068 1B       		.byte	0x1b
 252 0069 6D000000 		.4byte	0x6d
 253 006d 03       		.uleb128 0x3
 254 006e 01       		.byte	0x1
 255 006f 06       		.byte	0x6
 256 0070 65010000 		.4byte	.LASF6
 257 0074 03       		.uleb128 0x3
 258 0075 02       		.byte	0x2
 259 0076 05       		.byte	0x5
 260 0077 83010000 		.4byte	.LASF7
 261 007b 05       		.uleb128 0x5
 262 007c 04       		.byte	0x4
 263 007d 05       		.byte	0x5
 264 007e 696E7400 		.ascii	"int\000"
 265 0082 03       		.uleb128 0x3
 266 0083 08       		.byte	0x8
 267 0084 05       		.byte	0x5
 268 0085 00000000 		.4byte	.LASF8
 269 0089 06       		.uleb128 0x6
 270 008a 01       		.byte	0x1
ARM GAS  C:\Users\embedded\AppData\Local\Temp\ccTOAqr7.s 			page 7


 271 008b 8D010000 		.4byte	.LASF22
 272 008f 01       		.byte	0x1
 273 0090 16       		.byte	0x16
 274 0091 01       		.byte	0x1
 275 0092 62000000 		.4byte	0x62
 276 0096 00000000 		.4byte	.LFB0
 277 009a 12010000 		.4byte	.LFE0
 278 009e 00000000 		.4byte	.LLST0
 279 00a2 01       		.byte	0x1
 280 00a3 34010000 		.4byte	0x134
 281 00a7 07       		.uleb128 0x7
 282 00a8 71010000 		.4byte	.LASF9
 283 00ac 01       		.byte	0x1
 284 00ad 19       		.byte	0x19
 285 00ae 25000000 		.4byte	0x25
 286 00b2 02       		.byte	0x2
 287 00b3 91       		.byte	0x91
 288 00b4 66       		.sleb128 -26
 289 00b5 07       		.uleb128 0x7
 290 00b6 80000000 		.4byte	.LASF10
 291 00ba 01       		.byte	0x1
 292 00bb 1C       		.byte	0x1c
 293 00bc 25000000 		.4byte	0x25
 294 00c0 02       		.byte	0x2
 295 00c1 91       		.byte	0x91
 296 00c2 65       		.sleb128 -27
 297 00c3 07       		.uleb128 0x7
 298 00c4 3C000000 		.4byte	.LASF11
 299 00c8 01       		.byte	0x1
 300 00c9 1F       		.byte	0x1f
 301 00ca 25000000 		.4byte	0x25
 302 00ce 02       		.byte	0x2
 303 00cf 91       		.byte	0x91
 304 00d0 64       		.sleb128 -28
 305 00d1 07       		.uleb128 0x7
 306 00d2 4D000000 		.4byte	.LASF12
 307 00d6 01       		.byte	0x1
 308 00d7 22       		.byte	0x22
 309 00d8 34010000 		.4byte	0x134
 310 00dc 02       		.byte	0x2
 311 00dd 91       		.byte	0x91
 312 00de 58       		.sleb128 -40
 313 00df 07       		.uleb128 0x7
 314 00e0 29000000 		.4byte	.LASF13
 315 00e4 01       		.byte	0x1
 316 00e5 29       		.byte	0x29
 317 00e6 62000000 		.4byte	0x62
 318 00ea 02       		.byte	0x2
 319 00eb 91       		.byte	0x91
 320 00ec 63       		.sleb128 -29
 321 00ed 07       		.uleb128 0x7
 322 00ee A0000000 		.4byte	.LASF14
 323 00f2 01       		.byte	0x1
 324 00f3 2C       		.byte	0x2c
 325 00f4 44010000 		.4byte	0x144
 326 00f8 02       		.byte	0x2
 327 00f9 91       		.byte	0x91
ARM GAS  C:\Users\embedded\AppData\Local\Temp\ccTOAqr7.s 			page 8


 328 00fa 54       		.sleb128 -44
 329 00fb 07       		.uleb128 0x7
 330 00fc 7B000000 		.4byte	.LASF15
 331 0100 01       		.byte	0x1
 332 0101 37       		.byte	0x37
 333 0102 25000000 		.4byte	0x25
 334 0106 02       		.byte	0x2
 335 0107 91       		.byte	0x91
 336 0108 62       		.sleb128 -30
 337 0109 07       		.uleb128 0x7
 338 010a 9D010000 		.4byte	.LASF16
 339 010e 01       		.byte	0x1
 340 010f 39       		.byte	0x39
 341 0110 37000000 		.4byte	0x37
 342 0114 02       		.byte	0x2
 343 0115 91       		.byte	0x91
 344 0116 60       		.sleb128 -32
 345 0117 07       		.uleb128 0x7
 346 0118 31000000 		.4byte	.LASF17
 347 011c 01       		.byte	0x1
 348 011d 3B       		.byte	0x3b
 349 011e 49000000 		.4byte	0x49
 350 0122 02       		.byte	0x2
 351 0123 91       		.byte	0x91
 352 0124 5C       		.sleb128 -36
 353 0125 07       		.uleb128 0x7
 354 0126 1B000000 		.4byte	.LASF18
 355 012a 01       		.byte	0x1
 356 012b 3C       		.byte	0x3c
 357 012c 62000000 		.4byte	0x62
 358 0130 02       		.byte	0x2
 359 0131 91       		.byte	0x91
 360 0132 67       		.sleb128 -25
 361 0133 00       		.byte	0
 362 0134 08       		.uleb128 0x8
 363 0135 25000000 		.4byte	0x25
 364 0139 44010000 		.4byte	0x144
 365 013d 09       		.uleb128 0x9
 366 013e 54000000 		.4byte	0x54
 367 0142 01       		.byte	0x1
 368 0143 00       		.byte	0
 369 0144 0A       		.uleb128 0xa
 370 0145 25000000 		.4byte	0x25
 371 0149 09       		.uleb128 0x9
 372 014a 54000000 		.4byte	0x54
 373 014e 00       		.byte	0
 374 014f 00       		.byte	0
 375 0150 00       		.byte	0
 376              		.section	.debug_abbrev,"",%progbits
 377              	.Ldebug_abbrev0:
 378 0000 01       		.uleb128 0x1
 379 0001 11       		.uleb128 0x11
 380 0002 01       		.byte	0x1
 381 0003 25       		.uleb128 0x25
 382 0004 0E       		.uleb128 0xe
 383 0005 13       		.uleb128 0x13
 384 0006 0B       		.uleb128 0xb
ARM GAS  C:\Users\embedded\AppData\Local\Temp\ccTOAqr7.s 			page 9


 385 0007 03       		.uleb128 0x3
 386 0008 0E       		.uleb128 0xe
 387 0009 1B       		.uleb128 0x1b
 388 000a 0E       		.uleb128 0xe
 389 000b 11       		.uleb128 0x11
 390 000c 01       		.uleb128 0x1
 391 000d 12       		.uleb128 0x12
 392 000e 01       		.uleb128 0x1
 393 000f 10       		.uleb128 0x10
 394 0010 06       		.uleb128 0x6
 395 0011 00       		.byte	0
 396 0012 00       		.byte	0
 397 0013 02       		.uleb128 0x2
 398 0014 16       		.uleb128 0x16
 399 0015 00       		.byte	0
 400 0016 03       		.uleb128 0x3
 401 0017 08       		.uleb128 0x8
 402 0018 3A       		.uleb128 0x3a
 403 0019 0B       		.uleb128 0xb
 404 001a 3B       		.uleb128 0x3b
 405 001b 0B       		.uleb128 0xb
 406 001c 49       		.uleb128 0x49
 407 001d 13       		.uleb128 0x13
 408 001e 00       		.byte	0
 409 001f 00       		.byte	0
 410 0020 03       		.uleb128 0x3
 411 0021 24       		.uleb128 0x24
 412 0022 00       		.byte	0
 413 0023 0B       		.uleb128 0xb
 414 0024 0B       		.uleb128 0xb
 415 0025 3E       		.uleb128 0x3e
 416 0026 0B       		.uleb128 0xb
 417 0027 03       		.uleb128 0x3
 418 0028 0E       		.uleb128 0xe
 419 0029 00       		.byte	0
 420 002a 00       		.byte	0
 421 002b 04       		.uleb128 0x4
 422 002c 16       		.uleb128 0x16
 423 002d 00       		.byte	0
 424 002e 03       		.uleb128 0x3
 425 002f 0E       		.uleb128 0xe
 426 0030 3A       		.uleb128 0x3a
 427 0031 0B       		.uleb128 0xb
 428 0032 3B       		.uleb128 0x3b
 429 0033 0B       		.uleb128 0xb
 430 0034 49       		.uleb128 0x49
 431 0035 13       		.uleb128 0x13
 432 0036 00       		.byte	0
 433 0037 00       		.byte	0
 434 0038 05       		.uleb128 0x5
 435 0039 24       		.uleb128 0x24
 436 003a 00       		.byte	0
 437 003b 0B       		.uleb128 0xb
 438 003c 0B       		.uleb128 0xb
 439 003d 3E       		.uleb128 0x3e
 440 003e 0B       		.uleb128 0xb
 441 003f 03       		.uleb128 0x3
ARM GAS  C:\Users\embedded\AppData\Local\Temp\ccTOAqr7.s 			page 10


 442 0040 08       		.uleb128 0x8
 443 0041 00       		.byte	0
 444 0042 00       		.byte	0
 445 0043 06       		.uleb128 0x6
 446 0044 2E       		.uleb128 0x2e
 447 0045 01       		.byte	0x1
 448 0046 3F       		.uleb128 0x3f
 449 0047 0C       		.uleb128 0xc
 450 0048 03       		.uleb128 0x3
 451 0049 0E       		.uleb128 0xe
 452 004a 3A       		.uleb128 0x3a
 453 004b 0B       		.uleb128 0xb
 454 004c 3B       		.uleb128 0x3b
 455 004d 0B       		.uleb128 0xb
 456 004e 27       		.uleb128 0x27
 457 004f 0C       		.uleb128 0xc
 458 0050 49       		.uleb128 0x49
 459 0051 13       		.uleb128 0x13
 460 0052 11       		.uleb128 0x11
 461 0053 01       		.uleb128 0x1
 462 0054 12       		.uleb128 0x12
 463 0055 01       		.uleb128 0x1
 464 0056 40       		.uleb128 0x40
 465 0057 06       		.uleb128 0x6
 466 0058 9642     		.uleb128 0x2116
 467 005a 0C       		.uleb128 0xc
 468 005b 01       		.uleb128 0x1
 469 005c 13       		.uleb128 0x13
 470 005d 00       		.byte	0
 471 005e 00       		.byte	0
 472 005f 07       		.uleb128 0x7
 473 0060 34       		.uleb128 0x34
 474 0061 00       		.byte	0
 475 0062 03       		.uleb128 0x3
 476 0063 0E       		.uleb128 0xe
 477 0064 3A       		.uleb128 0x3a
 478 0065 0B       		.uleb128 0xb
 479 0066 3B       		.uleb128 0x3b
 480 0067 0B       		.uleb128 0xb
 481 0068 49       		.uleb128 0x49
 482 0069 13       		.uleb128 0x13
 483 006a 02       		.uleb128 0x2
 484 006b 0A       		.uleb128 0xa
 485 006c 00       		.byte	0
 486 006d 00       		.byte	0
 487 006e 08       		.uleb128 0x8
 488 006f 01       		.uleb128 0x1
 489 0070 01       		.byte	0x1
 490 0071 49       		.uleb128 0x49
 491 0072 13       		.uleb128 0x13
 492 0073 01       		.uleb128 0x1
 493 0074 13       		.uleb128 0x13
 494 0075 00       		.byte	0
 495 0076 00       		.byte	0
 496 0077 09       		.uleb128 0x9
 497 0078 21       		.uleb128 0x21
 498 0079 00       		.byte	0
ARM GAS  C:\Users\embedded\AppData\Local\Temp\ccTOAqr7.s 			page 11


 499 007a 49       		.uleb128 0x49
 500 007b 13       		.uleb128 0x13
 501 007c 2F       		.uleb128 0x2f
 502 007d 0B       		.uleb128 0xb
 503 007e 00       		.byte	0
 504 007f 00       		.byte	0
 505 0080 0A       		.uleb128 0xa
 506 0081 01       		.uleb128 0x1
 507 0082 01       		.byte	0x1
 508 0083 49       		.uleb128 0x49
 509 0084 13       		.uleb128 0x13
 510 0085 00       		.byte	0
 511 0086 00       		.byte	0
 512 0087 00       		.byte	0
 513              		.section	.debug_loc,"",%progbits
 514              	.Ldebug_loc0:
 515              	.LLST0:
 516 0000 00000000 		.4byte	.LFB0-.Ltext0
 517 0004 02000000 		.4byte	.LCFI0-.Ltext0
 518 0008 0200     		.2byte	0x2
 519 000a 7D       		.byte	0x7d
 520 000b 00       		.sleb128 0
 521 000c 02000000 		.4byte	.LCFI0-.Ltext0
 522 0010 04000000 		.4byte	.LCFI1-.Ltext0
 523 0014 0200     		.2byte	0x2
 524 0016 7D       		.byte	0x7d
 525 0017 14       		.sleb128 20
 526 0018 04000000 		.4byte	.LCFI1-.Ltext0
 527 001c 06000000 		.4byte	.LCFI2-.Ltext0
 528 0020 0200     		.2byte	0x2
 529 0022 7D       		.byte	0x7d
 530 0023 30       		.sleb128 48
 531 0024 06000000 		.4byte	.LCFI2-.Ltext0
 532 0028 12010000 		.4byte	.LFE0-.Ltext0
 533 002c 0200     		.2byte	0x2
 534 002e 77       		.byte	0x77
 535 002f 30       		.sleb128 48
 536 0030 00000000 		.4byte	0
 537 0034 00000000 		.4byte	0
 538              		.section	.debug_aranges,"",%progbits
 539 0000 1C000000 		.4byte	0x1c
 540 0004 0200     		.2byte	0x2
 541 0006 00000000 		.4byte	.Ldebug_info0
 542 000a 04       		.byte	0x4
 543 000b 00       		.byte	0
 544 000c 0000     		.2byte	0
 545 000e 0000     		.2byte	0
 546 0010 00000000 		.4byte	.Ltext0
 547 0014 12010000 		.4byte	.Letext0-.Ltext0
 548 0018 00000000 		.4byte	0
 549 001c 00000000 		.4byte	0
 550              		.section	.debug_line,"",%progbits
 551              	.Ldebug_line0:
 552 0000 58000000 		.section	.debug_str,"MS",%progbits,1
 552      02002D00 
 552      00000201 
 552      FB0E0D00 
ARM GAS  C:\Users\embedded\AppData\Local\Temp\ccTOAqr7.s 			page 12


 552      01010101 
 553              	.LASF8:
 554 0000 6C6F6E67 		.ascii	"long long int\000"
 554      206C6F6E 
 554      6720696E 
 554      7400
 555              	.LASF4:
 556 000e 756E7369 		.ascii	"unsigned int\000"
 556      676E6564 
 556      20696E74 
 556      00
 557              	.LASF18:
 558 001b 68756D69 		.ascii	"humidityValue\000"
 558      64697479 
 558      56616C75 
 558      6500
 559              	.LASF13:
 560 0029 72657443 		.ascii	"retCode\000"
 560      6F646500 
 561              	.LASF17:
 562 0031 75707065 		.ascii	"upperValue\000"
 562      7256616C 
 562      756500
 563              	.LASF11:
 564 003c 68747532 		.ascii	"htu21ReadAddress\000"
 564      31526561 
 564      64416464 
 564      72657373 
 564      00
 565              	.LASF12:
 566 004d 72656164 		.ascii	"readHumidity\000"
 566      48756D69 
 566      64697479 
 566      00
 567              	.LASF20:
 568 005a 68747532 		.ascii	"htu21df.c\000"
 568      3164662E 
 568      6300
 569              	.LASF5:
 570 0064 6C6F6E67 		.ascii	"long long unsigned int\000"
 570      206C6F6E 
 570      6720756E 
 570      7369676E 
 570      65642069 
 571              	.LASF15:
 572 007b 6D61736B 		.ascii	"mask\000"
 572      00
 573              	.LASF10:
 574 0080 68747532 		.ascii	"htu21WriteAddress\000"
 574      31577269 
 574      74654164 
 574      64726573 
 574      7300
 575              	.LASF1:
 576 0092 756E7369 		.ascii	"unsigned char\000"
 576      676E6564 
 576      20636861 
ARM GAS  C:\Users\embedded\AppData\Local\Temp\ccTOAqr7.s 			page 13


 576      7200
 577              	.LASF14:
 578 00a0 636F6D6D 		.ascii	"commandNoHoldMaster\000"
 578      616E644E 
 578      6F486F6C 
 578      644D6173 
 578      74657200 
 579              	.LASF19:
 580 00b4 474E5520 		.ascii	"GNU C11 7.3.1 20180622 (release) [ARM/embedded-7-br"
 580      43313120 
 580      372E332E 
 580      31203230 
 580      31383036 
 581 00e7 616E6368 		.ascii	"anch revision 261907] -mcpu=arm7tdmi -mthumb -mthum"
 581      20726576 
 581      6973696F 
 581      6E203236 
 581      31393037 
 582 011a 622D696E 		.ascii	"b-interwork -gdwarf-2 -O0\000"
 582      74657277 
 582      6F726B20 
 582      2D676477 
 582      6172662D 
 583              	.LASF21:
 584 0134 433A5C45 		.ascii	"C:\\Embedded\\2138MiniDemo\\2138\000"
 584      6D626564 
 584      6465645C 
 584      32313338 
 584      4D696E69 
 585              	.LASF2:
 586 0152 73686F72 		.ascii	"short unsigned int\000"
 586      7420756E 
 586      7369676E 
 586      65642069 
 586      6E7400
 587              	.LASF6:
 588 0165 7369676E 		.ascii	"signed char\000"
 588      65642063 
 588      68617200 
 589              	.LASF9:
 590 0171 68747532 		.ascii	"htu21Address\000"
 590      31416464 
 590      72657373 
 590      00
 591              	.LASF0:
 592 017e 74553136 		.ascii	"tU16\000"
 592      00
 593              	.LASF7:
 594 0183 73686F72 		.ascii	"short int\000"
 594      7420696E 
 594      7400
 595              	.LASF22:
 596 018d 6D656173 		.ascii	"measureHumidity\000"
 596      75726548 
 596      756D6964 
 596      69747900 
 597              	.LASF16:
ARM GAS  C:\Users\embedded\AppData\Local\Temp\ccTOAqr7.s 			page 14


 598 019d 72656164 		.ascii	"readData\000"
 598      44617461 
 598      00
 599              	.LASF3:
 600 01a6 74553332 		.ascii	"tU32\000"
 600      00
 601              		.ident	"GCC: (GNU Tools for Arm Embedded Processors 7-2018-q2-update) 7.3.1 20180622 (release) [AR
ARM GAS  C:\Users\embedded\AppData\Local\Temp\ccTOAqr7.s 			page 15


DEFINED SYMBOLS
                            *ABS*:00000000 htu21df.c
C:\Users\embedded\AppData\Local\Temp\ccTOAqr7.s:22     .text:00000000 measureHumidity
C:\Users\embedded\AppData\Local\Temp\ccTOAqr7.s:30     .text:00000000 $t

UNDEFINED SYMBOLS
i2cWrite
mdelay
i2cRead
