ARM GAS  /cygdrive/c/Users/embedded/AppData/Local/Temp/ccWfuIiM.s 			page 1


   1              		.code	16
   2              		.file	"lcd.c"
   3              		.section	.debug_abbrev,"",%progbits
   4              	.Ldebug_abbrev0:
   5              		.section	.debug_info,"",%progbits
   6              	.Ldebug_info0:
   7              		.section	.debug_line,"",%progbits
   8              	.Ldebug_line0:
   9 0000 7F010000 		.text
   9      02005400 
   9      00000201 
   9      FB0E0D00 
   9      01010101 
  10              	.Ltext0:
  11              		.align	2
  12              		.global	lcdColor
  13              		.code 16
  14              		.thumb_func
  15              		.type	lcdColor, %function
  16              	lcdColor:
  17              	.LFB5:
  18              		.file 1 "lcd.c"
   1:lcd.c         **** /******************************************************************************
   2:lcd.c         ****  *
   3:lcd.c         ****  * Copyright:
   4:lcd.c         ****  *    (C) 2006 Embedded Artists AB
   5:lcd.c         ****  *
   6:lcd.c         ****  * File:
   7:lcd.c         ****  *    lcd.c
   8:lcd.c         ****  *
   9:lcd.c         ****  * Description:
  10:lcd.c         ****  *    Implements routines for the LCD.
  11:lcd.c         ****  *
  12:lcd.c         ****  *****************************************************************************/
  13:lcd.c         **** 
  14:lcd.c         **** /******************************************************************************
  15:lcd.c         ****  * Includes
  16:lcd.c         ****  *****************************************************************************/
  17:lcd.c         **** #include "../pre_emptive_os/api/general.h"
  18:lcd.c         **** #include "../pre_emptive_os/api/osapi.h"
  19:lcd.c         **** #include "lcd.h"
  20:lcd.c         **** #include "ascii.h"
  21:lcd.c         **** #include "lcd_hw.h"
  22:lcd.c         **** 
  23:lcd.c         **** 
  24:lcd.c         **** /******************************************************************************
  25:lcd.c         ****  * Typedefs and defines
  26:lcd.c         ****  *****************************************************************************/
  27:lcd.c         **** #define LCD_CMD_SWRESET   0x01
  28:lcd.c         **** #define LCD_CMD_BSTRON    0x03
  29:lcd.c         **** #define LCD_CMD_SLEEPIN   0x10
  30:lcd.c         **** #define LCD_CMD_SLEEPOUT  0x11
  31:lcd.c         **** #define LCD_CMD_INVON     0x21
  32:lcd.c         **** #define LCD_CMD_SETCON    0x25
  33:lcd.c         **** #define LCD_CMD_DISPON    0x29
  34:lcd.c         **** #define LCD_CMD_CASET     0x2A
  35:lcd.c         **** #define LCD_CMD_PASET     0x2B
ARM GAS  /cygdrive/c/Users/embedded/AppData/Local/Temp/ccWfuIiM.s 			page 2


  36:lcd.c         **** #define LCD_CMD_RAMWR     0x2C
  37:lcd.c         **** #define LCD_CMD_RGBSET    0x2D
  38:lcd.c         **** #define LCD_CMD_MADCTL    0x36
  39:lcd.c         **** #define LCD_CMD_COLMOD    0x3A
  40:lcd.c         **** 
  41:lcd.c         **** #define MADCTL_HORIZ      0x48
  42:lcd.c         **** #define MADCTL_VERT       0x68
  43:lcd.c         **** 
  44:lcd.c         **** 
  45:lcd.c         **** /*****************************************************************************
  46:lcd.c         ****  * Local variables
  47:lcd.c         ****  ****************************************************************************/
  48:lcd.c         **** static tU8 lcd_x;
  49:lcd.c         **** static tU8 lcd_y;
  50:lcd.c         **** static tU8 bkgColor;
  51:lcd.c         **** static tU8 textColor;
  52:lcd.c         **** static tU8 setcolmark;
  53:lcd.c         **** 
  54:lcd.c         **** /*****************************************************************************
  55:lcd.c         ****  * Local prototypes
  56:lcd.c         ****  ****************************************************************************/
  57:lcd.c         **** static void lcdWindow1(tU8 xp, tU8 yp, tU8 xe, tU8 ye);
  58:lcd.c         **** 
  59:lcd.c         **** 
  60:lcd.c         **** /*****************************************************************************
  61:lcd.c         ****  *
  62:lcd.c         ****  * Description:
  63:lcd.c         ****  *    Initialize the LCD controller and SPI interface
  64:lcd.c         ****  *    (0,0) is top left and (129,129) is bottom right
  65:lcd.c         ****  *    8 bits Color mode uses RRRGGGBB layout
  66:lcd.c         ****  *
  67:lcd.c         ****  ****************************************************************************/
  68:lcd.c         **** void
  69:lcd.c         **** lcdInit(void)
  70:lcd.c         **** {
  71:lcd.c         ****   bkgColor  = 0;
  72:lcd.c         ****   textColor = 0;
  73:lcd.c         ****   
  74:lcd.c         ****   //init SPI interface
  75:lcd.c         ****   initSpiForLcd();
  76:lcd.c         ****   
  77:lcd.c         ****   //select controller
  78:lcd.c         ****   selectLCD(TRUE);
  79:lcd.c         **** 
  80:lcd.c         **** 	lcdWrcmd(LCD_CMD_SWRESET);
  81:lcd.c         **** 
  82:lcd.c         **** 	osSleep(1);
  83:lcd.c         **** 	lcdWrcmd(LCD_CMD_SLEEPOUT);
  84:lcd.c         **** 	lcdWrcmd(LCD_CMD_DISPON);
  85:lcd.c         **** 	lcdWrcmd(LCD_CMD_BSTRON);
  86:lcd.c         **** 	osSleep(1);
  87:lcd.c         **** 		
  88:lcd.c         **** 	lcdWrcmd(LCD_CMD_MADCTL);   //Memory data acces control
  89:lcd.c         **** 	lcdWrdata(MADCTL_HORIZ);    //X Mirror and BGR format
  90:lcd.c         **** 	lcdWrcmd(LCD_CMD_COLMOD);   //Colour mode
  91:lcd.c         **** 	lcdWrdata(0x02);            //256 colour mode select
  92:lcd.c         **** 	lcdWrcmd(LCD_CMD_INVON);    //Non Invert mode
ARM GAS  /cygdrive/c/Users/embedded/AppData/Local/Temp/ccWfuIiM.s 			page 3


  93:lcd.c         **** 
  94:lcd.c         **** 	lcdWrcmd(LCD_CMD_RGBSET);   //LUT write
  95:lcd.c         ****   lcdWrdata(0);               //Red
  96:lcd.c         ****   lcdWrdata(2);
  97:lcd.c         ****   lcdWrdata(4);
  98:lcd.c         ****   lcdWrdata(6);
  99:lcd.c         ****   lcdWrdata(9);
 100:lcd.c         ****   lcdWrdata(11);
 101:lcd.c         ****   lcdWrdata(13);
 102:lcd.c         ****   lcdWrdata(15);
 103:lcd.c         ****   lcdWrdata(0);               //Green
 104:lcd.c         ****   lcdWrdata(2);
 105:lcd.c         ****   lcdWrdata(4);
 106:lcd.c         ****   lcdWrdata(6);
 107:lcd.c         ****   lcdWrdata(9);
 108:lcd.c         ****   lcdWrdata(11);
 109:lcd.c         ****   lcdWrdata(13);
 110:lcd.c         ****   lcdWrdata(15);
 111:lcd.c         ****   lcdWrdata(0);               //Blue
 112:lcd.c         ****   lcdWrdata(6);
 113:lcd.c         **** 	lcdWrdata(10);
 114:lcd.c         **** 	lcdWrdata(15);
 115:lcd.c         **** 
 116:lcd.c         ****   //deselect controller
 117:lcd.c         ****   selectLCD(FALSE);
 118:lcd.c         **** 
 119:lcd.c         **** 	lcdContrast(56);
 120:lcd.c         **** 
 121:lcd.c         **** 	lcdClrscr();
 122:lcd.c         **** }
 123:lcd.c         **** 
 124:lcd.c         **** 
 125:lcd.c         **** /*****************************************************************************
 126:lcd.c         ****  *
 127:lcd.c         ****  * Description:
 128:lcd.c         ****  *    Clear screen (with current background color)
 129:lcd.c         ****  *
 130:lcd.c         ****  ****************************************************************************/
 131:lcd.c         **** void
 132:lcd.c         **** lcdClrscr(void)
 133:lcd.c         **** {
 134:lcd.c         ****   tU32 i;
 135:lcd.c         **** 
 136:lcd.c         **** 	lcd_x = 0;
 137:lcd.c         ****   lcd_y = 0;
 138:lcd.c         **** 
 139:lcd.c         ****   //select controller
 140:lcd.c         ****   selectLCD(TRUE);   
 141:lcd.c         **** 
 142:lcd.c         ****   lcdWindow1(255,255,128,128);
 143:lcd.c         ****   
 144:lcd.c         ****   lcdWrcmd(LCD_CMD_RAMWR);    //write memory
 145:lcd.c         ****   
 146:lcd.c         ****   for(i=0; i<16900; i++)
 147:lcd.c         ****     lcdWrdata(bkgColor);
 148:lcd.c         **** 
 149:lcd.c         ****   //deselect controller
ARM GAS  /cygdrive/c/Users/embedded/AppData/Local/Temp/ccWfuIiM.s 			page 4


 150:lcd.c         ****   selectLCD(FALSE);
 151:lcd.c         **** }
 152:lcd.c         **** 
 153:lcd.c         **** 
 154:lcd.c         **** /*****************************************************************************
 155:lcd.c         ****  *
 156:lcd.c         ****  * Description:
 157:lcd.c         ****  *    Shut down the LCD controller
 158:lcd.c         ****  *
 159:lcd.c         ****  ****************************************************************************/
 160:lcd.c         **** void
 161:lcd.c         **** lcdOff(void)
 162:lcd.c         **** {
 163:lcd.c         ****   lcdClrscr();
 164:lcd.c         **** 
 165:lcd.c         ****   //select controller
 166:lcd.c         ****   selectLCD(TRUE);   
 167:lcd.c         **** 
 168:lcd.c         ****   lcdWrcmd(LCD_CMD_SLEEPIN);
 169:lcd.c         **** 
 170:lcd.c         ****   //deselect controller
 171:lcd.c         ****   selectLCD(FALSE);
 172:lcd.c         **** }
 173:lcd.c         **** 
 174:lcd.c         **** 
 175:lcd.c         **** /*****************************************************************************
 176:lcd.c         ****  *
 177:lcd.c         ****  * Description:
 178:lcd.c         ****  *    Set current foreground and background color
 179:lcd.c         ****  *
 180:lcd.c         ****  ****************************************************************************/
 181:lcd.c         **** void
 182:lcd.c         **** lcdColor(tU8 bkg, tU8 text)
 183:lcd.c         **** {
  19              		.loc 1 183 0
  20              	.LVL0:
 184:lcd.c         ****   bkgColor  = bkg;
  21              		.loc 1 184 0
  22 0000 024B     		ldr	r3, .L3
  23 0002 1870     		strb	r0, [r3]
 185:lcd.c         ****   textColor = text;
  24              		.loc 1 185 0
  25 0004 024B     		ldr	r3, .L3+4
  26              		.loc 1 183 0
  27              		@ lr needed for prologue
  28              		.loc 1 185 0
  29 0006 1970     		strb	r1, [r3]
 186:lcd.c         **** }
  30              		.loc 1 186 0
  31              		@ sp needed for prologue
  32 0008 7047     		bx	lr
  33              	.L4:
  34 000a 0000     		.align	2
  35              	.L3:
  36 000c 02000000 		.word	bkgColor
  37 0010 03000000 		.word	textColor
  38              	.LFE5:
ARM GAS  /cygdrive/c/Users/embedded/AppData/Local/Temp/ccWfuIiM.s 			page 5


  39              		.size	lcdColor, .-lcdColor
  40              		.align	2
  41              		.global	lcdWrdata
  42              		.code 16
  43              		.thumb_func
  44              		.type	lcdWrdata, %function
  45              	lcdWrdata:
  46              	.LFB18:
 187:lcd.c         **** 
 188:lcd.c         **** 
 189:lcd.c         **** /*****************************************************************************
 190:lcd.c         ****  *
 191:lcd.c         ****  * Description:
 192:lcd.c         ****  *    Set display contrast
 193:lcd.c         ****  *
 194:lcd.c         ****  ****************************************************************************/
 195:lcd.c         **** void
 196:lcd.c         **** lcdContrast(tU8 cont) //vary between 0 - 127
 197:lcd.c         **** {
 198:lcd.c         ****   //select controller
 199:lcd.c         ****   selectLCD(TRUE);
 200:lcd.c         **** 
 201:lcd.c         ****   //set contrast cmd.
 202:lcd.c         ****   lcdWrcmd(LCD_CMD_SETCON);
 203:lcd.c         **** 	lcdWrdata(cont);
 204:lcd.c         **** 
 205:lcd.c         ****   //deselect controller
 206:lcd.c         ****   selectLCD(FALSE);
 207:lcd.c         **** }
 208:lcd.c         **** 
 209:lcd.c         **** 
 210:lcd.c         **** /*****************************************************************************
 211:lcd.c         ****  *
 212:lcd.c         ****  * Description:
 213:lcd.c         ****  *    Draw a rectangular area with specified color.
 214:lcd.c         ****  *
 215:lcd.c         ****  ****************************************************************************/
 216:lcd.c         **** void
 217:lcd.c         **** lcdRect(tU8 x, tU8 y, tU8 xLen, tU8 yLen, tU8 color)
 218:lcd.c         **** {
 219:lcd.c         ****   tU32 i;
 220:lcd.c         ****   tU32 len;
 221:lcd.c         **** 
 222:lcd.c         ****   //select controller
 223:lcd.c         ****   selectLCD(TRUE);   
 224:lcd.c         **** 
 225:lcd.c         ****   lcdWindow1(x,y,x+xLen-1,y+yLen-1);
 226:lcd.c         ****   
 227:lcd.c         ****   lcdWrcmd(LCD_CMD_RAMWR);    //write memory
 228:lcd.c         ****   
 229:lcd.c         ****   len = xLen*yLen;
 230:lcd.c         ****   for(i=0; i<len; i++)
 231:lcd.c         ****     lcdWrdata(color);
 232:lcd.c         **** 
 233:lcd.c         ****   //deselect controller
 234:lcd.c         ****   selectLCD(FALSE);
 235:lcd.c         **** }
ARM GAS  /cygdrive/c/Users/embedded/AppData/Local/Temp/ccWfuIiM.s 			page 6


 236:lcd.c         **** 
 237:lcd.c         **** 
 238:lcd.c         **** /*****************************************************************************
 239:lcd.c         ****  *
 240:lcd.c         ****  * Description:
 241:lcd.c         ****  *    Draw rectangular area with different boardser colors. Currently used
 242:lcd.c         ****  *    by example game.
 243:lcd.c         ****  *
 244:lcd.c         ****  ****************************************************************************/
 245:lcd.c         **** void
 246:lcd.c         **** lcdRectBrd(tU8 x, tU8 y, tU8 xLen, tU8 yLen, tU8 color1, tU8 color2, tU8 color3)
 247:lcd.c         **** {
 248:lcd.c         ****   tU32 i,j;
 249:lcd.c         **** 
 250:lcd.c         ****   //select controller
 251:lcd.c         ****   selectLCD(TRUE);   
 252:lcd.c         **** 
 253:lcd.c         ****   lcdWindow1(x,y,x+xLen-1,y+yLen-1);
 254:lcd.c         ****   
 255:lcd.c         ****   lcdWrcmd(LCD_CMD_RAMWR);    //write memory
 256:lcd.c         ****   
 257:lcd.c         ****   for(i=0; i<xLen; i++)
 258:lcd.c         ****     lcdWrdata(color2);
 259:lcd.c         ****   for(j=1; j<(yLen-2); j++)
 260:lcd.c         ****   {
 261:lcd.c         ****     lcdWrdata(color2);
 262:lcd.c         ****     for(i=0; i<(xLen-2); i++)
 263:lcd.c         ****       lcdWrdata(color1);
 264:lcd.c         ****     lcdWrdata(color3);
 265:lcd.c         ****   }
 266:lcd.c         ****   for(i=0; i<xLen; i++)
 267:lcd.c         ****     lcdWrdata(color3);
 268:lcd.c         **** 
 269:lcd.c         ****   //deselect controller
 270:lcd.c         ****   selectLCD(FALSE);
 271:lcd.c         **** }
 272:lcd.c         **** 
 273:lcd.c         **** 
 274:lcd.c         **** /*****************************************************************************
 275:lcd.c         ****  *
 276:lcd.c         ****  * Description:
 277:lcd.c         ****  *    Draw rectangular area from bitmap. Specify xy-position and xy-length.
 278:lcd.c         ****  *    Compressed format is supported.
 279:lcd.c         ****  *
 280:lcd.c         ****  *    In uncompressed color mode, pData points to an area of xLen * yLen
 281:lcd.c         ****  *    bytes with the icon.
 282:lcd.c         ****  *    In compressed mode the escapeChar is used to denote that the next
 283:lcd.c         ****  *    two bytes contain a length and a color (run length encoding)
 284:lcd.c         ****  *    Note that is is still possible to specify the color value that
 285:lcd.c         ****  *    equals the escape value in a compressed string.
 286:lcd.c         ****  *
 287:lcd.c         ****  ****************************************************************************/
 288:lcd.c         **** void
 289:lcd.c         **** lcdIcon(tU8 x, tU8 y, tU8 xLen, tU8 yLen, tU8 compressionOn, tU8 escapeChar, const tU8* pData)
 290:lcd.c         **** {
 291:lcd.c         ****   tU32 i,j;
 292:lcd.c         ****   tS32 len;
ARM GAS  /cygdrive/c/Users/embedded/AppData/Local/Temp/ccWfuIiM.s 			page 7


 293:lcd.c         **** 
 294:lcd.c         ****   //select controller
 295:lcd.c         ****   selectLCD(TRUE);   
 296:lcd.c         **** 
 297:lcd.c         ****   lcdWindow1(x,y,x+xLen-1,y+yLen-1);
 298:lcd.c         ****   
 299:lcd.c         ****   lcdWrcmd(LCD_CMD_RAMWR);    //write memory
 300:lcd.c         ****   
 301:lcd.c         ****   len = xLen*yLen;
 302:lcd.c         ****   if (compressionOn == FALSE)
 303:lcd.c         ****   {
 304:lcd.c         ****     for(i=0; i<len; i++)
 305:lcd.c         ****       lcdWrdata(*pData++);
 306:lcd.c         ****   }
 307:lcd.c         ****   else
 308:lcd.c         ****     while(len > 0)
 309:lcd.c         ****     {
 310:lcd.c         ****       if(*pData == escapeChar)
 311:lcd.c         ****       {
 312:lcd.c         ****         pData++;
 313:lcd.c         ****         j = *pData++;
 314:lcd.c         ****         for(i=0;i<j;i++)
 315:lcd.c         ****           lcdWrdata(*pData);
 316:lcd.c         ****         pData++;
 317:lcd.c         ****         len -= j;
 318:lcd.c         ****       }
 319:lcd.c         ****       else
 320:lcd.c         ****       {
 321:lcd.c         ****         lcdWrdata(*pData++);
 322:lcd.c         ****         len--;
 323:lcd.c         ****       }
 324:lcd.c         ****     }
 325:lcd.c         **** 
 326:lcd.c         ****   //deselect controller
 327:lcd.c         ****   selectLCD(FALSE);
 328:lcd.c         **** }
 329:lcd.c         **** 
 330:lcd.c         **** 
 331:lcd.c         **** /*****************************************************************************
 332:lcd.c         ****  *
 333:lcd.c         ****  * Description:
 334:lcd.c         ****  *    Update xy-position (by also creating a window).
 335:lcd.c         ****  *
 336:lcd.c         ****  ****************************************************************************/
 337:lcd.c         **** void
 338:lcd.c         **** lcdGotoxy(tU8 x, tU8 y)
 339:lcd.c         **** {
 340:lcd.c         ****   lcd_x = x;
 341:lcd.c         ****   lcd_y = y;
 342:lcd.c         ****   lcdWindow(x, y, 129, 129);
 343:lcd.c         **** }
 344:lcd.c         **** 
 345:lcd.c         **** 
 346:lcd.c         **** /*****************************************************************************
 347:lcd.c         ****  *
 348:lcd.c         ****  * Description:
 349:lcd.c         ****  *    Initialize LCD controller for a window (to write in).
ARM GAS  /cygdrive/c/Users/embedded/AppData/Local/Temp/ccWfuIiM.s 			page 8


 350:lcd.c         ****  *    Set start xy-position and xy-length.
 351:lcd.c         ****  *    Selects/deselects LCD controller.
 352:lcd.c         ****  *
 353:lcd.c         ****  ****************************************************************************/
 354:lcd.c         **** void
 355:lcd.c         **** lcdWindow(tU8 xp, tU8 yp, tU8 xe, tU8 ye)
 356:lcd.c         **** {
 357:lcd.c         ****   //select controller
 358:lcd.c         ****   selectLCD(TRUE);
 359:lcd.c         **** 
 360:lcd.c         **** 	lcdWindow1(xp, yp, xe, ye);
 361:lcd.c         **** 
 362:lcd.c         ****   //deselect controller
 363:lcd.c         ****   selectLCD(FALSE);
 364:lcd.c         **** }
 365:lcd.c         **** 
 366:lcd.c         **** 
 367:lcd.c         **** /*****************************************************************************
 368:lcd.c         ****  *
 369:lcd.c         ****  * Description:
 370:lcd.c         ****  *    Initialize LCD controller for a window (to write in).
 371:lcd.c         ****  *    Set start xy-position and xy-length
 372:lcd.c         ****  *    No select/deselect of LCD controller.
 373:lcd.c         ****  *
 374:lcd.c         ****  ****************************************************************************/
 375:lcd.c         **** static void
 376:lcd.c         **** lcdWindow1(tU8 xp, tU8 yp, tU8 xe, tU8 ye)
 377:lcd.c         **** {
 378:lcd.c         ****   lcdWrcmd(LCD_CMD_CASET);    //set X
 379:lcd.c         ****   lcdWrdata(xp+2);
 380:lcd.c         **** 	lcdWrdata(xe+2);
 381:lcd.c         **** 
 382:lcd.c         **** 	lcdWrcmd(LCD_CMD_PASET);    //set Y
 383:lcd.c         **** 	lcdWrdata(yp+2);
 384:lcd.c         **** 	lcdWrdata(ye+2);
 385:lcd.c         **** }
 386:lcd.c         **** 
 387:lcd.c         **** 
 388:lcd.c         **** /*****************************************************************************
 389:lcd.c         ****  *
 390:lcd.c         ****  * Description:
 391:lcd.c         ****  *    Update xy-position for newline situation.
 392:lcd.c         ****  *
 393:lcd.c         ****  ****************************************************************************/
 394:lcd.c         **** static void
 395:lcd.c         **** lcdNewline(void)
 396:lcd.c         **** {
 397:lcd.c         ****   lcd_x  = 0;
 398:lcd.c         ****   lcd_y	+= 14;
 399:lcd.c         ****   if (lcd_y >= 126)
 400:lcd.c         ****     lcd_y = 126;
 401:lcd.c         **** }
 402:lcd.c         **** 
 403:lcd.c         **** 
 404:lcd.c         **** /*****************************************************************************
 405:lcd.c         ****  *
 406:lcd.c         ****  * Description:
ARM GAS  /cygdrive/c/Users/embedded/AppData/Local/Temp/ccWfuIiM.s 			page 9


 407:lcd.c         ****  *    Draw one character withc current foreground and background color
 408:lcd.c         ****  *    at current xy position on display. Update x-position (+8).
 409:lcd.c         ****  *
 410:lcd.c         ****  ****************************************************************************/
 411:lcd.c         **** void
 412:lcd.c         **** lcdData(tU8 data)
 413:lcd.c         **** {
 414:lcd.c         ****   //select controller
 415:lcd.c         ****   selectLCD(TRUE);
 416:lcd.c         ****   
 417:lcd.c         ****   if (data <= 127)
 418:lcd.c         ****   {
 419:lcd.c         ****     tU32 mapOffset;
 420:lcd.c         ****     tU8 i,j,byteToShift;
 421:lcd.c         **** 
 422:lcd.c         ****     data -= 30;
 423:lcd.c         ****     mapOffset = 14*data;
 424:lcd.c         **** 
 425:lcd.c         ****     lcdWrcmd(LCD_CMD_CASET);
 426:lcd.c         ****     lcdWrdata(lcd_x+2);
 427:lcd.c         ****     lcdWrdata(lcd_x+9);
 428:lcd.c         ****     lcdWrcmd(LCD_CMD_PASET);
 429:lcd.c         ****     lcdWrdata(lcd_y+2);
 430:lcd.c         ****     lcdWrdata(lcd_y+15);
 431:lcd.c         ****     lcdWrcmd(LCD_CMD_RAMWR);
 432:lcd.c         ****     
 433:lcd.c         ****     for(i=0; i<14; i++)
 434:lcd.c         ****     {
 435:lcd.c         ****       byteToShift = charMap[mapOffset++];
 436:lcd.c         ****       for(j=0; j<8; j++)
 437:lcd.c         ****       {
 438:lcd.c         ****         if (byteToShift & 0x80)
 439:lcd.c         ****           lcdWrdata(textColor);
 440:lcd.c         ****         else
 441:lcd.c         ****           lcdWrdata(bkgColor);
 442:lcd.c         ****         byteToShift <<= 1;
 443:lcd.c         ****       }
 444:lcd.c         ****     }
 445:lcd.c         ****   }
 446:lcd.c         **** 
 447:lcd.c         ****   //deselect controller
 448:lcd.c         ****   selectLCD(FALSE);
 449:lcd.c         **** 
 450:lcd.c         ****   lcd_x += 8;
 451:lcd.c         **** }
 452:lcd.c         **** 
 453:lcd.c         **** 
 454:lcd.c         **** /*****************************************************************************
 455:lcd.c         ****  *
 456:lcd.c         ****  * Description:
 457:lcd.c         ****  *    Write/draw one character at current xy-position.
 458:lcd.c         ****  *    The xy-position is updated afterwards
 459:lcd.c         ****  *
 460:lcd.c         ****  ****************************************************************************/
 461:lcd.c         **** void
 462:lcd.c         **** lcdPutchar(tU8 data)
 463:lcd.c         **** {
ARM GAS  /cygdrive/c/Users/embedded/AppData/Local/Temp/ccWfuIiM.s 			page 10


 464:lcd.c         ****   if (data == '\n')
 465:lcd.c         ****     lcdNewline();
 466:lcd.c         ****   else if (data != '\r')
 467:lcd.c         ****   {
 468:lcd.c         ****     if (setcolmark == TRUE)
 469:lcd.c         ****     {
 470:lcd.c         ****       textColor = data;
 471:lcd.c         ****       setcolmark = FALSE;
 472:lcd.c         ****     }
 473:lcd.c         ****     else if (data == 0xff)
 474:lcd.c         ****       setcolmark = TRUE;
 475:lcd.c         ****     else if (lcd_x <= 124)
 476:lcd.c         ****     {
 477:lcd.c         ****       lcdData(data);
 478:lcd.c         ****     }
 479:lcd.c         ****   }
 480:lcd.c         **** }
 481:lcd.c         **** 
 482:lcd.c         **** /*****************************************************************************
 483:lcd.c         ****  *
 484:lcd.c         ****  * Description:
 485:lcd.c         ****  *    Write/draw (null-terminated) string of character at current xy-position
 486:lcd.c         ****  *
 487:lcd.c         ****  ****************************************************************************/
 488:lcd.c         **** void
 489:lcd.c         **** lcdPuts(char *s)
 490:lcd.c         **** {
 491:lcd.c         ****   while(*s != '\0')
 492:lcd.c         ****     lcdPutchar(*s++);
 493:lcd.c         **** }
 494:lcd.c         **** 
 495:lcd.c         **** 
 496:lcd.c         **** /*****************************************************************************
 497:lcd.c         ****  *
 498:lcd.c         ****  * Description:
 499:lcd.c         ****  *    Send command data to LCD controller
 500:lcd.c         ****  *
 501:lcd.c         ****  ****************************************************************************/
 502:lcd.c         **** void
 503:lcd.c         **** lcdWrcmd(tU8 data)
 504:lcd.c         **** {
 505:lcd.c         ****   sendToLCD(0, data);
 506:lcd.c         **** }
 507:lcd.c         **** 
 508:lcd.c         **** 
 509:lcd.c         **** /*****************************************************************************
 510:lcd.c         ****  *
 511:lcd.c         ****  * Description:
 512:lcd.c         ****  *    Send data byte to LCD controller
 513:lcd.c         ****  *
 514:lcd.c         ****  ****************************************************************************/
 515:lcd.c         **** void
 516:lcd.c         **** lcdWrdata(tU8 data)
 517:lcd.c         **** {
  47              		.loc 1 517 0
  48 0014 00B5     		push	{lr}
  49              	.LCFI0:
ARM GAS  /cygdrive/c/Users/embedded/AppData/Local/Temp/ccWfuIiM.s 			page 11


  50              	.LVL1:
  51              		.loc 1 517 0
  52 0016 0106     		lsl	r1, r0, #24
  53 0018 090E     		lsr	r1, r1, #24
 518:lcd.c         ****   sendToLCD(1, data);
  54              		.loc 1 518 0
  55 001a 0120     		mov	r0, #1
  56              	.LVL2:
  57 001c FFF7FEFF 		bl	sendToLCD
  58              	.LVL3:
 519:lcd.c         **** }
  59              		.loc 1 519 0
  60              		@ sp needed for prologue
  61 0020 01BC     		pop	{r0}
  62 0022 0047     		bx	r0
  63              	.LFE18:
  64              		.size	lcdWrdata, .-lcdWrdata
  65              		.align	2
  66              		.global	lcdWrcmd
  67              		.code 16
  68              		.thumb_func
  69              		.type	lcdWrcmd, %function
  70              	lcdWrcmd:
  71              	.LFB17:
  72              		.loc 1 504 0
  73 0024 00B5     		push	{lr}
  74              	.LCFI1:
  75              	.LVL4:
  76              		.loc 1 504 0
  77 0026 0106     		lsl	r1, r0, #24
  78 0028 090E     		lsr	r1, r1, #24
  79              		.loc 1 505 0
  80 002a 0020     		mov	r0, #0
  81              	.LVL5:
  82 002c FFF7FEFF 		bl	sendToLCD
  83              	.LVL6:
  84              		.loc 1 506 0
  85              		@ sp needed for prologue
  86 0030 01BC     		pop	{r0}
  87 0032 0047     		bx	r0
  88              	.LFE17:
  89              		.size	lcdWrcmd, .-lcdWrcmd
  90              		.align	2
  91              		.code 16
  92              		.thumb_func
  93              		.type	lcdWindow1, %function
  94              	lcdWindow1:
  95              	.LFB12:
  96              		.loc 1 377 0
  97 0034 F0B5     		push	{r4, r5, r6, r7, lr}
  98              	.LCFI2:
  99              	.LVL7:
 100              		.loc 1 377 0
 101 0036 0406     		lsl	r4, r0, #24
 102 0038 1506     		lsl	r5, r2, #24
 103 003a 240E     		lsr	r4, r4, #24
 104 003c 2D0E     		lsr	r5, r5, #24
ARM GAS  /cygdrive/c/Users/embedded/AppData/Local/Temp/ccWfuIiM.s 			page 12


 105              		.loc 1 379 0
 106 003e 0234     		add	r4, r4, #2
 107              		.loc 1 377 0
 108 0040 0E06     		lsl	r6, r1, #24
 109              		.loc 1 379 0
 110 0042 2406     		lsl	r4, r4, #24
 111              		.loc 1 380 0
 112 0044 0235     		add	r5, r5, #2
 113              		.loc 1 377 0
 114 0046 1B06     		lsl	r3, r3, #24
 115              	.LVL8:
 116              		.loc 1 378 0
 117 0048 2A20     		mov	r0, #42
 118              	.LVL9:
 119              		.loc 1 379 0
 120 004a 240E     		lsr	r4, r4, #24
 121              		.loc 1 377 0
 122 004c 360E     		lsr	r6, r6, #24
 123              		.loc 1 380 0
 124 004e 2D06     		lsl	r5, r5, #24
 125              		.loc 1 377 0
 126 0050 1F0E     		lsr	r7, r3, #24
 127              	.LVL10:
 128              		.loc 1 380 0
 129 0052 2D0E     		lsr	r5, r5, #24
 130              		.loc 1 378 0
 131 0054 FFF7FEFF 		bl	lcdWrcmd
 132              	.LVL11:
 133              		.loc 1 383 0
 134 0058 0236     		add	r6, r6, #2
 135              	.LVL12:
 136              		.loc 1 379 0
 137 005a 201C     		mov	r0, r4
 138 005c FFF7FEFF 		bl	lcdWrdata
 139              		.loc 1 383 0
 140 0060 3606     		lsl	r6, r6, #24
 141              		.loc 1 380 0
 142 0062 281C     		mov	r0, r5
 143 0064 FFF7FEFF 		bl	lcdWrdata
 144              		.loc 1 383 0
 145 0068 360E     		lsr	r6, r6, #24
 146              		.loc 1 382 0
 147 006a 2B20     		mov	r0, #43
 148 006c FFF7FEFF 		bl	lcdWrcmd
 149              		.loc 1 383 0
 150 0070 301C     		mov	r0, r6
 151 0072 FFF7FEFF 		bl	lcdWrdata
 152              		.loc 1 384 0
 153 0076 BB1C     		add	r3, r7, #2
 154 0078 1806     		lsl	r0, r3, #24
 155 007a 000E     		lsr	r0, r0, #24
 156 007c FFF7FEFF 		bl	lcdWrdata
 157              		.loc 1 385 0
 158              		@ sp needed for prologue
 159              	.LVL13:
 160 0080 F0BC     		pop	{r4, r5, r6, r7}
 161 0082 01BC     		pop	{r0}
ARM GAS  /cygdrive/c/Users/embedded/AppData/Local/Temp/ccWfuIiM.s 			page 13


 162 0084 0047     		bx	r0
 163              	.LFE12:
 164              		.size	lcdWindow1, .-lcdWindow1
 165 0086 0000     		.align	2
 166              		.global	lcdData
 167              		.code 16
 168              		.thumb_func
 169              		.type	lcdData, %function
 170              	lcdData:
 171              	.LFB14:
 172              		.loc 1 413 0
 173 0088 F0B5     		push	{r4, r5, r6, r7, lr}
 174              	.LCFI3:
 175              	.LVL14:
 176              		.loc 1 413 0
 177 008a 0006     		lsl	r0, r0, #24
 178              	.LVL15:
 179 008c 050E     		lsr	r5, r0, #24
 180              	.LVL16:
 181              		.loc 1 415 0
 182 008e 0120     		mov	r0, #1
 183 0090 FFF7FEFF 		bl	selectLCD
 184              		.loc 1 417 0
 185 0094 2B06     		lsl	r3, r5, #24
 186 0096 002B     		cmp	r3, #0
 187 0098 45DB     		blt	.L12
 188              	.LBB2:
 189              		.loc 1 425 0
 190 009a 2A20     		mov	r0, #42
 191 009c FFF7FEFF 		bl	lcdWrcmd
 192              		.loc 1 426 0
 193 00a0 264C     		ldr	r4, .L24
 194 00a2 2078     		ldrb	r0, [r4]
 195 00a4 0230     		add	r0, r0, #2
 196 00a6 0006     		lsl	r0, r0, #24
 197 00a8 000E     		lsr	r0, r0, #24
 198 00aa FFF7FEFF 		bl	lcdWrdata
 199              		.loc 1 427 0
 200 00ae 2078     		ldrb	r0, [r4]
 201 00b0 0930     		add	r0, r0, #9
 202 00b2 0006     		lsl	r0, r0, #24
 203 00b4 000E     		lsr	r0, r0, #24
 204 00b6 FFF7FEFF 		bl	lcdWrdata
 205              		.loc 1 428 0
 206 00ba 2B20     		mov	r0, #43
 207 00bc FFF7FEFF 		bl	lcdWrcmd
 208              		.loc 1 429 0
 209 00c0 1F4C     		ldr	r4, .L24+4
 210 00c2 2078     		ldrb	r0, [r4]
 211 00c4 0230     		add	r0, r0, #2
 212 00c6 0006     		lsl	r0, r0, #24
 213 00c8 000E     		lsr	r0, r0, #24
 214 00ca FFF7FEFF 		bl	lcdWrdata
 215              		.loc 1 430 0
 216 00ce 2078     		ldrb	r0, [r4]
 217 00d0 0F30     		add	r0, r0, #15
 218 00d2 0006     		lsl	r0, r0, #24
ARM GAS  /cygdrive/c/Users/embedded/AppData/Local/Temp/ccWfuIiM.s 			page 14


 219 00d4 000E     		lsr	r0, r0, #24
 220 00d6 FFF7FEFF 		bl	lcdWrdata
 221              		.loc 1 431 0
 222 00da 2C20     		mov	r0, #44
 223 00dc FFF7FEFF 		bl	lcdWrcmd
 224 00e0 2B1C     		mov	r3, r5
 225 00e2 1E3B     		sub	r3, r3, #30
 226 00e4 1B06     		lsl	r3, r3, #24
 227 00e6 1B0E     		lsr	r3, r3, #24
 228 00e8 DA00     		lsl	r2, r3, #3
 229 00ea D21A     		sub	r2, r2, r3
 230 00ec 154B     		ldr	r3, .L24+8
 231 00ee 5200     		lsl	r2, r2, #1
 232 00f0 D518     		add	r5, r2, r3
 233              	.LVL17:
 234 00f2 0027     		mov	r7, #0
 235              	.LVL18:
 236              	.LVL19:
 237              	.L14:
 238              		.loc 1 435 0
 239 00f4 2C78     		ldrb	r4, [r5]
 240 00f6 0026     		mov	r6, #0
 241              	.L15:
 242              		.loc 1 438 0
 243 00f8 2306     		lsl	r3, r4, #24
 244 00fa 002B     		cmp	r3, #0
 245 00fc 01DA     		bge	.L16
 246              		.loc 1 439 0
 247 00fe 124B     		ldr	r3, .L24+12
 248 0100 00E0     		b	.L23
 249              	.L16:
 250              		.loc 1 441 0
 251 0102 124B     		ldr	r3, .L24+16
 252              	.L23:
 253 0104 1878     		ldrb	r0, [r3]
 254 0106 FFF7FEFF 		bl	lcdWrdata
 255              		.loc 1 436 0
 256 010a 731C     		add	r3, r6, #1
 257 010c 1B06     		lsl	r3, r3, #24
 258 010e 1E0E     		lsr	r6, r3, #24
 259 0110 082E     		cmp	r6, #8
 260 0112 02D0     		beq	.L19
 261              		.loc 1 442 0
 262 0114 6306     		lsl	r3, r4, #25
 263 0116 1C0E     		lsr	r4, r3, #24
 264 0118 EEE7     		b	.L15
 265              	.L19:
 266              		.loc 1 433 0
 267 011a 7B1C     		add	r3, r7, #1
 268 011c 1B06     		lsl	r3, r3, #24
 269 011e 1F0E     		lsr	r7, r3, #24
 270 0120 0135     		add	r5, r5, #1
 271 0122 0E2F     		cmp	r7, #14
 272 0124 E6D1     		bne	.L14
 273              	.LVL20:
 274              	.L12:
 275              	.LBE2:
ARM GAS  /cygdrive/c/Users/embedded/AppData/Local/Temp/ccWfuIiM.s 			page 15


 276              		.loc 1 448 0
 277 0126 0020     		mov	r0, #0
 278 0128 FFF7FEFF 		bl	selectLCD
 279              		.loc 1 450 0
 280 012c 034A     		ldr	r2, .L24
 281 012e 1378     		ldrb	r3, [r2]
 282 0130 0833     		add	r3, r3, #8
 283 0132 1370     		strb	r3, [r2]
 284              		.loc 1 451 0
 285              		@ sp needed for prologue
 286              	.LVL21:
 287              	.LVL22:
 288              	.LVL23:
 289              	.LVL24:
 290 0134 F0BC     		pop	{r4, r5, r6, r7}
 291 0136 01BC     		pop	{r0}
 292 0138 0047     		bx	r0
 293              	.L25:
 294 013a 0000     		.align	2
 295              	.L24:
 296 013c 00000000 		.word	lcd_x
 297 0140 01000000 		.word	lcd_y
 298 0144 00000000 		.word	charMap
 299 0148 03000000 		.word	textColor
 300 014c 02000000 		.word	bkgColor
 301              	.LFE14:
 302              		.size	lcdData, .-lcdData
 303              		.align	2
 304              		.global	lcdPutchar
 305              		.code 16
 306              		.thumb_func
 307              		.type	lcdPutchar, %function
 308              	lcdPutchar:
 309              	.LFB15:
 310              		.loc 1 463 0
 311 0150 00B5     		push	{lr}
 312              	.LCFI4:
 313              	.LVL25:
 314              		.loc 1 463 0
 315 0152 0006     		lsl	r0, r0, #24
 316              	.LVL26:
 317 0154 000E     		lsr	r0, r0, #24
 318              	.LVL27:
 319              		.loc 1 464 0
 320 0156 0A28     		cmp	r0, #10
 321 0158 0CD1     		bne	.L27
 322              	.LBB5:
 323              	.LBB6:
 324              		.loc 1 397 0
 325 015a 124A     		ldr	r2, .L39
 326 015c 0023     		mov	r3, #0
 327 015e 1370     		strb	r3, [r2]
 328              		.loc 1 398 0
 329 0160 114A     		ldr	r2, .L39+4
 330 0162 1378     		ldrb	r3, [r2]
 331 0164 0E33     		add	r3, r3, #14
 332 0166 1B06     		lsl	r3, r3, #24
ARM GAS  /cygdrive/c/Users/embedded/AppData/Local/Temp/ccWfuIiM.s 			page 16


 333 0168 1B0E     		lsr	r3, r3, #24
 334 016a 1370     		strb	r3, [r2]
 335              		.loc 1 399 0
 336 016c 7D2B     		cmp	r3, #125
 337 016e 16D9     		bls	.L37
 338              		.loc 1 400 0
 339 0170 7E23     		mov	r3, #126
 340 0172 08E0     		b	.L38
 341              	.L27:
 342              	.LBE6:
 343              	.LBE5:
 344              		.loc 1 466 0
 345 0174 0D28     		cmp	r0, #13
 346 0176 12D0     		beq	.L37
 347              		.loc 1 468 0
 348 0178 0C4A     		ldr	r2, .L39+8
 349 017a 1378     		ldrb	r3, [r2]
 350 017c 012B     		cmp	r3, #1
 351 017e 04D1     		bne	.L32
 352              		.loc 1 470 0
 353 0180 0B4B     		ldr	r3, .L39+12
 354 0182 1870     		strb	r0, [r3]
 355              		.loc 1 471 0
 356 0184 0023     		mov	r3, #0
 357              	.L38:
 358 0186 1370     		strb	r3, [r2]
 359 0188 09E0     		b	.L37
 360              	.L32:
 361              		.loc 1 473 0
 362 018a FF28     		cmp	r0, #255
 363 018c 01D1     		bne	.L34
 364              		.loc 1 474 0
 365 018e 0123     		mov	r3, #1
 366 0190 F9E7     		b	.L38
 367              	.L34:
 368              		.loc 1 475 0
 369 0192 044B     		ldr	r3, .L39
 370 0194 1B78     		ldrb	r3, [r3]
 371 0196 7C2B     		cmp	r3, #124
 372 0198 01D8     		bhi	.L37
 373              		.loc 1 477 0
 374 019a FFF7FEFF 		bl	lcdData
 375              	.LVL28:
 376              	.LVL29:
 377              	.L37:
 378              		.loc 1 480 0
 379              		@ sp needed for prologue
 380 019e 01BC     		pop	{r0}
 381 01a0 0047     		bx	r0
 382              	.L40:
 383 01a2 0000     		.align	2
 384              	.L39:
 385 01a4 00000000 		.word	lcd_x
 386 01a8 01000000 		.word	lcd_y
 387 01ac 04000000 		.word	setcolmark
 388 01b0 03000000 		.word	textColor
 389              	.LFE15:
ARM GAS  /cygdrive/c/Users/embedded/AppData/Local/Temp/ccWfuIiM.s 			page 17


 390              		.size	lcdPutchar, .-lcdPutchar
 391              		.align	2
 392              		.global	lcdPuts
 393              		.code 16
 394              		.thumb_func
 395              		.type	lcdPuts, %function
 396              	lcdPuts:
 397              	.LFB16:
 398              		.loc 1 490 0
 399 01b4 10B5     		push	{r4, lr}
 400              	.LCFI5:
 401              	.LVL30:
 402              		.loc 1 490 0
 403 01b6 041C     		mov	r4, r0
 404 01b8 02E0     		b	.L42
 405              	.LVL31:
 406              	.L43:
 407              		.loc 1 492 0
 408 01ba 0134     		add	r4, r4, #1
 409 01bc FFF7FEFF 		bl	lcdPutchar
 410              	.LVL32:
 411              	.L42:
 412              		.loc 1 491 0
 413 01c0 2078     		ldrb	r0, [r4]
 414 01c2 0028     		cmp	r0, #0
 415 01c4 F9D1     		bne	.L43
 416              		.loc 1 493 0
 417              		@ sp needed for prologue
 418              	.LVL33:
 419 01c6 10BC     		pop	{r4}
 420 01c8 01BC     		pop	{r0}
 421 01ca 0047     		bx	r0
 422              	.LFE16:
 423              		.size	lcdPuts, .-lcdPuts
 424              		.align	2
 425              		.global	lcdWindow
 426              		.code 16
 427              		.thumb_func
 428              		.type	lcdWindow, %function
 429              	lcdWindow:
 430              	.LFB11:
 431              		.loc 1 356 0
 432 01cc F0B5     		push	{r4, r5, r6, r7, lr}
 433              	.LCFI6:
 434              	.LVL34:
 435              		.loc 1 356 0
 436 01ce 0D06     		lsl	r5, r1, #24
 437 01d0 1606     		lsl	r6, r2, #24
 438 01d2 1B06     		lsl	r3, r3, #24
 439              	.LVL35:
 440 01d4 0406     		lsl	r4, r0, #24
 441 01d6 1F0E     		lsr	r7, r3, #24
 442              	.LVL36:
 443 01d8 2D0E     		lsr	r5, r5, #24
 444 01da 360E     		lsr	r6, r6, #24
 445 01dc 240E     		lsr	r4, r4, #24
 446              		.loc 1 358 0
ARM GAS  /cygdrive/c/Users/embedded/AppData/Local/Temp/ccWfuIiM.s 			page 18


 447 01de 0120     		mov	r0, #1
 448              	.LVL37:
 449 01e0 FFF7FEFF 		bl	selectLCD
 450              	.LVL38:
 451              		.loc 1 360 0
 452 01e4 291C     		mov	r1, r5
 453 01e6 321C     		mov	r2, r6
 454 01e8 3B1C     		mov	r3, r7
 455 01ea 201C     		mov	r0, r4
 456 01ec FFF722FF 		bl	lcdWindow1
 457              		.loc 1 363 0
 458 01f0 0020     		mov	r0, #0
 459 01f2 FFF7FEFF 		bl	selectLCD
 460              		.loc 1 364 0
 461              		@ sp needed for prologue
 462              	.LVL39:
 463              	.LVL40:
 464              	.LVL41:
 465              	.LVL42:
 466 01f6 F0BC     		pop	{r4, r5, r6, r7}
 467 01f8 01BC     		pop	{r0}
 468 01fa 0047     		bx	r0
 469              	.LFE11:
 470              		.size	lcdWindow, .-lcdWindow
 471              		.align	2
 472              		.global	lcdGotoxy
 473              		.code 16
 474              		.thumb_func
 475              		.type	lcdGotoxy, %function
 476              	lcdGotoxy:
 477              	.LFB10:
 478              		.loc 1 339 0
 479 01fc 00B5     		push	{lr}
 480              	.LCFI7:
 481              	.LVL43:
 482              		.loc 1 340 0
 483 01fe 074B     		ldr	r3, .L50
 484              		.loc 1 339 0
 485 0200 0006     		lsl	r0, r0, #24
 486              	.LVL44:
 487 0202 000E     		lsr	r0, r0, #24
 488              	.LVL45:
 489              		.loc 1 340 0
 490 0204 1870     		strb	r0, [r3]
 491              		.loc 1 339 0
 492 0206 0906     		lsl	r1, r1, #24
 493              	.LVL46:
 494              		.loc 1 341 0
 495 0208 054B     		ldr	r3, .L50+4
 496              		.loc 1 339 0
 497 020a 090E     		lsr	r1, r1, #24
 498              	.LVL47:
 499              		.loc 1 341 0
 500 020c 1970     		strb	r1, [r3]
 501              		.loc 1 342 0
 502 020e 8122     		mov	r2, #129
 503 0210 8123     		mov	r3, #129
ARM GAS  /cygdrive/c/Users/embedded/AppData/Local/Temp/ccWfuIiM.s 			page 19


 504 0212 FFF7FEFF 		bl	lcdWindow
 505              	.LVL48:
 506              		.loc 1 343 0
 507              		@ sp needed for prologue
 508 0216 01BC     		pop	{r0}
 509 0218 0047     		bx	r0
 510              	.L51:
 511 021a 0000     		.align	2
 512              	.L50:
 513 021c 00000000 		.word	lcd_x
 514 0220 01000000 		.word	lcd_y
 515              	.LFE10:
 516              		.size	lcdGotoxy, .-lcdGotoxy
 517              		.align	2
 518              		.global	lcdIcon
 519              		.code 16
 520              		.thumb_func
 521              		.type	lcdIcon, %function
 522              	lcdIcon:
 523              	.LFB9:
 524              		.loc 1 290 0
 525 0224 F0B5     		push	{r4, r5, r6, r7, lr}
 526              	.LCFI8:
 527              	.LVL49:
 528 0226 84B0     		sub	sp, sp, #16
 529              	.LCFI9:
 530              		.loc 1 290 0
 531 0228 0D1C     		mov	r5, r1
 532 022a 1E1C     		mov	r6, r3
 533 022c 0999     		ldr	r1, [sp, #36]
 534              	.LVL50:
 535 022e 0A9B     		ldr	r3, [sp, #40]
 536              	.LVL51:
 537 0230 1206     		lsl	r2, r2, #24
 538              	.LVL52:
 539 0232 120E     		lsr	r2, r2, #24
 540 0234 0292     		str	r2, [sp, #8]
 541              	.LVL53:
 542 0236 1B06     		lsl	r3, r3, #24
 543 0238 0A06     		lsl	r2, r1, #24
 544 023a 120E     		lsr	r2, r2, #24
 545 023c 1B0E     		lsr	r3, r3, #24
 546 023e 0406     		lsl	r4, r0, #24
 547              		.loc 1 295 0
 548 0240 0120     		mov	r0, #1
 549              	.LVL54:
 550              		.loc 1 290 0
 551 0242 0192     		str	r2, [sp, #4]
 552 0244 0093     		str	r3, [sp]
 553 0246 0B9F     		ldr	r7, [sp, #44]
 554 0248 2D06     		lsl	r5, r5, #24
 555              	.LVL55:
 556              		.loc 1 295 0
 557 024a FFF7FEFF 		bl	selectLCD
 558              		.loc 1 290 0
 559 024e 3606     		lsl	r6, r6, #24
 560              	.LVL56:
ARM GAS  /cygdrive/c/Users/embedded/AppData/Local/Temp/ccWfuIiM.s 			page 20


 561              		.loc 1 297 0
 562 0250 029B     		ldr	r3, [sp, #8]
 563              		.loc 1 290 0
 564 0252 240E     		lsr	r4, r4, #24
 565              	.LVL57:
 566 0254 2D0E     		lsr	r5, r5, #24
 567              	.LVL58:
 568 0256 360E     		lsr	r6, r6, #24
 569              	.LVL59:
 570              		.loc 1 297 0
 571 0258 E218     		add	r2, r4, r3
 572 025a AB19     		add	r3, r5, r6
 573 025c 013A     		sub	r2, r2, #1
 574 025e 013B     		sub	r3, r3, #1
 575 0260 1206     		lsl	r2, r2, #24
 576 0262 1B06     		lsl	r3, r3, #24
 577 0264 120E     		lsr	r2, r2, #24
 578 0266 1B0E     		lsr	r3, r3, #24
 579 0268 201C     		mov	r0, r4
 580 026a 291C     		mov	r1, r5
 581 026c FFF7E2FE 		bl	lcdWindow1
 582              		.loc 1 299 0
 583 0270 2C20     		mov	r0, #44
 584 0272 FFF7FEFF 		bl	lcdWrcmd
 585              		.loc 1 301 0
 586 0276 029A     		ldr	r2, [sp, #8]
 587              		.loc 1 302 0
 588 0278 019B     		ldr	r3, [sp, #4]
 589              		.loc 1 301 0
 590 027a 5643     		mul	r6, r2
 591              	.LVL60:
 592              		.loc 1 302 0
 593 027c 002B     		cmp	r3, #0
 594 027e 20D1     		bne	.L71
 595              	.LVL61:
 596 0280 0024     		mov	r4, #0
 597              	.LVL62:
 598 0282 03E0     		b	.L55
 599              	.L56:
 600              		.loc 1 305 0
 601 0284 E05D     		ldrb	r0, [r4, r7]
 602 0286 FFF7FEFF 		bl	lcdWrdata
 603              		.loc 1 304 0
 604 028a 0134     		add	r4, r4, #1
 605              	.L55:
 606 028c B442     		cmp	r4, r6
 607 028e F9D1     		bne	.L56
 608 0290 19E0     		b	.L57
 609              	.LVL63:
 610              	.L58:
 611              		.loc 1 310 0
 612 0292 3878     		ldrb	r0, [r7]
 613 0294 009A     		ldr	r2, [sp]
 614 0296 7B1C     		add	r3, r7, #1
 615 0298 9042     		cmp	r0, r2
 616 029a 0ED1     		bne	.L59
 617              		.loc 1 313 0
ARM GAS  /cygdrive/c/Users/embedded/AppData/Local/Temp/ccWfuIiM.s 			page 21


 618 029c 7F78     		ldrb	r7, [r7, #1]
 619              	.LVL64:
 620 029e 5D1C     		add	r5, r3, #1
 621              	.LVL65:
 622 02a0 0024     		mov	r4, #0
 623              	.LVL66:
 624 02a2 0397     		str	r7, [sp, #12]
 625 02a4 03E0     		b	.L61
 626              	.L62:
 627              		.loc 1 315 0
 628 02a6 2878     		ldrb	r0, [r5]
 629 02a8 FFF7FEFF 		bl	lcdWrdata
 630              		.loc 1 314 0
 631 02ac 0134     		add	r4, r4, #1
 632              	.L61:
 633 02ae 039B     		ldr	r3, [sp, #12]
 634 02b0 9C42     		cmp	r4, r3
 635 02b2 F8D1     		bne	.L62
 636              		.loc 1 316 0
 637 02b4 6F1C     		add	r7, r5, #1
 638              		.loc 1 317 0
 639 02b6 F61A     		sub	r6, r6, r3
 640 02b8 03E0     		b	.L71
 641              	.LVL67:
 642              	.L59:
 643              		.loc 1 321 0
 644 02ba 1F1C     		mov	r7, r3
 645 02bc FFF7FEFF 		bl	lcdWrdata
 646              		.loc 1 322 0
 647 02c0 013E     		sub	r6, r6, #1
 648              	.L71:
 649              		.loc 1 308 0
 650 02c2 002E     		cmp	r6, #0
 651 02c4 E5DC     		bgt	.L58
 652              	.LVL68:
 653              	.L57:
 654              		.loc 1 327 0
 655 02c6 0020     		mov	r0, #0
 656 02c8 FFF7FEFF 		bl	selectLCD
 657              		.loc 1 328 0
 658 02cc 04B0     		add	sp, sp, #16
 659              		@ sp needed for prologue
 660              	.LVL69:
 661              	.LVL70:
 662              	.LVL71:
 663              	.LVL72:
 664 02ce F0BC     		pop	{r4, r5, r6, r7}
 665 02d0 01BC     		pop	{r0}
 666 02d2 0047     		bx	r0
 667              	.LFE9:
 668              		.size	lcdIcon, .-lcdIcon
 669              		.align	2
 670              		.global	lcdRectBrd
 671              		.code 16
 672              		.thumb_func
 673              		.type	lcdRectBrd, %function
 674              	lcdRectBrd:
ARM GAS  /cygdrive/c/Users/embedded/AppData/Local/Temp/ccWfuIiM.s 			page 22


 675              	.LFB8:
 676              		.loc 1 247 0
 677 02d4 F0B5     		push	{r4, r5, r6, r7, lr}
 678              	.LCFI10:
 679              	.LVL73:
 680 02d6 83B0     		sub	sp, sp, #12
 681              	.LCFI11:
 682              		.loc 1 247 0
 683 02d8 051C     		mov	r5, r0
 684 02da 0998     		ldr	r0, [sp, #36]
 685              	.LVL74:
 686 02dc 0E1C     		mov	r6, r1
 687 02de 0899     		ldr	r1, [sp, #32]
 688              	.LVL75:
 689 02e0 0006     		lsl	r0, r0, #24
 690 02e2 000E     		lsr	r0, r0, #24
 691 02e4 1B06     		lsl	r3, r3, #24
 692              	.LVL76:
 693 02e6 0906     		lsl	r1, r1, #24
 694 02e8 1206     		lsl	r2, r2, #24
 695              	.LVL77:
 696 02ea 1B0E     		lsr	r3, r3, #24
 697 02ec 090E     		lsr	r1, r1, #24
 698 02ee 0090     		str	r0, [sp]
 699              		.loc 1 251 0
 700 02f0 0120     		mov	r0, #1
 701              		.loc 1 247 0
 702 02f2 0A9C     		ldr	r4, [sp, #40]
 703 02f4 170E     		lsr	r7, r2, #24
 704              	.LVL78:
 705 02f6 0293     		str	r3, [sp, #8]
 706              	.LVL79:
 707 02f8 0191     		str	r1, [sp, #4]
 708 02fa 2D06     		lsl	r5, r5, #24
 709              	.LVL80:
 710              		.loc 1 251 0
 711 02fc FFF7FEFF 		bl	selectLCD
 712              		.loc 1 247 0
 713 0300 3606     		lsl	r6, r6, #24
 714              	.LVL81:
 715              		.loc 1 253 0
 716 0302 0299     		ldr	r1, [sp, #8]
 717              		.loc 1 247 0
 718 0304 2D0E     		lsr	r5, r5, #24
 719              	.LVL82:
 720 0306 360E     		lsr	r6, r6, #24
 721              	.LVL83:
 722              		.loc 1 253 0
 723 0308 EA19     		add	r2, r5, r7
 724 030a 7318     		add	r3, r6, r1
 725 030c 013A     		sub	r2, r2, #1
 726 030e 013B     		sub	r3, r3, #1
 727 0310 1206     		lsl	r2, r2, #24
 728 0312 1B06     		lsl	r3, r3, #24
 729 0314 281C     		mov	r0, r5
 730 0316 120E     		lsr	r2, r2, #24
 731 0318 1B0E     		lsr	r3, r3, #24
ARM GAS  /cygdrive/c/Users/embedded/AppData/Local/Temp/ccWfuIiM.s 			page 23


 732 031a 311C     		mov	r1, r6
 733 031c FFF78AFE 		bl	lcdWindow1
 734              		.loc 1 255 0
 735 0320 2C20     		mov	r0, #44
 736 0322 FFF7FEFF 		bl	lcdWrcmd
 737              		.loc 1 247 0
 738 0326 2406     		lsl	r4, r4, #24
 739 0328 240E     		lsr	r4, r4, #24
 740              		.loc 1 255 0
 741 032a 0025     		mov	r5, #0
 742              	.LVL84:
 743 032c 03E0     		b	.L73
 744              	.LVL85:
 745              	.L74:
 746              		.loc 1 258 0
 747 032e 0098     		ldr	r0, [sp]
 748 0330 FFF7FEFF 		bl	lcdWrdata
 749              		.loc 1 257 0
 750 0334 0135     		add	r5, r5, #1
 751              	.L73:
 752 0336 BD42     		cmp	r5, r7
 753 0338 F9D1     		bne	.L74
 754 033a 0126     		mov	r6, #1
 755              	.LVL86:
 756 033c 0FE0     		b	.L76
 757              	.LVL87:
 758              	.L77:
 759              		.loc 1 261 0
 760 033e 0098     		ldr	r0, [sp]
 761 0340 FFF7FEFF 		bl	lcdWrdata
 762 0344 0025     		mov	r5, #0
 763              	.LVL88:
 764 0346 03E0     		b	.L78
 765              	.L79:
 766              		.loc 1 263 0
 767 0348 0198     		ldr	r0, [sp, #4]
 768 034a FFF7FEFF 		bl	lcdWrdata
 769              		.loc 1 262 0
 770 034e 0135     		add	r5, r5, #1
 771              	.L78:
 772 0350 BB1E     		sub	r3, r7, #2
 773 0352 9D42     		cmp	r5, r3
 774 0354 F8D1     		bne	.L79
 775              		.loc 1 264 0
 776 0356 201C     		mov	r0, r4
 777 0358 FFF7FEFF 		bl	lcdWrdata
 778              		.loc 1 259 0
 779 035c 0136     		add	r6, r6, #1
 780              	.LVL89:
 781              	.L76:
 782 035e 029B     		ldr	r3, [sp, #8]
 783 0360 023B     		sub	r3, r3, #2
 784 0362 9E42     		cmp	r6, r3
 785 0364 EBD3     		bcc	.L77
 786 0366 0025     		mov	r5, #0
 787              	.LVL90:
 788 0368 03E0     		b	.L82
ARM GAS  /cygdrive/c/Users/embedded/AppData/Local/Temp/ccWfuIiM.s 			page 24


 789              	.L83:
 790              		.loc 1 267 0
 791 036a 201C     		mov	r0, r4
 792 036c FFF7FEFF 		bl	lcdWrdata
 793              		.loc 1 266 0
 794 0370 0135     		add	r5, r5, #1
 795              	.L82:
 796 0372 BD42     		cmp	r5, r7
 797 0374 F9D1     		bne	.L83
 798              		.loc 1 270 0
 799 0376 0020     		mov	r0, #0
 800 0378 FFF7FEFF 		bl	selectLCD
 801              		.loc 1 271 0
 802 037c 03B0     		add	sp, sp, #12
 803              		@ sp needed for prologue
 804              	.LVL91:
 805              	.LVL92:
 806              	.LVL93:
 807              	.LVL94:
 808 037e F0BC     		pop	{r4, r5, r6, r7}
 809 0380 01BC     		pop	{r0}
 810 0382 0047     		bx	r0
 811              	.LFE8:
 812              		.size	lcdRectBrd, .-lcdRectBrd
 813              		.align	2
 814              		.global	lcdRect
 815              		.code 16
 816              		.thumb_func
 817              		.type	lcdRect, %function
 818              	lcdRect:
 819              	.LFB7:
 820              		.loc 1 218 0
 821 0384 F0B5     		push	{r4, r5, r6, r7, lr}
 822              	.LCFI12:
 823              	.LVL95:
 824 0386 81B0     		sub	sp, sp, #4
 825              	.LCFI13:
 826              		.loc 1 218 0
 827 0388 1E1C     		mov	r6, r3
 828 038a 069B     		ldr	r3, [sp, #24]
 829              	.LVL96:
 830 038c 0D06     		lsl	r5, r1, #24
 831 038e 1206     		lsl	r2, r2, #24
 832              	.LVL97:
 833 0390 0406     		lsl	r4, r0, #24
 834 0392 3606     		lsl	r6, r6, #24
 835              	.LVL98:
 836 0394 1B06     		lsl	r3, r3, #24
 837 0396 240E     		lsr	r4, r4, #24
 838 0398 170E     		lsr	r7, r2, #24
 839              	.LVL99:
 840 039a 1B0E     		lsr	r3, r3, #24
 841 039c 2D0E     		lsr	r5, r5, #24
 842 039e 360E     		lsr	r6, r6, #24
 843              	.LVL100:
 844              		.loc 1 223 0
 845 03a0 0120     		mov	r0, #1
ARM GAS  /cygdrive/c/Users/embedded/AppData/Local/Temp/ccWfuIiM.s 			page 25


 846              	.LVL101:
 847              		.loc 1 218 0
 848 03a2 0093     		str	r3, [sp]
 849              		.loc 1 223 0
 850 03a4 FFF7FEFF 		bl	selectLCD
 851              	.LVL102:
 852              		.loc 1 225 0
 853 03a8 E219     		add	r2, r4, r7
 854 03aa AB19     		add	r3, r5, r6
 855 03ac 013A     		sub	r2, r2, #1
 856 03ae 013B     		sub	r3, r3, #1
 857 03b0 1206     		lsl	r2, r2, #24
 858 03b2 1B06     		lsl	r3, r3, #24
 859 03b4 201C     		mov	r0, r4
 860 03b6 120E     		lsr	r2, r2, #24
 861 03b8 1B0E     		lsr	r3, r3, #24
 862 03ba 291C     		mov	r1, r5
 863 03bc FFF73AFE 		bl	lcdWindow1
 864              		.loc 1 227 0
 865 03c0 2C20     		mov	r0, #44
 866 03c2 FFF7FEFF 		bl	lcdWrcmd
 867              		.loc 1 229 0
 868 03c6 7E43     		mul	r6, r7
 869              	.LVL103:
 870 03c8 0024     		mov	r4, #0
 871              	.LVL104:
 872 03ca 03E0     		b	.L87
 873              	.LVL105:
 874              	.L88:
 875              		.loc 1 231 0
 876 03cc 0098     		ldr	r0, [sp]
 877 03ce FFF7FEFF 		bl	lcdWrdata
 878              		.loc 1 230 0
 879 03d2 0134     		add	r4, r4, #1
 880              	.L87:
 881 03d4 B442     		cmp	r4, r6
 882 03d6 F9D1     		bne	.L88
 883              		.loc 1 234 0
 884 03d8 0020     		mov	r0, #0
 885 03da FFF7FEFF 		bl	selectLCD
 886              		.loc 1 235 0
 887 03de 01B0     		add	sp, sp, #4
 888              		@ sp needed for prologue
 889              	.LVL106:
 890              	.LVL107:
 891              	.LVL108:
 892              	.LVL109:
 893 03e0 F0BC     		pop	{r4, r5, r6, r7}
 894 03e2 01BC     		pop	{r0}
 895 03e4 0047     		bx	r0
 896              	.LFE7:
 897              		.size	lcdRect, .-lcdRect
 898 03e6 0000     		.align	2
 899              		.global	lcdContrast
 900              		.code 16
 901              		.thumb_func
 902              		.type	lcdContrast, %function
ARM GAS  /cygdrive/c/Users/embedded/AppData/Local/Temp/ccWfuIiM.s 			page 26


 903              	lcdContrast:
 904              	.LFB6:
 905              		.loc 1 197 0
 906 03e8 10B5     		push	{r4, lr}
 907              	.LCFI14:
 908              	.LVL110:
 909              		.loc 1 197 0
 910 03ea 0406     		lsl	r4, r0, #24
 911              		.loc 1 199 0
 912 03ec 0120     		mov	r0, #1
 913              	.LVL111:
 914 03ee FFF7FEFF 		bl	selectLCD
 915              		.loc 1 197 0
 916 03f2 240E     		lsr	r4, r4, #24
 917              	.LVL112:
 918              		.loc 1 202 0
 919 03f4 2520     		mov	r0, #37
 920 03f6 FFF7FEFF 		bl	lcdWrcmd
 921              		.loc 1 203 0
 922 03fa 201C     		mov	r0, r4
 923 03fc FFF7FEFF 		bl	lcdWrdata
 924              		.loc 1 206 0
 925 0400 0020     		mov	r0, #0
 926 0402 FFF7FEFF 		bl	selectLCD
 927              		.loc 1 207 0
 928              		@ sp needed for prologue
 929              	.LVL113:
 930 0406 10BC     		pop	{r4}
 931 0408 01BC     		pop	{r0}
 932 040a 0047     		bx	r0
 933              	.LFE6:
 934              		.size	lcdContrast, .-lcdContrast
 935              		.align	2
 936              		.global	lcdClrscr
 937              		.code 16
 938              		.thumb_func
 939              		.type	lcdClrscr, %function
 940              	lcdClrscr:
 941              	.LFB3:
 942              		.loc 1 133 0
 943 040c 10B5     		push	{r4, lr}
 944              	.LCFI15:
 945              		.loc 1 136 0
 946 040e 104B     		ldr	r3, .L99
 947 0410 0022     		mov	r2, #0
 948 0412 1A70     		strb	r2, [r3]
 949              		.loc 1 137 0
 950 0414 0F4B     		ldr	r3, .L99+4
 951              		.loc 1 140 0
 952 0416 0120     		mov	r0, #1
 953              		.loc 1 137 0
 954 0418 1A70     		strb	r2, [r3]
 955              		.loc 1 140 0
 956 041a FFF7FEFF 		bl	selectLCD
 957              		.loc 1 142 0
 958 041e FF20     		mov	r0, #255
 959 0420 FF21     		mov	r1, #255
ARM GAS  /cygdrive/c/Users/embedded/AppData/Local/Temp/ccWfuIiM.s 			page 27


 960 0422 8022     		mov	r2, #128
 961 0424 8023     		mov	r3, #128
 962 0426 FFF705FE 		bl	lcdWindow1
 963              		.loc 1 144 0
 964 042a 2C20     		mov	r0, #44
 965 042c FFF7FEFF 		bl	lcdWrcmd
 966 0430 0024     		mov	r4, #0
 967              	.LVL114:
 968              	.L94:
 969              		.loc 1 147 0
 970 0432 094B     		ldr	r3, .L99+8
 971 0434 1878     		ldrb	r0, [r3]
 972 0436 FFF7FEFF 		bl	lcdWrdata
 973              		.loc 1 146 0
 974 043a 084B     		ldr	r3, .L99+12
 975 043c 0134     		add	r4, r4, #1
 976 043e 9C42     		cmp	r4, r3
 977 0440 F7D1     		bne	.L94
 978              		.loc 1 150 0
 979 0442 0020     		mov	r0, #0
 980 0444 FFF7FEFF 		bl	selectLCD
 981              		.loc 1 151 0
 982              		@ sp needed for prologue
 983              	.LVL115:
 984 0448 10BC     		pop	{r4}
 985 044a 01BC     		pop	{r0}
 986 044c 0047     		bx	r0
 987              	.L100:
 988 044e 0000     		.align	2
 989              	.L99:
 990 0450 00000000 		.word	lcd_x
 991 0454 01000000 		.word	lcd_y
 992 0458 02000000 		.word	bkgColor
 993 045c 04420000 		.word	16900
 994              	.LFE3:
 995              		.size	lcdClrscr, .-lcdClrscr
 996              		.align	2
 997              		.global	lcdOff
 998              		.code 16
 999              		.thumb_func
 1000              		.type	lcdOff, %function
 1001              	lcdOff:
 1002              	.LFB4:
 1003              		.loc 1 162 0
 1004 0460 00B5     		push	{lr}
 1005              	.LCFI16:
 1006              		.loc 1 163 0
 1007 0462 FFF7FEFF 		bl	lcdClrscr
 1008              		.loc 1 166 0
 1009 0466 0120     		mov	r0, #1
 1010 0468 FFF7FEFF 		bl	selectLCD
 1011              		.loc 1 168 0
 1012 046c 1020     		mov	r0, #16
 1013 046e FFF7FEFF 		bl	lcdWrcmd
 1014              		.loc 1 171 0
 1015 0472 0020     		mov	r0, #0
 1016 0474 FFF7FEFF 		bl	selectLCD
ARM GAS  /cygdrive/c/Users/embedded/AppData/Local/Temp/ccWfuIiM.s 			page 28


 1017              		.loc 1 172 0
 1018              		@ sp needed for prologue
 1019 0478 01BC     		pop	{r0}
 1020 047a 0047     		bx	r0
 1021              	.LFE4:
 1022              		.size	lcdOff, .-lcdOff
 1023              		.align	2
 1024              		.global	lcdInit
 1025              		.code 16
 1026              		.thumb_func
 1027              		.type	lcdInit, %function
 1028              	lcdInit:
 1029              	.LFB2:
 1030              		.loc 1 70 0
 1031 047c 00B5     		push	{lr}
 1032              	.LCFI17:
 1033              		.loc 1 71 0
 1034 047e 3A4B     		ldr	r3, .L105
 1035 0480 0022     		mov	r2, #0
 1036 0482 1A70     		strb	r2, [r3]
 1037              		.loc 1 72 0
 1038 0484 394B     		ldr	r3, .L105+4
 1039 0486 1A70     		strb	r2, [r3]
 1040              		.loc 1 75 0
 1041 0488 FFF7FEFF 		bl	initSpiForLcd
 1042              		.loc 1 78 0
 1043 048c 0120     		mov	r0, #1
 1044 048e FFF7FEFF 		bl	selectLCD
 1045              		.loc 1 80 0
 1046 0492 0120     		mov	r0, #1
 1047 0494 FFF7FEFF 		bl	lcdWrcmd
 1048              		.loc 1 82 0
 1049 0498 0120     		mov	r0, #1
 1050 049a FFF7FEFF 		bl	osSleep
 1051              		.loc 1 83 0
 1052 049e 1120     		mov	r0, #17
 1053 04a0 FFF7FEFF 		bl	lcdWrcmd
 1054              		.loc 1 84 0
 1055 04a4 2920     		mov	r0, #41
 1056 04a6 FFF7FEFF 		bl	lcdWrcmd
 1057              		.loc 1 85 0
 1058 04aa 0320     		mov	r0, #3
 1059 04ac FFF7FEFF 		bl	lcdWrcmd
 1060              		.loc 1 86 0
 1061 04b0 0120     		mov	r0, #1
 1062 04b2 FFF7FEFF 		bl	osSleep
 1063              		.loc 1 88 0
 1064 04b6 3620     		mov	r0, #54
 1065 04b8 FFF7FEFF 		bl	lcdWrcmd
 1066              		.loc 1 89 0
 1067 04bc 4820     		mov	r0, #72
 1068 04be FFF7FEFF 		bl	lcdWrdata
 1069              		.loc 1 90 0
 1070 04c2 3A20     		mov	r0, #58
 1071 04c4 FFF7FEFF 		bl	lcdWrcmd
 1072              		.loc 1 91 0
 1073 04c8 0220     		mov	r0, #2
ARM GAS  /cygdrive/c/Users/embedded/AppData/Local/Temp/ccWfuIiM.s 			page 29


 1074 04ca FFF7FEFF 		bl	lcdWrdata
 1075              		.loc 1 92 0
 1076 04ce 2120     		mov	r0, #33
 1077 04d0 FFF7FEFF 		bl	lcdWrcmd
 1078              		.loc 1 94 0
 1079 04d4 2D20     		mov	r0, #45
 1080 04d6 FFF7FEFF 		bl	lcdWrcmd
 1081              		.loc 1 95 0
 1082 04da 0020     		mov	r0, #0
 1083 04dc FFF7FEFF 		bl	lcdWrdata
 1084              		.loc 1 96 0
 1085 04e0 0220     		mov	r0, #2
 1086 04e2 FFF7FEFF 		bl	lcdWrdata
 1087              		.loc 1 97 0
 1088 04e6 0420     		mov	r0, #4
 1089 04e8 FFF7FEFF 		bl	lcdWrdata
 1090              		.loc 1 98 0
 1091 04ec 0620     		mov	r0, #6
 1092 04ee FFF7FEFF 		bl	lcdWrdata
 1093              		.loc 1 99 0
 1094 04f2 0920     		mov	r0, #9
 1095 04f4 FFF7FEFF 		bl	lcdWrdata
 1096              		.loc 1 100 0
 1097 04f8 0B20     		mov	r0, #11
 1098 04fa FFF7FEFF 		bl	lcdWrdata
 1099              		.loc 1 101 0
 1100 04fe 0D20     		mov	r0, #13
 1101 0500 FFF7FEFF 		bl	lcdWrdata
 1102              		.loc 1 102 0
 1103 0504 0F20     		mov	r0, #15
 1104 0506 FFF7FEFF 		bl	lcdWrdata
 1105              		.loc 1 103 0
 1106 050a 0020     		mov	r0, #0
 1107 050c FFF7FEFF 		bl	lcdWrdata
 1108              		.loc 1 104 0
 1109 0510 0220     		mov	r0, #2
 1110 0512 FFF7FEFF 		bl	lcdWrdata
 1111              		.loc 1 105 0
 1112 0516 0420     		mov	r0, #4
 1113 0518 FFF7FEFF 		bl	lcdWrdata
 1114              		.loc 1 106 0
 1115 051c 0620     		mov	r0, #6
 1116 051e FFF7FEFF 		bl	lcdWrdata
 1117              		.loc 1 107 0
 1118 0522 0920     		mov	r0, #9
 1119 0524 FFF7FEFF 		bl	lcdWrdata
 1120              		.loc 1 108 0
 1121 0528 0B20     		mov	r0, #11
 1122 052a FFF7FEFF 		bl	lcdWrdata
 1123              		.loc 1 109 0
 1124 052e 0D20     		mov	r0, #13
 1125 0530 FFF7FEFF 		bl	lcdWrdata
 1126              		.loc 1 110 0
 1127 0534 0F20     		mov	r0, #15
 1128 0536 FFF7FEFF 		bl	lcdWrdata
 1129              		.loc 1 111 0
 1130 053a 0020     		mov	r0, #0
ARM GAS  /cygdrive/c/Users/embedded/AppData/Local/Temp/ccWfuIiM.s 			page 30


 1131 053c FFF7FEFF 		bl	lcdWrdata
 1132              		.loc 1 112 0
 1133 0540 0620     		mov	r0, #6
 1134 0542 FFF7FEFF 		bl	lcdWrdata
 1135              		.loc 1 113 0
 1136 0546 0A20     		mov	r0, #10
 1137 0548 FFF7FEFF 		bl	lcdWrdata
 1138              		.loc 1 114 0
 1139 054c 0F20     		mov	r0, #15
 1140 054e FFF7FEFF 		bl	lcdWrdata
 1141              		.loc 1 117 0
 1142 0552 0020     		mov	r0, #0
 1143 0554 FFF7FEFF 		bl	selectLCD
 1144              		.loc 1 119 0
 1145 0558 3820     		mov	r0, #56
 1146 055a FFF7FEFF 		bl	lcdContrast
 1147              		.loc 1 121 0
 1148 055e FFF7FEFF 		bl	lcdClrscr
 1149              		.loc 1 122 0
 1150              		@ sp needed for prologue
 1151 0562 01BC     		pop	{r0}
 1152 0564 0047     		bx	r0
 1153              	.L106:
 1154 0566 0000     		.align	2
 1155              	.L105:
 1156 0568 02000000 		.word	bkgColor
 1157 056c 03000000 		.word	textColor
 1158              	.LFE2:
 1159              		.size	lcdInit, .-lcdInit
 1160              		.global	charMap
 1161              		.section	.rodata
 1162              		.type	charMap, %object
 1163              		.size	charMap, 1372
 1164              	charMap:
 1165 0000 00       		.byte	0
 1166 0001 00       		.byte	0
 1167 0002 00       		.byte	0
 1168 0003 80       		.byte	-128
 1169 0004 C0       		.byte	-64
 1170 0005 E0       		.byte	-32
 1171 0006 F8       		.byte	-8
 1172 0007 FE       		.byte	-2
 1173 0008 F8       		.byte	-8
 1174 0009 E0       		.byte	-32
 1175 000a C0       		.byte	-64
 1176 000b 80       		.byte	-128
 1177 000c 00       		.byte	0
 1178 000d 00       		.byte	0
 1179 000e 00       		.byte	0
 1180 000f 00       		.byte	0
 1181 0010 00       		.byte	0
 1182 0011 02       		.byte	2
 1183 0012 06       		.byte	6
 1184 0013 0E       		.byte	14
 1185 0014 3E       		.byte	62
 1186 0015 FE       		.byte	-2
 1187 0016 3E       		.byte	62
ARM GAS  /cygdrive/c/Users/embedded/AppData/Local/Temp/ccWfuIiM.s 			page 31


 1188 0017 0E       		.byte	14
 1189 0018 06       		.byte	6
 1190 0019 02       		.byte	2
 1191 001a 00       		.byte	0
 1192 001b 00       		.byte	0
 1193 001c 00       		.byte	0
 1194 001d 00       		.byte	0
 1195 001e 00       		.byte	0
 1196 001f 00       		.byte	0
 1197 0020 00       		.byte	0
 1198 0021 00       		.byte	0
 1199 0022 00       		.byte	0
 1200 0023 00       		.byte	0
 1201 0024 00       		.byte	0
 1202 0025 00       		.byte	0
 1203 0026 00       		.byte	0
 1204 0027 00       		.byte	0
 1205 0028 00       		.byte	0
 1206 0029 00       		.byte	0
 1207 002a 00       		.byte	0
 1208 002b 00       		.byte	0
 1209 002c 00       		.byte	0
 1210 002d 18       		.byte	24
 1211 002e 3C       		.byte	60
 1212 002f 3C       		.byte	60
 1213 0030 3C       		.byte	60
 1214 0031 18       		.byte	24
 1215 0032 18       		.byte	24
 1216 0033 00       		.byte	0
 1217 0034 18       		.byte	24
 1218 0035 18       		.byte	24
 1219 0036 00       		.byte	0
 1220 0037 00       		.byte	0
 1221 0038 00       		.byte	0
 1222 0039 66       		.byte	102
 1223 003a 66       		.byte	102
 1224 003b 66       		.byte	102
 1225 003c 24       		.byte	36
 1226 003d 00       		.byte	0
 1227 003e 00       		.byte	0
 1228 003f 00       		.byte	0
 1229 0040 00       		.byte	0
 1230 0041 00       		.byte	0
 1231 0042 00       		.byte	0
 1232 0043 00       		.byte	0
 1233 0044 00       		.byte	0
 1234 0045 00       		.byte	0
 1235 0046 00       		.byte	0
 1236 0047 00       		.byte	0
 1237 0048 00       		.byte	0
 1238 0049 6C       		.byte	108
 1239 004a 6C       		.byte	108
 1240 004b FE       		.byte	-2
 1241 004c 6C       		.byte	108
 1242 004d 6C       		.byte	108
 1243 004e 6C       		.byte	108
 1244 004f FE       		.byte	-2
ARM GAS  /cygdrive/c/Users/embedded/AppData/Local/Temp/ccWfuIiM.s 			page 32


 1245 0050 6C       		.byte	108
 1246 0051 6C       		.byte	108
 1247 0052 00       		.byte	0
 1248 0053 00       		.byte	0
 1249 0054 00       		.byte	0
 1250 0055 18       		.byte	24
 1251 0056 18       		.byte	24
 1252 0057 7C       		.byte	124
 1253 0058 C6       		.byte	-58
 1254 0059 C2       		.byte	-62
 1255 005a C0       		.byte	-64
 1256 005b 7C       		.byte	124
 1257 005c 06       		.byte	6
 1258 005d 86       		.byte	-122
 1259 005e C6       		.byte	-58
 1260 005f 7C       		.byte	124
 1261 0060 18       		.byte	24
 1262 0061 18       		.byte	24
 1263 0062 00       		.byte	0
 1264 0063 00       		.byte	0
 1265 0064 00       		.byte	0
 1266 0065 00       		.byte	0
 1267 0066 00       		.byte	0
 1268 0067 C2       		.byte	-62
 1269 0068 C6       		.byte	-58
 1270 0069 0C       		.byte	12
 1271 006a 18       		.byte	24
 1272 006b 30       		.byte	48
 1273 006c 66       		.byte	102
 1274 006d C6       		.byte	-58
 1275 006e 00       		.byte	0
 1276 006f 00       		.byte	0
 1277 0070 00       		.byte	0
 1278 0071 00       		.byte	0
 1279 0072 00       		.byte	0
 1280 0073 38       		.byte	56
 1281 0074 6C       		.byte	108
 1282 0075 6C       		.byte	108
 1283 0076 38       		.byte	56
 1284 0077 76       		.byte	118
 1285 0078 DC       		.byte	-36
 1286 0079 CC       		.byte	-52
 1287 007a CC       		.byte	-52
 1288 007b 76       		.byte	118
 1289 007c 00       		.byte	0
 1290 007d 00       		.byte	0
 1291 007e 00       		.byte	0
 1292 007f 18       		.byte	24
 1293 0080 18       		.byte	24
 1294 0081 18       		.byte	24
 1295 0082 30       		.byte	48
 1296 0083 00       		.byte	0
 1297 0084 00       		.byte	0
 1298 0085 00       		.byte	0
 1299 0086 00       		.byte	0
 1300 0087 00       		.byte	0
 1301 0088 00       		.byte	0
ARM GAS  /cygdrive/c/Users/embedded/AppData/Local/Temp/ccWfuIiM.s 			page 33


 1302 0089 00       		.byte	0
 1303 008a 00       		.byte	0
 1304 008b 00       		.byte	0
 1305 008c 00       		.byte	0
 1306 008d 00       		.byte	0
 1307 008e 00       		.byte	0
 1308 008f 0C       		.byte	12
 1309 0090 18       		.byte	24
 1310 0091 30       		.byte	48
 1311 0092 30       		.byte	48
 1312 0093 30       		.byte	48
 1313 0094 30       		.byte	48
 1314 0095 30       		.byte	48
 1315 0096 18       		.byte	24
 1316 0097 0C       		.byte	12
 1317 0098 00       		.byte	0
 1318 0099 00       		.byte	0
 1319 009a 00       		.byte	0
 1320 009b 00       		.byte	0
 1321 009c 00       		.byte	0
 1322 009d 30       		.byte	48
 1323 009e 18       		.byte	24
 1324 009f 0C       		.byte	12
 1325 00a0 0C       		.byte	12
 1326 00a1 0C       		.byte	12
 1327 00a2 0C       		.byte	12
 1328 00a3 0C       		.byte	12
 1329 00a4 18       		.byte	24
 1330 00a5 30       		.byte	48
 1331 00a6 00       		.byte	0
 1332 00a7 00       		.byte	0
 1333 00a8 00       		.byte	0
 1334 00a9 00       		.byte	0
 1335 00aa 00       		.byte	0
 1336 00ab 00       		.byte	0
 1337 00ac 00       		.byte	0
 1338 00ad 66       		.byte	102
 1339 00ae 3C       		.byte	60
 1340 00af FF       		.byte	-1
 1341 00b0 3C       		.byte	60
 1342 00b1 66       		.byte	102
 1343 00b2 00       		.byte	0
 1344 00b3 00       		.byte	0
 1345 00b4 00       		.byte	0
 1346 00b5 00       		.byte	0
 1347 00b6 00       		.byte	0
 1348 00b7 00       		.byte	0
 1349 00b8 00       		.byte	0
 1350 00b9 00       		.byte	0
 1351 00ba 00       		.byte	0
 1352 00bb 18       		.byte	24
 1353 00bc 18       		.byte	24
 1354 00bd 7E       		.byte	126
 1355 00be 18       		.byte	24
 1356 00bf 18       		.byte	24
 1357 00c0 00       		.byte	0
 1358 00c1 00       		.byte	0
ARM GAS  /cygdrive/c/Users/embedded/AppData/Local/Temp/ccWfuIiM.s 			page 34


 1359 00c2 00       		.byte	0
 1360 00c3 00       		.byte	0
 1361 00c4 00       		.byte	0
 1362 00c5 00       		.byte	0
 1363 00c6 00       		.byte	0
 1364 00c7 00       		.byte	0
 1365 00c8 00       		.byte	0
 1366 00c9 00       		.byte	0
 1367 00ca 00       		.byte	0
 1368 00cb 00       		.byte	0
 1369 00cc 00       		.byte	0
 1370 00cd 18       		.byte	24
 1371 00ce 18       		.byte	24
 1372 00cf 18       		.byte	24
 1373 00d0 30       		.byte	48
 1374 00d1 00       		.byte	0
 1375 00d2 00       		.byte	0
 1376 00d3 00       		.byte	0
 1377 00d4 00       		.byte	0
 1378 00d5 00       		.byte	0
 1379 00d6 00       		.byte	0
 1380 00d7 00       		.byte	0
 1381 00d8 00       		.byte	0
 1382 00d9 FE       		.byte	-2
 1383 00da 00       		.byte	0
 1384 00db 00       		.byte	0
 1385 00dc 00       		.byte	0
 1386 00dd 00       		.byte	0
 1387 00de 00       		.byte	0
 1388 00df 00       		.byte	0
 1389 00e0 00       		.byte	0
 1390 00e1 00       		.byte	0
 1391 00e2 00       		.byte	0
 1392 00e3 00       		.byte	0
 1393 00e4 00       		.byte	0
 1394 00e5 00       		.byte	0
 1395 00e6 00       		.byte	0
 1396 00e7 00       		.byte	0
 1397 00e8 00       		.byte	0
 1398 00e9 00       		.byte	0
 1399 00ea 18       		.byte	24
 1400 00eb 18       		.byte	24
 1401 00ec 00       		.byte	0
 1402 00ed 00       		.byte	0
 1403 00ee 00       		.byte	0
 1404 00ef 00       		.byte	0
 1405 00f0 00       		.byte	0
 1406 00f1 02       		.byte	2
 1407 00f2 06       		.byte	6
 1408 00f3 0C       		.byte	12
 1409 00f4 18       		.byte	24
 1410 00f5 30       		.byte	48
 1411 00f6 60       		.byte	96
 1412 00f7 C0       		.byte	-64
 1413 00f8 80       		.byte	-128
 1414 00f9 00       		.byte	0
 1415 00fa 00       		.byte	0
ARM GAS  /cygdrive/c/Users/embedded/AppData/Local/Temp/ccWfuIiM.s 			page 35


 1416 00fb 00       		.byte	0
 1417 00fc 00       		.byte	0
 1418 00fd 00       		.byte	0
 1419 00fe 00       		.byte	0
 1420 00ff 38       		.byte	56
 1421 0100 6C       		.byte	108
 1422 0101 C6       		.byte	-58
 1423 0102 C6       		.byte	-58
 1424 0103 D6       		.byte	-42
 1425 0104 C6       		.byte	-58
 1426 0105 C6       		.byte	-58
 1427 0106 6C       		.byte	108
 1428 0107 38       		.byte	56
 1429 0108 00       		.byte	0
 1430 0109 00       		.byte	0
 1431 010a 00       		.byte	0
 1432 010b 00       		.byte	0
 1433 010c 00       		.byte	0
 1434 010d 18       		.byte	24
 1435 010e 38       		.byte	56
 1436 010f 78       		.byte	120
 1437 0110 18       		.byte	24
 1438 0111 18       		.byte	24
 1439 0112 18       		.byte	24
 1440 0113 18       		.byte	24
 1441 0114 18       		.byte	24
 1442 0115 7E       		.byte	126
 1443 0116 00       		.byte	0
 1444 0117 00       		.byte	0
 1445 0118 00       		.byte	0
 1446 0119 00       		.byte	0
 1447 011a 00       		.byte	0
 1448 011b 7C       		.byte	124
 1449 011c C6       		.byte	-58
 1450 011d 06       		.byte	6
 1451 011e 0C       		.byte	12
 1452 011f 18       		.byte	24
 1453 0120 30       		.byte	48
 1454 0121 60       		.byte	96
 1455 0122 C6       		.byte	-58
 1456 0123 FE       		.byte	-2
 1457 0124 00       		.byte	0
 1458 0125 00       		.byte	0
 1459 0126 00       		.byte	0
 1460 0127 00       		.byte	0
 1461 0128 00       		.byte	0
 1462 0129 7C       		.byte	124
 1463 012a C6       		.byte	-58
 1464 012b 06       		.byte	6
 1465 012c 06       		.byte	6
 1466 012d 3C       		.byte	60
 1467 012e 06       		.byte	6
 1468 012f 06       		.byte	6
 1469 0130 C6       		.byte	-58
 1470 0131 7C       		.byte	124
 1471 0132 00       		.byte	0
 1472 0133 00       		.byte	0
ARM GAS  /cygdrive/c/Users/embedded/AppData/Local/Temp/ccWfuIiM.s 			page 36


 1473 0134 00       		.byte	0
 1474 0135 00       		.byte	0
 1475 0136 00       		.byte	0
 1476 0137 0C       		.byte	12
 1477 0138 1C       		.byte	28
 1478 0139 3C       		.byte	60
 1479 013a 6C       		.byte	108
 1480 013b CC       		.byte	-52
 1481 013c FE       		.byte	-2
 1482 013d 0C       		.byte	12
 1483 013e 0C       		.byte	12
 1484 013f 1E       		.byte	30
 1485 0140 00       		.byte	0
 1486 0141 00       		.byte	0
 1487 0142 00       		.byte	0
 1488 0143 00       		.byte	0
 1489 0144 00       		.byte	0
 1490 0145 FE       		.byte	-2
 1491 0146 C0       		.byte	-64
 1492 0147 C0       		.byte	-64
 1493 0148 C0       		.byte	-64
 1494 0149 FC       		.byte	-4
 1495 014a 06       		.byte	6
 1496 014b 06       		.byte	6
 1497 014c C6       		.byte	-58
 1498 014d 7C       		.byte	124
 1499 014e 00       		.byte	0
 1500 014f 00       		.byte	0
 1501 0150 00       		.byte	0
 1502 0151 00       		.byte	0
 1503 0152 00       		.byte	0
 1504 0153 38       		.byte	56
 1505 0154 60       		.byte	96
 1506 0155 C0       		.byte	-64
 1507 0156 C0       		.byte	-64
 1508 0157 FC       		.byte	-4
 1509 0158 C6       		.byte	-58
 1510 0159 C6       		.byte	-58
 1511 015a C6       		.byte	-58
 1512 015b 7C       		.byte	124
 1513 015c 00       		.byte	0
 1514 015d 00       		.byte	0
 1515 015e 00       		.byte	0
 1516 015f 00       		.byte	0
 1517 0160 00       		.byte	0
 1518 0161 FE       		.byte	-2
 1519 0162 C6       		.byte	-58
 1520 0163 06       		.byte	6
 1521 0164 0C       		.byte	12
 1522 0165 18       		.byte	24
 1523 0166 30       		.byte	48
 1524 0167 30       		.byte	48
 1525 0168 30       		.byte	48
 1526 0169 30       		.byte	48
 1527 016a 00       		.byte	0
 1528 016b 00       		.byte	0
 1529 016c 00       		.byte	0
ARM GAS  /cygdrive/c/Users/embedded/AppData/Local/Temp/ccWfuIiM.s 			page 37


 1530 016d 00       		.byte	0
 1531 016e 00       		.byte	0
 1532 016f 7C       		.byte	124
 1533 0170 C6       		.byte	-58
 1534 0171 C6       		.byte	-58
 1535 0172 C6       		.byte	-58
 1536 0173 7C       		.byte	124
 1537 0174 C6       		.byte	-58
 1538 0175 C6       		.byte	-58
 1539 0176 C6       		.byte	-58
 1540 0177 7C       		.byte	124
 1541 0178 00       		.byte	0
 1542 0179 00       		.byte	0
 1543 017a 00       		.byte	0
 1544 017b 00       		.byte	0
 1545 017c 00       		.byte	0
 1546 017d 7C       		.byte	124
 1547 017e C6       		.byte	-58
 1548 017f C6       		.byte	-58
 1549 0180 C6       		.byte	-58
 1550 0181 7E       		.byte	126
 1551 0182 06       		.byte	6
 1552 0183 06       		.byte	6
 1553 0184 0C       		.byte	12
 1554 0185 78       		.byte	120
 1555 0186 00       		.byte	0
 1556 0187 00       		.byte	0
 1557 0188 00       		.byte	0
 1558 0189 00       		.byte	0
 1559 018a 00       		.byte	0
 1560 018b 00       		.byte	0
 1561 018c 18       		.byte	24
 1562 018d 18       		.byte	24
 1563 018e 00       		.byte	0
 1564 018f 00       		.byte	0
 1565 0190 00       		.byte	0
 1566 0191 18       		.byte	24
 1567 0192 18       		.byte	24
 1568 0193 00       		.byte	0
 1569 0194 00       		.byte	0
 1570 0195 00       		.byte	0
 1571 0196 00       		.byte	0
 1572 0197 00       		.byte	0
 1573 0198 00       		.byte	0
 1574 0199 00       		.byte	0
 1575 019a 18       		.byte	24
 1576 019b 18       		.byte	24
 1577 019c 00       		.byte	0
 1578 019d 00       		.byte	0
 1579 019e 00       		.byte	0
 1580 019f 18       		.byte	24
 1581 01a0 18       		.byte	24
 1582 01a1 30       		.byte	48
 1583 01a2 00       		.byte	0
 1584 01a3 00       		.byte	0
 1585 01a4 00       		.byte	0
 1586 01a5 00       		.byte	0
ARM GAS  /cygdrive/c/Users/embedded/AppData/Local/Temp/ccWfuIiM.s 			page 38


 1587 01a6 00       		.byte	0
 1588 01a7 0C       		.byte	12
 1589 01a8 18       		.byte	24
 1590 01a9 30       		.byte	48
 1591 01aa 60       		.byte	96
 1592 01ab C0       		.byte	-64
 1593 01ac 60       		.byte	96
 1594 01ad 30       		.byte	48
 1595 01ae 18       		.byte	24
 1596 01af 0C       		.byte	12
 1597 01b0 00       		.byte	0
 1598 01b1 00       		.byte	0
 1599 01b2 00       		.byte	0
 1600 01b3 00       		.byte	0
 1601 01b4 00       		.byte	0
 1602 01b5 00       		.byte	0
 1603 01b6 00       		.byte	0
 1604 01b7 00       		.byte	0
 1605 01b8 7E       		.byte	126
 1606 01b9 00       		.byte	0
 1607 01ba 00       		.byte	0
 1608 01bb 7E       		.byte	126
 1609 01bc 00       		.byte	0
 1610 01bd 00       		.byte	0
 1611 01be 00       		.byte	0
 1612 01bf 00       		.byte	0
 1613 01c0 00       		.byte	0
 1614 01c1 00       		.byte	0
 1615 01c2 00       		.byte	0
 1616 01c3 60       		.byte	96
 1617 01c4 30       		.byte	48
 1618 01c5 18       		.byte	24
 1619 01c6 0C       		.byte	12
 1620 01c7 06       		.byte	6
 1621 01c8 0C       		.byte	12
 1622 01c9 18       		.byte	24
 1623 01ca 30       		.byte	48
 1624 01cb 60       		.byte	96
 1625 01cc 00       		.byte	0
 1626 01cd 00       		.byte	0
 1627 01ce 00       		.byte	0
 1628 01cf 00       		.byte	0
 1629 01d0 00       		.byte	0
 1630 01d1 7C       		.byte	124
 1631 01d2 C6       		.byte	-58
 1632 01d3 C6       		.byte	-58
 1633 01d4 0C       		.byte	12
 1634 01d5 18       		.byte	24
 1635 01d6 18       		.byte	24
 1636 01d7 00       		.byte	0
 1637 01d8 18       		.byte	24
 1638 01d9 18       		.byte	24
 1639 01da 00       		.byte	0
 1640 01db 00       		.byte	0
 1641 01dc 00       		.byte	0
 1642 01dd 00       		.byte	0
 1643 01de 00       		.byte	0
ARM GAS  /cygdrive/c/Users/embedded/AppData/Local/Temp/ccWfuIiM.s 			page 39


 1644 01df 7C       		.byte	124
 1645 01e0 C6       		.byte	-58
 1646 01e1 C6       		.byte	-58
 1647 01e2 DE       		.byte	-34
 1648 01e3 DE       		.byte	-34
 1649 01e4 DE       		.byte	-34
 1650 01e5 DC       		.byte	-36
 1651 01e6 C0       		.byte	-64
 1652 01e7 7C       		.byte	124
 1653 01e8 00       		.byte	0
 1654 01e9 00       		.byte	0
 1655 01ea 00       		.byte	0
 1656 01eb 00       		.byte	0
 1657 01ec 00       		.byte	0
 1658 01ed 10       		.byte	16
 1659 01ee 38       		.byte	56
 1660 01ef 6C       		.byte	108
 1661 01f0 C6       		.byte	-58
 1662 01f1 C6       		.byte	-58
 1663 01f2 FE       		.byte	-2
 1664 01f3 C6       		.byte	-58
 1665 01f4 C6       		.byte	-58
 1666 01f5 C6       		.byte	-58
 1667 01f6 00       		.byte	0
 1668 01f7 00       		.byte	0
 1669 01f8 00       		.byte	0
 1670 01f9 00       		.byte	0
 1671 01fa 00       		.byte	0
 1672 01fb FC       		.byte	-4
 1673 01fc 66       		.byte	102
 1674 01fd 66       		.byte	102
 1675 01fe 66       		.byte	102
 1676 01ff 7C       		.byte	124
 1677 0200 66       		.byte	102
 1678 0201 66       		.byte	102
 1679 0202 66       		.byte	102
 1680 0203 FC       		.byte	-4
 1681 0204 00       		.byte	0
 1682 0205 00       		.byte	0
 1683 0206 00       		.byte	0
 1684 0207 00       		.byte	0
 1685 0208 00       		.byte	0
 1686 0209 3C       		.byte	60
 1687 020a 66       		.byte	102
 1688 020b C2       		.byte	-62
 1689 020c C0       		.byte	-64
 1690 020d C0       		.byte	-64
 1691 020e C0       		.byte	-64
 1692 020f C2       		.byte	-62
 1693 0210 66       		.byte	102
 1694 0211 3C       		.byte	60
 1695 0212 00       		.byte	0
 1696 0213 00       		.byte	0
 1697 0214 00       		.byte	0
 1698 0215 00       		.byte	0
 1699 0216 00       		.byte	0
 1700 0217 F8       		.byte	-8
ARM GAS  /cygdrive/c/Users/embedded/AppData/Local/Temp/ccWfuIiM.s 			page 40


 1701 0218 6C       		.byte	108
 1702 0219 66       		.byte	102
 1703 021a 66       		.byte	102
 1704 021b 66       		.byte	102
 1705 021c 66       		.byte	102
 1706 021d 66       		.byte	102
 1707 021e 6C       		.byte	108
 1708 021f F8       		.byte	-8
 1709 0220 00       		.byte	0
 1710 0221 00       		.byte	0
 1711 0222 00       		.byte	0
 1712 0223 00       		.byte	0
 1713 0224 00       		.byte	0
 1714 0225 FE       		.byte	-2
 1715 0226 66       		.byte	102
 1716 0227 62       		.byte	98
 1717 0228 68       		.byte	104
 1718 0229 78       		.byte	120
 1719 022a 68       		.byte	104
 1720 022b 62       		.byte	98
 1721 022c 66       		.byte	102
 1722 022d FE       		.byte	-2
 1723 022e 00       		.byte	0
 1724 022f 00       		.byte	0
 1725 0230 00       		.byte	0
 1726 0231 00       		.byte	0
 1727 0232 00       		.byte	0
 1728 0233 FE       		.byte	-2
 1729 0234 66       		.byte	102
 1730 0235 62       		.byte	98
 1731 0236 68       		.byte	104
 1732 0237 78       		.byte	120
 1733 0238 68       		.byte	104
 1734 0239 60       		.byte	96
 1735 023a 60       		.byte	96
 1736 023b F0       		.byte	-16
 1737 023c 00       		.byte	0
 1738 023d 00       		.byte	0
 1739 023e 00       		.byte	0
 1740 023f 00       		.byte	0
 1741 0240 00       		.byte	0
 1742 0241 3C       		.byte	60
 1743 0242 66       		.byte	102
 1744 0243 C2       		.byte	-62
 1745 0244 C0       		.byte	-64
 1746 0245 C0       		.byte	-64
 1747 0246 DE       		.byte	-34
 1748 0247 C6       		.byte	-58
 1749 0248 66       		.byte	102
 1750 0249 3A       		.byte	58
 1751 024a 00       		.byte	0
 1752 024b 00       		.byte	0
 1753 024c 00       		.byte	0
 1754 024d 00       		.byte	0
 1755 024e 00       		.byte	0
 1756 024f C6       		.byte	-58
 1757 0250 C6       		.byte	-58
ARM GAS  /cygdrive/c/Users/embedded/AppData/Local/Temp/ccWfuIiM.s 			page 41


 1758 0251 C6       		.byte	-58
 1759 0252 C6       		.byte	-58
 1760 0253 FE       		.byte	-2
 1761 0254 C6       		.byte	-58
 1762 0255 C6       		.byte	-58
 1763 0256 C6       		.byte	-58
 1764 0257 C6       		.byte	-58
 1765 0258 00       		.byte	0
 1766 0259 00       		.byte	0
 1767 025a 00       		.byte	0
 1768 025b 00       		.byte	0
 1769 025c 00       		.byte	0
 1770 025d 3C       		.byte	60
 1771 025e 18       		.byte	24
 1772 025f 18       		.byte	24
 1773 0260 18       		.byte	24
 1774 0261 18       		.byte	24
 1775 0262 18       		.byte	24
 1776 0263 18       		.byte	24
 1777 0264 18       		.byte	24
 1778 0265 3C       		.byte	60
 1779 0266 00       		.byte	0
 1780 0267 00       		.byte	0
 1781 0268 00       		.byte	0
 1782 0269 00       		.byte	0
 1783 026a 00       		.byte	0
 1784 026b 1E       		.byte	30
 1785 026c 0C       		.byte	12
 1786 026d 0C       		.byte	12
 1787 026e 0C       		.byte	12
 1788 026f 0C       		.byte	12
 1789 0270 0C       		.byte	12
 1790 0271 CC       		.byte	-52
 1791 0272 CC       		.byte	-52
 1792 0273 78       		.byte	120
 1793 0274 00       		.byte	0
 1794 0275 00       		.byte	0
 1795 0276 00       		.byte	0
 1796 0277 00       		.byte	0
 1797 0278 00       		.byte	0
 1798 0279 E6       		.byte	-26
 1799 027a 66       		.byte	102
 1800 027b 6C       		.byte	108
 1801 027c 6C       		.byte	108
 1802 027d 78       		.byte	120
 1803 027e 6C       		.byte	108
 1804 027f 6C       		.byte	108
 1805 0280 66       		.byte	102
 1806 0281 E6       		.byte	-26
 1807 0282 00       		.byte	0
 1808 0283 00       		.byte	0
 1809 0284 00       		.byte	0
 1810 0285 00       		.byte	0
 1811 0286 00       		.byte	0
 1812 0287 F0       		.byte	-16
 1813 0288 60       		.byte	96
 1814 0289 60       		.byte	96
ARM GAS  /cygdrive/c/Users/embedded/AppData/Local/Temp/ccWfuIiM.s 			page 42


 1815 028a 60       		.byte	96
 1816 028b 60       		.byte	96
 1817 028c 60       		.byte	96
 1818 028d 62       		.byte	98
 1819 028e 66       		.byte	102
 1820 028f FE       		.byte	-2
 1821 0290 00       		.byte	0
 1822 0291 00       		.byte	0
 1823 0292 00       		.byte	0
 1824 0293 00       		.byte	0
 1825 0294 00       		.byte	0
 1826 0295 C6       		.byte	-58
 1827 0296 EE       		.byte	-18
 1828 0297 FE       		.byte	-2
 1829 0298 D6       		.byte	-42
 1830 0299 C6       		.byte	-58
 1831 029a C6       		.byte	-58
 1832 029b C6       		.byte	-58
 1833 029c C6       		.byte	-58
 1834 029d C6       		.byte	-58
 1835 029e 00       		.byte	0
 1836 029f 00       		.byte	0
 1837 02a0 00       		.byte	0
 1838 02a1 00       		.byte	0
 1839 02a2 00       		.byte	0
 1840 02a3 C6       		.byte	-58
 1841 02a4 E6       		.byte	-26
 1842 02a5 F6       		.byte	-10
 1843 02a6 FE       		.byte	-2
 1844 02a7 DE       		.byte	-34
 1845 02a8 CE       		.byte	-50
 1846 02a9 C6       		.byte	-58
 1847 02aa C6       		.byte	-58
 1848 02ab C6       		.byte	-58
 1849 02ac 00       		.byte	0
 1850 02ad 00       		.byte	0
 1851 02ae 00       		.byte	0
 1852 02af 00       		.byte	0
 1853 02b0 00       		.byte	0
 1854 02b1 7C       		.byte	124
 1855 02b2 C6       		.byte	-58
 1856 02b3 C6       		.byte	-58
 1857 02b4 C6       		.byte	-58
 1858 02b5 C6       		.byte	-58
 1859 02b6 C6       		.byte	-58
 1860 02b7 C6       		.byte	-58
 1861 02b8 C6       		.byte	-58
 1862 02b9 7C       		.byte	124
 1863 02ba 00       		.byte	0
 1864 02bb 00       		.byte	0
 1865 02bc 00       		.byte	0
 1866 02bd 00       		.byte	0
 1867 02be 00       		.byte	0
 1868 02bf FC       		.byte	-4
 1869 02c0 66       		.byte	102
 1870 02c1 66       		.byte	102
 1871 02c2 66       		.byte	102
ARM GAS  /cygdrive/c/Users/embedded/AppData/Local/Temp/ccWfuIiM.s 			page 43


 1872 02c3 7C       		.byte	124
 1873 02c4 60       		.byte	96
 1874 02c5 60       		.byte	96
 1875 02c6 60       		.byte	96
 1876 02c7 F0       		.byte	-16
 1877 02c8 00       		.byte	0
 1878 02c9 00       		.byte	0
 1879 02ca 00       		.byte	0
 1880 02cb 00       		.byte	0
 1881 02cc 00       		.byte	0
 1882 02cd 7C       		.byte	124
 1883 02ce C6       		.byte	-58
 1884 02cf C6       		.byte	-58
 1885 02d0 C6       		.byte	-58
 1886 02d1 C6       		.byte	-58
 1887 02d2 C6       		.byte	-58
 1888 02d3 D6       		.byte	-42
 1889 02d4 DE       		.byte	-34
 1890 02d5 7C       		.byte	124
 1891 02d6 0E       		.byte	14
 1892 02d7 00       		.byte	0
 1893 02d8 00       		.byte	0
 1894 02d9 00       		.byte	0
 1895 02da 00       		.byte	0
 1896 02db FC       		.byte	-4
 1897 02dc 66       		.byte	102
 1898 02dd 66       		.byte	102
 1899 02de 66       		.byte	102
 1900 02df 7C       		.byte	124
 1901 02e0 6C       		.byte	108
 1902 02e1 66       		.byte	102
 1903 02e2 66       		.byte	102
 1904 02e3 E6       		.byte	-26
 1905 02e4 00       		.byte	0
 1906 02e5 00       		.byte	0
 1907 02e6 00       		.byte	0
 1908 02e7 00       		.byte	0
 1909 02e8 00       		.byte	0
 1910 02e9 7C       		.byte	124
 1911 02ea C6       		.byte	-58
 1912 02eb C6       		.byte	-58
 1913 02ec 60       		.byte	96
 1914 02ed 38       		.byte	56
 1915 02ee 0C       		.byte	12
 1916 02ef C6       		.byte	-58
 1917 02f0 C6       		.byte	-58
 1918 02f1 7C       		.byte	124
 1919 02f2 00       		.byte	0
 1920 02f3 00       		.byte	0
 1921 02f4 00       		.byte	0
 1922 02f5 00       		.byte	0
 1923 02f6 00       		.byte	0
 1924 02f7 7E       		.byte	126
 1925 02f8 7E       		.byte	126
 1926 02f9 5A       		.byte	90
 1927 02fa 18       		.byte	24
 1928 02fb 18       		.byte	24
ARM GAS  /cygdrive/c/Users/embedded/AppData/Local/Temp/ccWfuIiM.s 			page 44


 1929 02fc 18       		.byte	24
 1930 02fd 18       		.byte	24
 1931 02fe 18       		.byte	24
 1932 02ff 3C       		.byte	60
 1933 0300 00       		.byte	0
 1934 0301 00       		.byte	0
 1935 0302 00       		.byte	0
 1936 0303 00       		.byte	0
 1937 0304 00       		.byte	0
 1938 0305 C6       		.byte	-58
 1939 0306 C6       		.byte	-58
 1940 0307 C6       		.byte	-58
 1941 0308 C6       		.byte	-58
 1942 0309 C6       		.byte	-58
 1943 030a C6       		.byte	-58
 1944 030b C6       		.byte	-58
 1945 030c C6       		.byte	-58
 1946 030d 7C       		.byte	124
 1947 030e 00       		.byte	0
 1948 030f 00       		.byte	0
 1949 0310 00       		.byte	0
 1950 0311 00       		.byte	0
 1951 0312 00       		.byte	0
 1952 0313 C6       		.byte	-58
 1953 0314 C6       		.byte	-58
 1954 0315 C6       		.byte	-58
 1955 0316 C6       		.byte	-58
 1956 0317 C6       		.byte	-58
 1957 0318 C6       		.byte	-58
 1958 0319 6C       		.byte	108
 1959 031a 38       		.byte	56
 1960 031b 10       		.byte	16
 1961 031c 00       		.byte	0
 1962 031d 00       		.byte	0
 1963 031e 00       		.byte	0
 1964 031f 00       		.byte	0
 1965 0320 00       		.byte	0
 1966 0321 C6       		.byte	-58
 1967 0322 C6       		.byte	-58
 1968 0323 C6       		.byte	-58
 1969 0324 C6       		.byte	-58
 1970 0325 D6       		.byte	-42
 1971 0326 D6       		.byte	-42
 1972 0327 FE       		.byte	-2
 1973 0328 6C       		.byte	108
 1974 0329 6C       		.byte	108
 1975 032a 00       		.byte	0
 1976 032b 00       		.byte	0
 1977 032c 00       		.byte	0
 1978 032d 00       		.byte	0
 1979 032e 00       		.byte	0
 1980 032f C6       		.byte	-58
 1981 0330 C6       		.byte	-58
 1982 0331 C6       		.byte	-58
 1983 0332 7C       		.byte	124
 1984 0333 38       		.byte	56
 1985 0334 7C       		.byte	124
ARM GAS  /cygdrive/c/Users/embedded/AppData/Local/Temp/ccWfuIiM.s 			page 45


 1986 0335 C6       		.byte	-58
 1987 0336 C6       		.byte	-58
 1988 0337 C6       		.byte	-58
 1989 0338 00       		.byte	0
 1990 0339 00       		.byte	0
 1991 033a 00       		.byte	0
 1992 033b 00       		.byte	0
 1993 033c 00       		.byte	0
 1994 033d 66       		.byte	102
 1995 033e 66       		.byte	102
 1996 033f 66       		.byte	102
 1997 0340 66       		.byte	102
 1998 0341 3C       		.byte	60
 1999 0342 18       		.byte	24
 2000 0343 18       		.byte	24
 2001 0344 18       		.byte	24
 2002 0345 3C       		.byte	60
 2003 0346 00       		.byte	0
 2004 0347 00       		.byte	0
 2005 0348 00       		.byte	0
 2006 0349 00       		.byte	0
 2007 034a 00       		.byte	0
 2008 034b FE       		.byte	-2
 2009 034c C6       		.byte	-58
 2010 034d 8C       		.byte	-116
 2011 034e 18       		.byte	24
 2012 034f 30       		.byte	48
 2013 0350 60       		.byte	96
 2014 0351 C2       		.byte	-62
 2015 0352 C6       		.byte	-58
 2016 0353 FE       		.byte	-2
 2017 0354 00       		.byte	0
 2018 0355 00       		.byte	0
 2019 0356 00       		.byte	0
 2020 0357 00       		.byte	0
 2021 0358 00       		.byte	0
 2022 0359 3C       		.byte	60
 2023 035a 30       		.byte	48
 2024 035b 30       		.byte	48
 2025 035c 30       		.byte	48
 2026 035d 30       		.byte	48
 2027 035e 30       		.byte	48
 2028 035f 30       		.byte	48
 2029 0360 30       		.byte	48
 2030 0361 3C       		.byte	60
 2031 0362 00       		.byte	0
 2032 0363 00       		.byte	0
 2033 0364 00       		.byte	0
 2034 0365 00       		.byte	0
 2035 0366 00       		.byte	0
 2036 0367 80       		.byte	-128
 2037 0368 C0       		.byte	-64
 2038 0369 E0       		.byte	-32
 2039 036a 70       		.byte	112
 2040 036b 38       		.byte	56
 2041 036c 1C       		.byte	28
 2042 036d 0E       		.byte	14
ARM GAS  /cygdrive/c/Users/embedded/AppData/Local/Temp/ccWfuIiM.s 			page 46


 2043 036e 06       		.byte	6
 2044 036f 02       		.byte	2
 2045 0370 00       		.byte	0
 2046 0371 00       		.byte	0
 2047 0372 00       		.byte	0
 2048 0373 00       		.byte	0
 2049 0374 00       		.byte	0
 2050 0375 3C       		.byte	60
 2051 0376 0C       		.byte	12
 2052 0377 0C       		.byte	12
 2053 0378 0C       		.byte	12
 2054 0379 0C       		.byte	12
 2055 037a 0C       		.byte	12
 2056 037b 0C       		.byte	12
 2057 037c 0C       		.byte	12
 2058 037d 3C       		.byte	60
 2059 037e 00       		.byte	0
 2060 037f 00       		.byte	0
 2061 0380 10       		.byte	16
 2062 0381 38       		.byte	56
 2063 0382 6C       		.byte	108
 2064 0383 C6       		.byte	-58
 2065 0384 00       		.byte	0
 2066 0385 00       		.byte	0
 2067 0386 00       		.byte	0
 2068 0387 00       		.byte	0
 2069 0388 00       		.byte	0
 2070 0389 00       		.byte	0
 2071 038a 00       		.byte	0
 2072 038b 00       		.byte	0
 2073 038c 00       		.byte	0
 2074 038d 00       		.byte	0
 2075 038e 00       		.byte	0
 2076 038f 00       		.byte	0
 2077 0390 00       		.byte	0
 2078 0391 00       		.byte	0
 2079 0392 00       		.byte	0
 2080 0393 00       		.byte	0
 2081 0394 00       		.byte	0
 2082 0395 00       		.byte	0
 2083 0396 00       		.byte	0
 2084 0397 00       		.byte	0
 2085 0398 00       		.byte	0
 2086 0399 00       		.byte	0
 2087 039a 00       		.byte	0
 2088 039b FF       		.byte	-1
 2089 039c 00       		.byte	0
 2090 039d 30       		.byte	48
 2091 039e 18       		.byte	24
 2092 039f 0C       		.byte	12
 2093 03a0 00       		.byte	0
 2094 03a1 00       		.byte	0
 2095 03a2 00       		.byte	0
 2096 03a3 00       		.byte	0
 2097 03a4 00       		.byte	0
 2098 03a5 00       		.byte	0
 2099 03a6 00       		.byte	0
ARM GAS  /cygdrive/c/Users/embedded/AppData/Local/Temp/ccWfuIiM.s 			page 47


 2100 03a7 00       		.byte	0
 2101 03a8 00       		.byte	0
 2102 03a9 00       		.byte	0
 2103 03aa 00       		.byte	0
 2104 03ab 00       		.byte	0
 2105 03ac 00       		.byte	0
 2106 03ad 00       		.byte	0
 2107 03ae 00       		.byte	0
 2108 03af 00       		.byte	0
 2109 03b0 78       		.byte	120
 2110 03b1 0C       		.byte	12
 2111 03b2 7C       		.byte	124
 2112 03b3 CC       		.byte	-52
 2113 03b4 CC       		.byte	-52
 2114 03b5 76       		.byte	118
 2115 03b6 00       		.byte	0
 2116 03b7 00       		.byte	0
 2117 03b8 00       		.byte	0
 2118 03b9 00       		.byte	0
 2119 03ba 00       		.byte	0
 2120 03bb E0       		.byte	-32
 2121 03bc 60       		.byte	96
 2122 03bd 60       		.byte	96
 2123 03be 78       		.byte	120
 2124 03bf 6C       		.byte	108
 2125 03c0 66       		.byte	102
 2126 03c1 66       		.byte	102
 2127 03c2 66       		.byte	102
 2128 03c3 7C       		.byte	124
 2129 03c4 00       		.byte	0
 2130 03c5 00       		.byte	0
 2131 03c6 00       		.byte	0
 2132 03c7 00       		.byte	0
 2133 03c8 00       		.byte	0
 2134 03c9 00       		.byte	0
 2135 03ca 00       		.byte	0
 2136 03cb 00       		.byte	0
 2137 03cc 7C       		.byte	124
 2138 03cd C6       		.byte	-58
 2139 03ce C0       		.byte	-64
 2140 03cf C0       		.byte	-64
 2141 03d0 C6       		.byte	-58
 2142 03d1 7C       		.byte	124
 2143 03d2 00       		.byte	0
 2144 03d3 00       		.byte	0
 2145 03d4 00       		.byte	0
 2146 03d5 00       		.byte	0
 2147 03d6 00       		.byte	0
 2148 03d7 1C       		.byte	28
 2149 03d8 0C       		.byte	12
 2150 03d9 0C       		.byte	12
 2151 03da 3C       		.byte	60
 2152 03db 6C       		.byte	108
 2153 03dc CC       		.byte	-52
 2154 03dd CC       		.byte	-52
 2155 03de CC       		.byte	-52
 2156 03df 76       		.byte	118
ARM GAS  /cygdrive/c/Users/embedded/AppData/Local/Temp/ccWfuIiM.s 			page 48


 2157 03e0 00       		.byte	0
 2158 03e1 00       		.byte	0
 2159 03e2 00       		.byte	0
 2160 03e3 00       		.byte	0
 2161 03e4 00       		.byte	0
 2162 03e5 00       		.byte	0
 2163 03e6 00       		.byte	0
 2164 03e7 00       		.byte	0
 2165 03e8 7C       		.byte	124
 2166 03e9 C6       		.byte	-58
 2167 03ea FE       		.byte	-2
 2168 03eb C0       		.byte	-64
 2169 03ec C6       		.byte	-58
 2170 03ed 7C       		.byte	124
 2171 03ee 00       		.byte	0
 2172 03ef 00       		.byte	0
 2173 03f0 00       		.byte	0
 2174 03f1 00       		.byte	0
 2175 03f2 00       		.byte	0
 2176 03f3 1C       		.byte	28
 2177 03f4 36       		.byte	54
 2178 03f5 32       		.byte	50
 2179 03f6 30       		.byte	48
 2180 03f7 7C       		.byte	124
 2181 03f8 30       		.byte	48
 2182 03f9 30       		.byte	48
 2183 03fa 30       		.byte	48
 2184 03fb 78       		.byte	120
 2185 03fc 00       		.byte	0
 2186 03fd 00       		.byte	0
 2187 03fe 00       		.byte	0
 2188 03ff 00       		.byte	0
 2189 0400 00       		.byte	0
 2190 0401 00       		.byte	0
 2191 0402 00       		.byte	0
 2192 0403 00       		.byte	0
 2193 0404 76       		.byte	118
 2194 0405 CC       		.byte	-52
 2195 0406 CC       		.byte	-52
 2196 0407 CC       		.byte	-52
 2197 0408 7C       		.byte	124
 2198 0409 0C       		.byte	12
 2199 040a CC       		.byte	-52
 2200 040b 78       		.byte	120
 2201 040c 00       		.byte	0
 2202 040d 00       		.byte	0
 2203 040e 00       		.byte	0
 2204 040f E0       		.byte	-32
 2205 0410 60       		.byte	96
 2206 0411 60       		.byte	96
 2207 0412 6C       		.byte	108
 2208 0413 76       		.byte	118
 2209 0414 66       		.byte	102
 2210 0415 66       		.byte	102
 2211 0416 66       		.byte	102
 2212 0417 E6       		.byte	-26
 2213 0418 00       		.byte	0
ARM GAS  /cygdrive/c/Users/embedded/AppData/Local/Temp/ccWfuIiM.s 			page 49


 2214 0419 00       		.byte	0
 2215 041a 00       		.byte	0
 2216 041b 00       		.byte	0
 2217 041c 00       		.byte	0
 2218 041d 18       		.byte	24
 2219 041e 18       		.byte	24
 2220 041f 00       		.byte	0
 2221 0420 38       		.byte	56
 2222 0421 18       		.byte	24
 2223 0422 18       		.byte	24
 2224 0423 18       		.byte	24
 2225 0424 18       		.byte	24
 2226 0425 3C       		.byte	60
 2227 0426 00       		.byte	0
 2228 0427 00       		.byte	0
 2229 0428 00       		.byte	0
 2230 0429 00       		.byte	0
 2231 042a 00       		.byte	0
 2232 042b 06       		.byte	6
 2233 042c 06       		.byte	6
 2234 042d 00       		.byte	0
 2235 042e 0E       		.byte	14
 2236 042f 06       		.byte	6
 2237 0430 06       		.byte	6
 2238 0431 06       		.byte	6
 2239 0432 06       		.byte	6
 2240 0433 66       		.byte	102
 2241 0434 66       		.byte	102
 2242 0435 3C       		.byte	60
 2243 0436 00       		.byte	0
 2244 0437 00       		.byte	0
 2245 0438 00       		.byte	0
 2246 0439 E0       		.byte	-32
 2247 043a 60       		.byte	96
 2248 043b 60       		.byte	96
 2249 043c 66       		.byte	102
 2250 043d 6C       		.byte	108
 2251 043e 78       		.byte	120
 2252 043f 6C       		.byte	108
 2253 0440 66       		.byte	102
 2254 0441 E6       		.byte	-26
 2255 0442 00       		.byte	0
 2256 0443 00       		.byte	0
 2257 0444 00       		.byte	0
 2258 0445 00       		.byte	0
 2259 0446 00       		.byte	0
 2260 0447 38       		.byte	56
 2261 0448 18       		.byte	24
 2262 0449 18       		.byte	24
 2263 044a 18       		.byte	24
 2264 044b 18       		.byte	24
 2265 044c 18       		.byte	24
 2266 044d 18       		.byte	24
 2267 044e 18       		.byte	24
 2268 044f 3C       		.byte	60
 2269 0450 00       		.byte	0
 2270 0451 00       		.byte	0
ARM GAS  /cygdrive/c/Users/embedded/AppData/Local/Temp/ccWfuIiM.s 			page 50


 2271 0452 00       		.byte	0
 2272 0453 00       		.byte	0
 2273 0454 00       		.byte	0
 2274 0455 00       		.byte	0
 2275 0456 00       		.byte	0
 2276 0457 00       		.byte	0
 2277 0458 EC       		.byte	-20
 2278 0459 FE       		.byte	-2
 2279 045a D6       		.byte	-42
 2280 045b D6       		.byte	-42
 2281 045c D6       		.byte	-42
 2282 045d D6       		.byte	-42
 2283 045e 00       		.byte	0
 2284 045f 00       		.byte	0
 2285 0460 00       		.byte	0
 2286 0461 00       		.byte	0
 2287 0462 00       		.byte	0
 2288 0463 00       		.byte	0
 2289 0464 00       		.byte	0
 2290 0465 00       		.byte	0
 2291 0466 DC       		.byte	-36
 2292 0467 66       		.byte	102
 2293 0468 66       		.byte	102
 2294 0469 66       		.byte	102
 2295 046a 66       		.byte	102
 2296 046b 66       		.byte	102
 2297 046c 00       		.byte	0
 2298 046d 00       		.byte	0
 2299 046e 00       		.byte	0
 2300 046f 00       		.byte	0
 2301 0470 00       		.byte	0
 2302 0471 00       		.byte	0
 2303 0472 00       		.byte	0
 2304 0473 00       		.byte	0
 2305 0474 7C       		.byte	124
 2306 0475 C6       		.byte	-58
 2307 0476 C6       		.byte	-58
 2308 0477 C6       		.byte	-58
 2309 0478 C6       		.byte	-58
 2310 0479 7C       		.byte	124
 2311 047a 00       		.byte	0
 2312 047b 00       		.byte	0
 2313 047c 00       		.byte	0
 2314 047d 00       		.byte	0
 2315 047e 00       		.byte	0
 2316 047f 00       		.byte	0
 2317 0480 00       		.byte	0
 2318 0481 00       		.byte	0
 2319 0482 DC       		.byte	-36
 2320 0483 66       		.byte	102
 2321 0484 66       		.byte	102
 2322 0485 66       		.byte	102
 2323 0486 7C       		.byte	124
 2324 0487 60       		.byte	96
 2325 0488 60       		.byte	96
 2326 0489 F0       		.byte	-16
 2327 048a 00       		.byte	0
ARM GAS  /cygdrive/c/Users/embedded/AppData/Local/Temp/ccWfuIiM.s 			page 51


 2328 048b 00       		.byte	0
 2329 048c 00       		.byte	0
 2330 048d 00       		.byte	0
 2331 048e 00       		.byte	0
 2332 048f 00       		.byte	0
 2333 0490 76       		.byte	118
 2334 0491 CC       		.byte	-52
 2335 0492 CC       		.byte	-52
 2336 0493 CC       		.byte	-52
 2337 0494 7C       		.byte	124
 2338 0495 0C       		.byte	12
 2339 0496 0C       		.byte	12
 2340 0497 1E       		.byte	30
 2341 0498 00       		.byte	0
 2342 0499 00       		.byte	0
 2343 049a 00       		.byte	0
 2344 049b 00       		.byte	0
 2345 049c 00       		.byte	0
 2346 049d 00       		.byte	0
 2347 049e DC       		.byte	-36
 2348 049f 76       		.byte	118
 2349 04a0 66       		.byte	102
 2350 04a1 60       		.byte	96
 2351 04a2 60       		.byte	96
 2352 04a3 F0       		.byte	-16
 2353 04a4 00       		.byte	0
 2354 04a5 00       		.byte	0
 2355 04a6 00       		.byte	0
 2356 04a7 00       		.byte	0
 2357 04a8 00       		.byte	0
 2358 04a9 00       		.byte	0
 2359 04aa 00       		.byte	0
 2360 04ab 00       		.byte	0
 2361 04ac 7C       		.byte	124
 2362 04ad C6       		.byte	-58
 2363 04ae 70       		.byte	112
 2364 04af 1C       		.byte	28
 2365 04b0 C6       		.byte	-58
 2366 04b1 7C       		.byte	124
 2367 04b2 00       		.byte	0
 2368 04b3 00       		.byte	0
 2369 04b4 00       		.byte	0
 2370 04b5 00       		.byte	0
 2371 04b6 00       		.byte	0
 2372 04b7 10       		.byte	16
 2373 04b8 30       		.byte	48
 2374 04b9 30       		.byte	48
 2375 04ba FC       		.byte	-4
 2376 04bb 30       		.byte	48
 2377 04bc 30       		.byte	48
 2378 04bd 30       		.byte	48
 2379 04be 36       		.byte	54
 2380 04bf 1C       		.byte	28
 2381 04c0 00       		.byte	0
 2382 04c1 00       		.byte	0
 2383 04c2 00       		.byte	0
 2384 04c3 00       		.byte	0
ARM GAS  /cygdrive/c/Users/embedded/AppData/Local/Temp/ccWfuIiM.s 			page 52


 2385 04c4 00       		.byte	0
 2386 04c5 00       		.byte	0
 2387 04c6 00       		.byte	0
 2388 04c7 00       		.byte	0
 2389 04c8 CC       		.byte	-52
 2390 04c9 CC       		.byte	-52
 2391 04ca CC       		.byte	-52
 2392 04cb CC       		.byte	-52
 2393 04cc CC       		.byte	-52
 2394 04cd 76       		.byte	118
 2395 04ce 00       		.byte	0
 2396 04cf 00       		.byte	0
 2397 04d0 00       		.byte	0
 2398 04d1 00       		.byte	0
 2399 04d2 00       		.byte	0
 2400 04d3 00       		.byte	0
 2401 04d4 00       		.byte	0
 2402 04d5 00       		.byte	0
 2403 04d6 C6       		.byte	-58
 2404 04d7 C6       		.byte	-58
 2405 04d8 C6       		.byte	-58
 2406 04d9 6C       		.byte	108
 2407 04da 38       		.byte	56
 2408 04db 10       		.byte	16
 2409 04dc 00       		.byte	0
 2410 04dd 00       		.byte	0
 2411 04de 00       		.byte	0
 2412 04df 00       		.byte	0
 2413 04e0 00       		.byte	0
 2414 04e1 00       		.byte	0
 2415 04e2 00       		.byte	0
 2416 04e3 00       		.byte	0
 2417 04e4 C6       		.byte	-58
 2418 04e5 C6       		.byte	-58
 2419 04e6 D6       		.byte	-42
 2420 04e7 D6       		.byte	-42
 2421 04e8 FE       		.byte	-2
 2422 04e9 6C       		.byte	108
 2423 04ea 00       		.byte	0
 2424 04eb 00       		.byte	0
 2425 04ec 00       		.byte	0
 2426 04ed 00       		.byte	0
 2427 04ee 00       		.byte	0
 2428 04ef 00       		.byte	0
 2429 04f0 00       		.byte	0
 2430 04f1 00       		.byte	0
 2431 04f2 C6       		.byte	-58
 2432 04f3 6C       		.byte	108
 2433 04f4 38       		.byte	56
 2434 04f5 38       		.byte	56
 2435 04f6 6C       		.byte	108
 2436 04f7 C6       		.byte	-58
 2437 04f8 00       		.byte	0
 2438 04f9 00       		.byte	0
 2439 04fa 00       		.byte	0
 2440 04fb 00       		.byte	0
 2441 04fc 00       		.byte	0
ARM GAS  /cygdrive/c/Users/embedded/AppData/Local/Temp/ccWfuIiM.s 			page 53


 2442 04fd 00       		.byte	0
 2443 04fe 00       		.byte	0
 2444 04ff 00       		.byte	0
 2445 0500 C6       		.byte	-58
 2446 0501 C6       		.byte	-58
 2447 0502 C6       		.byte	-58
 2448 0503 C6       		.byte	-58
 2449 0504 7E       		.byte	126
 2450 0505 06       		.byte	6
 2451 0506 0C       		.byte	12
 2452 0507 78       		.byte	120
 2453 0508 00       		.byte	0
 2454 0509 00       		.byte	0
 2455 050a 00       		.byte	0
 2456 050b 00       		.byte	0
 2457 050c 00       		.byte	0
 2458 050d 00       		.byte	0
 2459 050e FE       		.byte	-2
 2460 050f CC       		.byte	-52
 2461 0510 18       		.byte	24
 2462 0511 30       		.byte	48
 2463 0512 66       		.byte	102
 2464 0513 FE       		.byte	-2
 2465 0514 00       		.byte	0
 2466 0515 00       		.byte	0
 2467 0516 00       		.byte	0
 2468 0517 00       		.byte	0
 2469 0518 00       		.byte	0
 2470 0519 0E       		.byte	14
 2471 051a 18       		.byte	24
 2472 051b 18       		.byte	24
 2473 051c 18       		.byte	24
 2474 051d 70       		.byte	112
 2475 051e 18       		.byte	24
 2476 051f 18       		.byte	24
 2477 0520 18       		.byte	24
 2478 0521 0E       		.byte	14
 2479 0522 00       		.byte	0
 2480 0523 00       		.byte	0
 2481 0524 00       		.byte	0
 2482 0525 00       		.byte	0
 2483 0526 00       		.byte	0
 2484 0527 18       		.byte	24
 2485 0528 18       		.byte	24
 2486 0529 18       		.byte	24
 2487 052a 18       		.byte	24
 2488 052b 18       		.byte	24
 2489 052c 18       		.byte	24
 2490 052d 18       		.byte	24
 2491 052e 18       		.byte	24
 2492 052f 18       		.byte	24
 2493 0530 00       		.byte	0
 2494 0531 00       		.byte	0
 2495 0532 00       		.byte	0
 2496 0533 00       		.byte	0
 2497 0534 00       		.byte	0
 2498 0535 70       		.byte	112
ARM GAS  /cygdrive/c/Users/embedded/AppData/Local/Temp/ccWfuIiM.s 			page 54


 2499 0536 18       		.byte	24
 2500 0537 18       		.byte	24
 2501 0538 18       		.byte	24
 2502 0539 0E       		.byte	14
 2503 053a 18       		.byte	24
 2504 053b 18       		.byte	24
 2505 053c 18       		.byte	24
 2506 053d 70       		.byte	112
 2507 053e 00       		.byte	0
 2508 053f 00       		.byte	0
 2509 0540 00       		.byte	0
 2510 0541 76       		.byte	118
 2511 0542 DC       		.byte	-36
 2512 0543 00       		.byte	0
 2513 0544 00       		.byte	0
 2514 0545 00       		.byte	0
 2515 0546 00       		.byte	0
 2516 0547 00       		.byte	0
 2517 0548 00       		.byte	0
 2518 0549 00       		.byte	0
 2519 054a 00       		.byte	0
 2520 054b 00       		.byte	0
 2521 054c 00       		.byte	0
 2522 054d 00       		.byte	0
 2523 054e 00       		.byte	0
 2524 054f 00       		.byte	0
 2525 0550 00       		.byte	0
 2526 0551 00       		.byte	0
 2527 0552 00       		.byte	0
 2528 0553 10       		.byte	16
 2529 0554 38       		.byte	56
 2530 0555 6C       		.byte	108
 2531 0556 C6       		.byte	-58
 2532 0557 C6       		.byte	-58
 2533 0558 FE       		.byte	-2
 2534 0559 00       		.byte	0
 2535 055a 00       		.byte	0
 2536 055b 00       		.byte	0
 2537              		.bss
 2538              	lcd_x:
 2539 0000 00       		.space	1
 2540              	lcd_y:
 2541 0001 00       		.space	1
 2542              	bkgColor:
 2543 0002 00       		.space	1
 2544              	textColor:
 2545 0003 00       		.space	1
 2546              	setcolmark:
 2547 0004 00       		.space	1
 2548              		.section	.debug_frame,"",%progbits
 2549              	.Lframe0:
 2550 0000 0C000000 		.4byte	.LECIE0-.LSCIE0
 2551              	.LSCIE0:
 2552 0004 FFFFFFFF 		.4byte	0xffffffff
 2553 0008 01       		.byte	0x1
 2554 0009 00       		.ascii	"\000"
 2555 000a 01       		.uleb128 0x1
ARM GAS  /cygdrive/c/Users/embedded/AppData/Local/Temp/ccWfuIiM.s 			page 55


 2556 000b 7C       		.sleb128 -4
 2557 000c 0E       		.byte	0xe
 2558 000d 0C       		.byte	0xc
 2559 000e 0D       		.uleb128 0xd
 2560 000f 00       		.uleb128 0x0
 2561              		.align	2
 2562              	.LECIE0:
 2563              	.LSFDE0:
 2564 0010 0C000000 		.4byte	.LEFDE0-.LASFDE0
 2565              	.LASFDE0:
 2566 0014 00000000 		.4byte	.Lframe0
 2567 0018 00000000 		.4byte	.LFB5
 2568 001c 14000000 		.4byte	.LFE5-.LFB5
 2569              		.align	2
 2570              	.LEFDE0:
 2571              	.LSFDE2:
 2572 0020 14000000 		.4byte	.LEFDE2-.LASFDE2
 2573              	.LASFDE2:
 2574 0024 00000000 		.4byte	.Lframe0
 2575 0028 14000000 		.4byte	.LFB18
 2576 002c 10000000 		.4byte	.LFE18-.LFB18
 2577 0030 42       		.byte	0x4
 2578              		.4byte	.LCFI0-.LFB18
 2579 0031 0E       		.byte	0xe
 2580 0032 04       		.uleb128 0x4
 2581 0033 8E       		.byte	0x8e
 2582 0034 01       		.uleb128 0x1
 2583 0035 000000   		.align	2
 2584              	.LEFDE2:
 2585              	.LSFDE4:
 2586 0038 14000000 		.4byte	.LEFDE4-.LASFDE4
 2587              	.LASFDE4:
 2588 003c 00000000 		.4byte	.Lframe0
 2589 0040 24000000 		.4byte	.LFB17
 2590 0044 10000000 		.4byte	.LFE17-.LFB17
 2591 0048 42       		.byte	0x4
 2592              		.4byte	.LCFI1-.LFB17
 2593 0049 0E       		.byte	0xe
 2594 004a 04       		.uleb128 0x4
 2595 004b 8E       		.byte	0x8e
 2596 004c 01       		.uleb128 0x1
 2597 004d 000000   		.align	2
 2598              	.LEFDE4:
 2599              	.LSFDE6:
 2600 0050 1C000000 		.4byte	.LEFDE6-.LASFDE6
 2601              	.LASFDE6:
 2602 0054 00000000 		.4byte	.Lframe0
 2603 0058 34000000 		.4byte	.LFB12
 2604 005c 52000000 		.4byte	.LFE12-.LFB12
 2605 0060 42       		.byte	0x4
 2606              		.4byte	.LCFI2-.LFB12
 2607 0061 0E       		.byte	0xe
 2608 0062 14       		.uleb128 0x14
 2609 0063 84       		.byte	0x84
 2610 0064 05       		.uleb128 0x5
 2611 0065 85       		.byte	0x85
 2612 0066 04       		.uleb128 0x4
ARM GAS  /cygdrive/c/Users/embedded/AppData/Local/Temp/ccWfuIiM.s 			page 56


 2613 0067 86       		.byte	0x86
 2614 0068 03       		.uleb128 0x3
 2615 0069 87       		.byte	0x87
 2616 006a 02       		.uleb128 0x2
 2617 006b 8E       		.byte	0x8e
 2618 006c 01       		.uleb128 0x1
 2619 006d 000000   		.align	2
 2620              	.LEFDE6:
 2621              	.LSFDE8:
 2622 0070 1C000000 		.4byte	.LEFDE8-.LASFDE8
 2623              	.LASFDE8:
 2624 0074 00000000 		.4byte	.Lframe0
 2625 0078 88000000 		.4byte	.LFB14
 2626 007c C8000000 		.4byte	.LFE14-.LFB14
 2627 0080 42       		.byte	0x4
 2628              		.4byte	.LCFI3-.LFB14
 2629 0081 0E       		.byte	0xe
 2630 0082 14       		.uleb128 0x14
 2631 0083 84       		.byte	0x84
 2632 0084 05       		.uleb128 0x5
 2633 0085 85       		.byte	0x85
 2634 0086 04       		.uleb128 0x4
 2635 0087 86       		.byte	0x86
 2636 0088 03       		.uleb128 0x3
 2637 0089 87       		.byte	0x87
 2638 008a 02       		.uleb128 0x2
 2639 008b 8E       		.byte	0x8e
 2640 008c 01       		.uleb128 0x1
 2641 008d 000000   		.align	2
 2642              	.LEFDE8:
 2643              	.LSFDE10:
 2644 0090 14000000 		.4byte	.LEFDE10-.LASFDE10
 2645              	.LASFDE10:
 2646 0094 00000000 		.4byte	.Lframe0
 2647 0098 50010000 		.4byte	.LFB15
 2648 009c 64000000 		.4byte	.LFE15-.LFB15
 2649 00a0 42       		.byte	0x4
 2650              		.4byte	.LCFI4-.LFB15
 2651 00a1 0E       		.byte	0xe
 2652 00a2 04       		.uleb128 0x4
 2653 00a3 8E       		.byte	0x8e
 2654 00a4 01       		.uleb128 0x1
 2655 00a5 000000   		.align	2
 2656              	.LEFDE10:
 2657              	.LSFDE12:
 2658 00a8 14000000 		.4byte	.LEFDE12-.LASFDE12
 2659              	.LASFDE12:
 2660 00ac 00000000 		.4byte	.Lframe0
 2661 00b0 B4010000 		.4byte	.LFB16
 2662 00b4 18000000 		.4byte	.LFE16-.LFB16
 2663 00b8 42       		.byte	0x4
 2664              		.4byte	.LCFI5-.LFB16
 2665 00b9 0E       		.byte	0xe
 2666 00ba 08       		.uleb128 0x8
 2667 00bb 84       		.byte	0x84
 2668 00bc 02       		.uleb128 0x2
 2669 00bd 8E       		.byte	0x8e
ARM GAS  /cygdrive/c/Users/embedded/AppData/Local/Temp/ccWfuIiM.s 			page 57


 2670 00be 01       		.uleb128 0x1
 2671 00bf 00       		.align	2
 2672              	.LEFDE12:
 2673              	.LSFDE14:
 2674 00c0 1C000000 		.4byte	.LEFDE14-.LASFDE14
 2675              	.LASFDE14:
 2676 00c4 00000000 		.4byte	.Lframe0
 2677 00c8 CC010000 		.4byte	.LFB11
 2678 00cc 30000000 		.4byte	.LFE11-.LFB11
 2679 00d0 42       		.byte	0x4
 2680              		.4byte	.LCFI6-.LFB11
 2681 00d1 0E       		.byte	0xe
 2682 00d2 14       		.uleb128 0x14
 2683 00d3 84       		.byte	0x84
 2684 00d4 05       		.uleb128 0x5
 2685 00d5 85       		.byte	0x85
 2686 00d6 04       		.uleb128 0x4
 2687 00d7 86       		.byte	0x86
 2688 00d8 03       		.uleb128 0x3
 2689 00d9 87       		.byte	0x87
 2690 00da 02       		.uleb128 0x2
 2691 00db 8E       		.byte	0x8e
 2692 00dc 01       		.uleb128 0x1
 2693 00dd 000000   		.align	2
 2694              	.LEFDE14:
 2695              	.LSFDE16:
 2696 00e0 14000000 		.4byte	.LEFDE16-.LASFDE16
 2697              	.LASFDE16:
 2698 00e4 00000000 		.4byte	.Lframe0
 2699 00e8 FC010000 		.4byte	.LFB10
 2700 00ec 28000000 		.4byte	.LFE10-.LFB10
 2701 00f0 42       		.byte	0x4
 2702              		.4byte	.LCFI7-.LFB10
 2703 00f1 0E       		.byte	0xe
 2704 00f2 04       		.uleb128 0x4
 2705 00f3 8E       		.byte	0x8e
 2706 00f4 01       		.uleb128 0x1
 2707 00f5 000000   		.align	2
 2708              	.LEFDE16:
 2709              	.LSFDE18:
 2710 00f8 1C000000 		.4byte	.LEFDE18-.LASFDE18
 2711              	.LASFDE18:
 2712 00fc 00000000 		.4byte	.Lframe0
 2713 0100 24020000 		.4byte	.LFB9
 2714 0104 B0000000 		.4byte	.LFE9-.LFB9
 2715 0108 42       		.byte	0x4
 2716              		.4byte	.LCFI8-.LFB9
 2717 0109 0E       		.byte	0xe
 2718 010a 14       		.uleb128 0x14
 2719 010b 84       		.byte	0x84
 2720 010c 05       		.uleb128 0x5
 2721 010d 85       		.byte	0x85
 2722 010e 04       		.uleb128 0x4
 2723 010f 86       		.byte	0x86
 2724 0110 03       		.uleb128 0x3
 2725 0111 87       		.byte	0x87
 2726 0112 02       		.uleb128 0x2
ARM GAS  /cygdrive/c/Users/embedded/AppData/Local/Temp/ccWfuIiM.s 			page 58


 2727 0113 8E       		.byte	0x8e
 2728 0114 01       		.uleb128 0x1
 2729 0115 42       		.byte	0x4
 2730              		.4byte	.LCFI9-.LCFI8
 2731 0116 0E       		.byte	0xe
 2732 0117 24       		.uleb128 0x24
 2733              		.align	2
 2734              	.LEFDE18:
 2735              	.LSFDE20:
 2736 0118 1C000000 		.4byte	.LEFDE20-.LASFDE20
 2737              	.LASFDE20:
 2738 011c 00000000 		.4byte	.Lframe0
 2739 0120 D4020000 		.4byte	.LFB8
 2740 0124 B0000000 		.4byte	.LFE8-.LFB8
 2741 0128 42       		.byte	0x4
 2742              		.4byte	.LCFI10-.LFB8
 2743 0129 0E       		.byte	0xe
 2744 012a 14       		.uleb128 0x14
 2745 012b 84       		.byte	0x84
 2746 012c 05       		.uleb128 0x5
 2747 012d 85       		.byte	0x85
 2748 012e 04       		.uleb128 0x4
 2749 012f 86       		.byte	0x86
 2750 0130 03       		.uleb128 0x3
 2751 0131 87       		.byte	0x87
 2752 0132 02       		.uleb128 0x2
 2753 0133 8E       		.byte	0x8e
 2754 0134 01       		.uleb128 0x1
 2755 0135 42       		.byte	0x4
 2756              		.4byte	.LCFI11-.LCFI10
 2757 0136 0E       		.byte	0xe
 2758 0137 20       		.uleb128 0x20
 2759              		.align	2
 2760              	.LEFDE20:
 2761              	.LSFDE22:
 2762 0138 1C000000 		.4byte	.LEFDE22-.LASFDE22
 2763              	.LASFDE22:
 2764 013c 00000000 		.4byte	.Lframe0
 2765 0140 84030000 		.4byte	.LFB7
 2766 0144 62000000 		.4byte	.LFE7-.LFB7
 2767 0148 42       		.byte	0x4
 2768              		.4byte	.LCFI12-.LFB7
 2769 0149 0E       		.byte	0xe
 2770 014a 14       		.uleb128 0x14
 2771 014b 84       		.byte	0x84
 2772 014c 05       		.uleb128 0x5
 2773 014d 85       		.byte	0x85
 2774 014e 04       		.uleb128 0x4
 2775 014f 86       		.byte	0x86
 2776 0150 03       		.uleb128 0x3
 2777 0151 87       		.byte	0x87
 2778 0152 02       		.uleb128 0x2
 2779 0153 8E       		.byte	0x8e
 2780 0154 01       		.uleb128 0x1
 2781 0155 42       		.byte	0x4
 2782              		.4byte	.LCFI13-.LCFI12
 2783 0156 0E       		.byte	0xe
ARM GAS  /cygdrive/c/Users/embedded/AppData/Local/Temp/ccWfuIiM.s 			page 59


 2784 0157 18       		.uleb128 0x18
 2785              		.align	2
 2786              	.LEFDE22:
 2787              	.LSFDE24:
 2788 0158 14000000 		.4byte	.LEFDE24-.LASFDE24
 2789              	.LASFDE24:
 2790 015c 00000000 		.4byte	.Lframe0
 2791 0160 E8030000 		.4byte	.LFB6
 2792 0164 24000000 		.4byte	.LFE6-.LFB6
 2793 0168 42       		.byte	0x4
 2794              		.4byte	.LCFI14-.LFB6
 2795 0169 0E       		.byte	0xe
 2796 016a 08       		.uleb128 0x8
 2797 016b 84       		.byte	0x84
 2798 016c 02       		.uleb128 0x2
 2799 016d 8E       		.byte	0x8e
 2800 016e 01       		.uleb128 0x1
 2801 016f 00       		.align	2
 2802              	.LEFDE24:
 2803              	.LSFDE26:
 2804 0170 14000000 		.4byte	.LEFDE26-.LASFDE26
 2805              	.LASFDE26:
 2806 0174 00000000 		.4byte	.Lframe0
 2807 0178 0C040000 		.4byte	.LFB3
 2808 017c 54000000 		.4byte	.LFE3-.LFB3
 2809 0180 42       		.byte	0x4
 2810              		.4byte	.LCFI15-.LFB3
 2811 0181 0E       		.byte	0xe
 2812 0182 08       		.uleb128 0x8
 2813 0183 84       		.byte	0x84
 2814 0184 02       		.uleb128 0x2
 2815 0185 8E       		.byte	0x8e
 2816 0186 01       		.uleb128 0x1
 2817 0187 00       		.align	2
 2818              	.LEFDE26:
 2819              	.LSFDE28:
 2820 0188 14000000 		.4byte	.LEFDE28-.LASFDE28
 2821              	.LASFDE28:
 2822 018c 00000000 		.4byte	.Lframe0
 2823 0190 60040000 		.4byte	.LFB4
 2824 0194 1C000000 		.4byte	.LFE4-.LFB4
 2825 0198 42       		.byte	0x4
 2826              		.4byte	.LCFI16-.LFB4
 2827 0199 0E       		.byte	0xe
 2828 019a 04       		.uleb128 0x4
 2829 019b 8E       		.byte	0x8e
 2830 019c 01       		.uleb128 0x1
 2831 019d 000000   		.align	2
 2832              	.LEFDE28:
 2833              	.LSFDE30:
 2834 01a0 14000000 		.4byte	.LEFDE30-.LASFDE30
 2835              	.LASFDE30:
 2836 01a4 00000000 		.4byte	.Lframe0
 2837 01a8 7C040000 		.4byte	.LFB2
 2838 01ac F4000000 		.4byte	.LFE2-.LFB2
 2839 01b0 42       		.byte	0x4
 2840              		.4byte	.LCFI17-.LFB2
ARM GAS  /cygdrive/c/Users/embedded/AppData/Local/Temp/ccWfuIiM.s 			page 60


 2841 01b1 0E       		.byte	0xe
 2842 01b2 04       		.uleb128 0x4
 2843 01b3 8E       		.byte	0x8e
 2844 01b4 01       		.uleb128 0x1
 2845 01b5 000000   		.align	2
 2846              	.LEFDE30:
 2847              		.file 2 "./startup/../pre_emptive_os/api/general.h"
 2848              		.file 3 "ascii.h"
 2849              		.text
 2850              	.Letext0:
 2851              		.section	.debug_loc,"",%progbits
 2852              	.Ldebug_loc0:
 2853              	.LLST1:
 2854 0000 14000000 		.4byte	.LFB18-.Ltext0
 2855 0004 16000000 		.4byte	.LCFI0-.Ltext0
 2856 0008 0100     		.2byte	0x1
 2857 000a 5D       		.byte	0x5d
 2858 000b 16000000 		.4byte	.LCFI0-.Ltext0
 2859 000f 24000000 		.4byte	.LFE18-.Ltext0
 2860 0013 0200     		.2byte	0x2
 2861 0015 7D       		.byte	0x7d
 2862 0016 04       		.sleb128 4
 2863 0017 00000000 		.4byte	0x0
 2864 001b 00000000 		.4byte	0x0
 2865              	.LLST2:
 2866 001f 16000000 		.4byte	.LVL1-.Ltext0
 2867 0023 1C000000 		.4byte	.LVL2-.Ltext0
 2868 0027 0100     		.2byte	0x1
 2869 0029 50       		.byte	0x50
 2870 002a 1C000000 		.4byte	.LVL2-.Ltext0
 2871 002e 20000000 		.4byte	.LVL3-.Ltext0
 2872 0032 0100     		.2byte	0x1
 2873 0034 51       		.byte	0x51
 2874 0035 00000000 		.4byte	0x0
 2875 0039 00000000 		.4byte	0x0
 2876              	.LLST3:
 2877 003d 24000000 		.4byte	.LFB17-.Ltext0
 2878 0041 26000000 		.4byte	.LCFI1-.Ltext0
 2879 0045 0100     		.2byte	0x1
 2880 0047 5D       		.byte	0x5d
 2881 0048 26000000 		.4byte	.LCFI1-.Ltext0
 2882 004c 34000000 		.4byte	.LFE17-.Ltext0
 2883 0050 0200     		.2byte	0x2
 2884 0052 7D       		.byte	0x7d
 2885 0053 04       		.sleb128 4
 2886 0054 00000000 		.4byte	0x0
 2887 0058 00000000 		.4byte	0x0
 2888              	.LLST4:
 2889 005c 26000000 		.4byte	.LVL4-.Ltext0
 2890 0060 2C000000 		.4byte	.LVL5-.Ltext0
 2891 0064 0100     		.2byte	0x1
 2892 0066 50       		.byte	0x50
 2893 0067 2C000000 		.4byte	.LVL5-.Ltext0
 2894 006b 30000000 		.4byte	.LVL6-.Ltext0
 2895 006f 0100     		.2byte	0x1
 2896 0071 51       		.byte	0x51
 2897 0072 00000000 		.4byte	0x0
ARM GAS  /cygdrive/c/Users/embedded/AppData/Local/Temp/ccWfuIiM.s 			page 61


 2898 0076 00000000 		.4byte	0x0
 2899              	.LLST5:
 2900 007a 34000000 		.4byte	.LFB12-.Ltext0
 2901 007e 36000000 		.4byte	.LCFI2-.Ltext0
 2902 0082 0100     		.2byte	0x1
 2903 0084 5D       		.byte	0x5d
 2904 0085 36000000 		.4byte	.LCFI2-.Ltext0
 2905 0089 86000000 		.4byte	.LFE12-.Ltext0
 2906 008d 0200     		.2byte	0x2
 2907 008f 7D       		.byte	0x7d
 2908 0090 14       		.sleb128 20
 2909 0091 00000000 		.4byte	0x0
 2910 0095 00000000 		.4byte	0x0
 2911              	.LLST6:
 2912 0099 36000000 		.4byte	.LVL7-.Ltext0
 2913 009d 4A000000 		.4byte	.LVL9-.Ltext0
 2914 00a1 0100     		.2byte	0x1
 2915 00a3 50       		.byte	0x50
 2916 00a4 00000000 		.4byte	0x0
 2917 00a8 00000000 		.4byte	0x0
 2918              	.LLST7:
 2919 00ac 36000000 		.4byte	.LVL7-.Ltext0
 2920 00b0 58000000 		.4byte	.LVL11-.Ltext0
 2921 00b4 0100     		.2byte	0x1
 2922 00b6 51       		.byte	0x51
 2923 00b7 58000000 		.4byte	.LVL11-.Ltext0
 2924 00bb 5A000000 		.4byte	.LVL12-.Ltext0
 2925 00bf 0100     		.2byte	0x1
 2926 00c1 56       		.byte	0x56
 2927 00c2 00000000 		.4byte	0x0
 2928 00c6 00000000 		.4byte	0x0
 2929              	.LLST8:
 2930 00ca 36000000 		.4byte	.LVL7-.Ltext0
 2931 00ce 58000000 		.4byte	.LVL11-.Ltext0
 2932 00d2 0100     		.2byte	0x1
 2933 00d4 52       		.byte	0x52
 2934 00d5 00000000 		.4byte	0x0
 2935 00d9 00000000 		.4byte	0x0
 2936              	.LLST9:
 2937 00dd 36000000 		.4byte	.LVL7-.Ltext0
 2938 00e1 48000000 		.4byte	.LVL8-.Ltext0
 2939 00e5 0100     		.2byte	0x1
 2940 00e7 53       		.byte	0x53
 2941 00e8 52000000 		.4byte	.LVL10-.Ltext0
 2942 00ec 80000000 		.4byte	.LVL13-.Ltext0
 2943 00f0 0100     		.2byte	0x1
 2944 00f2 57       		.byte	0x57
 2945 00f3 00000000 		.4byte	0x0
 2946 00f7 00000000 		.4byte	0x0
 2947              	.LLST10:
 2948 00fb 88000000 		.4byte	.LFB14-.Ltext0
 2949 00ff 8A000000 		.4byte	.LCFI3-.Ltext0
 2950 0103 0100     		.2byte	0x1
 2951 0105 5D       		.byte	0x5d
 2952 0106 8A000000 		.4byte	.LCFI3-.Ltext0
 2953 010a 50010000 		.4byte	.LFE14-.Ltext0
 2954 010e 0200     		.2byte	0x2
ARM GAS  /cygdrive/c/Users/embedded/AppData/Local/Temp/ccWfuIiM.s 			page 62


 2955 0110 7D       		.byte	0x7d
 2956 0111 14       		.sleb128 20
 2957 0112 00000000 		.4byte	0x0
 2958 0116 00000000 		.4byte	0x0
 2959              	.LLST11:
 2960 011a 8A000000 		.4byte	.LVL14-.Ltext0
 2961 011e 8C000000 		.4byte	.LVL15-.Ltext0
 2962 0122 0100     		.2byte	0x1
 2963 0124 50       		.byte	0x50
 2964 0125 8E000000 		.4byte	.LVL16-.Ltext0
 2965 0129 F2000000 		.4byte	.LVL17-.Ltext0
 2966 012d 0100     		.2byte	0x1
 2967 012f 55       		.byte	0x55
 2968 0130 26010000 		.4byte	.LVL20-.Ltext0
 2969 0134 34010000 		.4byte	.LVL22-.Ltext0
 2970 0138 0100     		.2byte	0x1
 2971 013a 55       		.byte	0x55
 2972 013b 00000000 		.4byte	0x0
 2973 013f 00000000 		.4byte	0x0
 2974              	.LLST12:
 2975 0143 F4000000 		.4byte	.LVL18-.Ltext0
 2976 0147 34010000 		.4byte	.LVL24-.Ltext0
 2977 014b 0100     		.2byte	0x1
 2978 014d 57       		.byte	0x57
 2979 014e 00000000 		.4byte	0x0
 2980 0152 00000000 		.4byte	0x0
 2981              	.LLST13:
 2982 0156 F4000000 		.4byte	.LVL19-.Ltext0
 2983 015a 34010000 		.4byte	.LVL23-.Ltext0
 2984 015e 0100     		.2byte	0x1
 2985 0160 56       		.byte	0x56
 2986 0161 00000000 		.4byte	0x0
 2987 0165 00000000 		.4byte	0x0
 2988              	.LLST14:
 2989 0169 F4000000 		.4byte	.LVL19-.Ltext0
 2990 016d 34010000 		.4byte	.LVL21-.Ltext0
 2991 0171 0100     		.2byte	0x1
 2992 0173 54       		.byte	0x54
 2993 0174 00000000 		.4byte	0x0
 2994 0178 00000000 		.4byte	0x0
 2995              	.LLST15:
 2996 017c 50010000 		.4byte	.LFB15-.Ltext0
 2997 0180 52010000 		.4byte	.LCFI4-.Ltext0
 2998 0184 0100     		.2byte	0x1
 2999 0186 5D       		.byte	0x5d
 3000 0187 52010000 		.4byte	.LCFI4-.Ltext0
 3001 018b B4010000 		.4byte	.LFE15-.Ltext0
 3002 018f 0200     		.2byte	0x2
 3003 0191 7D       		.byte	0x7d
 3004 0192 04       		.sleb128 4
 3005 0193 00000000 		.4byte	0x0
 3006 0197 00000000 		.4byte	0x0
 3007              	.LLST16:
 3008 019b 52010000 		.4byte	.LVL25-.Ltext0
 3009 019f 54010000 		.4byte	.LVL26-.Ltext0
 3010 01a3 0100     		.2byte	0x1
 3011 01a5 50       		.byte	0x50
ARM GAS  /cygdrive/c/Users/embedded/AppData/Local/Temp/ccWfuIiM.s 			page 63


 3012 01a6 56010000 		.4byte	.LVL27-.Ltext0
 3013 01aa 9E010000 		.4byte	.LVL28-.Ltext0
 3014 01ae 0100     		.2byte	0x1
 3015 01b0 50       		.byte	0x50
 3016 01b1 9E010000 		.4byte	.LVL29-.Ltext0
 3017 01b5 B4010000 		.4byte	.LFE15-.Ltext0
 3018 01b9 0100     		.2byte	0x1
 3019 01bb 50       		.byte	0x50
 3020 01bc 00000000 		.4byte	0x0
 3021 01c0 00000000 		.4byte	0x0
 3022              	.LLST17:
 3023 01c4 B4010000 		.4byte	.LFB16-.Ltext0
 3024 01c8 B6010000 		.4byte	.LCFI5-.Ltext0
 3025 01cc 0100     		.2byte	0x1
 3026 01ce 5D       		.byte	0x5d
 3027 01cf B6010000 		.4byte	.LCFI5-.Ltext0
 3028 01d3 CC010000 		.4byte	.LFE16-.Ltext0
 3029 01d7 0200     		.2byte	0x2
 3030 01d9 7D       		.byte	0x7d
 3031 01da 08       		.sleb128 8
 3032 01db 00000000 		.4byte	0x0
 3033 01df 00000000 		.4byte	0x0
 3034              	.LLST18:
 3035 01e3 B6010000 		.4byte	.LVL30-.Ltext0
 3036 01e7 BA010000 		.4byte	.LVL31-.Ltext0
 3037 01eb 0100     		.2byte	0x1
 3038 01ed 50       		.byte	0x50
 3039 01ee BA010000 		.4byte	.LVL31-.Ltext0
 3040 01f2 C6010000 		.4byte	.LVL33-.Ltext0
 3041 01f6 0100     		.2byte	0x1
 3042 01f8 54       		.byte	0x54
 3043 01f9 00000000 		.4byte	0x0
 3044 01fd 00000000 		.4byte	0x0
 3045              	.LLST19:
 3046 0201 CC010000 		.4byte	.LFB11-.Ltext0
 3047 0205 CE010000 		.4byte	.LCFI6-.Ltext0
 3048 0209 0100     		.2byte	0x1
 3049 020b 5D       		.byte	0x5d
 3050 020c CE010000 		.4byte	.LCFI6-.Ltext0
 3051 0210 FC010000 		.4byte	.LFE11-.Ltext0
 3052 0214 0200     		.2byte	0x2
 3053 0216 7D       		.byte	0x7d
 3054 0217 14       		.sleb128 20
 3055 0218 00000000 		.4byte	0x0
 3056 021c 00000000 		.4byte	0x0
 3057              	.LLST20:
 3058 0220 CE010000 		.4byte	.LVL34-.Ltext0
 3059 0224 E0010000 		.4byte	.LVL37-.Ltext0
 3060 0228 0100     		.2byte	0x1
 3061 022a 50       		.byte	0x50
 3062 022b E0010000 		.4byte	.LVL37-.Ltext0
 3063 022f F6010000 		.4byte	.LVL39-.Ltext0
 3064 0233 0100     		.2byte	0x1
 3065 0235 54       		.byte	0x54
 3066 0236 00000000 		.4byte	0x0
 3067 023a 00000000 		.4byte	0x0
 3068              	.LLST21:
ARM GAS  /cygdrive/c/Users/embedded/AppData/Local/Temp/ccWfuIiM.s 			page 64


 3069 023e CE010000 		.4byte	.LVL34-.Ltext0
 3070 0242 E4010000 		.4byte	.LVL38-.Ltext0
 3071 0246 0100     		.2byte	0x1
 3072 0248 51       		.byte	0x51
 3073 0249 E4010000 		.4byte	.LVL38-.Ltext0
 3074 024d F6010000 		.4byte	.LVL40-.Ltext0
 3075 0251 0100     		.2byte	0x1
 3076 0253 55       		.byte	0x55
 3077 0254 00000000 		.4byte	0x0
 3078 0258 00000000 		.4byte	0x0
 3079              	.LLST22:
 3080 025c CE010000 		.4byte	.LVL34-.Ltext0
 3081 0260 E4010000 		.4byte	.LVL38-.Ltext0
 3082 0264 0100     		.2byte	0x1
 3083 0266 52       		.byte	0x52
 3084 0267 E4010000 		.4byte	.LVL38-.Ltext0
 3085 026b F6010000 		.4byte	.LVL41-.Ltext0
 3086 026f 0100     		.2byte	0x1
 3087 0271 56       		.byte	0x56
 3088 0272 00000000 		.4byte	0x0
 3089 0276 00000000 		.4byte	0x0
 3090              	.LLST23:
 3091 027a CE010000 		.4byte	.LVL34-.Ltext0
 3092 027e D4010000 		.4byte	.LVL35-.Ltext0
 3093 0282 0100     		.2byte	0x1
 3094 0284 53       		.byte	0x53
 3095 0285 D8010000 		.4byte	.LVL36-.Ltext0
 3096 0289 F6010000 		.4byte	.LVL42-.Ltext0
 3097 028d 0100     		.2byte	0x1
 3098 028f 57       		.byte	0x57
 3099 0290 00000000 		.4byte	0x0
 3100 0294 00000000 		.4byte	0x0
 3101              	.LLST24:
 3102 0298 FC010000 		.4byte	.LFB10-.Ltext0
 3103 029c FE010000 		.4byte	.LCFI7-.Ltext0
 3104 02a0 0100     		.2byte	0x1
 3105 02a2 5D       		.byte	0x5d
 3106 02a3 FE010000 		.4byte	.LCFI7-.Ltext0
 3107 02a7 24020000 		.4byte	.LFE10-.Ltext0
 3108 02ab 0200     		.2byte	0x2
 3109 02ad 7D       		.byte	0x7d
 3110 02ae 04       		.sleb128 4
 3111 02af 00000000 		.4byte	0x0
 3112 02b3 00000000 		.4byte	0x0
 3113              	.LLST25:
 3114 02b7 FE010000 		.4byte	.LVL43-.Ltext0
 3115 02bb 02020000 		.4byte	.LVL44-.Ltext0
 3116 02bf 0100     		.2byte	0x1
 3117 02c1 50       		.byte	0x50
 3118 02c2 04020000 		.4byte	.LVL45-.Ltext0
 3119 02c6 16020000 		.4byte	.LVL48-.Ltext0
 3120 02ca 0100     		.2byte	0x1
 3121 02cc 50       		.byte	0x50
 3122 02cd 00000000 		.4byte	0x0
 3123 02d1 00000000 		.4byte	0x0
 3124              	.LLST26:
 3125 02d5 FE010000 		.4byte	.LVL43-.Ltext0
ARM GAS  /cygdrive/c/Users/embedded/AppData/Local/Temp/ccWfuIiM.s 			page 65


 3126 02d9 08020000 		.4byte	.LVL46-.Ltext0
 3127 02dd 0100     		.2byte	0x1
 3128 02df 51       		.byte	0x51
 3129 02e0 0C020000 		.4byte	.LVL47-.Ltext0
 3130 02e4 16020000 		.4byte	.LVL48-.Ltext0
 3131 02e8 0100     		.2byte	0x1
 3132 02ea 51       		.byte	0x51
 3133 02eb 00000000 		.4byte	0x0
 3134 02ef 00000000 		.4byte	0x0
 3135              	.LLST27:
 3136 02f3 24020000 		.4byte	.LFB9-.Ltext0
 3137 02f7 26020000 		.4byte	.LCFI8-.Ltext0
 3138 02fb 0100     		.2byte	0x1
 3139 02fd 5D       		.byte	0x5d
 3140 02fe 26020000 		.4byte	.LCFI8-.Ltext0
 3141 0302 28020000 		.4byte	.LCFI9-.Ltext0
 3142 0306 0200     		.2byte	0x2
 3143 0308 7D       		.byte	0x7d
 3144 0309 14       		.sleb128 20
 3145 030a 28020000 		.4byte	.LCFI9-.Ltext0
 3146 030e D4020000 		.4byte	.LFE9-.Ltext0
 3147 0312 0200     		.2byte	0x2
 3148 0314 7D       		.byte	0x7d
 3149 0315 24       		.sleb128 36
 3150 0316 00000000 		.4byte	0x0
 3151 031a 00000000 		.4byte	0x0
 3152              	.LLST28:
 3153 031e 26020000 		.4byte	.LVL49-.Ltext0
 3154 0322 42020000 		.4byte	.LVL54-.Ltext0
 3155 0326 0100     		.2byte	0x1
 3156 0328 50       		.byte	0x50
 3157 0329 54020000 		.4byte	.LVL57-.Ltext0
 3158 032d 82020000 		.4byte	.LVL62-.Ltext0
 3159 0331 0100     		.2byte	0x1
 3160 0333 54       		.byte	0x54
 3161 0334 92020000 		.4byte	.LVL63-.Ltext0
 3162 0338 A2020000 		.4byte	.LVL66-.Ltext0
 3163 033c 0100     		.2byte	0x1
 3164 033e 54       		.byte	0x54
 3165 033f BA020000 		.4byte	.LVL67-.Ltext0
 3166 0343 CE020000 		.4byte	.LVL69-.Ltext0
 3167 0347 0100     		.2byte	0x1
 3168 0349 54       		.byte	0x54
 3169 034a 00000000 		.4byte	0x0
 3170 034e 00000000 		.4byte	0x0
 3171              	.LLST29:
 3172 0352 26020000 		.4byte	.LVL49-.Ltext0
 3173 0356 2E020000 		.4byte	.LVL50-.Ltext0
 3174 035a 0100     		.2byte	0x1
 3175 035c 51       		.byte	0x51
 3176 035d 2E020000 		.4byte	.LVL50-.Ltext0
 3177 0361 4A020000 		.4byte	.LVL55-.Ltext0
 3178 0365 0100     		.2byte	0x1
 3179 0367 55       		.byte	0x55
 3180 0368 56020000 		.4byte	.LVL58-.Ltext0
 3181 036c A0020000 		.4byte	.LVL65-.Ltext0
 3182 0370 0100     		.2byte	0x1
ARM GAS  /cygdrive/c/Users/embedded/AppData/Local/Temp/ccWfuIiM.s 			page 66


 3183 0372 55       		.byte	0x55
 3184 0373 BA020000 		.4byte	.LVL67-.Ltext0
 3185 0377 CE020000 		.4byte	.LVL70-.Ltext0
 3186 037b 0100     		.2byte	0x1
 3187 037d 55       		.byte	0x55
 3188 037e 00000000 		.4byte	0x0
 3189 0382 00000000 		.4byte	0x0
 3190              	.LLST30:
 3191 0386 26020000 		.4byte	.LVL49-.Ltext0
 3192 038a 32020000 		.4byte	.LVL52-.Ltext0
 3193 038e 0100     		.2byte	0x1
 3194 0390 52       		.byte	0x52
 3195 0391 36020000 		.4byte	.LVL53-.Ltext0
 3196 0395 D4020000 		.4byte	.LFE9-.Ltext0
 3197 0399 0200     		.2byte	0x2
 3198 039b 91       		.byte	0x91
 3199 039c 78       		.sleb128 -8
 3200 039d 00000000 		.4byte	0x0
 3201 03a1 00000000 		.4byte	0x0
 3202              	.LLST31:
 3203 03a5 26020000 		.4byte	.LVL49-.Ltext0
 3204 03a9 30020000 		.4byte	.LVL51-.Ltext0
 3205 03ad 0100     		.2byte	0x1
 3206 03af 53       		.byte	0x53
 3207 03b0 30020000 		.4byte	.LVL51-.Ltext0
 3208 03b4 50020000 		.4byte	.LVL56-.Ltext0
 3209 03b8 0100     		.2byte	0x1
 3210 03ba 56       		.byte	0x56
 3211 03bb 58020000 		.4byte	.LVL59-.Ltext0
 3212 03bf 7C020000 		.4byte	.LVL60-.Ltext0
 3213 03c3 0100     		.2byte	0x1
 3214 03c5 56       		.byte	0x56
 3215 03c6 00000000 		.4byte	0x0
 3216 03ca 00000000 		.4byte	0x0
 3217              	.LLST32:
 3218 03ce 26020000 		.4byte	.LVL49-.Ltext0
 3219 03d2 80020000 		.4byte	.LVL61-.Ltext0
 3220 03d6 0200     		.2byte	0x2
 3221 03d8 91       		.byte	0x91
 3222 03d9 00       		.sleb128 0
 3223 03da 80020000 		.4byte	.LVL61-.Ltext0
 3224 03de D4020000 		.4byte	.LFE9-.Ltext0
 3225 03e2 0200     		.2byte	0x2
 3226 03e4 91       		.byte	0x91
 3227 03e5 74       		.sleb128 -12
 3228 03e6 00000000 		.4byte	0x0
 3229 03ea 00000000 		.4byte	0x0
 3230              	.LLST33:
 3231 03ee 26020000 		.4byte	.LVL49-.Ltext0
 3232 03f2 80020000 		.4byte	.LVL61-.Ltext0
 3233 03f6 0200     		.2byte	0x2
 3234 03f8 91       		.byte	0x91
 3235 03f9 04       		.sleb128 4
 3236 03fa 80020000 		.4byte	.LVL61-.Ltext0
 3237 03fe D4020000 		.4byte	.LFE9-.Ltext0
 3238 0402 0200     		.2byte	0x2
 3239 0404 91       		.byte	0x91
ARM GAS  /cygdrive/c/Users/embedded/AppData/Local/Temp/ccWfuIiM.s 			page 67


 3240 0405 70       		.sleb128 -16
 3241 0406 00000000 		.4byte	0x0
 3242 040a 00000000 		.4byte	0x0
 3243              	.LLST34:
 3244 040e 26020000 		.4byte	.LVL49-.Ltext0
 3245 0412 80020000 		.4byte	.LVL61-.Ltext0
 3246 0416 0200     		.2byte	0x2
 3247 0418 91       		.byte	0x91
 3248 0419 08       		.sleb128 8
 3249 041a 80020000 		.4byte	.LVL61-.Ltext0
 3250 041e 92020000 		.4byte	.LVL63-.Ltext0
 3251 0422 0100     		.2byte	0x1
 3252 0424 57       		.byte	0x57
 3253 0425 92020000 		.4byte	.LVL63-.Ltext0
 3254 0429 9E020000 		.4byte	.LVL64-.Ltext0
 3255 042d 0100     		.2byte	0x1
 3256 042f 55       		.byte	0x55
 3257 0430 9E020000 		.4byte	.LVL64-.Ltext0
 3258 0434 BA020000 		.4byte	.LVL67-.Ltext0
 3259 0438 0200     		.2byte	0x2
 3260 043a 91       		.byte	0x91
 3261 043b 1C       		.sleb128 28
 3262 043c BA020000 		.4byte	.LVL67-.Ltext0
 3263 0440 CE020000 		.4byte	.LVL70-.Ltext0
 3264 0444 0100     		.2byte	0x1
 3265 0446 57       		.byte	0x57
 3266 0447 CE020000 		.4byte	.LVL72-.Ltext0
 3267 044b D4020000 		.4byte	.LFE9-.Ltext0
 3268 044f 0200     		.2byte	0x2
 3269 0451 91       		.byte	0x91
 3270 0452 1C       		.sleb128 28
 3271 0453 00000000 		.4byte	0x0
 3272 0457 00000000 		.4byte	0x0
 3273              	.LLST35:
 3274 045b 82020000 		.4byte	.LVL62-.Ltext0
 3275 045f 92020000 		.4byte	.LVL63-.Ltext0
 3276 0463 0100     		.2byte	0x1
 3277 0465 54       		.byte	0x54
 3278 0466 92020000 		.4byte	.LVL63-.Ltext0
 3279 046a CE020000 		.4byte	.LVL69-.Ltext0
 3280 046e 0100     		.2byte	0x1
 3281 0470 54       		.byte	0x54
 3282 0471 00000000 		.4byte	0x0
 3283 0475 00000000 		.4byte	0x0
 3284              	.LLST36:
 3285 0479 7C020000 		.4byte	.LVL60-.Ltext0
 3286 047d CE020000 		.4byte	.LVL71-.Ltext0
 3287 0481 0100     		.2byte	0x1
 3288 0483 56       		.byte	0x56
 3289 0484 00000000 		.4byte	0x0
 3290 0488 00000000 		.4byte	0x0
 3291              	.LLST37:
 3292 048c D4020000 		.4byte	.LFB8-.Ltext0
 3293 0490 D6020000 		.4byte	.LCFI10-.Ltext0
 3294 0494 0100     		.2byte	0x1
 3295 0496 5D       		.byte	0x5d
 3296 0497 D6020000 		.4byte	.LCFI10-.Ltext0
ARM GAS  /cygdrive/c/Users/embedded/AppData/Local/Temp/ccWfuIiM.s 			page 68


 3297 049b D8020000 		.4byte	.LCFI11-.Ltext0
 3298 049f 0200     		.2byte	0x2
 3299 04a1 7D       		.byte	0x7d
 3300 04a2 14       		.sleb128 20
 3301 04a3 D8020000 		.4byte	.LCFI11-.Ltext0
 3302 04a7 84030000 		.4byte	.LFE8-.Ltext0
 3303 04ab 0200     		.2byte	0x2
 3304 04ad 7D       		.byte	0x7d
 3305 04ae 20       		.sleb128 32
 3306 04af 00000000 		.4byte	0x0
 3307 04b3 00000000 		.4byte	0x0
 3308              	.LLST38:
 3309 04b7 D6020000 		.4byte	.LVL73-.Ltext0
 3310 04bb DC020000 		.4byte	.LVL74-.Ltext0
 3311 04bf 0100     		.2byte	0x1
 3312 04c1 50       		.byte	0x50
 3313 04c2 DC020000 		.4byte	.LVL74-.Ltext0
 3314 04c6 FC020000 		.4byte	.LVL80-.Ltext0
 3315 04ca 0100     		.2byte	0x1
 3316 04cc 55       		.byte	0x55
 3317 04cd 06030000 		.4byte	.LVL82-.Ltext0
 3318 04d1 2C030000 		.4byte	.LVL84-.Ltext0
 3319 04d5 0100     		.2byte	0x1
 3320 04d7 55       		.byte	0x55
 3321 04d8 00000000 		.4byte	0x0
 3322 04dc 00000000 		.4byte	0x0
 3323              	.LLST39:
 3324 04e0 D6020000 		.4byte	.LVL73-.Ltext0
 3325 04e4 E0020000 		.4byte	.LVL75-.Ltext0
 3326 04e8 0100     		.2byte	0x1
 3327 04ea 51       		.byte	0x51
 3328 04eb E0020000 		.4byte	.LVL75-.Ltext0
 3329 04ef 02030000 		.4byte	.LVL81-.Ltext0
 3330 04f3 0100     		.2byte	0x1
 3331 04f5 56       		.byte	0x56
 3332 04f6 08030000 		.4byte	.LVL83-.Ltext0
 3333 04fa 3C030000 		.4byte	.LVL86-.Ltext0
 3334 04fe 0100     		.2byte	0x1
 3335 0500 56       		.byte	0x56
 3336 0501 00000000 		.4byte	0x0
 3337 0505 00000000 		.4byte	0x0
 3338              	.LLST40:
 3339 0509 D6020000 		.4byte	.LVL73-.Ltext0
 3340 050d EA020000 		.4byte	.LVL77-.Ltext0
 3341 0511 0100     		.2byte	0x1
 3342 0513 52       		.byte	0x52
 3343 0514 F6020000 		.4byte	.LVL78-.Ltext0
 3344 0518 7E030000 		.4byte	.LVL94-.Ltext0
 3345 051c 0100     		.2byte	0x1
 3346 051e 57       		.byte	0x57
 3347 051f 00000000 		.4byte	0x0
 3348 0523 00000000 		.4byte	0x0
 3349              	.LLST41:
 3350 0527 D6020000 		.4byte	.LVL73-.Ltext0
 3351 052b E6020000 		.4byte	.LVL76-.Ltext0
 3352 052f 0100     		.2byte	0x1
 3353 0531 53       		.byte	0x53
ARM GAS  /cygdrive/c/Users/embedded/AppData/Local/Temp/ccWfuIiM.s 			page 69


 3354 0532 F8020000 		.4byte	.LVL79-.Ltext0
 3355 0536 84030000 		.4byte	.LFE8-.Ltext0
 3356 053a 0200     		.2byte	0x2
 3357 053c 91       		.byte	0x91
 3358 053d 7C       		.sleb128 -4
 3359 053e 00000000 		.4byte	0x0
 3360 0542 00000000 		.4byte	0x0
 3361              	.LLST42:
 3362 0546 D6020000 		.4byte	.LVL73-.Ltext0
 3363 054a 2E030000 		.4byte	.LVL85-.Ltext0
 3364 054e 0200     		.2byte	0x2
 3365 0550 91       		.byte	0x91
 3366 0551 00       		.sleb128 0
 3367 0552 2E030000 		.4byte	.LVL85-.Ltext0
 3368 0556 84030000 		.4byte	.LFE8-.Ltext0
 3369 055a 0200     		.2byte	0x2
 3370 055c 91       		.byte	0x91
 3371 055d 78       		.sleb128 -8
 3372 055e 00000000 		.4byte	0x0
 3373 0562 00000000 		.4byte	0x0
 3374              	.LLST43:
 3375 0566 D6020000 		.4byte	.LVL73-.Ltext0
 3376 056a 2E030000 		.4byte	.LVL85-.Ltext0
 3377 056e 0200     		.2byte	0x2
 3378 0570 91       		.byte	0x91
 3379 0571 04       		.sleb128 4
 3380 0572 2E030000 		.4byte	.LVL85-.Ltext0
 3381 0576 84030000 		.4byte	.LFE8-.Ltext0
 3382 057a 0200     		.2byte	0x2
 3383 057c 91       		.byte	0x91
 3384 057d 74       		.sleb128 -12
 3385 057e 00000000 		.4byte	0x0
 3386 0582 00000000 		.4byte	0x0
 3387              	.LLST44:
 3388 0586 D6020000 		.4byte	.LVL73-.Ltext0
 3389 058a 2E030000 		.4byte	.LVL85-.Ltext0
 3390 058e 0200     		.2byte	0x2
 3391 0590 91       		.byte	0x91
 3392 0591 08       		.sleb128 8
 3393 0592 2E030000 		.4byte	.LVL85-.Ltext0
 3394 0596 7E030000 		.4byte	.LVL91-.Ltext0
 3395 059a 0100     		.2byte	0x1
 3396 059c 54       		.byte	0x54
 3397 059d 7E030000 		.4byte	.LVL91-.Ltext0
 3398 05a1 84030000 		.4byte	.LFE8-.Ltext0
 3399 05a5 0200     		.2byte	0x2
 3400 05a7 91       		.byte	0x91
 3401 05a8 1C       		.sleb128 28
 3402 05a9 00000000 		.4byte	0x0
 3403 05ad 00000000 		.4byte	0x0
 3404              	.LLST45:
 3405 05b1 2C030000 		.4byte	.LVL84-.Ltext0
 3406 05b5 46030000 		.4byte	.LVL88-.Ltext0
 3407 05b9 0100     		.2byte	0x1
 3408 05bb 55       		.byte	0x55
 3409 05bc 5E030000 		.4byte	.LVL89-.Ltext0
 3410 05c0 68030000 		.4byte	.LVL90-.Ltext0
ARM GAS  /cygdrive/c/Users/embedded/AppData/Local/Temp/ccWfuIiM.s 			page 70


 3411 05c4 0100     		.2byte	0x1
 3412 05c6 55       		.byte	0x55
 3413 05c7 68030000 		.4byte	.LVL90-.Ltext0
 3414 05cb 68030000 		.4byte	.LVL90-.Ltext0
 3415 05cf 0100     		.2byte	0x1
 3416 05d1 55       		.byte	0x55
 3417 05d2 00000000 		.4byte	0x0
 3418 05d6 00000000 		.4byte	0x0
 3419              	.LLST46:
 3420 05da 3C030000 		.4byte	.LVL86-.Ltext0
 3421 05de 7E030000 		.4byte	.LVL93-.Ltext0
 3422 05e2 0100     		.2byte	0x1
 3423 05e4 56       		.byte	0x56
 3424 05e5 00000000 		.4byte	0x0
 3425 05e9 00000000 		.4byte	0x0
 3426              	.LLST47:
 3427 05ed 84030000 		.4byte	.LFB7-.Ltext0
 3428 05f1 86030000 		.4byte	.LCFI12-.Ltext0
 3429 05f5 0100     		.2byte	0x1
 3430 05f7 5D       		.byte	0x5d
 3431 05f8 86030000 		.4byte	.LCFI12-.Ltext0
 3432 05fc 88030000 		.4byte	.LCFI13-.Ltext0
 3433 0600 0200     		.2byte	0x2
 3434 0602 7D       		.byte	0x7d
 3435 0603 14       		.sleb128 20
 3436 0604 88030000 		.4byte	.LCFI13-.Ltext0
 3437 0608 E6030000 		.4byte	.LFE7-.Ltext0
 3438 060c 0200     		.2byte	0x2
 3439 060e 7D       		.byte	0x7d
 3440 060f 18       		.sleb128 24
 3441 0610 00000000 		.4byte	0x0
 3442 0614 00000000 		.4byte	0x0
 3443              	.LLST48:
 3444 0618 86030000 		.4byte	.LVL95-.Ltext0
 3445 061c A2030000 		.4byte	.LVL101-.Ltext0
 3446 0620 0100     		.2byte	0x1
 3447 0622 50       		.byte	0x50
 3448 0623 A2030000 		.4byte	.LVL101-.Ltext0
 3449 0627 CA030000 		.4byte	.LVL104-.Ltext0
 3450 062b 0100     		.2byte	0x1
 3451 062d 54       		.byte	0x54
 3452 062e 00000000 		.4byte	0x0
 3453 0632 00000000 		.4byte	0x0
 3454              	.LLST49:
 3455 0636 86030000 		.4byte	.LVL95-.Ltext0
 3456 063a A8030000 		.4byte	.LVL102-.Ltext0
 3457 063e 0100     		.2byte	0x1
 3458 0640 51       		.byte	0x51
 3459 0641 A8030000 		.4byte	.LVL102-.Ltext0
 3460 0645 E0030000 		.4byte	.LVL107-.Ltext0
 3461 0649 0100     		.2byte	0x1
 3462 064b 55       		.byte	0x55
 3463 064c 00000000 		.4byte	0x0
 3464 0650 00000000 		.4byte	0x0
 3465              	.LLST50:
 3466 0654 86030000 		.4byte	.LVL95-.Ltext0
 3467 0658 90030000 		.4byte	.LVL97-.Ltext0
ARM GAS  /cygdrive/c/Users/embedded/AppData/Local/Temp/ccWfuIiM.s 			page 71


 3468 065c 0100     		.2byte	0x1
 3469 065e 52       		.byte	0x52
 3470 065f 9A030000 		.4byte	.LVL99-.Ltext0
 3471 0663 E0030000 		.4byte	.LVL109-.Ltext0
 3472 0667 0100     		.2byte	0x1
 3473 0669 57       		.byte	0x57
 3474 066a 00000000 		.4byte	0x0
 3475 066e 00000000 		.4byte	0x0
 3476              	.LLST51:
 3477 0672 86030000 		.4byte	.LVL95-.Ltext0
 3478 0676 8C030000 		.4byte	.LVL96-.Ltext0
 3479 067a 0100     		.2byte	0x1
 3480 067c 53       		.byte	0x53
 3481 067d 8C030000 		.4byte	.LVL96-.Ltext0
 3482 0681 94030000 		.4byte	.LVL98-.Ltext0
 3483 0685 0100     		.2byte	0x1
 3484 0687 56       		.byte	0x56
 3485 0688 A0030000 		.4byte	.LVL100-.Ltext0
 3486 068c C8030000 		.4byte	.LVL103-.Ltext0
 3487 0690 0100     		.2byte	0x1
 3488 0692 56       		.byte	0x56
 3489 0693 00000000 		.4byte	0x0
 3490 0697 00000000 		.4byte	0x0
 3491              	.LLST52:
 3492 069b 86030000 		.4byte	.LVL95-.Ltext0
 3493 069f CC030000 		.4byte	.LVL105-.Ltext0
 3494 06a3 0200     		.2byte	0x2
 3495 06a5 91       		.byte	0x91
 3496 06a6 00       		.sleb128 0
 3497 06a7 CC030000 		.4byte	.LVL105-.Ltext0
 3498 06ab E6030000 		.4byte	.LFE7-.Ltext0
 3499 06af 0200     		.2byte	0x2
 3500 06b1 91       		.byte	0x91
 3501 06b2 7C       		.sleb128 -4
 3502 06b3 00000000 		.4byte	0x0
 3503 06b7 00000000 		.4byte	0x0
 3504              	.LLST53:
 3505 06bb CA030000 		.4byte	.LVL104-.Ltext0
 3506 06bf E0030000 		.4byte	.LVL106-.Ltext0
 3507 06c3 0100     		.2byte	0x1
 3508 06c5 54       		.byte	0x54
 3509 06c6 00000000 		.4byte	0x0
 3510 06ca 00000000 		.4byte	0x0
 3511              	.LLST54:
 3512 06ce C8030000 		.4byte	.LVL103-.Ltext0
 3513 06d2 E0030000 		.4byte	.LVL108-.Ltext0
 3514 06d6 0100     		.2byte	0x1
 3515 06d8 56       		.byte	0x56
 3516 06d9 00000000 		.4byte	0x0
 3517 06dd 00000000 		.4byte	0x0
 3518              	.LLST55:
 3519 06e1 E8030000 		.4byte	.LFB6-.Ltext0
 3520 06e5 EA030000 		.4byte	.LCFI14-.Ltext0
 3521 06e9 0100     		.2byte	0x1
 3522 06eb 5D       		.byte	0x5d
 3523 06ec EA030000 		.4byte	.LCFI14-.Ltext0
 3524 06f0 0C040000 		.4byte	.LFE6-.Ltext0
ARM GAS  /cygdrive/c/Users/embedded/AppData/Local/Temp/ccWfuIiM.s 			page 72


 3525 06f4 0200     		.2byte	0x2
 3526 06f6 7D       		.byte	0x7d
 3527 06f7 08       		.sleb128 8
 3528 06f8 00000000 		.4byte	0x0
 3529 06fc 00000000 		.4byte	0x0
 3530              	.LLST56:
 3531 0700 EA030000 		.4byte	.LVL110-.Ltext0
 3532 0704 EE030000 		.4byte	.LVL111-.Ltext0
 3533 0708 0100     		.2byte	0x1
 3534 070a 50       		.byte	0x50
 3535 070b F4030000 		.4byte	.LVL112-.Ltext0
 3536 070f 06040000 		.4byte	.LVL113-.Ltext0
 3537 0713 0100     		.2byte	0x1
 3538 0715 54       		.byte	0x54
 3539 0716 00000000 		.4byte	0x0
 3540 071a 00000000 		.4byte	0x0
 3541              	.LLST57:
 3542 071e 0C040000 		.4byte	.LFB3-.Ltext0
 3543 0722 0E040000 		.4byte	.LCFI15-.Ltext0
 3544 0726 0100     		.2byte	0x1
 3545 0728 5D       		.byte	0x5d
 3546 0729 0E040000 		.4byte	.LCFI15-.Ltext0
 3547 072d 60040000 		.4byte	.LFE3-.Ltext0
 3548 0731 0200     		.2byte	0x2
 3549 0733 7D       		.byte	0x7d
 3550 0734 08       		.sleb128 8
 3551 0735 00000000 		.4byte	0x0
 3552 0739 00000000 		.4byte	0x0
 3553              	.LLST58:
 3554 073d 32040000 		.4byte	.LVL114-.Ltext0
 3555 0741 48040000 		.4byte	.LVL115-.Ltext0
 3556 0745 0100     		.2byte	0x1
 3557 0747 54       		.byte	0x54
 3558 0748 00000000 		.4byte	0x0
 3559 074c 00000000 		.4byte	0x0
 3560              	.LLST59:
 3561 0750 60040000 		.4byte	.LFB4-.Ltext0
 3562 0754 62040000 		.4byte	.LCFI16-.Ltext0
 3563 0758 0100     		.2byte	0x1
 3564 075a 5D       		.byte	0x5d
 3565 075b 62040000 		.4byte	.LCFI16-.Ltext0
 3566 075f 7C040000 		.4byte	.LFE4-.Ltext0
 3567 0763 0200     		.2byte	0x2
 3568 0765 7D       		.byte	0x7d
 3569 0766 04       		.sleb128 4
 3570 0767 00000000 		.4byte	0x0
 3571 076b 00000000 		.4byte	0x0
 3572              	.LLST60:
 3573 076f 7C040000 		.4byte	.LFB2-.Ltext0
 3574 0773 7E040000 		.4byte	.LCFI17-.Ltext0
 3575 0777 0100     		.2byte	0x1
 3576 0779 5D       		.byte	0x5d
 3577 077a 7E040000 		.4byte	.LCFI17-.Ltext0
 3578 077e 70050000 		.4byte	.LFE2-.Ltext0
 3579 0782 0200     		.2byte	0x2
 3580 0784 7D       		.byte	0x7d
 3581 0785 04       		.sleb128 4
ARM GAS  /cygdrive/c/Users/embedded/AppData/Local/Temp/ccWfuIiM.s 			page 73


 3582 0786 00000000 		.4byte	0x0
 3583 078a 00000000 		.4byte	0x0
 3584              		.section	.debug_info
 3585 0000 92050000 		.4byte	0x592
 3586 0004 0200     		.2byte	0x2
 3587 0006 00000000 		.4byte	.Ldebug_abbrev0
 3588 000a 04       		.byte	0x4
 3589 000b 01       		.uleb128 0x1
 3590 000c 00000000 		.4byte	.Ldebug_line0
 3591 0010 70050000 		.4byte	.Letext0
 3592 0014 00000000 		.4byte	.Ltext0
 3593 0018 BB000000 		.4byte	.LASF44
 3594 001c 01       		.byte	0x1
 3595 001d 32010000 		.4byte	.LASF45
 3596 0021 F3000000 		.4byte	.LASF46
 3597 0025 02       		.uleb128 0x2
 3598 0026 74553800 		.ascii	"tU8\000"
 3599 002a 02       		.byte	0x2
 3600 002b 47       		.byte	0x47
 3601 002c 30000000 		.4byte	0x30
 3602 0030 03       		.uleb128 0x3
 3603 0031 1A010000 		.4byte	.LASF0
 3604 0035 01       		.byte	0x1
 3605 0036 08       		.byte	0x8
 3606 0037 03       		.uleb128 0x3
 3607 0038 67010000 		.4byte	.LASF1
 3608 003c 02       		.byte	0x2
 3609 003d 07       		.byte	0x7
 3610 003e 04       		.uleb128 0x4
 3611 003f 6D000000 		.4byte	.LASF2
 3612 0043 02       		.byte	0x2
 3613 0044 49       		.byte	0x49
 3614 0045 49000000 		.4byte	0x49
 3615 0049 03       		.uleb128 0x3
 3616 004a 4C010000 		.4byte	.LASF3
 3617 004e 04       		.byte	0x4
 3618 004f 07       		.byte	0x7
 3619 0050 03       		.uleb128 0x3
 3620 0051 38010000 		.4byte	.LASF4
 3621 0055 01       		.byte	0x1
 3622 0056 06       		.byte	0x6
 3623 0057 03       		.uleb128 0x3
 3624 0058 47000000 		.4byte	.LASF5
 3625 005c 02       		.byte	0x2
 3626 005d 05       		.byte	0x5
 3627 005e 04       		.uleb128 0x4
 3628 005f E4000000 		.4byte	.LASF6
 3629 0063 02       		.byte	0x2
 3630 0064 4C       		.byte	0x4c
 3631 0065 69000000 		.4byte	0x69
 3632 0069 05       		.uleb128 0x5
 3633 006a 696E7400 		.ascii	"int\000"
 3634 006e 04       		.byte	0x4
 3635 006f 05       		.byte	0x5
 3636 0070 03       		.uleb128 0x3
 3637 0071 97010000 		.4byte	.LASF7
 3638 0075 04       		.byte	0x4
ARM GAS  /cygdrive/c/Users/embedded/AppData/Local/Temp/ccWfuIiM.s 			page 74


 3639 0076 07       		.byte	0x7
 3640 0077 06       		.uleb128 0x6
 3641 0078 A9000000 		.4byte	0xa9
 3642 007c 01       		.byte	0x1
 3643 007d 7F010000 		.4byte	.LASF9
 3644 0081 01       		.byte	0x1
 3645 0082 B7       		.byte	0xb7
 3646 0083 01       		.byte	0x1
 3647 0084 00000000 		.4byte	.LFB5
 3648 0088 14000000 		.4byte	.LFE5
 3649 008c 01       		.byte	0x1
 3650 008d 5D       		.byte	0x5d
 3651 008e 07       		.uleb128 0x7
 3652 008f 626B6700 		.ascii	"bkg\000"
 3653 0093 01       		.byte	0x1
 3654 0094 B6       		.byte	0xb6
 3655 0095 25000000 		.4byte	0x25
 3656 0099 01       		.byte	0x1
 3657 009a 50       		.byte	0x50
 3658 009b 08       		.uleb128 0x8
 3659 009c 27000000 		.4byte	.LASF8
 3660 00a0 01       		.byte	0x1
 3661 00a1 B6       		.byte	0xb6
 3662 00a2 25000000 		.4byte	0x25
 3663 00a6 01       		.byte	0x1
 3664 00a7 51       		.byte	0x51
 3665 00a8 00       		.byte	0x0
 3666 00a9 09       		.uleb128 0x9
 3667 00aa D4000000 		.4byte	0xd4
 3668 00ae 01       		.byte	0x1
 3669 00af 7A000000 		.4byte	.LASF10
 3670 00b3 01       		.byte	0x1
 3671 00b4 0502     		.2byte	0x205
 3672 00b6 01       		.byte	0x1
 3673 00b7 14000000 		.4byte	.LFB18
 3674 00bb 24000000 		.4byte	.LFE18
 3675 00bf 00000000 		.4byte	.LLST1
 3676 00c3 0A       		.uleb128 0xa
 3677 00c4 8D010000 		.4byte	.LASF11
 3678 00c8 01       		.byte	0x1
 3679 00c9 0402     		.2byte	0x204
 3680 00cb 25000000 		.4byte	0x25
 3681 00cf 1F000000 		.4byte	.LLST2
 3682 00d3 00       		.byte	0x0
 3683 00d4 09       		.uleb128 0x9
 3684 00d5 FF000000 		.4byte	0xff
 3685 00d9 01       		.byte	0x1
 3686 00da C3010000 		.4byte	.LASF12
 3687 00de 01       		.byte	0x1
 3688 00df F801     		.2byte	0x1f8
 3689 00e1 01       		.byte	0x1
 3690 00e2 24000000 		.4byte	.LFB17
 3691 00e6 34000000 		.4byte	.LFE17
 3692 00ea 3D000000 		.4byte	.LLST3
 3693 00ee 0A       		.uleb128 0xa
 3694 00ef 8D010000 		.4byte	.LASF11
 3695 00f3 01       		.byte	0x1
ARM GAS  /cygdrive/c/Users/embedded/AppData/Local/Temp/ccWfuIiM.s 			page 75


 3696 00f4 F701     		.2byte	0x1f7
 3697 00f6 25000000 		.4byte	0x25
 3698 00fa 5C000000 		.4byte	.LLST4
 3699 00fe 00       		.byte	0x0
 3700 00ff 0B       		.uleb128 0xb
 3701 0100 55010000 		.4byte	0x155
 3702 0104 62000000 		.4byte	.LASF47
 3703 0108 01       		.byte	0x1
 3704 0109 7901     		.2byte	0x179
 3705 010b 01       		.byte	0x1
 3706 010c 34000000 		.4byte	.LFB12
 3707 0110 86000000 		.4byte	.LFE12
 3708 0114 7A000000 		.4byte	.LLST5
 3709 0118 0C       		.uleb128 0xc
 3710 0119 787000   		.ascii	"xp\000"
 3711 011c 01       		.byte	0x1
 3712 011d 7801     		.2byte	0x178
 3713 011f 25000000 		.4byte	0x25
 3714 0123 99000000 		.4byte	.LLST6
 3715 0127 0C       		.uleb128 0xc
 3716 0128 797000   		.ascii	"yp\000"
 3717 012b 01       		.byte	0x1
 3718 012c 7801     		.2byte	0x178
 3719 012e 25000000 		.4byte	0x25
 3720 0132 AC000000 		.4byte	.LLST7
 3721 0136 0C       		.uleb128 0xc
 3722 0137 786500   		.ascii	"xe\000"
 3723 013a 01       		.byte	0x1
 3724 013b 7801     		.2byte	0x178
 3725 013d 25000000 		.4byte	0x25
 3726 0141 CA000000 		.4byte	.LLST8
 3727 0145 0C       		.uleb128 0xc
 3728 0146 796500   		.ascii	"ye\000"
 3729 0149 01       		.byte	0x1
 3730 014a 7801     		.2byte	0x178
 3731 014c 25000000 		.4byte	0x25
 3732 0150 DD000000 		.4byte	.LLST9
 3733 0154 00       		.byte	0x0
 3734 0155 09       		.uleb128 0x9
 3735 0156 C2010000 		.4byte	0x1c2
 3736 015a 01       		.byte	0x1
 3737 015b 97000000 		.4byte	.LASF13
 3738 015f 01       		.byte	0x1
 3739 0160 9D01     		.2byte	0x19d
 3740 0162 01       		.byte	0x1
 3741 0163 88000000 		.4byte	.LFB14
 3742 0167 50010000 		.4byte	.LFE14
 3743 016b FB000000 		.4byte	.LLST10
 3744 016f 0A       		.uleb128 0xa
 3745 0170 8D010000 		.4byte	.LASF11
 3746 0174 01       		.byte	0x1
 3747 0175 9C01     		.2byte	0x19c
 3748 0177 25000000 		.4byte	0x25
 3749 017b 1A010000 		.4byte	.LLST11
 3750 017f 0D       		.uleb128 0xd
 3751 0180 9A000000 		.4byte	.LBB2
 3752 0184 26010000 		.4byte	.LBE2
ARM GAS  /cygdrive/c/Users/embedded/AppData/Local/Temp/ccWfuIiM.s 			page 76


 3753 0188 0E       		.uleb128 0xe
 3754 0189 DA000000 		.4byte	.LASF14
 3755 018d 01       		.byte	0x1
 3756 018e A301     		.2byte	0x1a3
 3757 0190 3E000000 		.4byte	0x3e
 3758 0194 0F       		.uleb128 0xf
 3759 0195 6900     		.ascii	"i\000"
 3760 0197 01       		.byte	0x1
 3761 0198 A401     		.2byte	0x1a4
 3762 019a 25000000 		.4byte	0x25
 3763 019e 43010000 		.4byte	.LLST12
 3764 01a2 0F       		.uleb128 0xf
 3765 01a3 6A00     		.ascii	"j\000"
 3766 01a5 01       		.byte	0x1
 3767 01a6 A401     		.2byte	0x1a4
 3768 01a8 25000000 		.4byte	0x25
 3769 01ac 56010000 		.4byte	.LLST13
 3770 01b0 10       		.uleb128 0x10
 3771 01b1 35000000 		.4byte	.LASF15
 3772 01b5 01       		.byte	0x1
 3773 01b6 A401     		.2byte	0x1a4
 3774 01b8 25000000 		.4byte	0x25
 3775 01bc 69010000 		.4byte	.LLST14
 3776 01c0 00       		.byte	0x0
 3777 01c1 00       		.byte	0x0
 3778 01c2 11       		.uleb128 0x11
 3779 01c3 00000000 		.4byte	.LASF48
 3780 01c7 01       		.byte	0x1
 3781 01c8 8C01     		.2byte	0x18c
 3782 01ca 01       		.byte	0x1
 3783 01cb 01       		.byte	0x1
 3784 01cc 09       		.uleb128 0x9
 3785 01cd 07020000 		.4byte	0x207
 3786 01d1 01       		.byte	0x1
 3787 01d2 9F000000 		.4byte	.LASF16
 3788 01d6 01       		.byte	0x1
 3789 01d7 CF01     		.2byte	0x1cf
 3790 01d9 01       		.byte	0x1
 3791 01da 50010000 		.4byte	.LFB15
 3792 01de B4010000 		.4byte	.LFE15
 3793 01e2 7C010000 		.4byte	.LLST15
 3794 01e6 0A       		.uleb128 0xa
 3795 01e7 8D010000 		.4byte	.LASF11
 3796 01eb 01       		.byte	0x1
 3797 01ec CE01     		.2byte	0x1ce
 3798 01ee 25000000 		.4byte	0x25
 3799 01f2 9B010000 		.4byte	.LLST16
 3800 01f6 12       		.uleb128 0x12
 3801 01f7 C2010000 		.4byte	0x1c2
 3802 01fb 5A010000 		.4byte	.LBB5
 3803 01ff 74010000 		.4byte	.LBE5
 3804 0203 01       		.byte	0x1
 3805 0204 D101     		.2byte	0x1d1
 3806 0206 00       		.byte	0x0
 3807 0207 09       		.uleb128 0x9
 3808 0208 30020000 		.4byte	0x230
 3809 020c 01       		.byte	0x1
ARM GAS  /cygdrive/c/Users/embedded/AppData/Local/Temp/ccWfuIiM.s 			page 77


 3810 020d 44010000 		.4byte	.LASF17
 3811 0211 01       		.byte	0x1
 3812 0212 EA01     		.2byte	0x1ea
 3813 0214 01       		.byte	0x1
 3814 0215 B4010000 		.4byte	.LFB16
 3815 0219 CC010000 		.4byte	.LFE16
 3816 021d C4010000 		.4byte	.LLST17
 3817 0221 0C       		.uleb128 0xc
 3818 0222 7300     		.ascii	"s\000"
 3819 0224 01       		.byte	0x1
 3820 0225 E901     		.2byte	0x1e9
 3821 0227 30020000 		.4byte	0x230
 3822 022b E3010000 		.4byte	.LLST18
 3823 022f 00       		.byte	0x0
 3824 0230 13       		.uleb128 0x13
 3825 0231 04       		.byte	0x4
 3826 0232 36020000 		.4byte	0x236
 3827 0236 03       		.uleb128 0x3
 3828 0237 7A010000 		.4byte	.LASF18
 3829 023b 01       		.byte	0x1
 3830 023c 08       		.byte	0x8
 3831 023d 09       		.uleb128 0x9
 3832 023e 94020000 		.4byte	0x294
 3833 0242 01       		.byte	0x1
 3834 0243 1D000000 		.4byte	.LASF19
 3835 0247 01       		.byte	0x1
 3836 0248 6401     		.2byte	0x164
 3837 024a 01       		.byte	0x1
 3838 024b CC010000 		.4byte	.LFB11
 3839 024f FC010000 		.4byte	.LFE11
 3840 0253 01020000 		.4byte	.LLST19
 3841 0257 0C       		.uleb128 0xc
 3842 0258 787000   		.ascii	"xp\000"
 3843 025b 01       		.byte	0x1
 3844 025c 6301     		.2byte	0x163
 3845 025e 25000000 		.4byte	0x25
 3846 0262 20020000 		.4byte	.LLST20
 3847 0266 0C       		.uleb128 0xc
 3848 0267 797000   		.ascii	"yp\000"
 3849 026a 01       		.byte	0x1
 3850 026b 6301     		.2byte	0x163
 3851 026d 25000000 		.4byte	0x25
 3852 0271 3E020000 		.4byte	.LLST21
 3853 0275 0C       		.uleb128 0xc
 3854 0276 786500   		.ascii	"xe\000"
 3855 0279 01       		.byte	0x1
 3856 027a 6301     		.2byte	0x163
 3857 027c 25000000 		.4byte	0x25
 3858 0280 5C020000 		.4byte	.LLST22
 3859 0284 0C       		.uleb128 0xc
 3860 0285 796500   		.ascii	"ye\000"
 3861 0288 01       		.byte	0x1
 3862 0289 6301     		.2byte	0x163
 3863 028b 25000000 		.4byte	0x25
 3864 028f 7A020000 		.4byte	.LLST23
 3865 0293 00       		.byte	0x0
 3866 0294 09       		.uleb128 0x9
ARM GAS  /cygdrive/c/Users/embedded/AppData/Local/Temp/ccWfuIiM.s 			page 78


 3867 0295 CB020000 		.4byte	0x2cb
 3868 0299 01       		.byte	0x1
 3869 029a E9000000 		.4byte	.LASF20
 3870 029e 01       		.byte	0x1
 3871 029f 5301     		.2byte	0x153
 3872 02a1 01       		.byte	0x1
 3873 02a2 FC010000 		.4byte	.LFB10
 3874 02a6 24020000 		.4byte	.LFE10
 3875 02aa 98020000 		.4byte	.LLST24
 3876 02ae 0C       		.uleb128 0xc
 3877 02af 7800     		.ascii	"x\000"
 3878 02b1 01       		.byte	0x1
 3879 02b2 5201     		.2byte	0x152
 3880 02b4 25000000 		.4byte	0x25
 3881 02b8 B7020000 		.4byte	.LLST25
 3882 02bc 0C       		.uleb128 0xc
 3883 02bd 7900     		.ascii	"y\000"
 3884 02bf 01       		.byte	0x1
 3885 02c0 5201     		.2byte	0x152
 3886 02c2 25000000 		.4byte	0x25
 3887 02c6 D5020000 		.4byte	.LLST26
 3888 02ca 00       		.byte	0x0
 3889 02cb 09       		.uleb128 0x9
 3890 02cc 7D030000 		.4byte	0x37d
 3891 02d0 01       		.byte	0x1
 3892 02d1 15000000 		.4byte	.LASF21
 3893 02d5 01       		.byte	0x1
 3894 02d6 2201     		.2byte	0x122
 3895 02d8 01       		.byte	0x1
 3896 02d9 24020000 		.4byte	.LFB9
 3897 02dd D4020000 		.4byte	.LFE9
 3898 02e1 F3020000 		.4byte	.LLST27
 3899 02e5 0C       		.uleb128 0xc
 3900 02e6 7800     		.ascii	"x\000"
 3901 02e8 01       		.byte	0x1
 3902 02e9 2101     		.2byte	0x121
 3903 02eb 25000000 		.4byte	0x25
 3904 02ef 1E030000 		.4byte	.LLST28
 3905 02f3 0C       		.uleb128 0xc
 3906 02f4 7900     		.ascii	"y\000"
 3907 02f6 01       		.byte	0x1
 3908 02f7 2101     		.2byte	0x121
 3909 02f9 25000000 		.4byte	0x25
 3910 02fd 52030000 		.4byte	.LLST29
 3911 0301 0A       		.uleb128 0xa
 3912 0302 BE010000 		.4byte	.LASF22
 3913 0306 01       		.byte	0x1
 3914 0307 2101     		.2byte	0x121
 3915 0309 25000000 		.4byte	0x25
 3916 030d 86030000 		.4byte	.LLST30
 3917 0311 0A       		.uleb128 0xa
 3918 0312 88010000 		.4byte	.LASF23
 3919 0316 01       		.byte	0x1
 3920 0317 2101     		.2byte	0x121
 3921 0319 25000000 		.4byte	0x25
 3922 031d A5030000 		.4byte	.LLST31
 3923 0321 0A       		.uleb128 0xa
ARM GAS  /cygdrive/c/Users/embedded/AppData/Local/Temp/ccWfuIiM.s 			page 79


 3924 0322 59010000 		.4byte	.LASF24
 3925 0326 01       		.byte	0x1
 3926 0327 2101     		.2byte	0x121
 3927 0329 25000000 		.4byte	0x25
 3928 032d CE030000 		.4byte	.LLST32
 3929 0331 0A       		.uleb128 0xa
 3930 0332 CF000000 		.4byte	.LASF25
 3931 0336 01       		.byte	0x1
 3932 0337 2101     		.2byte	0x121
 3933 0339 25000000 		.4byte	0x25
 3934 033d EE030000 		.4byte	.LLST33
 3935 0341 0A       		.uleb128 0xa
 3936 0342 41000000 		.4byte	.LASF26
 3937 0346 01       		.byte	0x1
 3938 0347 2101     		.2byte	0x121
 3939 0349 7D030000 		.4byte	0x37d
 3940 034d 0E040000 		.4byte	.LLST34
 3941 0351 0F       		.uleb128 0xf
 3942 0352 6900     		.ascii	"i\000"
 3943 0354 01       		.byte	0x1
 3944 0355 2301     		.2byte	0x123
 3945 0357 3E000000 		.4byte	0x3e
 3946 035b 5B040000 		.4byte	.LLST35
 3947 035f 14       		.uleb128 0x14
 3948 0360 6A00     		.ascii	"j\000"
 3949 0362 01       		.byte	0x1
 3950 0363 2301     		.2byte	0x123
 3951 0365 3E000000 		.4byte	0x3e
 3952 0369 02       		.byte	0x2
 3953 036a 91       		.byte	0x91
 3954 036b 7C       		.sleb128 -4
 3955 036c 0F       		.uleb128 0xf
 3956 036d 6C656E00 		.ascii	"len\000"
 3957 0371 01       		.byte	0x1
 3958 0372 2401     		.2byte	0x124
 3959 0374 5E000000 		.4byte	0x5e
 3960 0378 79040000 		.4byte	.LLST36
 3961 037c 00       		.byte	0x0
 3962 037d 13       		.uleb128 0x13
 3963 037e 04       		.byte	0x4
 3964 037f 83030000 		.4byte	0x383
 3965 0383 15       		.uleb128 0x15
 3966 0384 25000000 		.4byte	0x25
 3967 0388 16       		.uleb128 0x16
 3968 0389 21040000 		.4byte	0x421
 3969 038d 01       		.byte	0x1
 3970 038e AA000000 		.4byte	.LASF27
 3971 0392 01       		.byte	0x1
 3972 0393 F7       		.byte	0xf7
 3973 0394 01       		.byte	0x1
 3974 0395 D4020000 		.4byte	.LFB8
 3975 0399 84030000 		.4byte	.LFE8
 3976 039d 8C040000 		.4byte	.LLST37
 3977 03a1 17       		.uleb128 0x17
 3978 03a2 7800     		.ascii	"x\000"
 3979 03a4 01       		.byte	0x1
 3980 03a5 F6       		.byte	0xf6
ARM GAS  /cygdrive/c/Users/embedded/AppData/Local/Temp/ccWfuIiM.s 			page 80


 3981 03a6 25000000 		.4byte	0x25
 3982 03aa B7040000 		.4byte	.LLST38
 3983 03ae 17       		.uleb128 0x17
 3984 03af 7900     		.ascii	"y\000"
 3985 03b1 01       		.byte	0x1
 3986 03b2 F6       		.byte	0xf6
 3987 03b3 25000000 		.4byte	0x25
 3988 03b7 E0040000 		.4byte	.LLST39
 3989 03bb 18       		.uleb128 0x18
 3990 03bc BE010000 		.4byte	.LASF22
 3991 03c0 01       		.byte	0x1
 3992 03c1 F6       		.byte	0xf6
 3993 03c2 25000000 		.4byte	0x25
 3994 03c6 09050000 		.4byte	.LLST40
 3995 03ca 18       		.uleb128 0x18
 3996 03cb 88010000 		.4byte	.LASF23
 3997 03cf 01       		.byte	0x1
 3998 03d0 F6       		.byte	0xf6
 3999 03d1 25000000 		.4byte	0x25
 4000 03d5 27050000 		.4byte	.LLST41
 4001 03d9 18       		.uleb128 0x18
 4002 03da A9010000 		.4byte	.LASF28
 4003 03de 01       		.byte	0x1
 4004 03df F6       		.byte	0xf6
 4005 03e0 25000000 		.4byte	0x25
 4006 03e4 46050000 		.4byte	.LLST42
 4007 03e8 18       		.uleb128 0x18
 4008 03e9 B0010000 		.4byte	.LASF29
 4009 03ed 01       		.byte	0x1
 4010 03ee F6       		.byte	0xf6
 4011 03ef 25000000 		.4byte	0x25
 4012 03f3 66050000 		.4byte	.LLST43
 4013 03f7 18       		.uleb128 0x18
 4014 03f8 B7010000 		.4byte	.LASF30
 4015 03fc 01       		.byte	0x1
 4016 03fd F6       		.byte	0xf6
 4017 03fe 25000000 		.4byte	0x25
 4018 0402 86050000 		.4byte	.LLST44
 4019 0406 19       		.uleb128 0x19
 4020 0407 6900     		.ascii	"i\000"
 4021 0409 01       		.byte	0x1
 4022 040a F8       		.byte	0xf8
 4023 040b 3E000000 		.4byte	0x3e
 4024 040f B1050000 		.4byte	.LLST45
 4025 0413 19       		.uleb128 0x19
 4026 0414 6A00     		.ascii	"j\000"
 4027 0416 01       		.byte	0x1
 4028 0417 F8       		.byte	0xf8
 4029 0418 3E000000 		.4byte	0x3e
 4030 041c DA050000 		.4byte	.LLST46
 4031 0420 00       		.byte	0x0
 4032 0421 16       		.uleb128 0x16
 4033 0422 9E040000 		.4byte	0x49e
 4034 0426 01       		.byte	0x1
 4035 0427 D2010000 		.4byte	.LASF31
 4036 042b 01       		.byte	0x1
 4037 042c DA       		.byte	0xda
ARM GAS  /cygdrive/c/Users/embedded/AppData/Local/Temp/ccWfuIiM.s 			page 81


 4038 042d 01       		.byte	0x1
 4039 042e 84030000 		.4byte	.LFB7
 4040 0432 E6030000 		.4byte	.LFE7
 4041 0436 ED050000 		.4byte	.LLST47
 4042 043a 17       		.uleb128 0x17
 4043 043b 7800     		.ascii	"x\000"
 4044 043d 01       		.byte	0x1
 4045 043e D9       		.byte	0xd9
 4046 043f 25000000 		.4byte	0x25
 4047 0443 18060000 		.4byte	.LLST48
 4048 0447 17       		.uleb128 0x17
 4049 0448 7900     		.ascii	"y\000"
 4050 044a 01       		.byte	0x1
 4051 044b D9       		.byte	0xd9
 4052 044c 25000000 		.4byte	0x25
 4053 0450 36060000 		.4byte	.LLST49
 4054 0454 18       		.uleb128 0x18
 4055 0455 BE010000 		.4byte	.LASF22
 4056 0459 01       		.byte	0x1
 4057 045a D9       		.byte	0xd9
 4058 045b 25000000 		.4byte	0x25
 4059 045f 54060000 		.4byte	.LLST50
 4060 0463 18       		.uleb128 0x18
 4061 0464 88010000 		.4byte	.LASF23
 4062 0468 01       		.byte	0x1
 4063 0469 D9       		.byte	0xd9
 4064 046a 25000000 		.4byte	0x25
 4065 046e 72060000 		.4byte	.LLST51
 4066 0472 18       		.uleb128 0x18
 4067 0473 51000000 		.4byte	.LASF32
 4068 0477 01       		.byte	0x1
 4069 0478 D9       		.byte	0xd9
 4070 0479 25000000 		.4byte	0x25
 4071 047d 9B060000 		.4byte	.LLST52
 4072 0481 19       		.uleb128 0x19
 4073 0482 6900     		.ascii	"i\000"
 4074 0484 01       		.byte	0x1
 4075 0485 DB       		.byte	0xdb
 4076 0486 3E000000 		.4byte	0x3e
 4077 048a BB060000 		.4byte	.LLST53
 4078 048e 19       		.uleb128 0x19
 4079 048f 6C656E00 		.ascii	"len\000"
 4080 0493 01       		.byte	0x1
 4081 0494 DC       		.byte	0xdc
 4082 0495 3E000000 		.4byte	0x3e
 4083 0499 CE060000 		.4byte	.LLST54
 4084 049d 00       		.byte	0x0
 4085 049e 16       		.uleb128 0x16
 4086 049f C7040000 		.4byte	0x4c7
 4087 04a3 01       		.byte	0x1
 4088 04a4 8B000000 		.4byte	.LASF33
 4089 04a8 01       		.byte	0x1
 4090 04a9 C5       		.byte	0xc5
 4091 04aa 01       		.byte	0x1
 4092 04ab E8030000 		.4byte	.LFB6
 4093 04af 0C040000 		.4byte	.LFE6
 4094 04b3 E1060000 		.4byte	.LLST55
ARM GAS  /cygdrive/c/Users/embedded/AppData/Local/Temp/ccWfuIiM.s 			page 82


 4095 04b7 18       		.uleb128 0x18
 4096 04b8 92010000 		.4byte	.LASF34
 4097 04bc 01       		.byte	0x1
 4098 04bd C4       		.byte	0xc4
 4099 04be 25000000 		.4byte	0x25
 4100 04c2 00070000 		.4byte	.LLST56
 4101 04c6 00       		.byte	0x0
 4102 04c7 16       		.uleb128 0x16
 4103 04c8 EE040000 		.4byte	0x4ee
 4104 04cc 01       		.byte	0x1
 4105 04cd 28010000 		.4byte	.LASF35
 4106 04d1 01       		.byte	0x1
 4107 04d2 85       		.byte	0x85
 4108 04d3 01       		.byte	0x1
 4109 04d4 0C040000 		.4byte	.LFB3
 4110 04d8 60040000 		.4byte	.LFE3
 4111 04dc 1E070000 		.4byte	.LLST57
 4112 04e0 19       		.uleb128 0x19
 4113 04e1 6900     		.ascii	"i\000"
 4114 04e3 01       		.byte	0x1
 4115 04e4 86       		.byte	0x86
 4116 04e5 3E000000 		.4byte	0x3e
 4117 04e9 3D070000 		.4byte	.LLST58
 4118 04ed 00       		.byte	0x0
 4119 04ee 1A       		.uleb128 0x1a
 4120 04ef 01       		.byte	0x1
 4121 04f0 84000000 		.4byte	.LASF36
 4122 04f4 01       		.byte	0x1
 4123 04f5 A2       		.byte	0xa2
 4124 04f6 01       		.byte	0x1
 4125 04f7 60040000 		.4byte	.LFB4
 4126 04fb 7C040000 		.4byte	.LFE4
 4127 04ff 50070000 		.4byte	.LLST59
 4128 0503 1A       		.uleb128 0x1a
 4129 0504 01       		.byte	0x1
 4130 0505 72000000 		.4byte	.LASF37
 4131 0509 01       		.byte	0x1
 4132 050a 46       		.byte	0x46
 4133 050b 01       		.byte	0x1
 4134 050c 7C040000 		.4byte	.LFB2
 4135 0510 70050000 		.4byte	.LFE2
 4136 0514 6F070000 		.4byte	.LLST60
 4137 0518 1B       		.uleb128 0x1b
 4138 0519 CC010000 		.4byte	.LASF38
 4139 051d 01       		.byte	0x1
 4140 051e 30       		.byte	0x30
 4141 051f 25000000 		.4byte	0x25
 4142 0523 05       		.byte	0x5
 4143 0524 03       		.byte	0x3
 4144 0525 00000000 		.4byte	lcd_x
 4145 0529 1B       		.uleb128 0x1b
 4146 052a B5000000 		.4byte	.LASF39
 4147 052e 01       		.byte	0x1
 4148 052f 31       		.byte	0x31
 4149 0530 25000000 		.4byte	0x25
 4150 0534 05       		.byte	0x5
 4151 0535 03       		.byte	0x3
ARM GAS  /cygdrive/c/Users/embedded/AppData/Local/Temp/ccWfuIiM.s 			page 83


 4152 0536 01000000 		.4byte	lcd_y
 4153 053a 1B       		.uleb128 0x1b
 4154 053b 2C000000 		.4byte	.LASF40
 4155 053f 01       		.byte	0x1
 4156 0540 32       		.byte	0x32
 4157 0541 25000000 		.4byte	0x25
 4158 0545 05       		.byte	0x5
 4159 0546 03       		.byte	0x3
 4160 0547 02000000 		.4byte	bkgColor
 4161 054b 1B       		.uleb128 0x1b
 4162 054c 0B000000 		.4byte	.LASF41
 4163 0550 01       		.byte	0x1
 4164 0551 33       		.byte	0x33
 4165 0552 25000000 		.4byte	0x25
 4166 0556 05       		.byte	0x5
 4167 0557 03       		.byte	0x3
 4168 0558 03000000 		.4byte	textColor
 4169 055c 1B       		.uleb128 0x1b
 4170 055d 57000000 		.4byte	.LASF42
 4171 0561 01       		.byte	0x1
 4172 0562 34       		.byte	0x34
 4173 0563 25000000 		.4byte	0x25
 4174 0567 05       		.byte	0x5
 4175 0568 03       		.byte	0x3
 4176 0569 04000000 		.4byte	setcolmark
 4177 056d 1C       		.uleb128 0x1c
 4178 056e 7E050000 		.4byte	0x57e
 4179 0572 25000000 		.4byte	0x25
 4180 0576 1D       		.uleb128 0x1d
 4181 0577 70000000 		.4byte	0x70
 4182 057b 5B05     		.2byte	0x55b
 4183 057d 00       		.byte	0x0
 4184 057e 1E       		.uleb128 0x1e
 4185 057f C7000000 		.4byte	.LASF43
 4186 0583 03       		.byte	0x3
 4187 0584 01       		.byte	0x1
 4188 0585 90050000 		.4byte	0x590
 4189 0589 01       		.byte	0x1
 4190 058a 05       		.byte	0x5
 4191 058b 03       		.byte	0x3
 4192 058c 00000000 		.4byte	charMap
 4193 0590 15       		.uleb128 0x15
 4194 0591 6D050000 		.4byte	0x56d
 4195 0595 00       		.byte	0x0
 4196              		.section	.debug_abbrev
 4197 0000 01       		.uleb128 0x1
 4198 0001 11       		.uleb128 0x11
 4199 0002 01       		.byte	0x1
 4200 0003 10       		.uleb128 0x10
 4201 0004 06       		.uleb128 0x6
 4202 0005 12       		.uleb128 0x12
 4203 0006 01       		.uleb128 0x1
 4204 0007 11       		.uleb128 0x11
 4205 0008 01       		.uleb128 0x1
 4206 0009 25       		.uleb128 0x25
 4207 000a 0E       		.uleb128 0xe
 4208 000b 13       		.uleb128 0x13
ARM GAS  /cygdrive/c/Users/embedded/AppData/Local/Temp/ccWfuIiM.s 			page 84


 4209 000c 0B       		.uleb128 0xb
 4210 000d 03       		.uleb128 0x3
 4211 000e 0E       		.uleb128 0xe
 4212 000f 1B       		.uleb128 0x1b
 4213 0010 0E       		.uleb128 0xe
 4214 0011 00       		.byte	0x0
 4215 0012 00       		.byte	0x0
 4216 0013 02       		.uleb128 0x2
 4217 0014 16       		.uleb128 0x16
 4218 0015 00       		.byte	0x0
 4219 0016 03       		.uleb128 0x3
 4220 0017 08       		.uleb128 0x8
 4221 0018 3A       		.uleb128 0x3a
 4222 0019 0B       		.uleb128 0xb
 4223 001a 3B       		.uleb128 0x3b
 4224 001b 0B       		.uleb128 0xb
 4225 001c 49       		.uleb128 0x49
 4226 001d 13       		.uleb128 0x13
 4227 001e 00       		.byte	0x0
 4228 001f 00       		.byte	0x0
 4229 0020 03       		.uleb128 0x3
 4230 0021 24       		.uleb128 0x24
 4231 0022 00       		.byte	0x0
 4232 0023 03       		.uleb128 0x3
 4233 0024 0E       		.uleb128 0xe
 4234 0025 0B       		.uleb128 0xb
 4235 0026 0B       		.uleb128 0xb
 4236 0027 3E       		.uleb128 0x3e
 4237 0028 0B       		.uleb128 0xb
 4238 0029 00       		.byte	0x0
 4239 002a 00       		.byte	0x0
 4240 002b 04       		.uleb128 0x4
 4241 002c 16       		.uleb128 0x16
 4242 002d 00       		.byte	0x0
 4243 002e 03       		.uleb128 0x3
 4244 002f 0E       		.uleb128 0xe
 4245 0030 3A       		.uleb128 0x3a
 4246 0031 0B       		.uleb128 0xb
 4247 0032 3B       		.uleb128 0x3b
 4248 0033 0B       		.uleb128 0xb
 4249 0034 49       		.uleb128 0x49
 4250 0035 13       		.uleb128 0x13
 4251 0036 00       		.byte	0x0
 4252 0037 00       		.byte	0x0
 4253 0038 05       		.uleb128 0x5
 4254 0039 24       		.uleb128 0x24
 4255 003a 00       		.byte	0x0
 4256 003b 03       		.uleb128 0x3
 4257 003c 08       		.uleb128 0x8
 4258 003d 0B       		.uleb128 0xb
 4259 003e 0B       		.uleb128 0xb
 4260 003f 3E       		.uleb128 0x3e
 4261 0040 0B       		.uleb128 0xb
 4262 0041 00       		.byte	0x0
 4263 0042 00       		.byte	0x0
 4264 0043 06       		.uleb128 0x6
 4265 0044 2E       		.uleb128 0x2e
ARM GAS  /cygdrive/c/Users/embedded/AppData/Local/Temp/ccWfuIiM.s 			page 85


 4266 0045 01       		.byte	0x1
 4267 0046 01       		.uleb128 0x1
 4268 0047 13       		.uleb128 0x13
 4269 0048 3F       		.uleb128 0x3f
 4270 0049 0C       		.uleb128 0xc
 4271 004a 03       		.uleb128 0x3
 4272 004b 0E       		.uleb128 0xe
 4273 004c 3A       		.uleb128 0x3a
 4274 004d 0B       		.uleb128 0xb
 4275 004e 3B       		.uleb128 0x3b
 4276 004f 0B       		.uleb128 0xb
 4277 0050 27       		.uleb128 0x27
 4278 0051 0C       		.uleb128 0xc
 4279 0052 11       		.uleb128 0x11
 4280 0053 01       		.uleb128 0x1
 4281 0054 12       		.uleb128 0x12
 4282 0055 01       		.uleb128 0x1
 4283 0056 40       		.uleb128 0x40
 4284 0057 0A       		.uleb128 0xa
 4285 0058 00       		.byte	0x0
 4286 0059 00       		.byte	0x0
 4287 005a 07       		.uleb128 0x7
 4288 005b 05       		.uleb128 0x5
 4289 005c 00       		.byte	0x0
 4290 005d 03       		.uleb128 0x3
 4291 005e 08       		.uleb128 0x8
 4292 005f 3A       		.uleb128 0x3a
 4293 0060 0B       		.uleb128 0xb
 4294 0061 3B       		.uleb128 0x3b
 4295 0062 0B       		.uleb128 0xb
 4296 0063 49       		.uleb128 0x49
 4297 0064 13       		.uleb128 0x13
 4298 0065 02       		.uleb128 0x2
 4299 0066 0A       		.uleb128 0xa
 4300 0067 00       		.byte	0x0
 4301 0068 00       		.byte	0x0
 4302 0069 08       		.uleb128 0x8
 4303 006a 05       		.uleb128 0x5
 4304 006b 00       		.byte	0x0
 4305 006c 03       		.uleb128 0x3
 4306 006d 0E       		.uleb128 0xe
 4307 006e 3A       		.uleb128 0x3a
 4308 006f 0B       		.uleb128 0xb
 4309 0070 3B       		.uleb128 0x3b
 4310 0071 0B       		.uleb128 0xb
 4311 0072 49       		.uleb128 0x49
 4312 0073 13       		.uleb128 0x13
 4313 0074 02       		.uleb128 0x2
 4314 0075 0A       		.uleb128 0xa
 4315 0076 00       		.byte	0x0
 4316 0077 00       		.byte	0x0
 4317 0078 09       		.uleb128 0x9
 4318 0079 2E       		.uleb128 0x2e
 4319 007a 01       		.byte	0x1
 4320 007b 01       		.uleb128 0x1
 4321 007c 13       		.uleb128 0x13
 4322 007d 3F       		.uleb128 0x3f
ARM GAS  /cygdrive/c/Users/embedded/AppData/Local/Temp/ccWfuIiM.s 			page 86


 4323 007e 0C       		.uleb128 0xc
 4324 007f 03       		.uleb128 0x3
 4325 0080 0E       		.uleb128 0xe
 4326 0081 3A       		.uleb128 0x3a
 4327 0082 0B       		.uleb128 0xb
 4328 0083 3B       		.uleb128 0x3b
 4329 0084 05       		.uleb128 0x5
 4330 0085 27       		.uleb128 0x27
 4331 0086 0C       		.uleb128 0xc
 4332 0087 11       		.uleb128 0x11
 4333 0088 01       		.uleb128 0x1
 4334 0089 12       		.uleb128 0x12
 4335 008a 01       		.uleb128 0x1
 4336 008b 40       		.uleb128 0x40
 4337 008c 06       		.uleb128 0x6
 4338 008d 00       		.byte	0x0
 4339 008e 00       		.byte	0x0
 4340 008f 0A       		.uleb128 0xa
 4341 0090 05       		.uleb128 0x5
 4342 0091 00       		.byte	0x0
 4343 0092 03       		.uleb128 0x3
 4344 0093 0E       		.uleb128 0xe
 4345 0094 3A       		.uleb128 0x3a
 4346 0095 0B       		.uleb128 0xb
 4347 0096 3B       		.uleb128 0x3b
 4348 0097 05       		.uleb128 0x5
 4349 0098 49       		.uleb128 0x49
 4350 0099 13       		.uleb128 0x13
 4351 009a 02       		.uleb128 0x2
 4352 009b 06       		.uleb128 0x6
 4353 009c 00       		.byte	0x0
 4354 009d 00       		.byte	0x0
 4355 009e 0B       		.uleb128 0xb
 4356 009f 2E       		.uleb128 0x2e
 4357 00a0 01       		.byte	0x1
 4358 00a1 01       		.uleb128 0x1
 4359 00a2 13       		.uleb128 0x13
 4360 00a3 03       		.uleb128 0x3
 4361 00a4 0E       		.uleb128 0xe
 4362 00a5 3A       		.uleb128 0x3a
 4363 00a6 0B       		.uleb128 0xb
 4364 00a7 3B       		.uleb128 0x3b
 4365 00a8 05       		.uleb128 0x5
 4366 00a9 27       		.uleb128 0x27
 4367 00aa 0C       		.uleb128 0xc
 4368 00ab 11       		.uleb128 0x11
 4369 00ac 01       		.uleb128 0x1
 4370 00ad 12       		.uleb128 0x12
 4371 00ae 01       		.uleb128 0x1
 4372 00af 40       		.uleb128 0x40
 4373 00b0 06       		.uleb128 0x6
 4374 00b1 00       		.byte	0x0
 4375 00b2 00       		.byte	0x0
 4376 00b3 0C       		.uleb128 0xc
 4377 00b4 05       		.uleb128 0x5
 4378 00b5 00       		.byte	0x0
 4379 00b6 03       		.uleb128 0x3
ARM GAS  /cygdrive/c/Users/embedded/AppData/Local/Temp/ccWfuIiM.s 			page 87


 4380 00b7 08       		.uleb128 0x8
 4381 00b8 3A       		.uleb128 0x3a
 4382 00b9 0B       		.uleb128 0xb
 4383 00ba 3B       		.uleb128 0x3b
 4384 00bb 05       		.uleb128 0x5
 4385 00bc 49       		.uleb128 0x49
 4386 00bd 13       		.uleb128 0x13
 4387 00be 02       		.uleb128 0x2
 4388 00bf 06       		.uleb128 0x6
 4389 00c0 00       		.byte	0x0
 4390 00c1 00       		.byte	0x0
 4391 00c2 0D       		.uleb128 0xd
 4392 00c3 0B       		.uleb128 0xb
 4393 00c4 01       		.byte	0x1
 4394 00c5 11       		.uleb128 0x11
 4395 00c6 01       		.uleb128 0x1
 4396 00c7 12       		.uleb128 0x12
 4397 00c8 01       		.uleb128 0x1
 4398 00c9 00       		.byte	0x0
 4399 00ca 00       		.byte	0x0
 4400 00cb 0E       		.uleb128 0xe
 4401 00cc 34       		.uleb128 0x34
 4402 00cd 00       		.byte	0x0
 4403 00ce 03       		.uleb128 0x3
 4404 00cf 0E       		.uleb128 0xe
 4405 00d0 3A       		.uleb128 0x3a
 4406 00d1 0B       		.uleb128 0xb
 4407 00d2 3B       		.uleb128 0x3b
 4408 00d3 05       		.uleb128 0x5
 4409 00d4 49       		.uleb128 0x49
 4410 00d5 13       		.uleb128 0x13
 4411 00d6 00       		.byte	0x0
 4412 00d7 00       		.byte	0x0
 4413 00d8 0F       		.uleb128 0xf
 4414 00d9 34       		.uleb128 0x34
 4415 00da 00       		.byte	0x0
 4416 00db 03       		.uleb128 0x3
 4417 00dc 08       		.uleb128 0x8
 4418 00dd 3A       		.uleb128 0x3a
 4419 00de 0B       		.uleb128 0xb
 4420 00df 3B       		.uleb128 0x3b
 4421 00e0 05       		.uleb128 0x5
 4422 00e1 49       		.uleb128 0x49
 4423 00e2 13       		.uleb128 0x13
 4424 00e3 02       		.uleb128 0x2
 4425 00e4 06       		.uleb128 0x6
 4426 00e5 00       		.byte	0x0
 4427 00e6 00       		.byte	0x0
 4428 00e7 10       		.uleb128 0x10
 4429 00e8 34       		.uleb128 0x34
 4430 00e9 00       		.byte	0x0
 4431 00ea 03       		.uleb128 0x3
 4432 00eb 0E       		.uleb128 0xe
 4433 00ec 3A       		.uleb128 0x3a
 4434 00ed 0B       		.uleb128 0xb
 4435 00ee 3B       		.uleb128 0x3b
 4436 00ef 05       		.uleb128 0x5
ARM GAS  /cygdrive/c/Users/embedded/AppData/Local/Temp/ccWfuIiM.s 			page 88


 4437 00f0 49       		.uleb128 0x49
 4438 00f1 13       		.uleb128 0x13
 4439 00f2 02       		.uleb128 0x2
 4440 00f3 06       		.uleb128 0x6
 4441 00f4 00       		.byte	0x0
 4442 00f5 00       		.byte	0x0
 4443 00f6 11       		.uleb128 0x11
 4444 00f7 2E       		.uleb128 0x2e
 4445 00f8 00       		.byte	0x0
 4446 00f9 03       		.uleb128 0x3
 4447 00fa 0E       		.uleb128 0xe
 4448 00fb 3A       		.uleb128 0x3a
 4449 00fc 0B       		.uleb128 0xb
 4450 00fd 3B       		.uleb128 0x3b
 4451 00fe 05       		.uleb128 0x5
 4452 00ff 27       		.uleb128 0x27
 4453 0100 0C       		.uleb128 0xc
 4454 0101 20       		.uleb128 0x20
 4455 0102 0B       		.uleb128 0xb
 4456 0103 00       		.byte	0x0
 4457 0104 00       		.byte	0x0
 4458 0105 12       		.uleb128 0x12
 4459 0106 1D       		.uleb128 0x1d
 4460 0107 00       		.byte	0x0
 4461 0108 31       		.uleb128 0x31
 4462 0109 13       		.uleb128 0x13
 4463 010a 11       		.uleb128 0x11
 4464 010b 01       		.uleb128 0x1
 4465 010c 12       		.uleb128 0x12
 4466 010d 01       		.uleb128 0x1
 4467 010e 58       		.uleb128 0x58
 4468 010f 0B       		.uleb128 0xb
 4469 0110 59       		.uleb128 0x59
 4470 0111 05       		.uleb128 0x5
 4471 0112 00       		.byte	0x0
 4472 0113 00       		.byte	0x0
 4473 0114 13       		.uleb128 0x13
 4474 0115 0F       		.uleb128 0xf
 4475 0116 00       		.byte	0x0
 4476 0117 0B       		.uleb128 0xb
 4477 0118 0B       		.uleb128 0xb
 4478 0119 49       		.uleb128 0x49
 4479 011a 13       		.uleb128 0x13
 4480 011b 00       		.byte	0x0
 4481 011c 00       		.byte	0x0
 4482 011d 14       		.uleb128 0x14
 4483 011e 34       		.uleb128 0x34
 4484 011f 00       		.byte	0x0
 4485 0120 03       		.uleb128 0x3
 4486 0121 08       		.uleb128 0x8
 4487 0122 3A       		.uleb128 0x3a
 4488 0123 0B       		.uleb128 0xb
 4489 0124 3B       		.uleb128 0x3b
 4490 0125 05       		.uleb128 0x5
 4491 0126 49       		.uleb128 0x49
 4492 0127 13       		.uleb128 0x13
 4493 0128 02       		.uleb128 0x2
ARM GAS  /cygdrive/c/Users/embedded/AppData/Local/Temp/ccWfuIiM.s 			page 89


 4494 0129 0A       		.uleb128 0xa
 4495 012a 00       		.byte	0x0
 4496 012b 00       		.byte	0x0
 4497 012c 15       		.uleb128 0x15
 4498 012d 26       		.uleb128 0x26
 4499 012e 00       		.byte	0x0
 4500 012f 49       		.uleb128 0x49
 4501 0130 13       		.uleb128 0x13
 4502 0131 00       		.byte	0x0
 4503 0132 00       		.byte	0x0
 4504 0133 16       		.uleb128 0x16
 4505 0134 2E       		.uleb128 0x2e
 4506 0135 01       		.byte	0x1
 4507 0136 01       		.uleb128 0x1
 4508 0137 13       		.uleb128 0x13
 4509 0138 3F       		.uleb128 0x3f
 4510 0139 0C       		.uleb128 0xc
 4511 013a 03       		.uleb128 0x3
 4512 013b 0E       		.uleb128 0xe
 4513 013c 3A       		.uleb128 0x3a
 4514 013d 0B       		.uleb128 0xb
 4515 013e 3B       		.uleb128 0x3b
 4516 013f 0B       		.uleb128 0xb
 4517 0140 27       		.uleb128 0x27
 4518 0141 0C       		.uleb128 0xc
 4519 0142 11       		.uleb128 0x11
 4520 0143 01       		.uleb128 0x1
 4521 0144 12       		.uleb128 0x12
 4522 0145 01       		.uleb128 0x1
 4523 0146 40       		.uleb128 0x40
 4524 0147 06       		.uleb128 0x6
 4525 0148 00       		.byte	0x0
 4526 0149 00       		.byte	0x0
 4527 014a 17       		.uleb128 0x17
 4528 014b 05       		.uleb128 0x5
 4529 014c 00       		.byte	0x0
 4530 014d 03       		.uleb128 0x3
 4531 014e 08       		.uleb128 0x8
 4532 014f 3A       		.uleb128 0x3a
 4533 0150 0B       		.uleb128 0xb
 4534 0151 3B       		.uleb128 0x3b
 4535 0152 0B       		.uleb128 0xb
 4536 0153 49       		.uleb128 0x49
 4537 0154 13       		.uleb128 0x13
 4538 0155 02       		.uleb128 0x2
 4539 0156 06       		.uleb128 0x6
 4540 0157 00       		.byte	0x0
 4541 0158 00       		.byte	0x0
 4542 0159 18       		.uleb128 0x18
 4543 015a 05       		.uleb128 0x5
 4544 015b 00       		.byte	0x0
 4545 015c 03       		.uleb128 0x3
 4546 015d 0E       		.uleb128 0xe
 4547 015e 3A       		.uleb128 0x3a
 4548 015f 0B       		.uleb128 0xb
 4549 0160 3B       		.uleb128 0x3b
 4550 0161 0B       		.uleb128 0xb
ARM GAS  /cygdrive/c/Users/embedded/AppData/Local/Temp/ccWfuIiM.s 			page 90


 4551 0162 49       		.uleb128 0x49
 4552 0163 13       		.uleb128 0x13
 4553 0164 02       		.uleb128 0x2
 4554 0165 06       		.uleb128 0x6
 4555 0166 00       		.byte	0x0
 4556 0167 00       		.byte	0x0
 4557 0168 19       		.uleb128 0x19
 4558 0169 34       		.uleb128 0x34
 4559 016a 00       		.byte	0x0
 4560 016b 03       		.uleb128 0x3
 4561 016c 08       		.uleb128 0x8
 4562 016d 3A       		.uleb128 0x3a
 4563 016e 0B       		.uleb128 0xb
 4564 016f 3B       		.uleb128 0x3b
 4565 0170 0B       		.uleb128 0xb
 4566 0171 49       		.uleb128 0x49
 4567 0172 13       		.uleb128 0x13
 4568 0173 02       		.uleb128 0x2
 4569 0174 06       		.uleb128 0x6
 4570 0175 00       		.byte	0x0
 4571 0176 00       		.byte	0x0
 4572 0177 1A       		.uleb128 0x1a
 4573 0178 2E       		.uleb128 0x2e
 4574 0179 00       		.byte	0x0
 4575 017a 3F       		.uleb128 0x3f
 4576 017b 0C       		.uleb128 0xc
 4577 017c 03       		.uleb128 0x3
 4578 017d 0E       		.uleb128 0xe
 4579 017e 3A       		.uleb128 0x3a
 4580 017f 0B       		.uleb128 0xb
 4581 0180 3B       		.uleb128 0x3b
 4582 0181 0B       		.uleb128 0xb
 4583 0182 27       		.uleb128 0x27
 4584 0183 0C       		.uleb128 0xc
 4585 0184 11       		.uleb128 0x11
 4586 0185 01       		.uleb128 0x1
 4587 0186 12       		.uleb128 0x12
 4588 0187 01       		.uleb128 0x1
 4589 0188 40       		.uleb128 0x40
 4590 0189 06       		.uleb128 0x6
 4591 018a 00       		.byte	0x0
 4592 018b 00       		.byte	0x0
 4593 018c 1B       		.uleb128 0x1b
 4594 018d 34       		.uleb128 0x34
 4595 018e 00       		.byte	0x0
 4596 018f 03       		.uleb128 0x3
 4597 0190 0E       		.uleb128 0xe
 4598 0191 3A       		.uleb128 0x3a
 4599 0192 0B       		.uleb128 0xb
 4600 0193 3B       		.uleb128 0x3b
 4601 0194 0B       		.uleb128 0xb
 4602 0195 49       		.uleb128 0x49
 4603 0196 13       		.uleb128 0x13
 4604 0197 02       		.uleb128 0x2
 4605 0198 0A       		.uleb128 0xa
 4606 0199 00       		.byte	0x0
 4607 019a 00       		.byte	0x0
ARM GAS  /cygdrive/c/Users/embedded/AppData/Local/Temp/ccWfuIiM.s 			page 91


 4608 019b 1C       		.uleb128 0x1c
 4609 019c 01       		.uleb128 0x1
 4610 019d 01       		.byte	0x1
 4611 019e 01       		.uleb128 0x1
 4612 019f 13       		.uleb128 0x13
 4613 01a0 49       		.uleb128 0x49
 4614 01a1 13       		.uleb128 0x13
 4615 01a2 00       		.byte	0x0
 4616 01a3 00       		.byte	0x0
 4617 01a4 1D       		.uleb128 0x1d
 4618 01a5 21       		.uleb128 0x21
 4619 01a6 00       		.byte	0x0
 4620 01a7 49       		.uleb128 0x49
 4621 01a8 13       		.uleb128 0x13
 4622 01a9 2F       		.uleb128 0x2f
 4623 01aa 05       		.uleb128 0x5
 4624 01ab 00       		.byte	0x0
 4625 01ac 00       		.byte	0x0
 4626 01ad 1E       		.uleb128 0x1e
 4627 01ae 34       		.uleb128 0x34
 4628 01af 00       		.byte	0x0
 4629 01b0 03       		.uleb128 0x3
 4630 01b1 0E       		.uleb128 0xe
 4631 01b2 3A       		.uleb128 0x3a
 4632 01b3 0B       		.uleb128 0xb
 4633 01b4 3B       		.uleb128 0x3b
 4634 01b5 0B       		.uleb128 0xb
 4635 01b6 49       		.uleb128 0x49
 4636 01b7 13       		.uleb128 0x13
 4637 01b8 3F       		.uleb128 0x3f
 4638 01b9 0C       		.uleb128 0xc
 4639 01ba 02       		.uleb128 0x2
 4640 01bb 0A       		.uleb128 0xa
 4641 01bc 00       		.byte	0x0
 4642 01bd 00       		.byte	0x0
 4643 01be 00       		.byte	0x0
 4644              		.section	.debug_pubnames,"",%progbits
 4645 0000 E1000000 		.4byte	0xe1
 4646 0004 0200     		.2byte	0x2
 4647 0006 00000000 		.4byte	.Ldebug_info0
 4648 000a 96050000 		.4byte	0x596
 4649 000e 77000000 		.4byte	0x77
 4650 0012 6C636443 		.ascii	"lcdColor\000"
 4650      6F6C6F72 
 4650      00
 4651 001b A9000000 		.4byte	0xa9
 4652 001f 6C636457 		.ascii	"lcdWrdata\000"
 4652      72646174 
 4652      6100
 4653 0029 D4000000 		.4byte	0xd4
 4654 002d 6C636457 		.ascii	"lcdWrcmd\000"
 4654      72636D64 
 4654      00
 4655 0036 55010000 		.4byte	0x155
 4656 003a 6C636444 		.ascii	"lcdData\000"
 4656      61746100 
 4657 0042 CC010000 		.4byte	0x1cc
ARM GAS  /cygdrive/c/Users/embedded/AppData/Local/Temp/ccWfuIiM.s 			page 92


 4658 0046 6C636450 		.ascii	"lcdPutchar\000"
 4658      75746368 
 4658      617200
 4659 0051 07020000 		.4byte	0x207
 4660 0055 6C636450 		.ascii	"lcdPuts\000"
 4660      75747300 
 4661 005d 3D020000 		.4byte	0x23d
 4662 0061 6C636457 		.ascii	"lcdWindow\000"
 4662      696E646F 
 4662      7700
 4663 006b 94020000 		.4byte	0x294
 4664 006f 6C636447 		.ascii	"lcdGotoxy\000"
 4664      6F746F78 
 4664      7900
 4665 0079 CB020000 		.4byte	0x2cb
 4666 007d 6C636449 		.ascii	"lcdIcon\000"
 4666      636F6E00 
 4667 0085 88030000 		.4byte	0x388
 4668 0089 6C636452 		.ascii	"lcdRectBrd\000"
 4668      65637442 
 4668      726400
 4669 0094 21040000 		.4byte	0x421
 4670 0098 6C636452 		.ascii	"lcdRect\000"
 4670      65637400 
 4671 00a0 9E040000 		.4byte	0x49e
 4672 00a4 6C636443 		.ascii	"lcdContrast\000"
 4672      6F6E7472 
 4672      61737400 
 4673 00b0 C7040000 		.4byte	0x4c7
 4674 00b4 6C636443 		.ascii	"lcdClrscr\000"
 4674      6C727363 
 4674      7200
 4675 00be EE040000 		.4byte	0x4ee
 4676 00c2 6C63644F 		.ascii	"lcdOff\000"
 4676      666600
 4677 00c9 03050000 		.4byte	0x503
 4678 00cd 6C636449 		.ascii	"lcdInit\000"
 4678      6E697400 
 4679 00d5 7E050000 		.4byte	0x57e
 4680 00d9 63686172 		.ascii	"charMap\000"
 4680      4D617000 
 4681 00e1 00000000 		.4byte	0x0
 4682              		.section	.debug_aranges,"",%progbits
 4683 0000 1C000000 		.4byte	0x1c
 4684 0004 0200     		.2byte	0x2
 4685 0006 00000000 		.4byte	.Ldebug_info0
 4686 000a 04       		.byte	0x4
 4687 000b 00       		.byte	0x0
 4688 000c 0000     		.2byte	0x0
 4689 000e 0000     		.2byte	0x0
 4690 0010 00000000 		.4byte	.Ltext0
 4691 0014 70050000 		.4byte	.Letext0-.Ltext0
 4692 0018 00000000 		.4byte	0x0
 4693 001c 00000000 		.4byte	0x0
 4694              		.section	.debug_str,"MS",%progbits,1
 4695              	.LASF48:
 4696 0000 6C63644E 		.ascii	"lcdNewline\000"
ARM GAS  /cygdrive/c/Users/embedded/AppData/Local/Temp/ccWfuIiM.s 			page 93


 4696      65776C69 
 4696      6E6500
 4697              	.LASF41:
 4698 000b 74657874 		.ascii	"textColor\000"
 4698      436F6C6F 
 4698      7200
 4699              	.LASF21:
 4700 0015 6C636449 		.ascii	"lcdIcon\000"
 4700      636F6E00 
 4701              	.LASF19:
 4702 001d 6C636457 		.ascii	"lcdWindow\000"
 4702      696E646F 
 4702      7700
 4703              	.LASF8:
 4704 0027 74657874 		.ascii	"text\000"
 4704      00
 4705              	.LASF40:
 4706 002c 626B6743 		.ascii	"bkgColor\000"
 4706      6F6C6F72 
 4706      00
 4707              	.LASF15:
 4708 0035 62797465 		.ascii	"byteToShift\000"
 4708      546F5368 
 4708      69667400 
 4709              	.LASF26:
 4710 0041 70446174 		.ascii	"pData\000"
 4710      6100
 4711              	.LASF5:
 4712 0047 73686F72 		.ascii	"short int\000"
 4712      7420696E 
 4712      7400
 4713              	.LASF32:
 4714 0051 636F6C6F 		.ascii	"color\000"
 4714      7200
 4715              	.LASF42:
 4716 0057 73657463 		.ascii	"setcolmark\000"
 4716      6F6C6D61 
 4716      726B00
 4717              	.LASF47:
 4718 0062 6C636457 		.ascii	"lcdWindow1\000"
 4718      696E646F 
 4718      773100
 4719              	.LASF2:
 4720 006d 74553332 		.ascii	"tU32\000"
 4720      00
 4721              	.LASF37:
 4722 0072 6C636449 		.ascii	"lcdInit\000"
 4722      6E697400 
 4723              	.LASF10:
 4724 007a 6C636457 		.ascii	"lcdWrdata\000"
 4724      72646174 
 4724      6100
 4725              	.LASF36:
 4726 0084 6C63644F 		.ascii	"lcdOff\000"
 4726      666600
 4727              	.LASF33:
 4728 008b 6C636443 		.ascii	"lcdContrast\000"
ARM GAS  /cygdrive/c/Users/embedded/AppData/Local/Temp/ccWfuIiM.s 			page 94


 4728      6F6E7472 
 4728      61737400 
 4729              	.LASF13:
 4730 0097 6C636444 		.ascii	"lcdData\000"
 4730      61746100 
 4731              	.LASF16:
 4732 009f 6C636450 		.ascii	"lcdPutchar\000"
 4732      75746368 
 4732      617200
 4733              	.LASF27:
 4734 00aa 6C636452 		.ascii	"lcdRectBrd\000"
 4734      65637442 
 4734      726400
 4735              	.LASF39:
 4736 00b5 6C63645F 		.ascii	"lcd_y\000"
 4736      7900
 4737              	.LASF44:
 4738 00bb 474E5520 		.ascii	"GNU C 4.1.1\000"
 4738      4320342E 
 4738      312E3100 
 4739              	.LASF43:
 4740 00c7 63686172 		.ascii	"charMap\000"
 4740      4D617000 
 4741              	.LASF25:
 4742 00cf 65736361 		.ascii	"escapeChar\000"
 4742      70654368 
 4742      617200
 4743              	.LASF14:
 4744 00da 6D61704F 		.ascii	"mapOffset\000"
 4744      66667365 
 4744      7400
 4745              	.LASF6:
 4746 00e4 74533332 		.ascii	"tS32\000"
 4746      00
 4747              	.LASF20:
 4748 00e9 6C636447 		.ascii	"lcdGotoxy\000"
 4748      6F746F78 
 4748      7900
 4749              	.LASF46:
 4750 00f3 2F637967 		.ascii	"/cygdrive/c/Embedded/eclipse/Demo/2138\000"
 4750      64726976 
 4750      652F632F 
 4750      456D6265 
 4750      64646564 
 4751              	.LASF0:
 4752 011a 756E7369 		.ascii	"unsigned char\000"
 4752      676E6564 
 4752      20636861 
 4752      7200
 4753              	.LASF35:
 4754 0128 6C636443 		.ascii	"lcdClrscr\000"
 4754      6C727363 
 4754      7200
 4755              	.LASF45:
 4756 0132 6C63642E 		.ascii	"lcd.c\000"
 4756      6300
 4757              	.LASF4:
ARM GAS  /cygdrive/c/Users/embedded/AppData/Local/Temp/ccWfuIiM.s 			page 95


 4758 0138 7369676E 		.ascii	"signed char\000"
 4758      65642063 
 4758      68617200 
 4759              	.LASF17:
 4760 0144 6C636450 		.ascii	"lcdPuts\000"
 4760      75747300 
 4761              	.LASF3:
 4762 014c 756E7369 		.ascii	"unsigned int\000"
 4762      676E6564 
 4762      20696E74 
 4762      00
 4763              	.LASF24:
 4764 0159 636F6D70 		.ascii	"compressionOn\000"
 4764      72657373 
 4764      696F6E4F 
 4764      6E00
 4765              	.LASF1:
 4766 0167 73686F72 		.ascii	"short unsigned int\000"
 4766      7420756E 
 4766      7369676E 
 4766      65642069 
 4766      6E7400
 4767              	.LASF18:
 4768 017a 63686172 		.ascii	"char\000"
 4768      00
 4769              	.LASF9:
 4770 017f 6C636443 		.ascii	"lcdColor\000"
 4770      6F6C6F72 
 4770      00
 4771              	.LASF23:
 4772 0188 794C656E 		.ascii	"yLen\000"
 4772      00
 4773              	.LASF11:
 4774 018d 64617461 		.ascii	"data\000"
 4774      00
 4775              	.LASF34:
 4776 0192 636F6E74 		.ascii	"cont\000"
 4776      00
 4777              	.LASF7:
 4778 0197 6C6F6E67 		.ascii	"long unsigned int\000"
 4778      20756E73 
 4778      69676E65 
 4778      6420696E 
 4778      7400
 4779              	.LASF28:
 4780 01a9 636F6C6F 		.ascii	"color1\000"
 4780      723100
 4781              	.LASF29:
 4782 01b0 636F6C6F 		.ascii	"color2\000"
 4782      723200
 4783              	.LASF30:
 4784 01b7 636F6C6F 		.ascii	"color3\000"
 4784      723300
 4785              	.LASF22:
 4786 01be 784C656E 		.ascii	"xLen\000"
 4786      00
 4787              	.LASF12:
ARM GAS  /cygdrive/c/Users/embedded/AppData/Local/Temp/ccWfuIiM.s 			page 96


 4788 01c3 6C636457 		.ascii	"lcdWrcmd\000"
 4788      72636D64 
 4788      00
 4789              	.LASF38:
 4790 01cc 6C63645F 		.ascii	"lcd_x\000"
 4790      7800
 4791              	.LASF31:
 4792 01d2 6C636452 		.ascii	"lcdRect\000"
 4792      65637400 
 4793              		.ident	"GCC: (GNU) 4.1.1"
ARM GAS  /cygdrive/c/Users/embedded/AppData/Local/Temp/ccWfuIiM.s 			page 97


DEFINED SYMBOLS
                            *ABS*:00000000 lcd.c
/cygdrive/c/Users/embedded/AppData/Local/Temp/ccWfuIiM.s:1      .text:00000000 $t
/cygdrive/c/Users/embedded/AppData/Local/Temp/ccWfuIiM.s:16     .text:00000000 lcdColor
/cygdrive/c/Users/embedded/AppData/Local/Temp/ccWfuIiM.s:36     .text:0000000c $d
/cygdrive/c/Users/embedded/AppData/Local/Temp/ccWfuIiM.s:2542   .bss:00000002 bkgColor
/cygdrive/c/Users/embedded/AppData/Local/Temp/ccWfuIiM.s:2544   .bss:00000003 textColor
/cygdrive/c/Users/embedded/AppData/Local/Temp/ccWfuIiM.s:45     .text:00000014 lcdWrdata
/cygdrive/c/Users/embedded/AppData/Local/Temp/ccWfuIiM.s:42     .text:00000014 $t
/cygdrive/c/Users/embedded/AppData/Local/Temp/ccWfuIiM.s:70     .text:00000024 lcdWrcmd
/cygdrive/c/Users/embedded/AppData/Local/Temp/ccWfuIiM.s:94     .text:00000034 lcdWindow1
/cygdrive/c/Users/embedded/AppData/Local/Temp/ccWfuIiM.s:170    .text:00000088 lcdData
/cygdrive/c/Users/embedded/AppData/Local/Temp/ccWfuIiM.s:296    .text:0000013c $d
/cygdrive/c/Users/embedded/AppData/Local/Temp/ccWfuIiM.s:2538   .bss:00000000 lcd_x
/cygdrive/c/Users/embedded/AppData/Local/Temp/ccWfuIiM.s:2540   .bss:00000001 lcd_y
/cygdrive/c/Users/embedded/AppData/Local/Temp/ccWfuIiM.s:1164   .rodata:00000000 charMap
/cygdrive/c/Users/embedded/AppData/Local/Temp/ccWfuIiM.s:308    .text:00000150 lcdPutchar
/cygdrive/c/Users/embedded/AppData/Local/Temp/ccWfuIiM.s:305    .text:00000150 $t
/cygdrive/c/Users/embedded/AppData/Local/Temp/ccWfuIiM.s:385    .text:000001a4 $d
/cygdrive/c/Users/embedded/AppData/Local/Temp/ccWfuIiM.s:2546   .bss:00000004 setcolmark
/cygdrive/c/Users/embedded/AppData/Local/Temp/ccWfuIiM.s:396    .text:000001b4 lcdPuts
/cygdrive/c/Users/embedded/AppData/Local/Temp/ccWfuIiM.s:393    .text:000001b4 $t
/cygdrive/c/Users/embedded/AppData/Local/Temp/ccWfuIiM.s:429    .text:000001cc lcdWindow
/cygdrive/c/Users/embedded/AppData/Local/Temp/ccWfuIiM.s:476    .text:000001fc lcdGotoxy
/cygdrive/c/Users/embedded/AppData/Local/Temp/ccWfuIiM.s:513    .text:0000021c $d
/cygdrive/c/Users/embedded/AppData/Local/Temp/ccWfuIiM.s:522    .text:00000224 lcdIcon
/cygdrive/c/Users/embedded/AppData/Local/Temp/ccWfuIiM.s:519    .text:00000224 $t
/cygdrive/c/Users/embedded/AppData/Local/Temp/ccWfuIiM.s:674    .text:000002d4 lcdRectBrd
/cygdrive/c/Users/embedded/AppData/Local/Temp/ccWfuIiM.s:818    .text:00000384 lcdRect
/cygdrive/c/Users/embedded/AppData/Local/Temp/ccWfuIiM.s:903    .text:000003e8 lcdContrast
/cygdrive/c/Users/embedded/AppData/Local/Temp/ccWfuIiM.s:940    .text:0000040c lcdClrscr
/cygdrive/c/Users/embedded/AppData/Local/Temp/ccWfuIiM.s:990    .text:00000450 $d
/cygdrive/c/Users/embedded/AppData/Local/Temp/ccWfuIiM.s:1001   .text:00000460 lcdOff
/cygdrive/c/Users/embedded/AppData/Local/Temp/ccWfuIiM.s:998    .text:00000460 $t
/cygdrive/c/Users/embedded/AppData/Local/Temp/ccWfuIiM.s:1028   .text:0000047c lcdInit
/cygdrive/c/Users/embedded/AppData/Local/Temp/ccWfuIiM.s:1156   .text:00000568 $d
                             .bss:00000000 $d

UNDEFINED SYMBOLS
sendToLCD
selectLCD
initSpiForLcd
osSleep
