ARM GAS  C:\Users\embedded\AppData\Local\Temp\ccCqosk9.s 			page 1


   1              		.cpu arm7tdmi
   2              		.eabi_attribute 20, 1
   3              		.eabi_attribute 21, 1
   4              		.eabi_attribute 23, 3
   5              		.eabi_attribute 24, 1
   6              		.eabi_attribute 25, 1
   7              		.eabi_attribute 26, 1
   8              		.eabi_attribute 30, 6
   9              		.eabi_attribute 34, 0
  10              		.eabi_attribute 18, 4
  11              		.file	"lcd_hw.c"
  12              		.text
  13              	.Ltext0:
  14              		.cfi_sections	.debug_frame
  15              		.align	1
  16              		.global	sendToLCD
  17              		.syntax unified
  18              		.code	16
  19              		.thumb_func
  20              		.fpu softvfp
  21              		.type	sendToLCD, %function
  22              	sendToLCD:
  23              	.LFB0:
  24              		.file 1 "lcd_hw.c"
   1:lcd_hw.c      **** /******************************************************************************
   2:lcd_hw.c      ****  *
   3:lcd_hw.c      ****  * Copyright:
   4:lcd_hw.c      ****  *    (C) 2006 Embedded Artists AB
   5:lcd_hw.c      ****  *
   6:lcd_hw.c      ****  * File:
   7:lcd_hw.c      ****  *    pca9532.c
   8:lcd_hw.c      ****  *
   9:lcd_hw.c      ****  * Description:
  10:lcd_hw.c      ****  *    Implements hardware specific routines
  11:lcd_hw.c      ****  *
  12:lcd_hw.c      ****  *****************************************************************************/
  13:lcd_hw.c      **** 
  14:lcd_hw.c      **** /******************************************************************************
  15:lcd_hw.c      ****  * Includes
  16:lcd_hw.c      ****  *****************************************************************************/
  17:lcd_hw.c      **** #include "general.h"
  18:lcd_hw.c      **** #include <lpc2xxx.h>
  19:lcd_hw.c      **** #include "lcd_hw.h"
  20:lcd_hw.c      **** 
  21:lcd_hw.c      **** /******************************************************************************
  22:lcd_hw.c      ****  * Typedefs and defines
  23:lcd_hw.c      ****  *****************************************************************************/
  24:lcd_hw.c      **** 
  25:lcd_hw.c      **** 
  26:lcd_hw.c      **** /*****************************************************************************
  27:lcd_hw.c      ****  * Global variables
  28:lcd_hw.c      ****  ****************************************************************************/
  29:lcd_hw.c      **** 
  30:lcd_hw.c      **** /*****************************************************************************
  31:lcd_hw.c      ****  * Local variables
  32:lcd_hw.c      ****  ****************************************************************************/
  33:lcd_hw.c      **** 
ARM GAS  C:\Users\embedded\AppData\Local\Temp\ccCqosk9.s 			page 2


  34:lcd_hw.c      **** /*****************************************************************************
  35:lcd_hw.c      ****  * Local prototypes
  36:lcd_hw.c      ****  ****************************************************************************/
  37:lcd_hw.c      **** 
  38:lcd_hw.c      **** 
  39:lcd_hw.c      **** /*****************************************************************************
  40:lcd_hw.c      ****  *
  41:lcd_hw.c      ****  * Description:
  42:lcd_hw.c      ****  *    Send 9-bit data to LCD controller
  43:lcd_hw.c      ****  *
  44:lcd_hw.c      ****  ****************************************************************************/
  45:lcd_hw.c      **** void
  46:lcd_hw.c      **** sendToLCD(tU8 firstBit, tU8 data)
  47:lcd_hw.c      **** {
  25              		.loc 1 47 0
  26              		.cfi_startproc
  27              		@ Function supports interworking.
  28              		@ args = 0, pretend = 0, frame = 8
  29              		@ frame_needed = 1, uses_anonymous_args = 0
  30 0000 80B5     		push	{r7, lr}
  31              	.LCFI0:
  32              		.cfi_def_cfa_offset 8
  33              		.cfi_offset 7, -8
  34              		.cfi_offset 14, -4
  35 0002 82B0     		sub	sp, sp, #8
  36              	.LCFI1:
  37              		.cfi_def_cfa_offset 16
  38 0004 00AF     		add	r7, sp, #0
  39              	.LCFI2:
  40              		.cfi_def_cfa_register 7
  41 0006 0200     		movs	r2, r0
  42 0008 FB1D     		adds	r3, r7, #7
  43 000a 1A70     		strb	r2, [r3]
  44 000c BB1D     		adds	r3, r7, #6
  45 000e 0A1C     		adds	r2, r1, #0
  46 0010 1A70     		strb	r2, [r3]
  48:lcd_hw.c      ****   //disable SPI
  49:lcd_hw.c      ****   IOCLR = LCD_CLK;
  47              		.loc 1 49 0
  48 0012 1B4B     		ldr	r3, .L5
  49 0014 1022     		movs	r2, #16
  50 0016 1A60     		str	r2, [r3]
  50:lcd_hw.c      ****   PINSEL0 &= 0xffffc0ff;
  51              		.loc 1 50 0
  52 0018 1A4B     		ldr	r3, .L5+4
  53 001a 1A68     		ldr	r2, [r3]
  54 001c 194B     		ldr	r3, .L5+4
  55 001e 1A49     		ldr	r1, .L5+8
  56 0020 0A40     		ands	r2, r1
  57 0022 1A60     		str	r2, [r3]
  51:lcd_hw.c      ****   
  52:lcd_hw.c      ****   if (1 == firstBit)
  58              		.loc 1 52 0
  59 0024 FB1D     		adds	r3, r7, #7
  60 0026 1B78     		ldrb	r3, [r3]
  61 0028 012B     		cmp	r3, #1
  62 002a 03D1     		bne	.L2
ARM GAS  C:\Users\embedded\AppData\Local\Temp\ccCqosk9.s 			page 3


  53:lcd_hw.c      ****     IOSET = LCD_MOSI;   //set MOSI
  63              		.loc 1 53 0
  64 002c 174B     		ldr	r3, .L5+12
  65 002e 4022     		movs	r2, #64
  66 0030 1A60     		str	r2, [r3]
  67 0032 02E0     		b	.L3
  68              	.L2:
  54:lcd_hw.c      ****   else
  55:lcd_hw.c      ****     IOCLR = LCD_MOSI;   //reset MOSI
  69              		.loc 1 55 0
  70 0034 124B     		ldr	r3, .L5
  71 0036 4022     		movs	r2, #64
  72 0038 1A60     		str	r2, [r3]
  73              	.L3:
  56:lcd_hw.c      ****   
  57:lcd_hw.c      ****   //Set clock high
  58:lcd_hw.c      ****   IOSET = LCD_CLK;
  74              		.loc 1 58 0
  75 003a 144B     		ldr	r3, .L5+12
  76 003c 1022     		movs	r2, #16
  77 003e 1A60     		str	r2, [r3]
  59:lcd_hw.c      ****   
  60:lcd_hw.c      ****   //Set clock low
  61:lcd_hw.c      ****   IOCLR = LCD_CLK;
  78              		.loc 1 61 0
  79 0040 0F4B     		ldr	r3, .L5
  80 0042 1022     		movs	r2, #16
  81 0044 1A60     		str	r2, [r3]
  62:lcd_hw.c      ****   
  63:lcd_hw.c      ****   /*
  64:lcd_hw.c      ****    * Enable SPI again
  65:lcd_hw.c      ****    */
  66:lcd_hw.c      ****   //initialize SPI interface
  67:lcd_hw.c      ****   SPI_SPCCR = 0x08;    
  82              		.loc 1 67 0
  83 0046 124B     		ldr	r3, .L5+16
  84 0048 0822     		movs	r2, #8
  85 004a 1A60     		str	r2, [r3]
  68:lcd_hw.c      ****   SPI_SPCR  = 0x20;
  86              		.loc 1 68 0
  87 004c 114B     		ldr	r3, .L5+20
  88 004e 2022     		movs	r2, #32
  89 0050 1A60     		str	r2, [r3]
  69:lcd_hw.c      **** 
  70:lcd_hw.c      ****   //connect SPI bus to IO-pins
  71:lcd_hw.c      ****   PINSEL0 |= 0x00001500;
  90              		.loc 1 71 0
  91 0052 0C4B     		ldr	r3, .L5+4
  92 0054 1A68     		ldr	r2, [r3]
  93 0056 0B4B     		ldr	r3, .L5+4
  94 0058 A821     		movs	r1, #168
  95 005a 4901     		lsls	r1, r1, #5
  96 005c 0A43     		orrs	r2, r1
  97 005e 1A60     		str	r2, [r3]
  72:lcd_hw.c      ****   
  73:lcd_hw.c      ****   //send byte
  74:lcd_hw.c      ****   SPI_SPDR = data;
ARM GAS  C:\Users\embedded\AppData\Local\Temp\ccCqosk9.s 			page 4


  98              		.loc 1 74 0
  99 0060 0D4B     		ldr	r3, .L5+24
 100 0062 BA1D     		adds	r2, r7, #6
 101 0064 1278     		ldrb	r2, [r2]
 102 0066 1A60     		str	r2, [r3]
  75:lcd_hw.c      ****   while((SPI_SPSR & 0x80) == 0)
 103              		.loc 1 75 0
 104 0068 C046     		nop
 105              	.L4:
 106              		.loc 1 75 0 is_stmt 0 discriminator 1
 107 006a 0C4B     		ldr	r3, .L5+28
 108 006c 1B68     		ldr	r3, [r3]
 109 006e 8022     		movs	r2, #128
 110 0070 1340     		ands	r3, r2
 111 0072 FAD0     		beq	.L4
  76:lcd_hw.c      ****     ;
  77:lcd_hw.c      **** }
 112              		.loc 1 77 0 is_stmt 1
 113 0074 C046     		nop
 114 0076 BD46     		mov	sp, r7
 115 0078 02B0     		add	sp, sp, #8
 116              		@ sp needed
 117 007a 80BC     		pop	{r7}
 118 007c 01BC     		pop	{r0}
 119 007e 0047     		bx	r0
 120              	.L6:
 121              		.align	2
 122              	.L5:
 123 0080 0C8002E0 		.word	-536707060
 124 0084 00C002E0 		.word	-536690688
 125 0088 FFC0FFFF 		.word	-16129
 126 008c 048002E0 		.word	-536707068
 127 0090 0C0002E0 		.word	-536739828
 128 0094 000002E0 		.word	-536739840
 129 0098 080002E0 		.word	-536739832
 130 009c 040002E0 		.word	-536739836
 131              		.cfi_endproc
 132              	.LFE0:
 133              		.size	sendToLCD, .-sendToLCD
 134              		.align	1
 135              		.global	initSpiForLcd
 136              		.syntax unified
 137              		.code	16
 138              		.thumb_func
 139              		.fpu softvfp
 140              		.type	initSpiForLcd, %function
 141              	initSpiForLcd:
 142              	.LFB1:
  78:lcd_hw.c      **** 
  79:lcd_hw.c      **** 
  80:lcd_hw.c      **** /*****************************************************************************
  81:lcd_hw.c      ****  *
  82:lcd_hw.c      ****  * Description:
  83:lcd_hw.c      ****  *    Initialize the SPI interface for the LCD controller
  84:lcd_hw.c      ****  *
  85:lcd_hw.c      ****  ****************************************************************************/
  86:lcd_hw.c      **** void
ARM GAS  C:\Users\embedded\AppData\Local\Temp\ccCqosk9.s 			page 5


  87:lcd_hw.c      **** initSpiForLcd(void)
  88:lcd_hw.c      **** {
 143              		.loc 1 88 0
 144              		.cfi_startproc
 145              		@ Function supports interworking.
 146              		@ args = 0, pretend = 0, frame = 0
 147              		@ frame_needed = 1, uses_anonymous_args = 0
 148 00a0 80B5     		push	{r7, lr}
 149              	.LCFI3:
 150              		.cfi_def_cfa_offset 8
 151              		.cfi_offset 7, -8
 152              		.cfi_offset 14, -4
 153 00a2 00AF     		add	r7, sp, #0
 154              	.LCFI4:
 155              		.cfi_def_cfa_register 7
  89:lcd_hw.c      ****   //make SPI slave chip select an output and set signal high
  90:lcd_hw.c      ****   IODIR |= (LCD_CS | LCD_CLK | LCD_MOSI);
 156              		.loc 1 90 0
 157 00a4 0D4B     		ldr	r3, .L8
 158 00a6 1A68     		ldr	r2, [r3]
 159 00a8 0C4B     		ldr	r3, .L8
 160 00aa D021     		movs	r1, #208
 161 00ac 0A43     		orrs	r2, r1
 162 00ae 1A60     		str	r2, [r3]
  91:lcd_hw.c      ****   
  92:lcd_hw.c      ****   //deselect controller
  93:lcd_hw.c      ****   selectLCD(FALSE);
 163              		.loc 1 93 0
 164 00b0 0020     		movs	r0, #0
 165 00b2 FFF7FEFF 		bl	selectLCD
  94:lcd_hw.c      **** 
  95:lcd_hw.c      ****   //connect SPI bus to IO-pins
  96:lcd_hw.c      ****   PINSEL0 |= 0x00001500;
 166              		.loc 1 96 0
 167 00b6 0A4B     		ldr	r3, .L8+4
 168 00b8 1A68     		ldr	r2, [r3]
 169 00ba 094B     		ldr	r3, .L8+4
 170 00bc A821     		movs	r1, #168
 171 00be 4901     		lsls	r1, r1, #5
 172 00c0 0A43     		orrs	r2, r1
 173 00c2 1A60     		str	r2, [r3]
  97:lcd_hw.c      ****   
  98:lcd_hw.c      ****   //initialize SPI interface
  99:lcd_hw.c      ****   SPI_SPCCR = 0x08;    
 174              		.loc 1 99 0
 175 00c4 074B     		ldr	r3, .L8+8
 176 00c6 0822     		movs	r2, #8
 177 00c8 1A60     		str	r2, [r3]
 100:lcd_hw.c      ****   SPI_SPCR  = 0x20;
 178              		.loc 1 100 0
 179 00ca 074B     		ldr	r3, .L8+12
 180 00cc 2022     		movs	r2, #32
 181 00ce 1A60     		str	r2, [r3]
 101:lcd_hw.c      **** }
 182              		.loc 1 101 0
 183 00d0 C046     		nop
 184 00d2 BD46     		mov	sp, r7
ARM GAS  C:\Users\embedded\AppData\Local\Temp\ccCqosk9.s 			page 6


 185              		@ sp needed
 186 00d4 80BC     		pop	{r7}
 187 00d6 01BC     		pop	{r0}
 188 00d8 0047     		bx	r0
 189              	.L9:
 190 00da C046     		.align	2
 191              	.L8:
 192 00dc 088002E0 		.word	-536707064
 193 00e0 00C002E0 		.word	-536690688
 194 00e4 0C0002E0 		.word	-536739828
 195 00e8 000002E0 		.word	-536739840
 196              		.cfi_endproc
 197              	.LFE1:
 198              		.size	initSpiForLcd, .-initSpiForLcd
 199              		.align	1
 200              		.global	selectLCD
 201              		.syntax unified
 202              		.code	16
 203              		.thumb_func
 204              		.fpu softvfp
 205              		.type	selectLCD, %function
 206              	selectLCD:
 207              	.LFB2:
 102:lcd_hw.c      **** 
 103:lcd_hw.c      **** /*****************************************************************************
 104:lcd_hw.c      ****  *
 105:lcd_hw.c      ****  * Description:
 106:lcd_hw.c      ****  *    Select/deselect LCD controller (by controlling chip select signal)
 107:lcd_hw.c      ****  *
 108:lcd_hw.c      ****  ****************************************************************************/
 109:lcd_hw.c      **** void
 110:lcd_hw.c      **** selectLCD(tBool select)
 111:lcd_hw.c      **** {
 208              		.loc 1 111 0
 209              		.cfi_startproc
 210              		@ Function supports interworking.
 211              		@ args = 0, pretend = 0, frame = 8
 212              		@ frame_needed = 1, uses_anonymous_args = 0
 213 00ec 80B5     		push	{r7, lr}
 214              	.LCFI5:
 215              		.cfi_def_cfa_offset 8
 216              		.cfi_offset 7, -8
 217              		.cfi_offset 14, -4
 218 00ee 82B0     		sub	sp, sp, #8
 219              	.LCFI6:
 220              		.cfi_def_cfa_offset 16
 221 00f0 00AF     		add	r7, sp, #0
 222              	.LCFI7:
 223              		.cfi_def_cfa_register 7
 224 00f2 0200     		movs	r2, r0
 225 00f4 FB1D     		adds	r3, r7, #7
 226 00f6 1A70     		strb	r2, [r3]
 112:lcd_hw.c      ****   if (TRUE == select)
 227              		.loc 1 112 0
 228 00f8 FB1D     		adds	r3, r7, #7
 229 00fa 1B78     		ldrb	r3, [r3]
 230 00fc 012B     		cmp	r3, #1
ARM GAS  C:\Users\embedded\AppData\Local\Temp\ccCqosk9.s 			page 7


 231 00fe 03D1     		bne	.L11
 113:lcd_hw.c      ****     IOCLR = LCD_CS;
 232              		.loc 1 113 0
 233 0100 064B     		ldr	r3, .L14
 234 0102 8022     		movs	r2, #128
 235 0104 1A60     		str	r2, [r3]
 114:lcd_hw.c      ****   else
 115:lcd_hw.c      ****     IOSET = LCD_CS;
 116:lcd_hw.c      **** }
 236              		.loc 1 116 0
 237 0106 02E0     		b	.L13
 238              	.L11:
 115:lcd_hw.c      **** }
 239              		.loc 1 115 0
 240 0108 054B     		ldr	r3, .L14+4
 241 010a 8022     		movs	r2, #128
 242 010c 1A60     		str	r2, [r3]
 243              	.L13:
 244              		.loc 1 116 0
 245 010e C046     		nop
 246 0110 BD46     		mov	sp, r7
 247 0112 02B0     		add	sp, sp, #8
 248              		@ sp needed
 249 0114 80BC     		pop	{r7}
 250 0116 01BC     		pop	{r0}
 251 0118 0047     		bx	r0
 252              	.L15:
 253 011a C046     		.align	2
 254              	.L14:
 255 011c 0C8002E0 		.word	-536707060
 256 0120 048002E0 		.word	-536707068
 257              		.cfi_endproc
 258              	.LFE2:
 259              		.size	selectLCD, .-selectLCD
 260              	.Letext0:
 261              		.file 2 "general.h"