ARM GAS  C:\Users\embedded\AppData\Local\Temp\cchoUHXd.s 			page 1


   1              		.cpu arm7tdmi
   2              		.eabi_attribute 20, 1
   3              		.eabi_attribute 21, 1
   4              		.eabi_attribute 23, 3
   5              		.eabi_attribute 24, 1
   6              		.eabi_attribute 25, 1
   7              		.eabi_attribute 26, 1
   8              		.eabi_attribute 30, 6
   9              		.eabi_attribute 34, 0
  10              		.eabi_attribute 18, 4
  11              		.file	"lm75.c"
  12              		.text
  13              	.Ltext0:
  14              		.cfi_sections	.debug_frame
  15              		.align	1
  16              		.global	measureTemperature1
  17              		.syntax unified
  18              		.code	16
  19              		.thumb_func
  20              		.fpu softvfp
  21              		.type	measureTemperature1, %function
  22              	measureTemperature1:
  23              	.LFB0:
  24              		.file 1 "lm75.c"
   1:lm75.c        **** /*
   2:lm75.c        ****     Obsługa pomiaru temperatury przy pomocy temometru LM75.
   3:lm75.c        **** 
   4:lm75.c        ****     Plik z kodem źródłowym funkcji.
   5:lm75.c        **** */
   6:lm75.c        **** 
   7:lm75.c        **** #include "lm75.h"
   8:lm75.c        **** #include "additional.h"
   9:lm75.c        **** 
  10:lm75.c        **** tS8 measureTemperature1(tU8 addr,
  11:lm75.c        ****                         tU8 *pBuf,
  12:lm75.c        ****                         tU16 len)
  13:lm75.c        **** {
  25              		.loc 1 13 0
  26              		.cfi_startproc
  27              		@ Function supports interworking.
  28              		@ args = 0, pretend = 0, frame = 16
  29              		@ frame_needed = 1, uses_anonymous_args = 0
  30 0000 B0B5     		push	{r4, r5, r7, lr}
  31              	.LCFI0:
  32              		.cfi_def_cfa_offset 16
  33              		.cfi_offset 4, -16
  34              		.cfi_offset 5, -12
  35              		.cfi_offset 7, -8
  36              		.cfi_offset 14, -4
  37 0002 84B0     		sub	sp, sp, #16
  38              	.LCFI1:
  39              		.cfi_def_cfa_offset 32
  40 0004 00AF     		add	r7, sp, #0
  41              	.LCFI2:
  42              		.cfi_def_cfa_register 7
  43 0006 3960     		str	r1, [r7]
  44 0008 1100     		movs	r1, r2
ARM GAS  C:\Users\embedded\AppData\Local\Temp\cchoUHXd.s 			page 2


  45 000a FB1D     		adds	r3, r7, #7
  46 000c 021C     		adds	r2, r0, #0
  47 000e 1A70     		strb	r2, [r3]
  48 0010 3B1D     		adds	r3, r7, #4
  49 0012 0A1C     		adds	r2, r1, #0
  50 0014 1A80     		strh	r2, [r3]
  14:lm75.c        **** 	tU8 i;
  15:lm75.c        ****     tS8 status;
  16:lm75.c        ****     tS8 retCode = i2cStart();
  51              		.loc 1 16 0
  52 0016 0E25     		movs	r5, #14
  53 0018 7C19     		adds	r4, r7, r5
  54 001a FFF7FEFF 		bl	i2cStart
  55 001e 0300     		movs	r3, r0
  56 0020 2370     		strb	r3, [r4]
  17:lm75.c        **** 
  18:lm75.c        ****     if (retCode == I2C_CODE_OK)
  57              		.loc 1 18 0
  58 0022 7B19     		adds	r3, r7, r5
  59 0024 1B78     		ldrb	r3, [r3]
  60 0026 1B06     		lsls	r3, r3, #24
  61 0028 1B16     		asrs	r3, r3, #24
  62 002a 012B     		cmp	r3, #1
  63 002c 00D0     		beq	.LCB36
  64 002e 94E0     		b	.L2	@long jump
  65              	.LCB36:
  19:lm75.c        ****     {
  20:lm75.c        ****         retCode = i2cPutChar(addr);
  66              		.loc 1 20 0
  67 0030 0E23     		movs	r3, #14
  68 0032 FC18     		adds	r4, r7, r3
  69 0034 FB1D     		adds	r3, r7, #7
  70 0036 1B78     		ldrb	r3, [r3]
  71 0038 1800     		movs	r0, r3
  72 003a FFF7FEFF 		bl	i2cPutChar
  73 003e 0300     		movs	r3, r0
  74 0040 2370     		strb	r3, [r4]
  21:lm75.c        ****         while (retCode == I2C_CODE_BUSY)
  75              		.loc 1 21 0
  76 0042 08E0     		b	.L3
  77              	.L4:
  22:lm75.c        ****         {
  23:lm75.c        ****             retCode = i2cPutChar(addr);
  78              		.loc 1 23 0
  79 0044 0E23     		movs	r3, #14
  80 0046 FC18     		adds	r4, r7, r3
  81 0048 FB1D     		adds	r3, r7, #7
  82 004a 1B78     		ldrb	r3, [r3]
  83 004c 1800     		movs	r0, r3
  84 004e FFF7FEFF 		bl	i2cPutChar
  85 0052 0300     		movs	r3, r0
  86 0054 2370     		strb	r3, [r4]
  87              	.L3:
  21:lm75.c        ****         while (retCode == I2C_CODE_BUSY)
  88              		.loc 1 21 0
  89 0056 0E23     		movs	r3, #14
  90 0058 FB18     		adds	r3, r7, r3
ARM GAS  C:\Users\embedded\AppData\Local\Temp\cchoUHXd.s 			page 3


  91 005a 1B78     		ldrb	r3, [r3]
  92 005c 1B06     		lsls	r3, r3, #24
  93 005e 1B16     		asrs	r3, r3, #24
  94 0060 0433     		adds	r3, r3, #4
  95 0062 EFD0     		beq	.L4
  24:lm75.c        ****         }
  25:lm75.c        **** 
  26:lm75.c        ****         if (retCode == I2C_CODE_OK)
  96              		.loc 1 26 0
  97 0064 0E23     		movs	r3, #14
  98 0066 FB18     		adds	r3, r7, r3
  99 0068 1B78     		ldrb	r3, [r3]
 100 006a 1B06     		lsls	r3, r3, #24
 101 006c 1B16     		asrs	r3, r3, #24
 102 006e 012B     		cmp	r3, #1
 103 0070 00D0     		beq	.LCB72
 104 0072 72E0     		b	.L2	@long jump
 105              	.LCB72:
  27:lm75.c        ****         {
  28:lm75.c        **** 
  29:lm75.c        ****             for (i = 0; i < len; i++)
 106              		.loc 1 29 0
 107 0074 0F23     		movs	r3, #15
 108 0076 FB18     		adds	r3, r7, r3
 109 0078 0022     		movs	r2, #0
 110 007a 1A70     		strb	r2, [r3]
 111 007c 64E0     		b	.L5
 112              	.L13:
  30:lm75.c        ****             {
  31:lm75.c        ****                 /* wait until data transmitted */
  32:lm75.c        ****                 while (TRUE)
  33:lm75.c        ****                 {
  34:lm75.c        ****                     /* Get new status */
  35:lm75.c        ****                     status = i2cCheckStatus();
 113              		.loc 1 35 0
 114 007e FFF7FEFF 		bl	i2cCheckStatus
 115 0082 0300     		movs	r3, r0
 116 0084 1A00     		movs	r2, r3
 117 0086 0D21     		movs	r1, #13
 118 0088 7B18     		adds	r3, r7, r1
 119 008a 1A70     		strb	r2, [r3]
  36:lm75.c        **** 
  37:lm75.c        ****                     if ((status == 0x40) || (status == 0x48) || (status == 0x50))
 120              		.loc 1 37 0
 121 008c 7B18     		adds	r3, r7, r1
 122 008e 1B78     		ldrb	r3, [r3]
 123 0090 1B06     		lsls	r3, r3, #24
 124 0092 1B16     		asrs	r3, r3, #24
 125 0094 402B     		cmp	r3, #64
 126 0096 0DD0     		beq	.L6
 127              		.loc 1 37 0 is_stmt 0 discriminator 1
 128 0098 0D23     		movs	r3, #13
 129 009a FB18     		adds	r3, r7, r3
 130 009c 1B78     		ldrb	r3, [r3]
 131 009e 1B06     		lsls	r3, r3, #24
 132 00a0 1B16     		asrs	r3, r3, #24
 133 00a2 482B     		cmp	r3, #72
ARM GAS  C:\Users\embedded\AppData\Local\Temp\cchoUHXd.s 			page 4


 134 00a4 06D0     		beq	.L6
 135              		.loc 1 37 0 discriminator 2
 136 00a6 0D23     		movs	r3, #13
 137 00a8 FB18     		adds	r3, r7, r3
 138 00aa 1B78     		ldrb	r3, [r3]
 139 00ac 1B06     		lsls	r3, r3, #24
 140 00ae 1B16     		asrs	r3, r3, #24
 141 00b0 502B     		cmp	r3, #80
 142 00b2 39D1     		bne	.L7
 143              	.L6:
  38:lm75.c        ****                     {
  39:lm75.c        ****                         /* Data received */
  40:lm75.c        **** 
  41:lm75.c        ****                         if (i == len)
 144              		.loc 1 41 0 is_stmt 1
 145 00b4 0F23     		movs	r3, #15
 146 00b6 FB18     		adds	r3, r7, r3
 147 00b8 1B78     		ldrb	r3, [r3]
 148 00ba 1B04     		lsls	r3, r3, #16
 149 00bc 1B0C     		lsrs	r3, r3, #16
 150 00be 3A1D     		adds	r2, r7, #4
 151 00c0 1288     		ldrh	r2, [r2]
 152 00c2 9A42     		cmp	r2, r3
 153 00c4 09D1     		bne	.L8
  42:lm75.c        ****                         {
  43:lm75.c        ****                             /* Set generate NACK */
  44:lm75.c        ****                             retCode = i2cGetChar(I2C_MODE_ACK1, pBuf);
 154              		.loc 1 44 0
 155 00c6 0E23     		movs	r3, #14
 156 00c8 FC18     		adds	r4, r7, r3
 157 00ca 3B68     		ldr	r3, [r7]
 158 00cc 1900     		movs	r1, r3
 159 00ce 0120     		movs	r0, #1
 160 00d0 FFF7FEFF 		bl	i2cGetChar
 161 00d4 0300     		movs	r3, r0
 162 00d6 2370     		strb	r3, [r4]
 163 00d8 08E0     		b	.L9
 164              	.L8:
  45:lm75.c        ****                         }
  46:lm75.c        ****                         else
  47:lm75.c        ****                         {
  48:lm75.c        ****                             retCode = i2cGetChar(I2C_MODE_ACK0, pBuf);
 165              		.loc 1 48 0
 166 00da 0E23     		movs	r3, #14
 167 00dc FC18     		adds	r4, r7, r3
 168 00de 3B68     		ldr	r3, [r7]
 169 00e0 1900     		movs	r1, r3
 170 00e2 0020     		movs	r0, #0
 171 00e4 FFF7FEFF 		bl	i2cGetChar
 172 00e8 0300     		movs	r3, r0
 173 00ea 2370     		strb	r3, [r4]
 174              	.L9:
  49:lm75.c        ****                         }
  50:lm75.c        **** 
  51:lm75.c        ****                         /* Read data */
  52:lm75.c        ****                         retCode = i2cGetChar(I2C_MODE_READ, pBuf);
 175              		.loc 1 52 0
ARM GAS  C:\Users\embedded\AppData\Local\Temp\cchoUHXd.s 			page 5


 176 00ec 0E23     		movs	r3, #14
 177 00ee FC18     		adds	r4, r7, r3
 178 00f0 3B68     		ldr	r3, [r7]
 179 00f2 1900     		movs	r1, r3
 180 00f4 0220     		movs	r0, #2
 181 00f6 FFF7FEFF 		bl	i2cGetChar
 182 00fa 0300     		movs	r3, r0
 183 00fc 2370     		strb	r3, [r4]
  53:lm75.c        ****                         while (retCode == I2C_CODE_EMPTY)
 184              		.loc 1 53 0
 185 00fe 08E0     		b	.L10
 186              	.L11:
  54:lm75.c        ****                         {
  55:lm75.c        ****                             retCode = i2cGetChar(I2C_MODE_READ, pBuf);
 187              		.loc 1 55 0
 188 0100 0E23     		movs	r3, #14
 189 0102 FC18     		adds	r4, r7, r3
 190 0104 3B68     		ldr	r3, [r7]
 191 0106 1900     		movs	r1, r3
 192 0108 0220     		movs	r0, #2
 193 010a FFF7FEFF 		bl	i2cGetChar
 194 010e 0300     		movs	r3, r0
 195 0110 2370     		strb	r3, [r4]
 196              	.L10:
  53:lm75.c        ****                         while (retCode == I2C_CODE_EMPTY)
 197              		.loc 1 53 0
 198 0112 0E23     		movs	r3, #14
 199 0114 FB18     		adds	r3, r7, r3
 200 0116 1B78     		ldrb	r3, [r3]
 201 0118 1B06     		lsls	r3, r3, #24
 202 011a 1B16     		asrs	r3, r3, #24
 203 011c 0333     		adds	r3, r3, #3
 204 011e EFD0     		beq	.L11
  56:lm75.c        ****                         }
  57:lm75.c        ****                         pBuf++;
 205              		.loc 1 57 0
 206 0120 3B68     		ldr	r3, [r7]
 207 0122 0133     		adds	r3, r3, #1
 208 0124 3B60     		str	r3, [r7]
  58:lm75.c        **** 
  59:lm75.c        ****                         break;
 209              		.loc 1 59 0
 210 0126 09E0     		b	.L12
 211              	.L7:
  60:lm75.c        ****                     }
  61:lm75.c        ****                     else if (status != 0xf8)
  62:lm75.c        ****                     {
  63:lm75.c        ****                         /* ERROR */
  64:lm75.c        ****                         i = len;
 212              		.loc 1 64 0
 213 0128 0F23     		movs	r3, #15
 214 012a FB18     		adds	r3, r7, r3
 215 012c 3A1D     		adds	r2, r7, #4
 216 012e 1288     		ldrh	r2, [r2]
 217 0130 1A70     		strb	r2, [r3]
  65:lm75.c        ****                         retCode = I2C_CODE_ERROR;
 218              		.loc 1 65 0
ARM GAS  C:\Users\embedded\AppData\Local\Temp\cchoUHXd.s 			page 6


 219 0132 0E23     		movs	r3, #14
 220 0134 FB18     		adds	r3, r7, r3
 221 0136 FF22     		movs	r2, #255
 222 0138 1A70     		strb	r2, [r3]
  66:lm75.c        ****                         break;
 223              		.loc 1 66 0
 224 013a C046     		nop
 225              	.L12:
  29:lm75.c        ****             {
 226              		.loc 1 29 0 discriminator 2
 227 013c 0F21     		movs	r1, #15
 228 013e 7B18     		adds	r3, r7, r1
 229 0140 1A78     		ldrb	r2, [r3]
 230 0142 7B18     		adds	r3, r7, r1
 231 0144 0132     		adds	r2, r2, #1
 232 0146 1A70     		strb	r2, [r3]
 233              	.L5:
  29:lm75.c        ****             {
 234              		.loc 1 29 0 is_stmt 0 discriminator 1
 235 0148 0F23     		movs	r3, #15
 236 014a FB18     		adds	r3, r7, r3
 237 014c 1B78     		ldrb	r3, [r3]
 238 014e 1B04     		lsls	r3, r3, #16
 239 0150 1B0C     		lsrs	r3, r3, #16
 240 0152 3A1D     		adds	r2, r7, #4
 241 0154 1288     		ldrh	r2, [r2]
 242 0156 9A42     		cmp	r2, r3
 243 0158 91D8     		bhi	.L13
 244              	.L2:
  67:lm75.c        ****                     }
  68:lm75.c        ****                 }
  69:lm75.c        ****             }
  70:lm75.c        ****         }
  71:lm75.c        ****     }
  72:lm75.c        **** 
  73:lm75.c        ****     i2cStop();
 245              		.loc 1 73 0 is_stmt 1
 246 015a FFF7FEFF 		bl	i2cStop
  74:lm75.c        ****     return retCode;
 247              		.loc 1 74 0
 248 015e 0E23     		movs	r3, #14
 249 0160 FB18     		adds	r3, r7, r3
 250 0162 1B78     		ldrb	r3, [r3]
 251 0164 1B06     		lsls	r3, r3, #24
 252 0166 1B16     		asrs	r3, r3, #24
  75:lm75.c        **** }
 253              		.loc 1 75 0
 254 0168 1800     		movs	r0, r3
 255 016a BD46     		mov	sp, r7
 256 016c 04B0     		add	sp, sp, #16
 257              		@ sp needed
 258 016e B0BC     		pop	{r4, r5, r7}
 259 0170 02BC     		pop	{r1}
 260 0172 0847     		bx	r1
 261              		.cfi_endproc
 262              	.LFE0:
 263              		.size	measureTemperature1, .-measureTemperature1
ARM GAS  C:\Users\embedded\AppData\Local\Temp\cchoUHXd.s 			page 7


 264              		.align	1
 265              		.global	measureTemperature
 266              		.syntax unified
 267              		.code	16
 268              		.thumb_func
 269              		.fpu softvfp
 270              		.type	measureTemperature, %function
 271              	measureTemperature:
 272              	.LFB1:
  76:lm75.c        **** 
  77:lm75.c        **** tS8 measureTemperature(tU8 addr,
  78:lm75.c        ****                        tU8 *pBuf,
  79:lm75.c        ****                        tU16 len)
  80:lm75.c        **** {
 273              		.loc 1 80 0
 274              		.cfi_startproc
 275              		@ Function supports interworking.
 276              		@ args = 0, pretend = 0, frame = 16
 277              		@ frame_needed = 1, uses_anonymous_args = 0
 278 0174 80B5     		push	{r7, lr}
 279              	.LCFI3:
 280              		.cfi_def_cfa_offset 8
 281              		.cfi_offset 7, -8
 282              		.cfi_offset 14, -4
 283 0176 84B0     		sub	sp, sp, #16
 284              	.LCFI4:
 285              		.cfi_def_cfa_offset 24
 286 0178 00AF     		add	r7, sp, #0
 287              	.LCFI5:
 288              		.cfi_def_cfa_register 7
 289 017a 3960     		str	r1, [r7]
 290 017c 1100     		movs	r1, r2
 291 017e FB1D     		adds	r3, r7, #7
 292 0180 021C     		adds	r2, r0, #0
 293 0182 1A70     		strb	r2, [r3]
 294 0184 3B1D     		adds	r3, r7, #4
 295 0186 0A1C     		adds	r2, r1, #0
 296 0188 1A80     		strh	r2, [r3]
  81:lm75.c        ****     tU8 retCode;
  82:lm75.c        ****     retCode = i2cStart();
 297              		.loc 1 82 0
 298 018a FFF7FEFF 		bl	i2cStart
 299 018e 0300     		movs	r3, r0
 300 0190 1A00     		movs	r2, r3
 301 0192 0F21     		movs	r1, #15
 302 0194 7B18     		adds	r3, r7, r1
 303 0196 1A70     		strb	r2, [r3]
  83:lm75.c        ****     
  84:lm75.c        ****     if (retCode == I2C_CODE_OK) {
 304              		.loc 1 84 0
 305 0198 7B18     		adds	r3, r7, r1
 306 019a 1B78     		ldrb	r3, [r3]
 307 019c 012B     		cmp	r3, #1
 308 019e 0CD1     		bne	.L16
  85:lm75.c        ****             retCode = i2cRead(addr, pBuf, len);
 309              		.loc 1 85 0
 310 01a0 3B1D     		adds	r3, r7, #4
ARM GAS  C:\Users\embedded\AppData\Local\Temp\cchoUHXd.s 			page 8


 311 01a2 1A88     		ldrh	r2, [r3]
 312 01a4 3968     		ldr	r1, [r7]
 313 01a6 FB1D     		adds	r3, r7, #7
 314 01a8 1B78     		ldrb	r3, [r3]
 315 01aa 1800     		movs	r0, r3
 316 01ac FFF7FEFF 		bl	i2cRead
 317 01b0 0300     		movs	r3, r0
 318 01b2 1A00     		movs	r2, r3
 319 01b4 0F23     		movs	r3, #15
 320 01b6 FB18     		adds	r3, r7, r3
 321 01b8 1A70     		strb	r2, [r3]
 322              	.L16:
  86:lm75.c        ****     }
  87:lm75.c        ****     return retCode;
 323              		.loc 1 87 0
 324 01ba 0F23     		movs	r3, #15
 325 01bc FB18     		adds	r3, r7, r3
 326 01be 1B78     		ldrb	r3, [r3]
 327 01c0 1B06     		lsls	r3, r3, #24
 328 01c2 1B16     		asrs	r3, r3, #24
  88:lm75.c        **** }
 329              		.loc 1 88 0
 330 01c4 1800     		movs	r0, r3
 331 01c6 BD46     		mov	sp, r7
 332 01c8 04B0     		add	sp, sp, #16
 333              		@ sp needed
 334 01ca 80BC     		pop	{r7}
 335 01cc 02BC     		pop	{r1}
 336 01ce 0847     		bx	r1
 337              		.cfi_endproc
 338              	.LFE1:
 339              		.size	measureTemperature, .-measureTemperature
 340              		.align	1
 341              		.global	calculateTemperatureValue
 342              		.syntax unified
 343              		.code	16
 344              		.thumb_func
 345              		.fpu softvfp
 346              		.type	calculateTemperatureValue, %function
 347              	calculateTemperatureValue:
 348              	.LFB2:
  89:lm75.c        **** 
  90:lm75.c        **** tU8 calculateTemperatureValue(tU8 *byteArray)
  91:lm75.c        **** {
 349              		.loc 1 91 0
 350              		.cfi_startproc
 351              		@ Function supports interworking.
 352              		@ args = 0, pretend = 0, frame = 16
 353              		@ frame_needed = 1, uses_anonymous_args = 0
 354 01d0 90B5     		push	{r4, r7, lr}
 355              	.LCFI6:
 356              		.cfi_def_cfa_offset 12
 357              		.cfi_offset 4, -12
 358              		.cfi_offset 7, -8
 359              		.cfi_offset 14, -4
 360 01d2 85B0     		sub	sp, sp, #20
 361              	.LCFI7:
ARM GAS  C:\Users\embedded\AppData\Local\Temp\cchoUHXd.s 			page 9


 362              		.cfi_def_cfa_offset 32
 363 01d4 00AF     		add	r7, sp, #0
 364              	.LCFI8:
 365              		.cfi_def_cfa_register 7
 366 01d6 7860     		str	r0, [r7, #4]
  92:lm75.c        **** 	tU8 i;
  93:lm75.c        ****     tS16 intValue = 0;
 367              		.loc 1 93 0
 368 01d8 0C23     		movs	r3, #12
 369 01da FB18     		adds	r3, r7, r3
 370 01dc 0022     		movs	r2, #0
 371 01de 1A80     		strh	r2, [r3]
  94:lm75.c        ****     tU16 readValue = ((byteArray[0] << 8) | byteArray[1]);
 372              		.loc 1 94 0
 373 01e0 7B68     		ldr	r3, [r7, #4]
 374 01e2 1B78     		ldrb	r3, [r3]
 375 01e4 1B02     		lsls	r3, r3, #8
 376 01e6 1A04     		lsls	r2, r3, #16
 377 01e8 1214     		asrs	r2, r2, #16
 378 01ea 7B68     		ldr	r3, [r7, #4]
 379 01ec 0133     		adds	r3, r3, #1
 380 01ee 1B78     		ldrb	r3, [r3]
 381 01f0 1B04     		lsls	r3, r3, #16
 382 01f2 1B14     		asrs	r3, r3, #16
 383 01f4 1343     		orrs	r3, r2
 384 01f6 1B04     		lsls	r3, r3, #16
 385 01f8 1B14     		asrs	r3, r3, #16
 386 01fa 0A22     		movs	r2, #10
 387 01fc BA18     		adds	r2, r7, r2
 388 01fe 1380     		strh	r3, [r2]
  95:lm75.c        ****     tBool isNegative = (readValue & 0x8000);
 389              		.loc 1 95 0
 390 0200 0921     		movs	r1, #9
 391 0202 7B18     		adds	r3, r7, r1
 392 0204 0022     		movs	r2, #0
 393 0206 1A70     		strb	r2, [r3]
  96:lm75.c        ****     if (isNegative)
 394              		.loc 1 96 0
 395 0208 7B18     		adds	r3, r7, r1
 396 020a 1B78     		ldrb	r3, [r3]
 397 020c 002B     		cmp	r3, #0
 398 020e 04D0     		beq	.L19
  97:lm75.c        ****     {
  98:lm75.c        ****         intValue = -1;
 399              		.loc 1 98 0
 400 0210 0C23     		movs	r3, #12
 401 0212 FB18     		adds	r3, r7, r3
 402 0214 0122     		movs	r2, #1
 403 0216 5242     		rsbs	r2, r2, #0
 404 0218 1A80     		strh	r2, [r3]
 405              	.L19:
  99:lm75.c        ****     }
 100:lm75.c        ****     for (i = 1; i < 9; i++)
 406              		.loc 1 100 0
 407 021a 0F23     		movs	r3, #15
 408 021c FB18     		adds	r3, r7, r3
 409 021e 0122     		movs	r2, #1
ARM GAS  C:\Users\embedded\AppData\Local\Temp\cchoUHXd.s 			page 10


 410 0220 1A70     		strb	r2, [r3]
 411 0222 1DE0     		b	.L20
 412              	.L21:
 101:lm75.c        ****     {
 102:lm75.c        ****         intValue = intValue * 2 + ((readValue << i) & 0x8000);
 413              		.loc 1 102 0 discriminator 3
 414 0224 0C24     		movs	r4, #12
 415 0226 3B19     		adds	r3, r7, r4
 416 0228 1B88     		ldrh	r3, [r3]
 417 022a DB18     		adds	r3, r3, r3
 418 022c 1B04     		lsls	r3, r3, #16
 419 022e 1A0C     		lsrs	r2, r3, #16
 420 0230 0A23     		movs	r3, #10
 421 0232 FB18     		adds	r3, r7, r3
 422 0234 1988     		ldrh	r1, [r3]
 423 0236 0F20     		movs	r0, #15
 424 0238 3B18     		adds	r3, r7, r0
 425 023a 1B78     		ldrb	r3, [r3]
 426 023c 9940     		lsls	r1, r1, r3
 427 023e 0B00     		movs	r3, r1
 428 0240 1B04     		lsls	r3, r3, #16
 429 0242 1B0C     		lsrs	r3, r3, #16
 430 0244 DB0B     		lsrs	r3, r3, #15
 431 0246 DB03     		lsls	r3, r3, #15
 432 0248 1B04     		lsls	r3, r3, #16
 433 024a 1B0C     		lsrs	r3, r3, #16
 434 024c D318     		adds	r3, r2, r3
 435 024e 1B04     		lsls	r3, r3, #16
 436 0250 1A0C     		lsrs	r2, r3, #16
 437 0252 3B19     		adds	r3, r7, r4
 438 0254 1A80     		strh	r2, [r3]
 100:lm75.c        ****     {
 439              		.loc 1 100 0 discriminator 3
 440 0256 3B18     		adds	r3, r7, r0
 441 0258 1A78     		ldrb	r2, [r3]
 442 025a 3B18     		adds	r3, r7, r0
 443 025c 0132     		adds	r2, r2, #1
 444 025e 1A70     		strb	r2, [r3]
 445              	.L20:
 100:lm75.c        ****     {
 446              		.loc 1 100 0 is_stmt 0 discriminator 1
 447 0260 0F23     		movs	r3, #15
 448 0262 FB18     		adds	r3, r7, r3
 449 0264 1B78     		ldrb	r3, [r3]
 450 0266 082B     		cmp	r3, #8
 451 0268 DCD9     		bls	.L21
 103:lm75.c        ****     }
 104:lm75.c        ****     return (intValue);
 452              		.loc 1 104 0 is_stmt 1
 453 026a 0C23     		movs	r3, #12
 454 026c FB18     		adds	r3, r7, r3
 455 026e 1B88     		ldrh	r3, [r3]
 456 0270 1B06     		lsls	r3, r3, #24
 457 0272 1B0E     		lsrs	r3, r3, #24
 105:lm75.c        **** }
 458              		.loc 1 105 0
 459 0274 1800     		movs	r0, r3
ARM GAS  C:\Users\embedded\AppData\Local\Temp\cchoUHXd.s 			page 11


 460 0276 BD46     		mov	sp, r7
 461 0278 05B0     		add	sp, sp, #20
 462              		@ sp needed
 463 027a 90BC     		pop	{r4, r7}
 464 027c 02BC     		pop	{r1}
 465 027e 0847     		bx	r1
 466              		.cfi_endproc
 467              	.LFE2:
 468              		.size	calculateTemperatureValue, .-calculateTemperatureValue
 469              	.Letext0:
 470              		.file 2 "general.h"
 471              		.section	.debug_info,"",%progbits
 472              	.Ldebug_info0:
 473 0000 D8010000 		.4byte	0x1d8
 474 0004 0200     		.2byte	0x2
 475 0006 00000000 		.4byte	.Ldebug_abbrev0
 476 000a 04       		.byte	0x4
 477 000b 01       		.uleb128 0x1
 478 000c 9F000000 		.4byte	.LASF22
 479 0010 0C       		.byte	0xc
 480 0011 90010000 		.4byte	.LASF23
 481 0015 3E010000 		.4byte	.LASF24
 482 0019 00000000 		.4byte	.Ltext0
 483 001d 80020000 		.4byte	.Letext0
 484 0021 00000000 		.4byte	.Ldebug_line0
 485 0025 02       		.uleb128 0x2
 486 0026 74553800 		.ascii	"tU8\000"
 487 002a 02       		.byte	0x2
 488 002b 17       		.byte	0x17
 489 002c 30000000 		.4byte	0x30
 490 0030 03       		.uleb128 0x3
 491 0031 01       		.byte	0x1
 492 0032 08       		.byte	0x8
 493 0033 83000000 		.4byte	.LASF1
 494 0037 04       		.uleb128 0x4
 495 0038 7B010000 		.4byte	.LASF0
 496 003c 02       		.byte	0x2
 497 003d 18       		.byte	0x18
 498 003e 42000000 		.4byte	0x42
 499 0042 03       		.uleb128 0x3
 500 0043 02       		.byte	0x2
 501 0044 07       		.byte	0x7
 502 0045 5C010000 		.4byte	.LASF2
 503 0049 03       		.uleb128 0x3
 504 004a 04       		.byte	0x4
 505 004b 07       		.byte	0x7
 506 004c 21000000 		.4byte	.LASF3
 507 0050 03       		.uleb128 0x3
 508 0051 08       		.byte	0x8
 509 0052 07       		.byte	0x7
 510 0053 4E000000 		.4byte	.LASF4
 511 0057 02       		.uleb128 0x2
 512 0058 74533800 		.ascii	"tS8\000"
 513 005c 02       		.byte	0x2
 514 005d 1B       		.byte	0x1b
 515 005e 62000000 		.4byte	0x62
 516 0062 03       		.uleb128 0x3
ARM GAS  C:\Users\embedded\AppData\Local\Temp\cchoUHXd.s 			page 12


 517 0063 01       		.byte	0x1
 518 0064 06       		.byte	0x6
 519 0065 6F010000 		.4byte	.LASF5
 520 0069 04       		.uleb128 0x4
 521 006a 39010000 		.4byte	.LASF6
 522 006e 02       		.byte	0x2
 523 006f 1C       		.byte	0x1c
 524 0070 74000000 		.4byte	0x74
 525 0074 03       		.uleb128 0x3
 526 0075 02       		.byte	0x2
 527 0076 05       		.byte	0x5
 528 0077 86010000 		.4byte	.LASF7
 529 007b 05       		.uleb128 0x5
 530 007c 04       		.byte	0x4
 531 007d 05       		.byte	0x5
 532 007e 696E7400 		.ascii	"int\000"
 533 0082 03       		.uleb128 0x3
 534 0083 08       		.byte	0x8
 535 0084 05       		.byte	0x5
 536 0085 00000000 		.4byte	.LASF8
 537 0089 06       		.uleb128 0x6
 538 008a 07       		.byte	0x7
 539 008b 01       		.byte	0x1
 540 008c 30000000 		.4byte	0x30
 541 0090 02       		.byte	0x2
 542 0091 1F       		.byte	0x1f
 543 0092 A3000000 		.4byte	0xa3
 544 0096 07       		.uleb128 0x7
 545 0097 36000000 		.4byte	.LASF9
 546 009b 00       		.byte	0
 547 009c 07       		.uleb128 0x7
 548 009d 91000000 		.4byte	.LASF10
 549 00a1 01       		.byte	0x1
 550 00a2 00       		.byte	0
 551 00a3 04       		.uleb128 0x4
 552 00a4 80010000 		.4byte	.LASF11
 553 00a8 02       		.byte	0x2
 554 00a9 20       		.byte	0x20
 555 00aa 89000000 		.4byte	0x89
 556 00ae 08       		.uleb128 0x8
 557 00af 01       		.byte	0x1
 558 00b0 1F010000 		.4byte	.LASF15
 559 00b4 01       		.byte	0x1
 560 00b5 5A       		.byte	0x5a
 561 00b6 01       		.byte	0x1
 562 00b7 25000000 		.4byte	0x25
 563 00bb D0010000 		.4byte	.LFB2
 564 00bf 80020000 		.4byte	.LFE2
 565 00c3 00000000 		.4byte	.LLST2
 566 00c7 01       		.byte	0x1
 567 00c8 11010000 		.4byte	0x111
 568 00cc 09       		.uleb128 0x9
 569 00cd 74000000 		.4byte	.LASF17
 570 00d1 01       		.byte	0x1
 571 00d2 5A       		.byte	0x5a
 572 00d3 11010000 		.4byte	0x111
 573 00d7 02       		.byte	0x2
ARM GAS  C:\Users\embedded\AppData\Local\Temp\cchoUHXd.s 			page 13


 574 00d8 91       		.byte	0x91
 575 00d9 64       		.sleb128 -28
 576 00da 0A       		.uleb128 0xa
 577 00db 6900     		.ascii	"i\000"
 578 00dd 01       		.byte	0x1
 579 00de 5C       		.byte	0x5c
 580 00df 25000000 		.4byte	0x25
 581 00e3 02       		.byte	0x2
 582 00e4 91       		.byte	0x91
 583 00e5 6F       		.sleb128 -17
 584 00e6 0B       		.uleb128 0xb
 585 00e7 96000000 		.4byte	.LASF12
 586 00eb 01       		.byte	0x1
 587 00ec 5D       		.byte	0x5d
 588 00ed 69000000 		.4byte	0x69
 589 00f1 02       		.byte	0x2
 590 00f2 91       		.byte	0x91
 591 00f3 6C       		.sleb128 -20
 592 00f4 0B       		.uleb128 0xb
 593 00f5 65000000 		.4byte	.LASF13
 594 00f9 01       		.byte	0x1
 595 00fa 5E       		.byte	0x5e
 596 00fb 37000000 		.4byte	0x37
 597 00ff 02       		.byte	0x2
 598 0100 91       		.byte	0x91
 599 0101 6A       		.sleb128 -22
 600 0102 0B       		.uleb128 0xb
 601 0103 43000000 		.4byte	.LASF14
 602 0107 01       		.byte	0x1
 603 0108 5F       		.byte	0x5f
 604 0109 A3000000 		.4byte	0xa3
 605 010d 02       		.byte	0x2
 606 010e 91       		.byte	0x91
 607 010f 69       		.sleb128 -23
 608 0110 00       		.byte	0
 609 0111 0C       		.uleb128 0xc
 610 0112 04       		.byte	0x4
 611 0113 25000000 		.4byte	0x25
 612 0117 0D       		.uleb128 0xd
 613 0118 01       		.byte	0x1
 614 0119 0E000000 		.4byte	.LASF16
 615 011d 01       		.byte	0x1
 616 011e 4D       		.byte	0x4d
 617 011f 01       		.byte	0x1
 618 0120 57000000 		.4byte	0x57
 619 0124 74010000 		.4byte	.LFB1
 620 0128 D0010000 		.4byte	.LFE1
 621 012c 38000000 		.4byte	.LLST1
 622 0130 01       		.byte	0x1
 623 0131 6E010000 		.4byte	0x16e
 624 0135 09       		.uleb128 0x9
 625 0136 6F000000 		.4byte	.LASF18
 626 013a 01       		.byte	0x1
 627 013b 4D       		.byte	0x4d
 628 013c 25000000 		.4byte	0x25
 629 0140 02       		.byte	0x2
 630 0141 91       		.byte	0x91
ARM GAS  C:\Users\embedded\AppData\Local\Temp\cchoUHXd.s 			page 14


 631 0142 6F       		.sleb128 -17
 632 0143 09       		.uleb128 0x9
 633 0144 7E000000 		.4byte	.LASF19
 634 0148 01       		.byte	0x1
 635 0149 4E       		.byte	0x4e
 636 014a 11010000 		.4byte	0x111
 637 014e 02       		.byte	0x2
 638 014f 91       		.byte	0x91
 639 0150 68       		.sleb128 -24
 640 0151 0E       		.uleb128 0xe
 641 0152 6C656E00 		.ascii	"len\000"
 642 0156 01       		.byte	0x1
 643 0157 4F       		.byte	0x4f
 644 0158 37000000 		.4byte	0x37
 645 015c 02       		.byte	0x2
 646 015d 91       		.byte	0x91
 647 015e 6C       		.sleb128 -20
 648 015f 0B       		.uleb128 0xb
 649 0160 2E000000 		.4byte	.LASF20
 650 0164 01       		.byte	0x1
 651 0165 51       		.byte	0x51
 652 0166 25000000 		.4byte	0x25
 653 016a 02       		.byte	0x2
 654 016b 91       		.byte	0x91
 655 016c 77       		.sleb128 -9
 656 016d 00       		.byte	0
 657 016e 0F       		.uleb128 0xf
 658 016f 01       		.byte	0x1
 659 0170 97010000 		.4byte	.LASF25
 660 0174 01       		.byte	0x1
 661 0175 0A       		.byte	0xa
 662 0176 01       		.byte	0x1
 663 0177 57000000 		.4byte	0x57
 664 017b 00000000 		.4byte	.LFB0
 665 017f 74010000 		.4byte	.LFE0
 666 0183 70000000 		.4byte	.LLST0
 667 0187 01       		.byte	0x1
 668 0188 09       		.uleb128 0x9
 669 0189 6F000000 		.4byte	.LASF18
 670 018d 01       		.byte	0x1
 671 018e 0A       		.byte	0xa
 672 018f 25000000 		.4byte	0x25
 673 0193 02       		.byte	0x2
 674 0194 91       		.byte	0x91
 675 0195 67       		.sleb128 -25
 676 0196 09       		.uleb128 0x9
 677 0197 7E000000 		.4byte	.LASF19
 678 019b 01       		.byte	0x1
 679 019c 0B       		.byte	0xb
 680 019d 11010000 		.4byte	0x111
 681 01a1 02       		.byte	0x2
 682 01a2 91       		.byte	0x91
 683 01a3 60       		.sleb128 -32
 684 01a4 0E       		.uleb128 0xe
 685 01a5 6C656E00 		.ascii	"len\000"
 686 01a9 01       		.byte	0x1
 687 01aa 0C       		.byte	0xc
ARM GAS  C:\Users\embedded\AppData\Local\Temp\cchoUHXd.s 			page 15


 688 01ab 37000000 		.4byte	0x37
 689 01af 02       		.byte	0x2
 690 01b0 91       		.byte	0x91
 691 01b1 64       		.sleb128 -28
 692 01b2 0A       		.uleb128 0xa
 693 01b3 6900     		.ascii	"i\000"
 694 01b5 01       		.byte	0x1
 695 01b6 0E       		.byte	0xe
 696 01b7 25000000 		.4byte	0x25
 697 01bb 02       		.byte	0x2
 698 01bc 91       		.byte	0x91
 699 01bd 6F       		.sleb128 -17
 700 01be 0B       		.uleb128 0xb
 701 01bf 3C000000 		.4byte	.LASF21
 702 01c3 01       		.byte	0x1
 703 01c4 0F       		.byte	0xf
 704 01c5 57000000 		.4byte	0x57
 705 01c9 02       		.byte	0x2
 706 01ca 91       		.byte	0x91
 707 01cb 6D       		.sleb128 -19
 708 01cc 0B       		.uleb128 0xb
 709 01cd 2E000000 		.4byte	.LASF20
 710 01d1 01       		.byte	0x1
 711 01d2 10       		.byte	0x10
 712 01d3 57000000 		.4byte	0x57
 713 01d7 02       		.byte	0x2
 714 01d8 91       		.byte	0x91
 715 01d9 6E       		.sleb128 -18
 716 01da 00       		.byte	0
 717 01db 00       		.byte	0
 718              		.section	.debug_abbrev,"",%progbits
 719              	.Ldebug_abbrev0:
 720 0000 01       		.uleb128 0x1
 721 0001 11       		.uleb128 0x11
 722 0002 01       		.byte	0x1
 723 0003 25       		.uleb128 0x25
 724 0004 0E       		.uleb128 0xe
 725 0005 13       		.uleb128 0x13
 726 0006 0B       		.uleb128 0xb
 727 0007 03       		.uleb128 0x3
 728 0008 0E       		.uleb128 0xe
 729 0009 1B       		.uleb128 0x1b
 730 000a 0E       		.uleb128 0xe
 731 000b 11       		.uleb128 0x11
 732 000c 01       		.uleb128 0x1
 733 000d 12       		.uleb128 0x12
 734 000e 01       		.uleb128 0x1
 735 000f 10       		.uleb128 0x10
 736 0010 06       		.uleb128 0x6
 737 0011 00       		.byte	0
 738 0012 00       		.byte	0
 739 0013 02       		.uleb128 0x2
 740 0014 16       		.uleb128 0x16
 741 0015 00       		.byte	0
 742 0016 03       		.uleb128 0x3
 743 0017 08       		.uleb128 0x8
 744 0018 3A       		.uleb128 0x3a
ARM GAS  C:\Users\embedded\AppData\Local\Temp\cchoUHXd.s 			page 16


 745 0019 0B       		.uleb128 0xb
 746 001a 3B       		.uleb128 0x3b
 747 001b 0B       		.uleb128 0xb
 748 001c 49       		.uleb128 0x49
 749 001d 13       		.uleb128 0x13
 750 001e 00       		.byte	0
 751 001f 00       		.byte	0
 752 0020 03       		.uleb128 0x3
 753 0021 24       		.uleb128 0x24
 754 0022 00       		.byte	0
 755 0023 0B       		.uleb128 0xb
 756 0024 0B       		.uleb128 0xb
 757 0025 3E       		.uleb128 0x3e
 758 0026 0B       		.uleb128 0xb
 759 0027 03       		.uleb128 0x3
 760 0028 0E       		.uleb128 0xe
 761 0029 00       		.byte	0
 762 002a 00       		.byte	0
 763 002b 04       		.uleb128 0x4
 764 002c 16       		.uleb128 0x16
 765 002d 00       		.byte	0
 766 002e 03       		.uleb128 0x3
 767 002f 0E       		.uleb128 0xe
 768 0030 3A       		.uleb128 0x3a
 769 0031 0B       		.uleb128 0xb
 770 0032 3B       		.uleb128 0x3b
 771 0033 0B       		.uleb128 0xb
 772 0034 49       		.uleb128 0x49
 773 0035 13       		.uleb128 0x13
 774 0036 00       		.byte	0
 775 0037 00       		.byte	0
 776 0038 05       		.uleb128 0x5
 777 0039 24       		.uleb128 0x24
 778 003a 00       		.byte	0
 779 003b 0B       		.uleb128 0xb
 780 003c 0B       		.uleb128 0xb
 781 003d 3E       		.uleb128 0x3e
 782 003e 0B       		.uleb128 0xb
 783 003f 03       		.uleb128 0x3
 784 0040 08       		.uleb128 0x8
 785 0041 00       		.byte	0
 786 0042 00       		.byte	0
 787 0043 06       		.uleb128 0x6
 788 0044 04       		.uleb128 0x4
 789 0045 01       		.byte	0x1
 790 0046 3E       		.uleb128 0x3e
 791 0047 0B       		.uleb128 0xb
 792 0048 0B       		.uleb128 0xb
 793 0049 0B       		.uleb128 0xb
 794 004a 49       		.uleb128 0x49
 795 004b 13       		.uleb128 0x13
 796 004c 3A       		.uleb128 0x3a
 797 004d 0B       		.uleb128 0xb
 798 004e 3B       		.uleb128 0x3b
 799 004f 0B       		.uleb128 0xb
 800 0050 01       		.uleb128 0x1
 801 0051 13       		.uleb128 0x13
ARM GAS  C:\Users\embedded\AppData\Local\Temp\cchoUHXd.s 			page 17


 802 0052 00       		.byte	0
 803 0053 00       		.byte	0
 804 0054 07       		.uleb128 0x7
 805 0055 28       		.uleb128 0x28
 806 0056 00       		.byte	0
 807 0057 03       		.uleb128 0x3
 808 0058 0E       		.uleb128 0xe
 809 0059 1C       		.uleb128 0x1c
 810 005a 0B       		.uleb128 0xb
 811 005b 00       		.byte	0
 812 005c 00       		.byte	0
 813 005d 08       		.uleb128 0x8
 814 005e 2E       		.uleb128 0x2e
 815 005f 01       		.byte	0x1
 816 0060 3F       		.uleb128 0x3f
 817 0061 0C       		.uleb128 0xc
 818 0062 03       		.uleb128 0x3
 819 0063 0E       		.uleb128 0xe
 820 0064 3A       		.uleb128 0x3a
 821 0065 0B       		.uleb128 0xb
 822 0066 3B       		.uleb128 0x3b
 823 0067 0B       		.uleb128 0xb
 824 0068 27       		.uleb128 0x27
 825 0069 0C       		.uleb128 0xc
 826 006a 49       		.uleb128 0x49
 827 006b 13       		.uleb128 0x13
 828 006c 11       		.uleb128 0x11
 829 006d 01       		.uleb128 0x1
 830 006e 12       		.uleb128 0x12
 831 006f 01       		.uleb128 0x1
 832 0070 40       		.uleb128 0x40
 833 0071 06       		.uleb128 0x6
 834 0072 9742     		.uleb128 0x2117
 835 0074 0C       		.uleb128 0xc
 836 0075 01       		.uleb128 0x1
 837 0076 13       		.uleb128 0x13
 838 0077 00       		.byte	0
 839 0078 00       		.byte	0
 840 0079 09       		.uleb128 0x9
 841 007a 05       		.uleb128 0x5
 842 007b 00       		.byte	0
 843 007c 03       		.uleb128 0x3
 844 007d 0E       		.uleb128 0xe
 845 007e 3A       		.uleb128 0x3a
 846 007f 0B       		.uleb128 0xb
 847 0080 3B       		.uleb128 0x3b
 848 0081 0B       		.uleb128 0xb
 849 0082 49       		.uleb128 0x49
 850 0083 13       		.uleb128 0x13
 851 0084 02       		.uleb128 0x2
 852 0085 0A       		.uleb128 0xa
 853 0086 00       		.byte	0
 854 0087 00       		.byte	0
 855 0088 0A       		.uleb128 0xa
 856 0089 34       		.uleb128 0x34
 857 008a 00       		.byte	0
 858 008b 03       		.uleb128 0x3
ARM GAS  C:\Users\embedded\AppData\Local\Temp\cchoUHXd.s 			page 18


 859 008c 08       		.uleb128 0x8
 860 008d 3A       		.uleb128 0x3a
 861 008e 0B       		.uleb128 0xb
 862 008f 3B       		.uleb128 0x3b
 863 0090 0B       		.uleb128 0xb
 864 0091 49       		.uleb128 0x49
 865 0092 13       		.uleb128 0x13
 866 0093 02       		.uleb128 0x2
 867 0094 0A       		.uleb128 0xa
 868 0095 00       		.byte	0
 869 0096 00       		.byte	0
 870 0097 0B       		.uleb128 0xb
 871 0098 34       		.uleb128 0x34
 872 0099 00       		.byte	0
 873 009a 03       		.uleb128 0x3
 874 009b 0E       		.uleb128 0xe
 875 009c 3A       		.uleb128 0x3a
 876 009d 0B       		.uleb128 0xb
 877 009e 3B       		.uleb128 0x3b
 878 009f 0B       		.uleb128 0xb
 879 00a0 49       		.uleb128 0x49
 880 00a1 13       		.uleb128 0x13
 881 00a2 02       		.uleb128 0x2
 882 00a3 0A       		.uleb128 0xa
 883 00a4 00       		.byte	0
 884 00a5 00       		.byte	0
 885 00a6 0C       		.uleb128 0xc
 886 00a7 0F       		.uleb128 0xf
 887 00a8 00       		.byte	0
 888 00a9 0B       		.uleb128 0xb
 889 00aa 0B       		.uleb128 0xb
 890 00ab 49       		.uleb128 0x49
 891 00ac 13       		.uleb128 0x13
 892 00ad 00       		.byte	0
 893 00ae 00       		.byte	0
 894 00af 0D       		.uleb128 0xd
 895 00b0 2E       		.uleb128 0x2e
 896 00b1 01       		.byte	0x1
 897 00b2 3F       		.uleb128 0x3f
 898 00b3 0C       		.uleb128 0xc
 899 00b4 03       		.uleb128 0x3
 900 00b5 0E       		.uleb128 0xe
 901 00b6 3A       		.uleb128 0x3a
 902 00b7 0B       		.uleb128 0xb
 903 00b8 3B       		.uleb128 0x3b
 904 00b9 0B       		.uleb128 0xb
 905 00ba 27       		.uleb128 0x27
 906 00bb 0C       		.uleb128 0xc
 907 00bc 49       		.uleb128 0x49
 908 00bd 13       		.uleb128 0x13
 909 00be 11       		.uleb128 0x11
 910 00bf 01       		.uleb128 0x1
 911 00c0 12       		.uleb128 0x12
 912 00c1 01       		.uleb128 0x1
 913 00c2 40       		.uleb128 0x40
 914 00c3 06       		.uleb128 0x6
 915 00c4 9642     		.uleb128 0x2116
ARM GAS  C:\Users\embedded\AppData\Local\Temp\cchoUHXd.s 			page 19


 916 00c6 0C       		.uleb128 0xc
 917 00c7 01       		.uleb128 0x1
 918 00c8 13       		.uleb128 0x13
 919 00c9 00       		.byte	0
 920 00ca 00       		.byte	0
 921 00cb 0E       		.uleb128 0xe
 922 00cc 05       		.uleb128 0x5
 923 00cd 00       		.byte	0
 924 00ce 03       		.uleb128 0x3
 925 00cf 08       		.uleb128 0x8
 926 00d0 3A       		.uleb128 0x3a
 927 00d1 0B       		.uleb128 0xb
 928 00d2 3B       		.uleb128 0x3b
 929 00d3 0B       		.uleb128 0xb
 930 00d4 49       		.uleb128 0x49
 931 00d5 13       		.uleb128 0x13
 932 00d6 02       		.uleb128 0x2
 933 00d7 0A       		.uleb128 0xa
 934 00d8 00       		.byte	0
 935 00d9 00       		.byte	0
 936 00da 0F       		.uleb128 0xf
 937 00db 2E       		.uleb128 0x2e
 938 00dc 01       		.byte	0x1
 939 00dd 3F       		.uleb128 0x3f
 940 00de 0C       		.uleb128 0xc
 941 00df 03       		.uleb128 0x3
 942 00e0 0E       		.uleb128 0xe
 943 00e1 3A       		.uleb128 0x3a
 944 00e2 0B       		.uleb128 0xb
 945 00e3 3B       		.uleb128 0x3b
 946 00e4 0B       		.uleb128 0xb
 947 00e5 27       		.uleb128 0x27
 948 00e6 0C       		.uleb128 0xc
 949 00e7 49       		.uleb128 0x49
 950 00e8 13       		.uleb128 0x13
 951 00e9 11       		.uleb128 0x11
 952 00ea 01       		.uleb128 0x1
 953 00eb 12       		.uleb128 0x12
 954 00ec 01       		.uleb128 0x1
 955 00ed 40       		.uleb128 0x40
 956 00ee 06       		.uleb128 0x6
 957 00ef 9642     		.uleb128 0x2116
 958 00f1 0C       		.uleb128 0xc
 959 00f2 00       		.byte	0
 960 00f3 00       		.byte	0
 961 00f4 00       		.byte	0
 962              		.section	.debug_loc,"",%progbits
 963              	.Ldebug_loc0:
 964              	.LLST2:
 965 0000 D0010000 		.4byte	.LFB2-.Ltext0
 966 0004 D2010000 		.4byte	.LCFI6-.Ltext0
 967 0008 0200     		.2byte	0x2
 968 000a 7D       		.byte	0x7d
 969 000b 00       		.sleb128 0
 970 000c D2010000 		.4byte	.LCFI6-.Ltext0
 971 0010 D4010000 		.4byte	.LCFI7-.Ltext0
 972 0014 0200     		.2byte	0x2
ARM GAS  C:\Users\embedded\AppData\Local\Temp\cchoUHXd.s 			page 20


 973 0016 7D       		.byte	0x7d
 974 0017 0C       		.sleb128 12
 975 0018 D4010000 		.4byte	.LCFI7-.Ltext0
 976 001c D6010000 		.4byte	.LCFI8-.Ltext0
 977 0020 0200     		.2byte	0x2
 978 0022 7D       		.byte	0x7d
 979 0023 20       		.sleb128 32
 980 0024 D6010000 		.4byte	.LCFI8-.Ltext0
 981 0028 80020000 		.4byte	.LFE2-.Ltext0
 982 002c 0200     		.2byte	0x2
 983 002e 77       		.byte	0x77
 984 002f 20       		.sleb128 32
 985 0030 00000000 		.4byte	0
 986 0034 00000000 		.4byte	0
 987              	.LLST1:
 988 0038 74010000 		.4byte	.LFB1-.Ltext0
 989 003c 76010000 		.4byte	.LCFI3-.Ltext0
 990 0040 0200     		.2byte	0x2
 991 0042 7D       		.byte	0x7d
 992 0043 00       		.sleb128 0
 993 0044 76010000 		.4byte	.LCFI3-.Ltext0
 994 0048 78010000 		.4byte	.LCFI4-.Ltext0
 995 004c 0200     		.2byte	0x2
 996 004e 7D       		.byte	0x7d
 997 004f 08       		.sleb128 8
 998 0050 78010000 		.4byte	.LCFI4-.Ltext0
 999 0054 7A010000 		.4byte	.LCFI5-.Ltext0
 1000 0058 0200     		.2byte	0x2
 1001 005a 7D       		.byte	0x7d
 1002 005b 18       		.sleb128 24
 1003 005c 7A010000 		.4byte	.LCFI5-.Ltext0
 1004 0060 D0010000 		.4byte	.LFE1-.Ltext0
 1005 0064 0200     		.2byte	0x2
 1006 0066 77       		.byte	0x77
 1007 0067 18       		.sleb128 24
 1008 0068 00000000 		.4byte	0
 1009 006c 00000000 		.4byte	0
 1010              	.LLST0:
 1011 0070 00000000 		.4byte	.LFB0-.Ltext0
 1012 0074 02000000 		.4byte	.LCFI0-.Ltext0
 1013 0078 0200     		.2byte	0x2
 1014 007a 7D       		.byte	0x7d
 1015 007b 00       		.sleb128 0
 1016 007c 02000000 		.4byte	.LCFI0-.Ltext0
 1017 0080 04000000 		.4byte	.LCFI1-.Ltext0
 1018 0084 0200     		.2byte	0x2
 1019 0086 7D       		.byte	0x7d
 1020 0087 10       		.sleb128 16
 1021 0088 04000000 		.4byte	.LCFI1-.Ltext0
 1022 008c 06000000 		.4byte	.LCFI2-.Ltext0
 1023 0090 0200     		.2byte	0x2
 1024 0092 7D       		.byte	0x7d
 1025 0093 20       		.sleb128 32
 1026 0094 06000000 		.4byte	.LCFI2-.Ltext0
 1027 0098 74010000 		.4byte	.LFE0-.Ltext0
 1028 009c 0200     		.2byte	0x2
 1029 009e 77       		.byte	0x77
ARM GAS  C:\Users\embedded\AppData\Local\Temp\cchoUHXd.s 			page 21


 1030 009f 20       		.sleb128 32
 1031 00a0 00000000 		.4byte	0
 1032 00a4 00000000 		.4byte	0
 1033              		.section	.debug_aranges,"",%progbits
 1034 0000 1C000000 		.4byte	0x1c
 1035 0004 0200     		.2byte	0x2
 1036 0006 00000000 		.4byte	.Ldebug_info0
 1037 000a 04       		.byte	0x4
 1038 000b 00       		.byte	0
 1039 000c 0000     		.2byte	0
 1040 000e 0000     		.2byte	0
 1041 0010 00000000 		.4byte	.Ltext0
 1042 0014 80020000 		.4byte	.Letext0-.Ltext0
 1043 0018 00000000 		.4byte	0
 1044 001c 00000000 		.4byte	0
 1045              		.section	.debug_line,"",%progbits
 1046              	.Ldebug_line0:
 1047 0000 95000000 		.section	.debug_str,"MS",%progbits,1
 1047      02002A00 
 1047      00000201 
 1047      FB0E0D00 
 1047      01010101 
 1048              	.LASF8:
 1049 0000 6C6F6E67 		.ascii	"long long int\000"
 1049      206C6F6E 
 1049      6720696E 
 1049      7400
 1050              	.LASF16:
 1051 000e 6D656173 		.ascii	"measureTemperature\000"
 1051      75726554 
 1051      656D7065 
 1051      72617475 
 1051      726500
 1052              	.LASF3:
 1053 0021 756E7369 		.ascii	"unsigned int\000"
 1053      676E6564 
 1053      20696E74 
 1053      00
 1054              	.LASF20:
 1055 002e 72657443 		.ascii	"retCode\000"
 1055      6F646500 
 1056              	.LASF9:
 1057 0036 46414C53 		.ascii	"FALSE\000"
 1057      4500
 1058              	.LASF21:
 1059 003c 73746174 		.ascii	"status\000"
 1059      757300
 1060              	.LASF14:
 1061 0043 69734E65 		.ascii	"isNegative\000"
 1061      67617469 
 1061      766500
 1062              	.LASF4:
 1063 004e 6C6F6E67 		.ascii	"long long unsigned int\000"
 1063      206C6F6E 
 1063      6720756E 
 1063      7369676E 
 1063      65642069 
ARM GAS  C:\Users\embedded\AppData\Local\Temp\cchoUHXd.s 			page 22


 1064              	.LASF13:
 1065 0065 72656164 		.ascii	"readValue\000"
 1065      56616C75 
 1065      6500
 1066              	.LASF18:
 1067 006f 61646472 		.ascii	"addr\000"
 1067      00
 1068              	.LASF17:
 1069 0074 62797465 		.ascii	"byteArray\000"
 1069      41727261 
 1069      7900
 1070              	.LASF19:
 1071 007e 70427566 		.ascii	"pBuf\000"
 1071      00
 1072              	.LASF1:
 1073 0083 756E7369 		.ascii	"unsigned char\000"
 1073      676E6564 
 1073      20636861 
 1073      7200
 1074              	.LASF10:
 1075 0091 54525545 		.ascii	"TRUE\000"
 1075      00
 1076              	.LASF12:
 1077 0096 696E7456 		.ascii	"intValue\000"
 1077      616C7565 
 1077      00
 1078              	.LASF22:
 1079 009f 474E5520 		.ascii	"GNU C11 7.3.1 20180622 (release) [ARM/embedded-7-br"
 1079      43313120 
 1079      372E332E 
 1079      31203230 
 1079      31383036 
 1080 00d2 616E6368 		.ascii	"anch revision 261907] -mcpu=arm7tdmi -mthumb -mthum"
 1080      20726576 
 1080      6973696F 
 1080      6E203236 
 1080      31393037 
 1081 0105 622D696E 		.ascii	"b-interwork -gdwarf-2 -O0\000"
 1081      74657277 
 1081      6F726B20 
 1081      2D676477 
 1081      6172662D 
 1082              	.LASF15:
 1083 011f 63616C63 		.ascii	"calculateTemperatureValue\000"
 1083      756C6174 
 1083      6554656D 
 1083      70657261 
 1083      74757265 
 1084              	.LASF6:
 1085 0139 74533136 		.ascii	"tS16\000"
 1085      00
 1086              	.LASF24:
 1087 013e 433A5C45 		.ascii	"C:\\Embedded\\2138MiniDemo\\2138\000"
 1087      6D626564 
 1087      6465645C 
 1087      32313338 
 1087      4D696E69 
ARM GAS  C:\Users\embedded\AppData\Local\Temp\cchoUHXd.s 			page 23


 1088              	.LASF2:
 1089 015c 73686F72 		.ascii	"short unsigned int\000"
 1089      7420756E 
 1089      7369676E 
 1089      65642069 
 1089      6E7400
 1090              	.LASF5:
 1091 016f 7369676E 		.ascii	"signed char\000"
 1091      65642063 
 1091      68617200 
 1092              	.LASF0:
 1093 017b 74553136 		.ascii	"tU16\000"
 1093      00
 1094              	.LASF11:
 1095 0180 74426F6F 		.ascii	"tBool\000"
 1095      6C00
 1096              	.LASF7:
 1097 0186 73686F72 		.ascii	"short int\000"
 1097      7420696E 
 1097      7400
 1098              	.LASF23:
 1099 0190 6C6D3735 		.ascii	"lm75.c\000"
 1099      2E6300
 1100              	.LASF25:
 1101 0197 6D656173 		.ascii	"measureTemperature1\000"
 1101      75726554 
 1101      656D7065 
 1101      72617475 
 1101      72653100 
 1102              		.ident	"GCC: (GNU Tools for Arm Embedded Processors 7-2018-q2-update) 7.3.1 20180622 (release) [AR
ARM GAS  C:\Users\embedded\AppData\Local\Temp\cchoUHXd.s 			page 24


DEFINED SYMBOLS
                            *ABS*:00000000 lm75.c
C:\Users\embedded\AppData\Local\Temp\cchoUHXd.s:22     .text:00000000 measureTemperature1
C:\Users\embedded\AppData\Local\Temp\cchoUHXd.s:30     .text:00000000 $t
C:\Users\embedded\AppData\Local\Temp\cchoUHXd.s:271    .text:00000174 measureTemperature
C:\Users\embedded\AppData\Local\Temp\cchoUHXd.s:347    .text:000001d0 calculateTemperatureValue

UNDEFINED SYMBOLS
i2cStart
i2cPutChar
i2cCheckStatus
i2cGetChar
i2cStop
i2cRead
