ARM GAS  C:\Users\embedded\AppData\Local\Temp\cchoUHXd.s 			page 1


   1              		.cpu arm7tdmi
   2              		.eabi_attribute 20, 1
   3              		.eabi_attribute 21, 1
   4              		.eabi_attribute 23, 3
   5              		.eabi_attribute 24, 1
   6              		.eabi_attribute 25, 1
   7              		.eabi_attribute 26, 1
   8              		.eabi_attribute 30, 6
   9              		.eabi_attribute 34, 0
  10              		.eabi_attribute 18, 4
  11              		.file	"lm75.c"
  12              		.text
  13              	.Ltext0:
  14              		.cfi_sections	.debug_frame
  15              		.align	1
  16              		.global	measureTemperature1
  17              		.syntax unified
  18              		.code	16
  19              		.thumb_func
  20              		.fpu softvfp
  21              		.type	measureTemperature1, %function
  22              	measureTemperature1:
  23              	.LFB0:
  24              		.file 1 "lm75.c"
   1:lm75.c        **** /*
   2:lm75.c        ****     Obsługa pomiaru temperatury przy pomocy temometru LM75.
   3:lm75.c        **** 
   4:lm75.c        ****     Plik z kodem źródłowym funkcji.
   5:lm75.c        **** */
   6:lm75.c        **** 
   7:lm75.c        **** #include "lm75.h"
   8:lm75.c        **** #include "additional.h"
   9:lm75.c        **** 
  10:lm75.c        **** tS8 measureTemperature1(tU8 addr,
  11:lm75.c        ****                         tU8 *pBuf,
  12:lm75.c        ****                         tU16 len)
  13:lm75.c        **** {
  25              		.loc 1 13 0
  26              		.cfi_startproc
  27              		@ Function supports interworking.
  28              		@ args = 0, pretend = 0, frame = 16
  29              		@ frame_needed = 1, uses_anonymous_args = 0
  30 0000 B0B5     		push	{r4, r5, r7, lr}
  31              	.LCFI0:
  32              		.cfi_def_cfa_offset 16
  33              		.cfi_offset 4, -16
  34              		.cfi_offset 5, -12
  35              		.cfi_offset 7, -8
  36              		.cfi_offset 14, -4
  37 0002 84B0     		sub	sp, sp, #16
  38              	.LCFI1:
  39              		.cfi_def_cfa_offset 32
  40 0004 00AF     		add	r7, sp, #0
  41              	.LCFI2:
  42              		.cfi_def_cfa_register 7
  43 0006 3960     		str	r1, [r7]
  44 0008 1100     		movs	r1, r2
ARM GAS  C:\Users\embedded\AppData\Local\Temp\cchoUHXd.s 			page 2


  45 000a FB1D     		adds	r3, r7, #7
  46 000c 021C     		adds	r2, r0, #0
  47 000e 1A70     		strb	r2, [r3]
  48 0010 3B1D     		adds	r3, r7, #4
  49 0012 0A1C     		adds	r2, r1, #0
  50 0014 1A80     		strh	r2, [r3]
  14:lm75.c        **** 	tU8 i;
  15:lm75.c        ****     tS8 status;
  16:lm75.c        ****     tS8 retCode = i2cStart();
  51              		.loc 1 16 0
  52 0016 0E25     		movs	r5, #14
  53 0018 7C19     		adds	r4, r7, r5
  54 001a FFF7FEFF 		bl	i2cStart
  55 001e 0300     		movs	r3, r0
  56 0020 2370     		strb	r3, [r4]
  17:lm75.c        **** 
  18:lm75.c        ****     if (retCode == I2C_CODE_OK)
  57              		.loc 1 18 0
  58 0022 7B19     		adds	r3, r7, r5
  59 0024 1B78     		ldrb	r3, [r3]
  60 0026 1B06     		lsls	r3, r3, #24
  61 0028 1B16     		asrs	r3, r3, #24
  62 002a 012B     		cmp	r3, #1
  63 002c 00D0     		beq	.LCB36
  64 002e 94E0     		b	.L2	@long jump
  65              	.LCB36:
  19:lm75.c        ****     {
  20:lm75.c        ****         retCode = i2cPutChar(addr);
  66              		.loc 1 20 0
  67 0030 0E23     		movs	r3, #14
  68 0032 FC18     		adds	r4, r7, r3
  69 0034 FB1D     		adds	r3, r7, #7
  70 0036 1B78     		ldrb	r3, [r3]
  71 0038 1800     		movs	r0, r3
  72 003a FFF7FEFF 		bl	i2cPutChar
  73 003e 0300     		movs	r3, r0
  74 0040 2370     		strb	r3, [r4]
  21:lm75.c        ****         while (retCode == I2C_CODE_BUSY)
  75              		.loc 1 21 0
  76 0042 08E0     		b	.L3
  77              	.L4:
  22:lm75.c        ****         {
  23:lm75.c        ****             retCode = i2cPutChar(addr);
  78              		.loc 1 23 0
  79 0044 0E23     		movs	r3, #14
  80 0046 FC18     		adds	r4, r7, r3
  81 0048 FB1D     		adds	r3, r7, #7
  82 004a 1B78     		ldrb	r3, [r3]
  83 004c 1800     		movs	r0, r3
  84 004e FFF7FEFF 		bl	i2cPutChar
  85 0052 0300     		movs	r3, r0
  86 0054 2370     		strb	r3, [r4]
  87              	.L3:
  21:lm75.c        ****         while (retCode == I2C_CODE_BUSY)
  88              		.loc 1 21 0
  89 0056 0E23     		movs	r3, #14
  90 0058 FB18     		adds	r3, r7, r3
ARM GAS  C:\Users\embedded\AppData\Local\Temp\cchoUHXd.s 			page 3


  91 005a 1B78     		ldrb	r3, [r3]
  92 005c 1B06     		lsls	r3, r3, #24
  93 005e 1B16     		asrs	r3, r3, #24
  94 0060 0433     		adds	r3, r3, #4
  95 0062 EFD0     		beq	.L4
  24:lm75.c        ****         }
  25:lm75.c        **** 
  26:lm75.c        ****         if (retCode == I2C_CODE_OK)
  96              		.loc 1 26 0
  97 0064 0E23     		movs	r3, #14
  98 0066 FB18     		adds	r3, r7, r3
  99 0068 1B78     		ldrb	r3, [r3]
 100 006a 1B06     		lsls	r3, r3, #24
 101 006c 1B16     		asrs	r3, r3, #24
 102 006e 012B     		cmp	r3, #1
 103 0070 00D0     		beq	.LCB72
 104 0072 72E0     		b	.L2	@long jump
 105              	.LCB72:
  27:lm75.c        ****         {
  28:lm75.c        **** 
  29:lm75.c        ****             for (i = 0; i < len; i++)
 106              		.loc 1 29 0
 107 0074 0F23     		movs	r3, #15
 108 0076 FB18     		adds	r3, r7, r3
 109 0078 0022     		movs	r2, #0
 110 007a 1A70     		strb	r2, [r3]
 111 007c 64E0     		b	.L5
 112              	.L13:
  30:lm75.c        ****             {
  31:lm75.c        ****                 /* wait until data transmitted */
  32:lm75.c        ****                 while (TRUE)
  33:lm75.c        ****                 {
  34:lm75.c        ****                     /* Get new status */
  35:lm75.c        ****                     status = i2cCheckStatus();
 113              		.loc 1 35 0
 114 007e FFF7FEFF 		bl	i2cCheckStatus
 115 0082 0300     		movs	r3, r0
 116 0084 1A00     		movs	r2, r3
 117 0086 0D21     		movs	r1, #13
 118 0088 7B18     		adds	r3, r7, r1
 119 008a 1A70     		strb	r2, [r3]
  36:lm75.c        **** 
  37:lm75.c        ****                     if ((status == 0x40) || (status == 0x48) || (status == 0x50))
 120              		.loc 1 37 0
 121 008c 7B18     		adds	r3, r7, r1
 122 008e 1B78     		ldrb	r3, [r3]
 123 0090 1B06     		lsls	r3, r3, #24
 124 0092 1B16     		asrs	r3, r3, #24
 125 0094 402B     		cmp	r3, #64
 126 0096 0DD0     		beq	.L6
 127              		.loc 1 37 0 is_stmt 0 discriminator 1
 128 0098 0D23     		movs	r3, #13
 129 009a FB18     		adds	r3, r7, r3
 130 009c 1B78     		ldrb	r3, [r3]
 131 009e 1B06     		lsls	r3, r3, #24
 132 00a0 1B16     		asrs	r3, r3, #24
 133 00a2 482B     		cmp	r3, #72
ARM GAS  C:\Users\embedded\AppData\Local\Temp\cchoUHXd.s 			page 4


 134 00a4 06D0     		beq	.L6
 135              		.loc 1 37 0 discriminator 2
 136 00a6 0D23     		movs	r3, #13
 137 00a8 FB18     		adds	r3, r7, r3
 138 00aa 1B78     		ldrb	r3, [r3]
 139 00ac 1B06     		lsls	r3, r3, #24
 140 00ae 1B16     		asrs	r3, r3, #24
 141 00b0 502B     		cmp	r3, #80
 142 00b2 39D1     		bne	.L7
 143              	.L6:
  38:lm75.c        ****                     {
  39:lm75.c        ****                         /* Data received */
  40:lm75.c        **** 
  41:lm75.c        ****                         if (i == len)
 144              		.loc 1 41 0 is_stmt 1
 145 00b4 0F23     		movs	r3, #15
 146 00b6 FB18     		adds	r3, r7, r3
 147 00b8 1B78     		ldrb	r3, [r3]
 148 00ba 1B04     		lsls	r3, r3, #16
 149 00bc 1B0C     		lsrs	r3, r3, #16
 150 00be 3A1D     		adds	r2, r7, #4
 151 00c0 1288     		ldrh	r2, [r2]
 152 00c2 9A42     		cmp	r2, r3
 153 00c4 09D1     		bne	.L8
  42:lm75.c        ****                         {
  43:lm75.c        ****                             /* Set generate NACK */
  44:lm75.c        ****                             retCode = i2cGetChar(I2C_MODE_ACK1, pBuf);
 154              		.loc 1 44 0
 155 00c6 0E23     		movs	r3, #14
 156 00c8 FC18     		adds	r4, r7, r3
 157 00ca 3B68     		ldr	r3, [r7]
 158 00cc 1900     		movs	r1, r3
 159 00ce 0120     		movs	r0, #1
 160 00d0 FFF7FEFF 		bl	i2cGetChar
 161 00d4 0300     		movs	r3, r0
 162 00d6 2370     		strb	r3, [r4]
 163 00d8 08E0     		b	.L9
 164              	.L8:
  45:lm75.c        ****                         }
  46:lm75.c        ****                         else
  47:lm75.c        ****                         {
  48:lm75.c        ****                             retCode = i2cGetChar(I2C_MODE_ACK0, pBuf);
 165              		.loc 1 48 0
 166 00da 0E23     		movs	r3, #14
 167 00dc FC18     		adds	r4, r7, r3
 168 00de 3B68     		ldr	r3, [r7]
 169 00e0 1900     		movs	r1, r3
 170 00e2 0020     		movs	r0, #0
 171 00e4 FFF7FEFF 		bl	i2cGetChar
 172 00e8 0300     		movs	r3, r0
 173 00ea 2370     		strb	r3, [r4]
 174              	.L9:
  49:lm75.c        ****                         }
  50:lm75.c        **** 
  51:lm75.c        ****                         /* Read data */
  52:lm75.c        ****                         retCode = i2cGetChar(I2C_MODE_READ, pBuf);
 175              		.loc 1 52 0
ARM GAS  C:\Users\embedded\AppData\Local\Temp\cchoUHXd.s 			page 5


 176 00ec 0E23     		movs	r3, #14
 177 00ee FC18     		adds	r4, r7, r3
 178 00f0 3B68     		ldr	r3, [r7]
 179 00f2 1900     		movs	r1, r3
 180 00f4 0220     		movs	r0, #2
 181 00f6 FFF7FEFF 		bl	i2cGetChar
 182 00fa 0300     		movs	r3, r0
 183 00fc 2370     		strb	r3, [r4]
  53:lm75.c        ****                         while (retCode == I2C_CODE_EMPTY)
 184              		.loc 1 53 0
 185 00fe 08E0     		b	.L10
 186              	.L11:
  54:lm75.c        ****                         {
  55:lm75.c        ****                             retCode = i2cGetChar(I2C_MODE_READ, pBuf);
 187              		.loc 1 55 0
 188 0100 0E23     		movs	r3, #14
 189 0102 FC18     		adds	r4, r7, r3
 190 0104 3B68     		ldr	r3, [r7]
 191 0106 1900     		movs	r1, r3
 192 0108 0220     		movs	r0, #2
 193 010a FFF7FEFF 		bl	i2cGetChar
 194 010e 0300     		movs	r3, r0
 195 0110 2370     		strb	r3, [r4]
 196              	.L10:
  53:lm75.c        ****                         while (retCode == I2C_CODE_EMPTY)
 197              		.loc 1 53 0
 198 0112 0E23     		movs	r3, #14
 199 0114 FB18     		adds	r3, r7, r3
 200 0116 1B78     		ldrb	r3, [r3]
 201 0118 1B06     		lsls	r3, r3, #24
 202 011a 1B16     		asrs	r3, r3, #24
 203 011c 0333     		adds	r3, r3, #3
 204 011e EFD0     		beq	.L11
  56:lm75.c        ****                         }
  57:lm75.c        ****                         pBuf++;
 205              		.loc 1 57 0
 206 0120 3B68     		ldr	r3, [r7]
 207 0122 0133     		adds	r3, r3, #1
 208 0124 3B60     		str	r3, [r7]
  58:lm75.c        **** 
  59:lm75.c        ****                         break;
 209              		.loc 1 59 0
 210 0126 09E0     		b	.L12
 211              	.L7:
  60:lm75.c        ****                     }
  61:lm75.c        ****                     else if (status != 0xf8)
  62:lm75.c        ****                     {
  63:lm75.c        ****                         /* ERROR */
  64:lm75.c        ****                         i = len;
 212              		.loc 1 64 0
 213 0128 0F23     		movs	r3, #15
 214 012a FB18     		adds	r3, r7, r3
 215 012c 3A1D     		adds	r2, r7, #4
 216 012e 1288     		ldrh	r2, [r2]
 217 0130 1A70     		strb	r2, [r3]
  65:lm75.c        ****                         retCode = I2C_CODE_ERROR;
 218              		.loc 1 65 0
ARM GAS  C:\Users\embedded\AppData\Local\Temp\cchoUHXd.s 			page 6


 219 0132 0E23     		movs	r3, #14
 220 0134 FB18     		adds	r3, r7, r3
 221 0136 FF22     		movs	r2, #255
 222 0138 1A70     		strb	r2, [r3]
  66:lm75.c        ****                         break;
 223              		.loc 1 66 0
 224 013a C046     		nop
 225              	.L12:
  29:lm75.c        ****             {
 226              		.loc 1 29 0 discriminator 2
 227 013c 0F21     		movs	r1, #15
 228 013e 7B18     		adds	r3, r7, r1
 229 0140 1A78     		ldrb	r2, [r3]
 230 0142 7B18     		adds	r3, r7, r1
 231 0144 0132     		adds	r2, r2, #1
 232 0146 1A70     		strb	r2, [r3]
 233              	.L5:
  29:lm75.c        ****             {
 234              		.loc 1 29 0 is_stmt 0 discriminator 1
 235 0148 0F23     		movs	r3, #15
 236 014a FB18     		adds	r3, r7, r3
 237 014c 1B78     		ldrb	r3, [r3]
 238 014e 1B04     		lsls	r3, r3, #16
 239 0150 1B0C     		lsrs	r3, r3, #16
 240 0152 3A1D     		adds	r2, r7, #4
 241 0154 1288     		ldrh	r2, [r2]
 242 0156 9A42     		cmp	r2, r3
 243 0158 91D8     		bhi	.L13
 244              	.L2:
  67:lm75.c        ****                     }
  68:lm75.c        ****                 }
  69:lm75.c        ****             }
  70:lm75.c        ****         }
  71:lm75.c        ****     }
  72:lm75.c        **** 
  73:lm75.c        ****     i2cStop();
 245              		.loc 1 73 0 is_stmt 1
 246 015a FFF7FEFF 		bl	i2cStop
  74:lm75.c        ****     return retCode;
 247              		.loc 1 74 0
 248 015e 0E23     		movs	r3, #14
 249 0160 FB18     		adds	r3, r7, r3
 250 0162 1B78     		ldrb	r3, [r3]
 251 0164 1B06     		lsls	r3, r3, #24
 252 0166 1B16     		asrs	r3, r3, #24
  75:lm75.c        **** }
 253              		.loc 1 75 0
 254 0168 1800     		movs	r0, r3
 255 016a BD46     		mov	sp, r7
 256 016c 04B0     		add	sp, sp, #16
 257              		@ sp needed
 258 016e B0BC     		pop	{r4, r5, r7}
 259 0170 02BC     		pop	{r1}
 260 0172 0847     		bx	r1
 261              		.cfi_endproc
 262              	.LFE0:
 263              		.size	measureTemperature1, .-measureTemperature1
ARM GAS  C:\Users\embedded\AppData\Local\Temp\cchoUHXd.s 			page 7


 264              		.align	1
 265              		.global	measureTemperature
 266              		.syntax unified
 267              		.code	16
 268              		.thumb_func
 269              		.fpu softvfp
 270              		.type	measureTemperature, %function
 271              	measureTemperature:
 272              	.LFB1:
  76:lm75.c        **** 
  77:lm75.c        **** tS8 measureTemperature(tU8 addr,
  78:lm75.c        ****                        tU8 *pBuf,
  79:lm75.c        ****                        tU16 len)
  80:lm75.c        **** {
 273              		.loc 1 80 0
 274              		.cfi_startproc
 275              		@ Function supports interworking.
 276              		@ args = 0, pretend = 0, frame = 16
 277              		@ frame_needed = 1, uses_anonymous_args = 0
 278 0174 80B5     		push	{r7, lr}
 279              	.LCFI3:
 280              		.cfi_def_cfa_offset 8
 281              		.cfi_offset 7, -8
 282              		.cfi_offset 14, -4
 283 0176 84B0     		sub	sp, sp, #16
 284              	.LCFI4:
 285              		.cfi_def_cfa_offset 24
 286 0178 00AF     		add	r7, sp, #0
 287              	.LCFI5:
 288              		.cfi_def_cfa_register 7
 289 017a 3960     		str	r1, [r7]
 290 017c 1100     		movs	r1, r2
 291 017e FB1D     		adds	r3, r7, #7
 292 0180 021C     		adds	r2, r0, #0
 293 0182 1A70     		strb	r2, [r3]
 294 0184 3B1D     		adds	r3, r7, #4
 295 0186 0A1C     		adds	r2, r1, #0
 296 0188 1A80     		strh	r2, [r3]
  81:lm75.c        ****     tU8 retCode;
  82:lm75.c        ****     retCode = i2cStart();
 297              		.loc 1 82 0
 298 018a FFF7FEFF 		bl	i2cStart
 299 018e 0300     		movs	r3, r0
 300 0190 1A00     		movs	r2, r3
 301 0192 0F21     		movs	r1, #15
 302 0194 7B18     		adds	r3, r7, r1
 303 0196 1A70     		strb	r2, [r3]
  83:lm75.c        ****     
  84:lm75.c        ****     if (retCode == I2C_CODE_OK) {
 304              		.loc 1 84 0
 305 0198 7B18     		adds	r3, r7, r1
 306 019a 1B78     		ldrb	r3, [r3]
 307 019c 012B     		cmp	r3, #1
 308 019e 0CD1     		bne	.L16
  85:lm75.c        ****             retCode = i2cRead(addr, pBuf, len);
 309              		.loc 1 85 0
 310 01a0 3B1D     		adds	r3, r7, #4
ARM GAS  C:\Users\embedded\AppData\Local\Temp\cchoUHXd.s 			page 8


 311 01a2 1A88     		ldrh	r2, [r3]
 312 01a4 3968     		ldr	r1, [r7]
 313 01a6 FB1D     		adds	r3, r7, #7
 314 01a8 1B78     		ldrb	r3, [r3]
 315 01aa 1800     		movs	r0, r3
 316 01ac FFF7FEFF 		bl	i2cRead
 317 01b0 0300     		movs	r3, r0
 318 01b2 1A00     		movs	r2, r3
 319 01b4 0F23     		movs	r3, #15
 320 01b6 FB18     		adds	r3, r7, r3
 321 01b8 1A70     		strb	r2, [r3]
 322              	.L16:
  86:lm75.c        ****     }
  87:lm75.c        ****     return retCode;
 323              		.loc 1 87 0
 324 01ba 0F23     		movs	r3, #15
 325 01bc FB18     		adds	r3, r7, r3
 326 01be 1B78     		ldrb	r3, [r3]
 327 01c0 1B06     		lsls	r3, r3, #24
 328 01c2 1B16     		asrs	r3, r3, #24
  88:lm75.c        **** }
 329              		.loc 1 88 0
 330 01c4 1800     		movs	r0, r3
 331 01c6 BD46     		mov	sp, r7
 332 01c8 04B0     		add	sp, sp, #16
 333              		@ sp needed
 334 01ca 80BC     		pop	{r7}
 335 01cc 02BC     		pop	{r1}
 336 01ce 0847     		bx	r1
 337              		.cfi_endproc
 338              	.LFE1:
 339              		.size	measureTemperature, .-measureTemperature
 340              		.align	1
 341              		.global	calculateTemperatureValue
 342              		.syntax unified
 343              		.code	16
 344              		.thumb_func
 345              		.fpu softvfp
 346              		.type	calculateTemperatureValue, %function
 347              	calculateTemperatureValue:
 348              	.LFB2:
  89:lm75.c        **** 
  90:lm75.c        **** tU8 calculateTemperatureValue(tU8 *byteArray)
  91:lm75.c        **** {
 349              		.loc 1 91 0
 350              		.cfi_startproc
 351              		@ Function supports interworking.
 352              		@ args = 0, pretend = 0, frame = 16
 353              		@ frame_needed = 1, uses_anonymous_args = 0
 354 01d0 90B5     		push	{r4, r7, lr}
 355              	.LCFI6:
 356              		.cfi_def_cfa_offset 12
 357              		.cfi_offset 4, -12
 358              		.cfi_offset 7, -8
 359              		.cfi_offset 14, -4
 360 01d2 85B0     		sub	sp, sp, #20
 361              	.LCFI7:
ARM GAS  C:\Users\embedded\AppData\Local\Temp\cchoUHXd.s 			page 9


 362              		.cfi_def_cfa_offset 32
 363 01d4 00AF     		add	r7, sp, #0
 364              	.LCFI8:
 365              		.cfi_def_cfa_register 7
 366 01d6 7860     		str	r0, [r7, #4]
  92:lm75.c        **** 	tU8 i;
  93:lm75.c        ****     tS16 intValue = 0;
 367              		.loc 1 93 0
 368 01d8 0C23     		movs	r3, #12
 369 01da FB18     		adds	r3, r7, r3
 370 01dc 0022     		movs	r2, #0
 371 01de 1A80     		strh	r2, [r3]
  94:lm75.c        ****     tU16 readValue = ((byteArray[0] << 8) | byteArray[1]);
 372              		.loc 1 94 0
 373 01e0 7B68     		ldr	r3, [r7, #4]
 374 01e2 1B78     		ldrb	r3, [r3]
 375 01e4 1B02     		lsls	r3, r3, #8
 376 01e6 1A04     		lsls	r2, r3, #16
 377 01e8 1214     		asrs	r2, r2, #16
 378 01ea 7B68     		ldr	r3, [r7, #4]
 379 01ec 0133     		adds	r3, r3, #1
 380 01ee 1B78     		ldrb	r3, [r3]
 381 01f0 1B04     		lsls	r3, r3, #16
 382 01f2 1B14     		asrs	r3, r3, #16
 383 01f4 1343     		orrs	r3, r2
 384 01f6 1B04     		lsls	r3, r3, #16
 385 01f8 1B14     		asrs	r3, r3, #16
 386 01fa 0A22     		movs	r2, #10
 387 01fc BA18     		adds	r2, r7, r2
 388 01fe 1380     		strh	r3, [r2]
  95:lm75.c        ****     tBool isNegative = (readValue & 0x8000);
 389              		.loc 1 95 0
 390 0200 0921     		movs	r1, #9
 391 0202 7B18     		adds	r3, r7, r1
 392 0204 0022     		movs	r2, #0
 393 0206 1A70     		strb	r2, [r3]
  96:lm75.c        ****     if (isNegative)
 394              		.loc 1 96 0
 395 0208 7B18     		adds	r3, r7, r1
 396 020a 1B78     		ldrb	r3, [r3]
 397 020c 002B     		cmp	r3, #0
 398 020e 04D0     		beq	.L19
  97:lm75.c        ****     {
  98:lm75.c        ****         intValue = -1;
 399              		.loc 1 98 0
 400 0210 0C23     		movs	r3, #12
 401 0212 FB18     		adds	r3, r7, r3
 402 0214 0122     		movs	r2, #1
 403 0216 5242     		rsbs	r2, r2, #0
 404 0218 1A80     		strh	r2, [r3]
 405              	.L19:
  99:lm75.c        ****     }
 100:lm75.c        ****     for (i = 1; i < 9; i++)
 406              		.loc 1 100 0
 407 021a 0F23     		movs	r3, #15
 408 021c FB18     		adds	r3, r7, r3
 409 021e 0122     		movs	r2, #1
ARM GAS  C:\Users\embedded\AppData\Local\Temp\cchoUHXd.s 			page 10


 410 0220 1A70     		strb	r2, [r3]
 411 0222 1DE0     		b	.L20
 412              	.L21:
 101:lm75.c        ****     {
 102:lm75.c        ****         intValue = intValue * 2 + ((readValue << i) & 0x8000);
 413              		.loc 1 102 0 discriminator 3
 414 0224 0C24     		movs	r4, #12
 415 0226 3B19     		adds	r3, r7, r4
 416 0228 1B88     		ldrh	r3, [r3]
 417 022a DB18     		adds	r3, r3, r3
 418 022c 1B04     		lsls	r3, r3, #16
 419 022e 1A0C     		lsrs	r2, r3, #16
 420 0230 0A23     		movs	r3, #10
 421 0232 FB18     		adds	r3, r7, r3
 422 0234 1988     		ldrh	r1, [r3]
 423 0236 0F20     		movs	r0, #15
 424 0238 3B18     		adds	r3, r7, r0
 425 023a 1B78     		ldrb	r3, [r3]
 426 023c 9940     		lsls	r1, r1, r3
 427 023e 0B00     		movs	r3, r1
 428 0240 1B04     		lsls	r3, r3, #16
 429 0242 1B0C     		lsrs	r3, r3, #16
 430 0244 DB0B     		lsrs	r3, r3, #15
 431 0246 DB03     		lsls	r3, r3, #15
 432 0248 1B04     		lsls	r3, r3, #16
 433 024a 1B0C     		lsrs	r3, r3, #16
 434 024c D318     		adds	r3, r2, r3
 435 024e 1B04     		lsls	r3, r3, #16
 436 0250 1A0C     		lsrs	r2, r3, #16
 437 0252 3B19     		adds	r3, r7, r4
 438 0254 1A80     		strh	r2, [r3]
 100:lm75.c        ****     {
 439              		.loc 1 100 0 discriminator 3
 440 0256 3B18     		adds	r3, r7, r0
 441 0258 1A78     		ldrb	r2, [r3]
 442 025a 3B18     		adds	r3, r7, r0
 443 025c 0132     		adds	r2, r2, #1
 444 025e 1A70     		strb	r2, [r3]
 445              	.L20:
 100:lm75.c        ****     {
 446              		.loc 1 100 0 is_stmt 0 discriminator 1
 447 0260 0F23     		movs	r3, #15
 448 0262 FB18     		adds	r3, r7, r3
 449 0264 1B78     		ldrb	r3, [r3]
 450 0266 082B     		cmp	r3, #8
 451 0268 DCD9     		bls	.L21
 103:lm75.c        ****     }
 104:lm75.c        ****     return (intValue);
 452              		.loc 1 104 0 is_stmt 1
 453 026a 0C23     		movs	r3, #12
 454 026c FB18     		adds	r3, r7, r3
 455 026e 1B88     		ldrh	r3, [r3]
 456 0270 1B06     		lsls	r3, r3, #24
 457 0272 1B0E     		lsrs	r3, r3, #24
 105:lm75.c        **** }
 458              		.loc 1 105 0
 459 0274 1800     		movs	r0, r3
ARM GAS  C:\Users\embedded\AppData\Local\Temp\cchoUHXd.s 			page 11


 460 0276 BD46     		mov	sp, r7
 461 0278 05B0     		add	sp, sp, #20
 462              		@ sp needed
 463 027a 90BC     		pop	{r4, r7}
 464 027c 02BC     		pop	{r1}
 465 027e 0847     		bx	r1
 466              		.cfi_endproc
 467              	.LFE2:
 468              		.size	calculateTemperatureValue, .-calculateTemperatureValue
 469              	.Letext0:
 470              		.file 2 "general.h"