ARM GAS  C:\Users\embedded\AppData\Local\Temp\ccYKeSIE.s 			page 1


   1              		.cpu arm7tdmi
   2              		.eabi_attribute 20, 1
   3              		.eabi_attribute 21, 1
   4              		.eabi_attribute 23, 3
   5              		.eabi_attribute 24, 1
   6              		.eabi_attribute 25, 1
   7              		.eabi_attribute 26, 1
   8              		.eabi_attribute 30, 6
   9              		.eabi_attribute 34, 0
  10              		.eabi_attribute 18, 4
  11              		.file	"main.c"
  12              		.text
  13              	.Ltext0:
  14              		.cfi_sections	.debug_frame
  15              		.section	.rodata
  16              		.align	2
  17              	.LC0:
  18 0000 53746163 		.ascii	"Stacja pogody\000"
  18      6A612070 
  18      6F676F64 
  18      7900
  19 000e 0000     		.align	2
  20              	.LC2:
  21 0010 506F6D69 		.ascii	"Pomiar\000"
  21      617200
  22 0017 00       		.align	2
  23              	.LC4:
  24 0018 74656D70 		.ascii	"temperatury: \000"
  24      65726174 
  24      7572793A 
  24      2000
  25 0026 0000     		.align	2
  26              	.LC6:
  27 0028 77696C67 		.ascii	"wilgotnosci: \000"
  27      6F746E6F 
  27      7363693A 
  27      2000
  28 0036 0000     		.align	2
  29              	.LC8:
  30 0038 256400   		.ascii	"%d\000"
  31 003b 00       		.align	2
  32              	.LC10:
  33 003c 6A61736E 		.ascii	"jasnosci: \000"
  33      6F736369 
  33      3A2000
  34 0047 00       		.align	2
  35              	.LC12:
  36 0048 6369736E 		.ascii	"cisnienia: \000"
  36      69656E69 
  36      613A2000 
  37              		.text
  38              		.align	1
  39              		.global	main
  40              		.syntax unified
  41              		.code	16
  42              		.thumb_func
  43              		.fpu softvfp
ARM GAS  C:\Users\embedded\AppData\Local\Temp\ccYKeSIE.s 			page 2


  44              		.type	main, %function
  45              	main:
  46              	.LFB3:
  47              		.file 1 "main.c"
   1:main.c        **** #include "general.h"
   2:main.c        **** #include <lpc2xxx.h>
   3:main.c        **** #include <printf_P.h>
   4:main.c        **** #include <printf_init.h>
   5:main.c        **** #include <consol.h>
   6:main.c        **** #include <config.h>
   7:main.c        **** #include "irq/irq_handler.h"
   8:main.c        **** #include "timer.h"
   9:main.c        **** #include "VIC.h"
  10:main.c        **** #include "i2c.h"
  11:main.c        **** 
  12:main.c        **** // Include'y
  13:main.c        **** 
  14:main.c        **** #include "lm75.h"
  15:main.c        **** #include "htu21df.h"
  16:main.c        **** 
  17:main.c        **** #include "lcd.h"
  18:main.c        **** #include "pca9532.h"
  19:main.c        **** #include "additional.h"
  20:main.c        **** 
  21:main.c        **** #include "Common_Def.h"
  22:main.c        **** #include <stdio.h>
  23:main.c        **** 
  24:main.c        **** /************************************************************************
  25:main.c        ****  * @Description: uruchomienie obsługi przerwań
  26:main.c        ****  * @Parameter:
  27:main.c        ****  *    [in] period    : okres generatora przerwań
  28:main.c        ****  *    [in] duty_cycle: wypełnienie w %
  29:main.c        ****  * @Returns: Nic
  30:main.c        ****  * @Side effects:
  31:main.c        ****  *    przeprogramowany timer #1
  32:main.c        ****  *************************************************************************/
  33:main.c        **** /*
  34:main.c        **** static void init_irq (tU32 period, tU8 duty_cycle)
  35:main.c        **** {
  36:main.c        **** 	//Zainicjuj VIC dla przerwań od Timera #1
  37:main.c        ****     VICIntSelect &= ~TIMER_1_IRQ;           //Przerwanie od Timera #1 przypisane do IRQ (nie do FIQ
  38:main.c        ****     VICVectAddr5  = (tU32)IRQ_Test;         //adres procedury przerwania
  39:main.c        ****     VICVectCntl5  = VIC_ENABLE_SLOT | TIMER_1_IRQ_NO;
  40:main.c        ****     VICIntEnable  = TIMER_1_IRQ;            // Przypisanie i odblokowanie slotu w VIC od Timera #1
  41:main.c        ****   
  42:main.c        ****     T1TCR = TIMER_RESET;                    //Zatrzymaj i zresetuj
  43:main.c        ****     T1PR  = 0;                              //Preskaler nieużywany
  44:main.c        ****     T1MR0 = ((tU64)period)*((tU64)PERIPHERAL_CLOCK)/1000;
  45:main.c        ****     T1MR1 = (tU64)T1MR0 * duty_cycle / 100; //Wypełnienie
  46:main.c        ****     T1IR  = TIMER_ALL_INT;                  //Resetowanie flag przerwań
  47:main.c        ****     T1MCR = MR0_I | MR1_I | MR0_R;          //Generuj okresowe przerwania dla MR0 i dodatkowo dla M
  48:main.c        ****     T1TCR = TIMER_RUN;                      //Uruchom timer
  49:main.c        **** }
  50:main.c        **** */
  51:main.c        **** 
  52:main.c        **** int main(void)
  53:main.c        **** {
ARM GAS  C:\Users\embedded\AppData\Local\Temp\ccYKeSIE.s 			page 3


  48              		.loc 1 53 0
  49              		.cfi_startproc
  50              		@ Function supports interworking.
  51              		@ args = 0, pretend = 0, frame = 32
  52              		@ frame_needed = 1, uses_anonymous_args = 0
  53 0000 90B5     		push	{r4, r7, lr}
  54              	.LCFI0:
  55              		.cfi_def_cfa_offset 12
  56              		.cfi_offset 4, -12
  57              		.cfi_offset 7, -8
  58              		.cfi_offset 14, -4
  59 0002 89B0     		sub	sp, sp, #36
  60              	.LCFI1:
  61              		.cfi_def_cfa_offset 48
  62 0004 00AF     		add	r7, sp, #0
  63              	.LCFI2:
  64              		.cfi_def_cfa_register 7
  54:main.c        **** 		tU8 pca9532Present = FALSE;
  65              		.loc 1 54 0
  66 0006 1F24     		movs	r4, #31
  67 0008 3B19     		adds	r3, r7, r4
  68 000a 0022     		movs	r2, #0
  69 000c 1A70     		strb	r2, [r3]
  55:main.c        **** 		//check if connection with PCA9532
  56:main.c        **** 	    i2cInit();
  70              		.loc 1 56 0
  71 000e FFF7FEFF 		bl	i2cInit
  57:main.c        **** 		pca9532Present = pca9532Init();
  72              		.loc 1 57 0
  73 0012 3C19     		adds	r4, r7, r4
  74 0014 FFF7FEFF 		bl	pca9532Init
  75 0018 0300     		movs	r3, r0
  76 001a 2370     		strb	r3, [r4]
  58:main.c        **** 		printf_init();
  77              		.loc 1 58 0
  78 001c FFF7FEFF 		bl	printf_init
  79              	.L9:
  59:main.c        **** 		while(1) {
  60:main.c        **** 		if (TRUE == pca9532Present)
  80              		.loc 1 60 0
  81 0020 1F23     		movs	r3, #31
  82 0022 FB18     		adds	r3, r7, r3
  83 0024 1B78     		ldrb	r3, [r3]
  84 0026 012B     		cmp	r3, #1
  85 0028 FAD1     		bne	.L9
  86              	.LBB2:
  61:main.c        **** 		{
  62:main.c        **** 
  63:main.c        **** 				lcdInit();
  87              		.loc 1 63 0
  88 002a FFF7FEFF 		bl	lcdInit
  64:main.c        **** 			    lcdColor(0xff, 0x00);
  89              		.loc 1 64 0
  90 002e 0021     		movs	r1, #0
  91 0030 FF20     		movs	r0, #255
  92 0032 FFF7FEFF 		bl	lcdColor
  65:main.c        **** 			    lcdClrscr();
ARM GAS  C:\Users\embedded\AppData\Local\Temp\ccYKeSIE.s 			page 4


  93              		.loc 1 65 0
  94 0036 FFF7FEFF 		bl	lcdClrscr
  66:main.c        **** 
  67:main.c        **** 			    /*
  68:main.c        **** 			        Inicjalizacja I2C
  69:main.c        **** 			    */
  70:main.c        **** 
  71:main.c        **** 
  72:main.c        **** 			    /*
  73:main.c        **** 			        Główna pętla zawierająca całą logikę programu - tj. w okresach 2 sekudnowych nast
  74:main.c        **** 			        pomiar temperatury, który jest wyświetlany na wyświetlaczu.
  75:main.c        **** 			    */
  76:main.c        **** 
  77:main.c        **** 			    /*
  78:main.c        **** 			         Adres termometru LM75 po drugiej stronie interfejsu I2C.
  79:main.c        **** 			         Jak nie zadzaiała to 3 przedostatnie bity zamienić i 1 i sprawdzić.
  80:main.c        **** 			    */
  81:main.c        **** 			    //tU8 lm75Address = 0x9F;
  82:main.c        **** 			    // dla zalutowanego
  83:main.c        **** 			    tU8 lm75Address = (0x48<<1)|1;
  95              		.loc 1 83 0
  96 003a 1E23     		movs	r3, #30
  97 003c FB18     		adds	r3, r7, r3
  98 003e 9122     		movs	r2, #145
  99 0040 1A70     		strb	r2, [r3]
  84:main.c        **** 			    tU8 htu21dfaddress = 0x40;
 100              		.loc 1 84 0
 101 0042 1D23     		movs	r3, #29
 102 0044 FB18     		adds	r3, r7, r3
 103 0046 4022     		movs	r2, #64
 104 0048 1A70     		strb	r2, [r3]
  85:main.c        **** 			    tU8 readTemperature[2] = {};
 105              		.loc 1 85 0
 106 004a 1823     		movs	r3, #24
 107 004c FB18     		adds	r3, r7, r3
 108 004e 0022     		movs	r2, #0
 109 0050 1A80     		strh	r2, [r3]
  86:main.c        **** 			    tU8 readHumidity[2] = {};
 110              		.loc 1 86 0
 111 0052 1423     		movs	r3, #20
 112 0054 FB18     		adds	r3, r7, r3
 113 0056 0022     		movs	r2, #0
 114 0058 1A80     		strh	r2, [r3]
  87:main.c        **** 			    tU8 temperatureInChar[6] = {};
 115              		.loc 1 87 0
 116 005a 0C23     		movs	r3, #12
 117 005c FB18     		adds	r3, r7, r3
 118 005e 1800     		movs	r0, r3
 119 0060 0623     		movs	r3, #6
 120 0062 1A00     		movs	r2, r3
 121 0064 0021     		movs	r1, #0
 122 0066 FFF7FEFF 		bl	memset
  88:main.c        **** 			    tU8 humidityInChar[6] = {};
 123              		.loc 1 88 0
 124 006a 3B1D     		adds	r3, r7, #4
 125 006c 1800     		movs	r0, r3
 126 006e 0623     		movs	r3, #6
ARM GAS  C:\Users\embedded\AppData\Local\Temp\ccYKeSIE.s 			page 5


 127 0070 1A00     		movs	r2, r3
 128 0072 0021     		movs	r1, #0
 129 0074 FFF7FEFF 		bl	memset
 130              	.L8:
  89:main.c        **** 			    tU16 humidityValue;
  90:main.c        **** 
  91:main.c        **** 			    while (TRUE)
  92:main.c        **** 			    {
  93:main.c        **** 			    	if ((IOPIN & 0x00000100) == 0) {
 131              		.loc 1 93 0
 132 0078 5C4B     		ldr	r3, .L10
 133 007a 1A68     		ldr	r2, [r3]
 134 007c 8023     		movs	r3, #128
 135 007e 5B00     		lsls	r3, r3, #1
 136 0080 1340     		ands	r3, r2
 137 0082 0AD1     		bne	.L3
  94:main.c        **** 			    		lcdClrscr();
 138              		.loc 1 94 0
 139 0084 FFF7FEFF 		bl	lcdClrscr
  95:main.c        **** 			    		lcdGotoxy(0, 0);
 140              		.loc 1 95 0
 141 0088 0021     		movs	r1, #0
 142 008a 0020     		movs	r0, #0
 143 008c FFF7FEFF 		bl	lcdGotoxy
  96:main.c        **** 			    		lcdPuts("Stacja pogody");
 144              		.loc 1 96 0
 145 0090 574B     		ldr	r3, .L10+4
 146 0092 1800     		movs	r0, r3
 147 0094 FFF7FEFF 		bl	lcdPuts
 148 0098 A4E0     		b	.L4
 149              	.L3:
  97:main.c        **** 			    	} else if ((IOPIN & 0x00000200) == 0 && measureTemperature(lm75Address, readTemperature, 2)
 150              		.loc 1 97 0
 151 009a 544B     		ldr	r3, .L10
 152 009c 1A68     		ldr	r2, [r3]
 153 009e 8023     		movs	r3, #128
 154 00a0 9B00     		lsls	r3, r3, #2
 155 00a2 1340     		ands	r3, r2
 156 00a4 27D1     		bne	.L5
 157              		.loc 1 97 0 is_stmt 0 discriminator 1
 158 00a6 1823     		movs	r3, #24
 159 00a8 F918     		adds	r1, r7, r3
 160 00aa 1E23     		movs	r3, #30
 161 00ac FB18     		adds	r3, r7, r3
 162 00ae 1B78     		ldrb	r3, [r3]
 163 00b0 0222     		movs	r2, #2
 164 00b2 1800     		movs	r0, r3
 165 00b4 FFF7FEFF 		bl	measureTemperature
 166 00b8 0300     		movs	r3, r0
 167 00ba 0133     		adds	r3, r3, #1
 168 00bc 1BD0     		beq	.L5
  98:main.c        **** 			    		lcdClrscr();
 169              		.loc 1 98 0 is_stmt 1
 170 00be FFF7FEFF 		bl	lcdClrscr
  99:main.c        **** 			    		lcdGotoxy(0, 0);
 171              		.loc 1 99 0
 172 00c2 0021     		movs	r1, #0
ARM GAS  C:\Users\embedded\AppData\Local\Temp\ccYKeSIE.s 			page 6


 173 00c4 0020     		movs	r0, #0
 174 00c6 FFF7FEFF 		bl	lcdGotoxy
 100:main.c        **** 			    		lcdPuts("Pomiar");
 175              		.loc 1 100 0
 176 00ca 4A4B     		ldr	r3, .L10+8
 177 00cc 1800     		movs	r0, r3
 178 00ce FFF7FEFF 		bl	lcdPuts
 101:main.c        **** 			    		lcdGotoxy(0, 15);
 179              		.loc 1 101 0
 180 00d2 0F21     		movs	r1, #15
 181 00d4 0020     		movs	r0, #0
 182 00d6 FFF7FEFF 		bl	lcdGotoxy
 102:main.c        **** 			    		lcdPuts("temperatury: ");
 183              		.loc 1 102 0
 184 00da 474B     		ldr	r3, .L10+12
 185 00dc 1800     		movs	r0, r3
 186 00de FFF7FEFF 		bl	lcdPuts
 103:main.c        **** 			    		lcdGotoxy(0, 30);
 187              		.loc 1 103 0
 188 00e2 1E21     		movs	r1, #30
 189 00e4 0020     		movs	r0, #0
 190 00e6 FFF7FEFF 		bl	lcdGotoxy
 104:main.c        **** 			    		calculateTemperatureValue(readTemperature);
 191              		.loc 1 104 0
 192 00ea 1823     		movs	r3, #24
 193 00ec FB18     		adds	r3, r7, r3
 194 00ee 1800     		movs	r0, r3
 195 00f0 FFF7FEFF 		bl	calculateTemperatureValue
 196 00f4 76E0     		b	.L4
 197              	.L5:
 198              	.LBB3:
 105:main.c        **** 			    	} else if ((IOPIN & 0x00000400) == 0 && measureHumidity(htu21dfaddress, readHumidity, 2) !=
 199              		.loc 1 105 0
 200 00f6 3D4B     		ldr	r3, .L10
 201 00f8 1A68     		ldr	r2, [r3]
 202 00fa 8023     		movs	r3, #128
 203 00fc DB00     		lsls	r3, r3, #3
 204 00fe 1340     		ands	r3, r2
 205 0100 37D1     		bne	.L6
 206              		.loc 1 105 0 is_stmt 0 discriminator 1
 207 0102 1D23     		movs	r3, #29
 208 0104 FB18     		adds	r3, r7, r3
 209 0106 1B78     		ldrb	r3, [r3]
 210 0108 1422     		movs	r2, #20
 211 010a B918     		adds	r1, r7, r2
 212 010c 0222     		movs	r2, #2
 213 010e 1800     		movs	r0, r3
 214 0110 FFF7FEFF 		bl	measureHumidity
 215 0114 0300     		movs	r3, r0
 216 0116 0133     		adds	r3, r3, #1
 217 0118 2BD0     		beq	.L6
 106:main.c        **** 			    		lcdClrscr();
 218              		.loc 1 106 0 is_stmt 1
 219 011a FFF7FEFF 		bl	lcdClrscr
 107:main.c        **** 			    		lcdGotoxy(0, 0);
 220              		.loc 1 107 0
 221 011e 0021     		movs	r1, #0
ARM GAS  C:\Users\embedded\AppData\Local\Temp\ccYKeSIE.s 			page 7


 222 0120 0020     		movs	r0, #0
 223 0122 FFF7FEFF 		bl	lcdGotoxy
 108:main.c        **** 			    		lcdPuts("Pomiar");
 224              		.loc 1 108 0
 225 0126 334B     		ldr	r3, .L10+8
 226 0128 1800     		movs	r0, r3
 227 012a FFF7FEFF 		bl	lcdPuts
 109:main.c        **** 			    		lcdGotoxy(0, 15);
 228              		.loc 1 109 0
 229 012e 0F21     		movs	r1, #15
 230 0130 0020     		movs	r0, #0
 231 0132 FFF7FEFF 		bl	lcdGotoxy
 110:main.c        **** 			    		lcdPuts("wilgotnosci: ");
 232              		.loc 1 110 0
 233 0136 314B     		ldr	r3, .L10+16
 234 0138 1800     		movs	r0, r3
 235 013a FFF7FEFF 		bl	lcdPuts
 111:main.c        **** 			    		humidityValue = calculateHumidity(readHumidity);
 236              		.loc 1 111 0
 237 013e 1423     		movs	r3, #20
 238 0140 FB18     		adds	r3, r7, r3
 239 0142 1800     		movs	r0, r3
 240 0144 FFF7FEFF 		bl	calculateHumidity
 241 0148 0300     		movs	r3, r0
 242 014a 1A00     		movs	r2, r3
 243 014c 1A21     		movs	r1, #26
 244 014e 7B18     		adds	r3, r7, r1
 245 0150 1A80     		strh	r2, [r3]
 112:main.c        **** 			    		sprintf(humidityInChar, "%d", humidityValue);
 246              		.loc 1 112 0
 247 0152 7B18     		adds	r3, r7, r1
 248 0154 1A88     		ldrh	r2, [r3]
 249 0156 2A49     		ldr	r1, .L10+20
 250 0158 3B1D     		adds	r3, r7, #4
 251 015a 1800     		movs	r0, r3
 252 015c FFF7FEFF 		bl	sprintf
 113:main.c        **** 			    		lcdGotoxy(0, 30);
 253              		.loc 1 113 0
 254 0160 1E21     		movs	r1, #30
 255 0162 0020     		movs	r0, #0
 256 0164 FFF7FEFF 		bl	lcdGotoxy
 114:main.c        **** 			    		lcdPuts(humidityInChar);
 257              		.loc 1 114 0
 258 0168 3B1D     		adds	r3, r7, #4
 259 016a 1800     		movs	r0, r3
 260 016c FFF7FEFF 		bl	lcdPuts
 261 0170 38E0     		b	.L4
 262              	.L6:
 115:main.c        **** 			    	} else if ((IOPIN & 0x00000800) == 0) {
 263              		.loc 1 115 0
 264 0172 1E4B     		ldr	r3, .L10
 265 0174 1A68     		ldr	r2, [r3]
 266 0176 8023     		movs	r3, #128
 267 0178 1B01     		lsls	r3, r3, #4
 268 017a 1340     		ands	r3, r2
 269 017c 16D1     		bne	.L7
 116:main.c        **** 			    		lcdClrscr();
ARM GAS  C:\Users\embedded\AppData\Local\Temp\ccYKeSIE.s 			page 8


 270              		.loc 1 116 0
 271 017e FFF7FEFF 		bl	lcdClrscr
 117:main.c        **** 			    		lcdGotoxy(0, 0);
 272              		.loc 1 117 0
 273 0182 0021     		movs	r1, #0
 274 0184 0020     		movs	r0, #0
 275 0186 FFF7FEFF 		bl	lcdGotoxy
 118:main.c        **** 			    		lcdGotoxy(0, 0);
 276              		.loc 1 118 0
 277 018a 0021     		movs	r1, #0
 278 018c 0020     		movs	r0, #0
 279 018e FFF7FEFF 		bl	lcdGotoxy
 119:main.c        **** 			    		lcdPuts("Pomiar");
 280              		.loc 1 119 0
 281 0192 184B     		ldr	r3, .L10+8
 282 0194 1800     		movs	r0, r3
 283 0196 FFF7FEFF 		bl	lcdPuts
 120:main.c        **** 			    		lcdGotoxy(0, 15);
 284              		.loc 1 120 0
 285 019a 0F21     		movs	r1, #15
 286 019c 0020     		movs	r0, #0
 287 019e FFF7FEFF 		bl	lcdGotoxy
 121:main.c        **** 			    	    lcdPuts("jasnosci: ");
 288              		.loc 1 121 0
 289 01a2 184B     		ldr	r3, .L10+24
 290 01a4 1800     		movs	r0, r3
 291 01a6 FFF7FEFF 		bl	lcdPuts
 292 01aa 1BE0     		b	.L4
 293              	.L7:
 122:main.c        **** 			    	} else if ((IOPIN & 0x00001000)== 0){
 294              		.loc 1 122 0
 295 01ac 0F4B     		ldr	r3, .L10
 296 01ae 1A68     		ldr	r2, [r3]
 297 01b0 8023     		movs	r3, #128
 298 01b2 5B01     		lsls	r3, r3, #5
 299 01b4 1340     		ands	r3, r2
 300 01b6 15D1     		bne	.L4
 123:main.c        **** 			    		lcdClrscr();
 301              		.loc 1 123 0
 302 01b8 FFF7FEFF 		bl	lcdClrscr
 124:main.c        **** 			    		lcdGotoxy(0, 0);
 303              		.loc 1 124 0
 304 01bc 0021     		movs	r1, #0
 305 01be 0020     		movs	r0, #0
 306 01c0 FFF7FEFF 		bl	lcdGotoxy
 125:main.c        **** 			    		lcdGotoxy(0, 0);
 307              		.loc 1 125 0
 308 01c4 0021     		movs	r1, #0
 309 01c6 0020     		movs	r0, #0
 310 01c8 FFF7FEFF 		bl	lcdGotoxy
 126:main.c        **** 			    		lcdPuts("Pomiar");
 311              		.loc 1 126 0
 312 01cc 094B     		ldr	r3, .L10+8
 313 01ce 1800     		movs	r0, r3
 314 01d0 FFF7FEFF 		bl	lcdPuts
 127:main.c        **** 			    		lcdGotoxy(0, 15);
 315              		.loc 1 127 0
ARM GAS  C:\Users\embedded\AppData\Local\Temp\ccYKeSIE.s 			page 9


 316 01d4 0F21     		movs	r1, #15
 317 01d6 0020     		movs	r0, #0
 318 01d8 FFF7FEFF 		bl	lcdGotoxy
 128:main.c        **** 			    		lcdPuts("cisnienia: ");
 319              		.loc 1 128 0
 320 01dc 0A4B     		ldr	r3, .L10+28
 321 01de 1800     		movs	r0, r3
 322 01e0 FFF7FEFF 		bl	lcdPuts
 323              	.L4:
 324              	.LBE3:
 129:main.c        **** 			    	}
 130:main.c        **** 			        sdelay(1);
 325              		.loc 1 130 0
 326 01e4 0120     		movs	r0, #1
 327 01e6 FFF7FEFF 		bl	sdelay
  93:main.c        **** 			    		lcdClrscr();
 328              		.loc 1 93 0
 329 01ea 45E7     		b	.L8
 330              	.L11:
 331              		.align	2
 332              	.L10:
 333 01ec 008002E0 		.word	-536707072
 334 01f0 00000000 		.word	.LC0
 335 01f4 10000000 		.word	.LC2
 336 01f8 18000000 		.word	.LC4
 337 01fc 28000000 		.word	.LC6
 338 0200 38000000 		.word	.LC8
 339 0204 3C000000 		.word	.LC10
 340 0208 48000000 		.word	.LC12
 341              	.LBE2:
 342              		.cfi_endproc
 343              	.LFE3:
 344              		.size	main, .-main
 345              	.Letext0:
 346              		.file 2 "general.h"
 347              		.file 3 "c:\\embedded\\tools\\arm-none-eabi\\include\\sys\\lock.h"
 348              		.file 4 "c:\\embedded\\tools\\arm-none-eabi\\include\\sys\\_types.h"
 349              		.file 5 "c:\\embedded\\tools\\lib\\gcc\\arm-none-eabi\\7.3.1\\include\\stddef.h"
 350              		.file 6 "c:\\embedded\\tools\\arm-none-eabi\\include\\sys\\reent.h"
 351              		.section	.debug_info,"",%progbits
 352              	.Ldebug_info0:
 353 0000 6F0A0000 		.4byte	0xa6f
 354 0004 0200     		.2byte	0x2
 355 0006 00000000 		.4byte	.Ldebug_abbrev0
 356 000a 04       		.byte	0x4
 357 000b 01       		.uleb128 0x1
 358 000c FF020000 		.4byte	.LASF132
 359 0010 0C       		.byte	0xc
 360 0011 4B020000 		.4byte	.LASF133
 361 0015 DB020000 		.4byte	.LASF134
 362 0019 00000000 		.4byte	.Ltext0
 363 001d 0C020000 		.4byte	.Letext0
 364 0021 00000000 		.4byte	.Ldebug_line0
 365 0025 02       		.uleb128 0x2
 366 0026 74553800 		.ascii	"tU8\000"
 367 002a 02       		.byte	0x2
 368 002b 17       		.byte	0x17
ARM GAS  C:\Users\embedded\AppData\Local\Temp\ccYKeSIE.s 			page 10


 369 002c 30000000 		.4byte	0x30
 370 0030 03       		.uleb128 0x3
 371 0031 01       		.byte	0x1
 372 0032 08       		.byte	0x8
 373 0033 9A030000 		.4byte	.LASF1
 374 0037 04       		.uleb128 0x4
 375 0038 F0000000 		.4byte	.LASF0
 376 003c 02       		.byte	0x2
 377 003d 18       		.byte	0x18
 378 003e 42000000 		.4byte	0x42
 379 0042 03       		.uleb128 0x3
 380 0043 02       		.byte	0x2
 381 0044 07       		.byte	0x7
 382 0045 00020000 		.4byte	.LASF2
 383 0049 03       		.uleb128 0x3
 384 004a 04       		.byte	0x4
 385 004b 07       		.byte	0x7
 386 004c BD010000 		.4byte	.LASF3
 387 0050 03       		.uleb128 0x3
 388 0051 08       		.byte	0x8
 389 0052 07       		.byte	0x7
 390 0053 5A000000 		.4byte	.LASF4
 391 0057 03       		.uleb128 0x3
 392 0058 01       		.byte	0x1
 393 0059 06       		.byte	0x6
 394 005a AB000000 		.4byte	.LASF5
 395 005e 03       		.uleb128 0x3
 396 005f 02       		.byte	0x2
 397 0060 05       		.byte	0x5
 398 0061 B6030000 		.4byte	.LASF6
 399 0065 05       		.uleb128 0x5
 400 0066 04       		.byte	0x4
 401 0067 05       		.byte	0x5
 402 0068 696E7400 		.ascii	"int\000"
 403 006c 03       		.uleb128 0x3
 404 006d 08       		.byte	0x8
 405 006e 05       		.byte	0x5
 406 006f 9D000000 		.4byte	.LASF7
 407 0073 06       		.uleb128 0x6
 408 0074 07       		.byte	0x7
 409 0075 01       		.byte	0x1
 410 0076 30000000 		.4byte	0x30
 411 007a 02       		.byte	0x2
 412 007b 1F       		.byte	0x1f
 413 007c 8D000000 		.4byte	0x8d
 414 0080 07       		.uleb128 0x7
 415 0081 F9020000 		.4byte	.LASF8
 416 0085 00       		.byte	0
 417 0086 07       		.uleb128 0x7
 418 0087 52040000 		.4byte	.LASF9
 419 008b 01       		.byte	0x1
 420 008c 00       		.byte	0
 421 008d 03       		.uleb128 0x3
 422 008e 04       		.byte	0x4
 423 008f 05       		.byte	0x5
 424 0090 F5000000 		.4byte	.LASF10
 425 0094 03       		.uleb128 0x3
ARM GAS  C:\Users\embedded\AppData\Local\Temp\ccYKeSIE.s 			page 11


 426 0095 04       		.byte	0x4
 427 0096 07       		.byte	0x7
 428 0097 E1010000 		.4byte	.LASF11
 429 009b 03       		.uleb128 0x3
 430 009c 08       		.byte	0x8
 431 009d 04       		.byte	0x4
 432 009e 95020000 		.4byte	.LASF12
 433 00a2 08       		.uleb128 0x8
 434 00a3 04       		.byte	0x4
 435 00a4 04       		.uleb128 0x4
 436 00a5 43020000 		.4byte	.LASF13
 437 00a9 03       		.byte	0x3
 438 00aa 22       		.byte	0x22
 439 00ab AF000000 		.4byte	0xaf
 440 00af 09       		.uleb128 0x9
 441 00b0 04       		.byte	0x4
 442 00b1 B5000000 		.4byte	0xb5
 443 00b5 0A       		.uleb128 0xa
 444 00b6 7B040000 		.4byte	.LASF120
 445 00ba 01       		.byte	0x1
 446 00bb 04       		.uleb128 0x4
 447 00bc D4020000 		.4byte	.LASF14
 448 00c0 04       		.byte	0x4
 449 00c1 2C       		.byte	0x2c
 450 00c2 8D000000 		.4byte	0x8d
 451 00c6 04       		.uleb128 0x4
 452 00c7 9C040000 		.4byte	.LASF15
 453 00cb 04       		.byte	0x4
 454 00cc 72       		.byte	0x72
 455 00cd 8D000000 		.4byte	0x8d
 456 00d1 0B       		.uleb128 0xb
 457 00d2 52020000 		.4byte	.LASF16
 458 00d6 05       		.byte	0x5
 459 00d7 6501     		.2byte	0x165
 460 00d9 49000000 		.4byte	0x49
 461 00dd 0C       		.uleb128 0xc
 462 00de 04       		.byte	0x4
 463 00df 04       		.byte	0x4
 464 00e0 A6       		.byte	0xa6
 465 00e1 FC000000 		.4byte	0xfc
 466 00e5 0D       		.uleb128 0xd
 467 00e6 3D020000 		.4byte	.LASF17
 468 00ea 04       		.byte	0x4
 469 00eb A8       		.byte	0xa8
 470 00ec D1000000 		.4byte	0xd1
 471 00f0 0D       		.uleb128 0xd
 472 00f1 CA010000 		.4byte	.LASF18
 473 00f5 04       		.byte	0x4
 474 00f6 A9       		.byte	0xa9
 475 00f7 FC000000 		.4byte	0xfc
 476 00fb 00       		.byte	0
 477 00fc 0E       		.uleb128 0xe
 478 00fd 30000000 		.4byte	0x30
 479 0101 0C010000 		.4byte	0x10c
 480 0105 0F       		.uleb128 0xf
 481 0106 49000000 		.4byte	0x49
 482 010a 03       		.byte	0x3
ARM GAS  C:\Users\embedded\AppData\Local\Temp\ccYKeSIE.s 			page 12


 483 010b 00       		.byte	0
 484 010c 10       		.uleb128 0x10
 485 010d 08       		.byte	0x8
 486 010e 04       		.byte	0x4
 487 010f A3       		.byte	0xa3
 488 0110 31010000 		.4byte	0x131
 489 0114 11       		.uleb128 0x11
 490 0115 73040000 		.4byte	.LASF19
 491 0119 04       		.byte	0x4
 492 011a A5       		.byte	0xa5
 493 011b 65000000 		.4byte	0x65
 494 011f 02       		.byte	0x2
 495 0120 23       		.byte	0x23
 496 0121 00       		.uleb128 0
 497 0122 11       		.uleb128 0x11
 498 0123 82040000 		.4byte	.LASF20
 499 0127 04       		.byte	0x4
 500 0128 AA       		.byte	0xaa
 501 0129 DD000000 		.4byte	0xdd
 502 012d 02       		.byte	0x2
 503 012e 23       		.byte	0x23
 504 012f 04       		.uleb128 0x4
 505 0130 00       		.byte	0
 506 0131 04       		.uleb128 0x4
 507 0132 E2030000 		.4byte	.LASF21
 508 0136 04       		.byte	0x4
 509 0137 AB       		.byte	0xab
 510 0138 0C010000 		.4byte	0x10c
 511 013c 04       		.uleb128 0x4
 512 013d 80010000 		.4byte	.LASF22
 513 0141 04       		.byte	0x4
 514 0142 AF       		.byte	0xaf
 515 0143 A4000000 		.4byte	0xa4
 516 0147 04       		.uleb128 0x4
 517 0148 E8040000 		.4byte	.LASF23
 518 014c 06       		.byte	0x6
 519 014d 16       		.byte	0x16
 520 014e 94000000 		.4byte	0x94
 521 0152 12       		.uleb128 0x12
 522 0153 91010000 		.4byte	.LASF28
 523 0157 18       		.byte	0x18
 524 0158 06       		.byte	0x6
 525 0159 2F       		.byte	0x2f
 526 015a B1010000 		.4byte	0x1b1
 527 015e 11       		.uleb128 0x11
 528 015f BF040000 		.4byte	.LASF24
 529 0163 06       		.byte	0x6
 530 0164 31       		.byte	0x31
 531 0165 B1010000 		.4byte	0x1b1
 532 0169 02       		.byte	0x2
 533 016a 23       		.byte	0x23
 534 016b 00       		.uleb128 0
 535 016c 13       		.uleb128 0x13
 536 016d 5F6B00   		.ascii	"_k\000"
 537 0170 06       		.byte	0x6
 538 0171 32       		.byte	0x32
 539 0172 65000000 		.4byte	0x65
ARM GAS  C:\Users\embedded\AppData\Local\Temp\ccYKeSIE.s 			page 13


 540 0176 02       		.byte	0x2
 541 0177 23       		.byte	0x23
 542 0178 04       		.uleb128 0x4
 543 0179 11       		.uleb128 0x11
 544 017a DB040000 		.4byte	.LASF25
 545 017e 06       		.byte	0x6
 546 017f 32       		.byte	0x32
 547 0180 65000000 		.4byte	0x65
 548 0184 02       		.byte	0x2
 549 0185 23       		.byte	0x23
 550 0186 08       		.uleb128 0x8
 551 0187 11       		.uleb128 0x11
 552 0188 7A010000 		.4byte	.LASF26
 553 018c 06       		.byte	0x6
 554 018d 32       		.byte	0x32
 555 018e 65000000 		.4byte	0x65
 556 0192 02       		.byte	0x2
 557 0193 23       		.byte	0x23
 558 0194 0C       		.uleb128 0xc
 559 0195 11       		.uleb128 0x11
 560 0196 1D050000 		.4byte	.LASF27
 561 019a 06       		.byte	0x6
 562 019b 32       		.byte	0x32
 563 019c 65000000 		.4byte	0x65
 564 01a0 02       		.byte	0x2
 565 01a1 23       		.byte	0x23
 566 01a2 10       		.uleb128 0x10
 567 01a3 13       		.uleb128 0x13
 568 01a4 5F7800   		.ascii	"_x\000"
 569 01a7 06       		.byte	0x6
 570 01a8 33       		.byte	0x33
 571 01a9 B7010000 		.4byte	0x1b7
 572 01ad 02       		.byte	0x2
 573 01ae 23       		.byte	0x23
 574 01af 14       		.uleb128 0x14
 575 01b0 00       		.byte	0
 576 01b1 09       		.uleb128 0x9
 577 01b2 04       		.byte	0x4
 578 01b3 52010000 		.4byte	0x152
 579 01b7 0E       		.uleb128 0xe
 580 01b8 47010000 		.4byte	0x147
 581 01bc C7010000 		.4byte	0x1c7
 582 01c0 0F       		.uleb128 0xf
 583 01c1 49000000 		.4byte	0x49
 584 01c5 00       		.byte	0
 585 01c6 00       		.byte	0
 586 01c7 12       		.uleb128 0x12
 587 01c8 B8010000 		.4byte	.LASF29
 588 01cc 24       		.byte	0x24
 589 01cd 06       		.byte	0x6
 590 01ce 37       		.byte	0x37
 591 01cf 52020000 		.4byte	0x252
 592 01d3 11       		.uleb128 0x11
 593 01d4 94000000 		.4byte	.LASF30
 594 01d8 06       		.byte	0x6
 595 01d9 39       		.byte	0x39
 596 01da 65000000 		.4byte	0x65
ARM GAS  C:\Users\embedded\AppData\Local\Temp\ccYKeSIE.s 			page 14


 597 01de 02       		.byte	0x2
 598 01df 23       		.byte	0x23
 599 01e0 00       		.uleb128 0
 600 01e1 11       		.uleb128 0x11
 601 01e2 B0040000 		.4byte	.LASF31
 602 01e6 06       		.byte	0x6
 603 01e7 3A       		.byte	0x3a
 604 01e8 65000000 		.4byte	0x65
 605 01ec 02       		.byte	0x2
 606 01ed 23       		.byte	0x23
 607 01ee 04       		.uleb128 0x4
 608 01ef 11       		.uleb128 0x11
 609 01f0 C3000000 		.4byte	.LASF32
 610 01f4 06       		.byte	0x6
 611 01f5 3B       		.byte	0x3b
 612 01f6 65000000 		.4byte	0x65
 613 01fa 02       		.byte	0x2
 614 01fb 23       		.byte	0x23
 615 01fc 08       		.uleb128 0x8
 616 01fd 11       		.uleb128 0x11
 617 01fe A7050000 		.4byte	.LASF33
 618 0202 06       		.byte	0x6
 619 0203 3C       		.byte	0x3c
 620 0204 65000000 		.4byte	0x65
 621 0208 02       		.byte	0x2
 622 0209 23       		.byte	0x23
 623 020a 0C       		.uleb128 0xc
 624 020b 11       		.uleb128 0x11
 625 020c B8020000 		.4byte	.LASF34
 626 0210 06       		.byte	0x6
 627 0211 3D       		.byte	0x3d
 628 0212 65000000 		.4byte	0x65
 629 0216 02       		.byte	0x2
 630 0217 23       		.byte	0x23
 631 0218 10       		.uleb128 0x10
 632 0219 11       		.uleb128 0x11
 633 021a 6E020000 		.4byte	.LASF35
 634 021e 06       		.byte	0x6
 635 021f 3E       		.byte	0x3e
 636 0220 65000000 		.4byte	0x65
 637 0224 02       		.byte	0x2
 638 0225 23       		.byte	0x23
 639 0226 14       		.uleb128 0x14
 640 0227 11       		.uleb128 0x11
 641 0228 22050000 		.4byte	.LASF36
 642 022c 06       		.byte	0x6
 643 022d 3F       		.byte	0x3f
 644 022e 65000000 		.4byte	0x65
 645 0232 02       		.byte	0x2
 646 0233 23       		.byte	0x23
 647 0234 18       		.uleb128 0x18
 648 0235 11       		.uleb128 0x11
 649 0236 C0030000 		.4byte	.LASF37
 650 023a 06       		.byte	0x6
 651 023b 40       		.byte	0x40
 652 023c 65000000 		.4byte	0x65
 653 0240 02       		.byte	0x2
ARM GAS  C:\Users\embedded\AppData\Local\Temp\ccYKeSIE.s 			page 15


 654 0241 23       		.byte	0x23
 655 0242 1C       		.uleb128 0x1c
 656 0243 11       		.uleb128 0x11
 657 0244 69050000 		.4byte	.LASF38
 658 0248 06       		.byte	0x6
 659 0249 41       		.byte	0x41
 660 024a 65000000 		.4byte	0x65
 661 024e 02       		.byte	0x2
 662 024f 23       		.byte	0x23
 663 0250 20       		.uleb128 0x20
 664 0251 00       		.byte	0
 665 0252 14       		.uleb128 0x14
 666 0253 D2000000 		.4byte	.LASF39
 667 0257 0801     		.2byte	0x108
 668 0259 06       		.byte	0x6
 669 025a 4A       		.byte	0x4a
 670 025b 9B020000 		.4byte	0x29b
 671 025f 11       		.uleb128 0x11
 672 0260 6D010000 		.4byte	.LASF40
 673 0264 06       		.byte	0x6
 674 0265 4B       		.byte	0x4b
 675 0266 9B020000 		.4byte	0x29b
 676 026a 02       		.byte	0x2
 677 026b 23       		.byte	0x23
 678 026c 00       		.uleb128 0
 679 026d 11       		.uleb128 0x11
 680 026e 00000000 		.4byte	.LASF41
 681 0272 06       		.byte	0x6
 682 0273 4C       		.byte	0x4c
 683 0274 9B020000 		.4byte	0x29b
 684 0278 03       		.byte	0x3
 685 0279 23       		.byte	0x23
 686 027a 8001     		.uleb128 0x80
 687 027c 11       		.uleb128 0x11
 688 027d D2040000 		.4byte	.LASF42
 689 0281 06       		.byte	0x6
 690 0282 4E       		.byte	0x4e
 691 0283 47010000 		.4byte	0x147
 692 0287 03       		.byte	0x3
 693 0288 23       		.byte	0x23
 694 0289 8002     		.uleb128 0x100
 695 028b 11       		.uleb128 0x11
 696 028c 05010000 		.4byte	.LASF43
 697 0290 06       		.byte	0x6
 698 0291 51       		.byte	0x51
 699 0292 47010000 		.4byte	0x147
 700 0296 03       		.byte	0x3
 701 0297 23       		.byte	0x23
 702 0298 8402     		.uleb128 0x104
 703 029a 00       		.byte	0
 704 029b 0E       		.uleb128 0xe
 705 029c A2000000 		.4byte	0xa2
 706 02a0 AB020000 		.4byte	0x2ab
 707 02a4 0F       		.uleb128 0xf
 708 02a5 49000000 		.4byte	0x49
 709 02a9 1F       		.byte	0x1f
 710 02aa 00       		.byte	0
ARM GAS  C:\Users\embedded\AppData\Local\Temp\ccYKeSIE.s 			page 16


 711 02ab 14       		.uleb128 0x14
 712 02ac C1020000 		.4byte	.LASF44
 713 02b0 9001     		.2byte	0x190
 714 02b2 06       		.byte	0x6
 715 02b3 5D       		.byte	0x5d
 716 02b4 F2020000 		.4byte	0x2f2
 717 02b8 11       		.uleb128 0x11
 718 02b9 BF040000 		.4byte	.LASF24
 719 02bd 06       		.byte	0x6
 720 02be 5E       		.byte	0x5e
 721 02bf F2020000 		.4byte	0x2f2
 722 02c3 02       		.byte	0x2
 723 02c4 23       		.byte	0x23
 724 02c5 00       		.uleb128 0
 725 02c6 11       		.uleb128 0x11
 726 02c7 22040000 		.4byte	.LASF45
 727 02cb 06       		.byte	0x6
 728 02cc 5F       		.byte	0x5f
 729 02cd 65000000 		.4byte	0x65
 730 02d1 02       		.byte	0x2
 731 02d2 23       		.byte	0x23
 732 02d3 04       		.uleb128 0x4
 733 02d4 11       		.uleb128 0x11
 734 02d5 75010000 		.4byte	.LASF46
 735 02d9 06       		.byte	0x6
 736 02da 61       		.byte	0x61
 737 02db F8020000 		.4byte	0x2f8
 738 02df 02       		.byte	0x2
 739 02e0 23       		.byte	0x23
 740 02e1 08       		.uleb128 0x8
 741 02e2 11       		.uleb128 0x11
 742 02e3 D2000000 		.4byte	.LASF39
 743 02e7 06       		.byte	0x6
 744 02e8 62       		.byte	0x62
 745 02e9 52020000 		.4byte	0x252
 746 02ed 03       		.byte	0x3
 747 02ee 23       		.byte	0x23
 748 02ef 8801     		.uleb128 0x88
 749 02f1 00       		.byte	0
 750 02f2 09       		.uleb128 0x9
 751 02f3 04       		.byte	0x4
 752 02f4 AB020000 		.4byte	0x2ab
 753 02f8 0E       		.uleb128 0xe
 754 02f9 08030000 		.4byte	0x308
 755 02fd 08030000 		.4byte	0x308
 756 0301 0F       		.uleb128 0xf
 757 0302 49000000 		.4byte	0x49
 758 0306 1F       		.byte	0x1f
 759 0307 00       		.byte	0
 760 0308 09       		.uleb128 0x9
 761 0309 04       		.byte	0x4
 762 030a 0E030000 		.4byte	0x30e
 763 030e 15       		.uleb128 0x15
 764 030f 01       		.byte	0x1
 765 0310 12       		.uleb128 0x12
 766 0311 CA030000 		.4byte	.LASF47
 767 0315 08       		.byte	0x8
ARM GAS  C:\Users\embedded\AppData\Local\Temp\ccYKeSIE.s 			page 17


 768 0316 06       		.byte	0x6
 769 0317 75       		.byte	0x75
 770 0318 39030000 		.4byte	0x339
 771 031c 11       		.uleb128 0x11
 772 031d BD000000 		.4byte	.LASF48
 773 0321 06       		.byte	0x6
 774 0322 76       		.byte	0x76
 775 0323 39030000 		.4byte	0x339
 776 0327 02       		.byte	0x2
 777 0328 23       		.byte	0x23
 778 0329 00       		.uleb128 0
 779 032a 11       		.uleb128 0x11
 780 032b 0C000000 		.4byte	.LASF49
 781 032f 06       		.byte	0x6
 782 0330 77       		.byte	0x77
 783 0331 65000000 		.4byte	0x65
 784 0335 02       		.byte	0x2
 785 0336 23       		.byte	0x23
 786 0337 04       		.uleb128 0x4
 787 0338 00       		.byte	0
 788 0339 09       		.uleb128 0x9
 789 033a 04       		.byte	0x4
 790 033b 30000000 		.4byte	0x30
 791 033f 12       		.uleb128 0x12
 792 0340 ED030000 		.4byte	.LASF50
 793 0344 68       		.byte	0x68
 794 0345 06       		.byte	0x6
 795 0346 B5       		.byte	0xb5
 796 0347 99040000 		.4byte	0x499
 797 034b 13       		.uleb128 0x13
 798 034c 5F7000   		.ascii	"_p\000"
 799 034f 06       		.byte	0x6
 800 0350 B6       		.byte	0xb6
 801 0351 39030000 		.4byte	0x339
 802 0355 02       		.byte	0x2
 803 0356 23       		.byte	0x23
 804 0357 00       		.uleb128 0
 805 0358 13       		.uleb128 0x13
 806 0359 5F7200   		.ascii	"_r\000"
 807 035c 06       		.byte	0x6
 808 035d B7       		.byte	0xb7
 809 035e 65000000 		.4byte	0x65
 810 0362 02       		.byte	0x2
 811 0363 23       		.byte	0x23
 812 0364 04       		.uleb128 0x4
 813 0365 13       		.uleb128 0x13
 814 0366 5F7700   		.ascii	"_w\000"
 815 0369 06       		.byte	0x6
 816 036a B8       		.byte	0xb8
 817 036b 65000000 		.4byte	0x65
 818 036f 02       		.byte	0x2
 819 0370 23       		.byte	0x23
 820 0371 08       		.uleb128 0x8
 821 0372 11       		.uleb128 0x11
 822 0373 FE000000 		.4byte	.LASF51
 823 0377 06       		.byte	0x6
 824 0378 B9       		.byte	0xb9
ARM GAS  C:\Users\embedded\AppData\Local\Temp\ccYKeSIE.s 			page 18


 825 0379 5E000000 		.4byte	0x5e
 826 037d 02       		.byte	0x2
 827 037e 23       		.byte	0x23
 828 037f 0C       		.uleb128 0xc
 829 0380 11       		.uleb128 0x11
 830 0381 F3010000 		.4byte	.LASF52
 831 0385 06       		.byte	0x6
 832 0386 BA       		.byte	0xba
 833 0387 5E000000 		.4byte	0x5e
 834 038b 02       		.byte	0x2
 835 038c 23       		.byte	0x23
 836 038d 0E       		.uleb128 0xe
 837 038e 13       		.uleb128 0x13
 838 038f 5F626600 		.ascii	"_bf\000"
 839 0393 06       		.byte	0x6
 840 0394 BB       		.byte	0xbb
 841 0395 10030000 		.4byte	0x310
 842 0399 02       		.byte	0x2
 843 039a 23       		.byte	0x23
 844 039b 10       		.uleb128 0x10
 845 039c 11       		.uleb128 0x11
 846 039d 71000000 		.4byte	.LASF53
 847 03a1 06       		.byte	0x6
 848 03a2 BC       		.byte	0xbc
 849 03a3 65000000 		.4byte	0x65
 850 03a7 02       		.byte	0x2
 851 03a8 23       		.byte	0x23
 852 03a9 18       		.uleb128 0x18
 853 03aa 11       		.uleb128 0x11
 854 03ab E0000000 		.4byte	.LASF54
 855 03af 06       		.byte	0x6
 856 03b0 C3       		.byte	0xc3
 857 03b1 A2000000 		.4byte	0xa2
 858 03b5 02       		.byte	0x2
 859 03b6 23       		.byte	0x23
 860 03b7 1C       		.uleb128 0x1c
 861 03b8 11       		.uleb128 0x11
 862 03b9 A8010000 		.4byte	.LASF55
 863 03bd 06       		.byte	0x6
 864 03be C5       		.byte	0xc5
 865 03bf 33060000 		.4byte	0x633
 866 03c3 02       		.byte	0x2
 867 03c4 23       		.byte	0x23
 868 03c5 20       		.uleb128 0x20
 869 03c6 11       		.uleb128 0x11
 870 03c7 67020000 		.4byte	.LASF56
 871 03cb 06       		.byte	0x6
 872 03cc C7       		.byte	0xc7
 873 03cd 5E060000 		.4byte	0x65e
 874 03d1 02       		.byte	0x2
 875 03d2 23       		.byte	0x23
 876 03d3 24       		.uleb128 0x24
 877 03d4 11       		.uleb128 0x11
 878 03d5 8A040000 		.4byte	.LASF57
 879 03d9 06       		.byte	0x6
 880 03da CA       		.byte	0xca
 881 03db 83060000 		.4byte	0x683
ARM GAS  C:\Users\embedded\AppData\Local\Temp\ccYKeSIE.s 			page 19


 882 03df 02       		.byte	0x2
 883 03e0 23       		.byte	0x23
 884 03e1 28       		.uleb128 0x28
 885 03e2 11       		.uleb128 0x11
 886 03e3 83050000 		.4byte	.LASF58
 887 03e7 06       		.byte	0x6
 888 03e8 CB       		.byte	0xcb
 889 03e9 9E060000 		.4byte	0x69e
 890 03ed 02       		.byte	0x2
 891 03ee 23       		.byte	0x23
 892 03ef 2C       		.uleb128 0x2c
 893 03f0 13       		.uleb128 0x13
 894 03f1 5F756200 		.ascii	"_ub\000"
 895 03f5 06       		.byte	0x6
 896 03f6 CE       		.byte	0xce
 897 03f7 10030000 		.4byte	0x310
 898 03fb 02       		.byte	0x2
 899 03fc 23       		.byte	0x23
 900 03fd 30       		.uleb128 0x30
 901 03fe 13       		.uleb128 0x13
 902 03ff 5F757000 		.ascii	"_up\000"
 903 0403 06       		.byte	0x6
 904 0404 CF       		.byte	0xcf
 905 0405 39030000 		.4byte	0x339
 906 0409 02       		.byte	0x2
 907 040a 23       		.byte	0x23
 908 040b 38       		.uleb128 0x38
 909 040c 13       		.uleb128 0x13
 910 040d 5F757200 		.ascii	"_ur\000"
 911 0411 06       		.byte	0x6
 912 0412 D0       		.byte	0xd0
 913 0413 65000000 		.4byte	0x65
 914 0417 02       		.byte	0x2
 915 0418 23       		.byte	0x23
 916 0419 3C       		.uleb128 0x3c
 917 041a 11       		.uleb128 0x11
 918 041b B7000000 		.4byte	.LASF59
 919 041f 06       		.byte	0x6
 920 0420 D3       		.byte	0xd3
 921 0421 A4060000 		.4byte	0x6a4
 922 0425 02       		.byte	0x2
 923 0426 23       		.byte	0x23
 924 0427 40       		.uleb128 0x40
 925 0428 11       		.uleb128 0x11
 926 0429 5B050000 		.4byte	.LASF60
 927 042d 06       		.byte	0x6
 928 042e D4       		.byte	0xd4
 929 042f B4060000 		.4byte	0x6b4
 930 0433 02       		.byte	0x2
 931 0434 23       		.byte	0x23
 932 0435 43       		.uleb128 0x43
 933 0436 13       		.uleb128 0x13
 934 0437 5F6C6200 		.ascii	"_lb\000"
 935 043b 06       		.byte	0x6
 936 043c D7       		.byte	0xd7
 937 043d 10030000 		.4byte	0x310
 938 0441 02       		.byte	0x2
ARM GAS  C:\Users\embedded\AppData\Local\Temp\ccYKeSIE.s 			page 20


 939 0442 23       		.byte	0x23
 940 0443 44       		.uleb128 0x44
 941 0444 11       		.uleb128 0x11
 942 0445 23010000 		.4byte	.LASF61
 943 0449 06       		.byte	0x6
 944 044a DA       		.byte	0xda
 945 044b 65000000 		.4byte	0x65
 946 044f 02       		.byte	0x2
 947 0450 23       		.byte	0x23
 948 0451 4C       		.uleb128 0x4c
 949 0452 11       		.uleb128 0x11
 950 0453 46010000 		.4byte	.LASF62
 951 0457 06       		.byte	0x6
 952 0458 DB       		.byte	0xdb
 953 0459 BB000000 		.4byte	0xbb
 954 045d 02       		.byte	0x2
 955 045e 23       		.byte	0x23
 956 045f 50       		.uleb128 0x50
 957 0460 11       		.uleb128 0x11
 958 0461 25000000 		.4byte	.LASF63
 959 0465 06       		.byte	0x6
 960 0466 DE       		.byte	0xde
 961 0467 B8040000 		.4byte	0x4b8
 962 046b 02       		.byte	0x2
 963 046c 23       		.byte	0x23
 964 046d 54       		.uleb128 0x54
 965 046e 11       		.uleb128 0x11
 966 046f 59020000 		.4byte	.LASF64
 967 0473 06       		.byte	0x6
 968 0474 E2       		.byte	0xe2
 969 0475 3C010000 		.4byte	0x13c
 970 0479 02       		.byte	0x2
 971 047a 23       		.byte	0x23
 972 047b 58       		.uleb128 0x58
 973 047c 11       		.uleb128 0x11
 974 047d F5030000 		.4byte	.LASF65
 975 0481 06       		.byte	0x6
 976 0482 E4       		.byte	0xe4
 977 0483 31010000 		.4byte	0x131
 978 0487 02       		.byte	0x2
 979 0488 23       		.byte	0x23
 980 0489 5C       		.uleb128 0x5c
 981 048a 11       		.uleb128 0x11
 982 048b 5F020000 		.4byte	.LASF66
 983 048f 06       		.byte	0x6
 984 0490 E5       		.byte	0xe5
 985 0491 65000000 		.4byte	0x65
 986 0495 02       		.byte	0x2
 987 0496 23       		.byte	0x23
 988 0497 64       		.uleb128 0x64
 989 0498 00       		.byte	0
 990 0499 16       		.uleb128 0x16
 991 049a 01       		.byte	0x1
 992 049b 65000000 		.4byte	0x65
 993 049f B8040000 		.4byte	0x4b8
 994 04a3 17       		.uleb128 0x17
 995 04a4 B8040000 		.4byte	0x4b8
ARM GAS  C:\Users\embedded\AppData\Local\Temp\ccYKeSIE.s 			page 21


 996 04a8 17       		.uleb128 0x17
 997 04a9 A2000000 		.4byte	0xa2
 998 04ad 17       		.uleb128 0x17
 999 04ae 21060000 		.4byte	0x621
 1000 04b2 17       		.uleb128 0x17
 1001 04b3 65000000 		.4byte	0x65
 1002 04b7 00       		.byte	0
 1003 04b8 09       		.uleb128 0x9
 1004 04b9 04       		.byte	0x4
 1005 04ba C3040000 		.4byte	0x4c3
 1006 04be 18       		.uleb128 0x18
 1007 04bf B8040000 		.4byte	0x4b8
 1008 04c3 19       		.uleb128 0x19
 1009 04c4 57040000 		.4byte	.LASF67
 1010 04c8 2804     		.2byte	0x428
 1011 04ca 06       		.byte	0x6
 1012 04cb 6002     		.2byte	0x260
 1013 04cd 21060000 		.4byte	0x621
 1014 04d1 1A       		.uleb128 0x1a
 1015 04d2 A4040000 		.4byte	.LASF68
 1016 04d6 06       		.byte	0x6
 1017 04d7 6202     		.2byte	0x262
 1018 04d9 65000000 		.4byte	0x65
 1019 04dd 02       		.byte	0x2
 1020 04de 23       		.byte	0x23
 1021 04df 00       		.uleb128 0
 1022 04e0 1A       		.uleb128 0x1a
 1023 04e1 0D010000 		.4byte	.LASF69
 1024 04e5 06       		.byte	0x6
 1025 04e6 6702     		.2byte	0x267
 1026 04e8 11070000 		.4byte	0x711
 1027 04ec 02       		.byte	0x2
 1028 04ed 23       		.byte	0x23
 1029 04ee 04       		.uleb128 0x4
 1030 04ef 1A       		.uleb128 0x1a
 1031 04f0 D1010000 		.4byte	.LASF70
 1032 04f4 06       		.byte	0x6
 1033 04f5 6702     		.2byte	0x267
 1034 04f7 11070000 		.4byte	0x711
 1035 04fb 02       		.byte	0x2
 1036 04fc 23       		.byte	0x23
 1037 04fd 08       		.uleb128 0x8
 1038 04fe 1A       		.uleb128 0x1a
 1039 04ff 89010000 		.4byte	.LASF71
 1040 0503 06       		.byte	0x6
 1041 0504 6702     		.2byte	0x267
 1042 0506 11070000 		.4byte	0x711
 1043 050a 02       		.byte	0x2
 1044 050b 23       		.byte	0x23
 1045 050c 0C       		.uleb128 0xc
 1046 050d 1A       		.uleb128 0x1a
 1047 050e 1D040000 		.4byte	.LASF72
 1048 0512 06       		.byte	0x6
 1049 0513 6902     		.2byte	0x269
 1050 0515 65000000 		.4byte	0x65
 1051 0519 02       		.byte	0x2
 1052 051a 23       		.byte	0x23
ARM GAS  C:\Users\embedded\AppData\Local\Temp\ccYKeSIE.s 			page 22


 1053 051b 10       		.uleb128 0x10
 1054 051c 1A       		.uleb128 0x1a
 1055 051d 1A000000 		.4byte	.LASF73
 1056 0521 06       		.byte	0x6
 1057 0522 6A02     		.2byte	0x26a
 1058 0524 2C090000 		.4byte	0x92c
 1059 0528 02       		.byte	0x2
 1060 0529 23       		.byte	0x23
 1061 052a 14       		.uleb128 0x14
 1062 052b 1A       		.uleb128 0x1a
 1063 052c 39040000 		.4byte	.LASF74
 1064 0530 06       		.byte	0x6
 1065 0531 6D02     		.2byte	0x26d
 1066 0533 65000000 		.4byte	0x65
 1067 0537 02       		.byte	0x2
 1068 0538 23       		.byte	0x23
 1069 0539 30       		.uleb128 0x30
 1070 053a 1A       		.uleb128 0x1a
 1071 053b 27040000 		.4byte	.LASF75
 1072 053f 06       		.byte	0x6
 1073 0540 6E02     		.2byte	0x26e
 1074 0542 42090000 		.4byte	0x942
 1075 0546 02       		.byte	0x2
 1076 0547 23       		.byte	0x23
 1077 0548 34       		.uleb128 0x34
 1078 0549 1A       		.uleb128 0x1a
 1079 054a C9020000 		.4byte	.LASF76
 1080 054e 06       		.byte	0x6
 1081 054f 7002     		.2byte	0x270
 1082 0551 65000000 		.4byte	0x65
 1083 0555 02       		.byte	0x2
 1084 0556 23       		.byte	0x23
 1085 0557 38       		.uleb128 0x38
 1086 0558 1A       		.uleb128 0x1a
 1087 0559 2F040000 		.4byte	.LASF77
 1088 055d 06       		.byte	0x6
 1089 055e 7202     		.2byte	0x272
 1090 0560 54090000 		.4byte	0x954
 1091 0564 02       		.byte	0x2
 1092 0565 23       		.byte	0x23
 1093 0566 3C       		.uleb128 0x3c
 1094 0567 1A       		.uleb128 0x1a
 1095 0568 35020000 		.4byte	.LASF78
 1096 056c 06       		.byte	0x6
 1097 056d 7502     		.2byte	0x275
 1098 056f B1010000 		.4byte	0x1b1
 1099 0573 02       		.byte	0x2
 1100 0574 23       		.byte	0x23
 1101 0575 40       		.uleb128 0x40
 1102 0576 1A       		.uleb128 0x1a
 1103 0577 AE010000 		.4byte	.LASF79
 1104 057b 06       		.byte	0x6
 1105 057c 7602     		.2byte	0x276
 1106 057e 65000000 		.4byte	0x65
 1107 0582 02       		.byte	0x2
 1108 0583 23       		.byte	0x23
 1109 0584 44       		.uleb128 0x44
ARM GAS  C:\Users\embedded\AppData\Local\Temp\ccYKeSIE.s 			page 23


 1110 0585 1A       		.uleb128 0x1a
 1111 0586 9D050000 		.4byte	.LASF80
 1112 058a 06       		.byte	0x6
 1113 058b 7702     		.2byte	0x277
 1114 058d B1010000 		.4byte	0x1b1
 1115 0591 02       		.byte	0x2
 1116 0592 23       		.byte	0x23
 1117 0593 48       		.uleb128 0x48
 1118 0594 1A       		.uleb128 0x1a
 1119 0595 D1030000 		.4byte	.LASF81
 1120 0599 06       		.byte	0x6
 1121 059a 7802     		.2byte	0x278
 1122 059c 5A090000 		.4byte	0x95a
 1123 05a0 02       		.byte	0x2
 1124 05a1 23       		.byte	0x23
 1125 05a2 4C       		.uleb128 0x4c
 1126 05a3 1A       		.uleb128 0x1a
 1127 05a4 D9010000 		.4byte	.LASF82
 1128 05a8 06       		.byte	0x6
 1129 05a9 7B02     		.2byte	0x27b
 1130 05ab 65000000 		.4byte	0x65
 1131 05af 02       		.byte	0x2
 1132 05b0 23       		.byte	0x23
 1133 05b1 50       		.uleb128 0x50
 1134 05b2 1A       		.uleb128 0x1a
 1135 05b3 3E010000 		.4byte	.LASF83
 1136 05b7 06       		.byte	0x6
 1137 05b8 7C02     		.2byte	0x27c
 1138 05ba 21060000 		.4byte	0x621
 1139 05be 02       		.byte	0x2
 1140 05bf 23       		.byte	0x23
 1141 05c0 54       		.uleb128 0x54
 1142 05c1 1A       		.uleb128 0x1a
 1143 05c2 A8030000 		.4byte	.LASF84
 1144 05c6 06       		.byte	0x6
 1145 05c7 9F02     		.2byte	0x29f
 1146 05c9 0A090000 		.4byte	0x90a
 1147 05cd 02       		.byte	0x2
 1148 05ce 23       		.byte	0x23
 1149 05cf 58       		.uleb128 0x58
 1150 05d0 1A       		.uleb128 0x1a
 1151 05d1 C1020000 		.4byte	.LASF44
 1152 05d5 06       		.byte	0x6
 1153 05d6 A302     		.2byte	0x2a3
 1154 05d8 F2020000 		.4byte	0x2f2
 1155 05dc 03       		.byte	0x3
 1156 05dd 23       		.byte	0x23
 1157 05de C802     		.uleb128 0x148
 1158 05e0 1A       		.uleb128 0x1a
 1159 05e1 13020000 		.4byte	.LASF85
 1160 05e5 06       		.byte	0x6
 1161 05e6 A402     		.2byte	0x2a4
 1162 05e8 AB020000 		.4byte	0x2ab
 1163 05ec 03       		.byte	0x3
 1164 05ed 23       		.byte	0x23
 1165 05ee CC02     		.uleb128 0x14c
 1166 05f0 1A       		.uleb128 0x1a
ARM GAS  C:\Users\embedded\AppData\Local\Temp\ccYKeSIE.s 			page 24


 1167 05f1 51050000 		.4byte	.LASF86
 1168 05f5 06       		.byte	0x6
 1169 05f6 A802     		.2byte	0x2a8
 1170 05f8 6C090000 		.4byte	0x96c
 1171 05fc 03       		.byte	0x3
 1172 05fd 23       		.byte	0x23
 1173 05fe DC05     		.uleb128 0x2dc
 1174 0600 1A       		.uleb128 0x1a
 1175 0601 E8000000 		.4byte	.LASF87
 1176 0605 06       		.byte	0x6
 1177 0606 AD02     		.2byte	0x2ad
 1178 0608 D0060000 		.4byte	0x6d0
 1179 060c 03       		.byte	0x3
 1180 060d 23       		.byte	0x23
 1181 060e E005     		.uleb128 0x2e0
 1182 0610 1A       		.uleb128 0x1a
 1183 0611 CD000000 		.4byte	.LASF88
 1184 0615 06       		.byte	0x6
 1185 0616 AF02     		.2byte	0x2af
 1186 0618 78090000 		.4byte	0x978
 1187 061c 03       		.byte	0x3
 1188 061d 23       		.byte	0x23
 1189 061e EC05     		.uleb128 0x2ec
 1190 0620 00       		.byte	0
 1191 0621 09       		.uleb128 0x9
 1192 0622 04       		.byte	0x4
 1193 0623 27060000 		.4byte	0x627
 1194 0627 03       		.uleb128 0x3
 1195 0628 01       		.byte	0x1
 1196 0629 08       		.byte	0x8
 1197 062a AB040000 		.4byte	.LASF89
 1198 062e 18       		.uleb128 0x18
 1199 062f 27060000 		.4byte	0x627
 1200 0633 09       		.uleb128 0x9
 1201 0634 04       		.byte	0x4
 1202 0635 99040000 		.4byte	0x499
 1203 0639 16       		.uleb128 0x16
 1204 063a 01       		.byte	0x1
 1205 063b 65000000 		.4byte	0x65
 1206 063f 58060000 		.4byte	0x658
 1207 0643 17       		.uleb128 0x17
 1208 0644 B8040000 		.4byte	0x4b8
 1209 0648 17       		.uleb128 0x17
 1210 0649 A2000000 		.4byte	0xa2
 1211 064d 17       		.uleb128 0x17
 1212 064e 58060000 		.4byte	0x658
 1213 0652 17       		.uleb128 0x17
 1214 0653 65000000 		.4byte	0x65
 1215 0657 00       		.byte	0
 1216 0658 09       		.uleb128 0x9
 1217 0659 04       		.byte	0x4
 1218 065a 2E060000 		.4byte	0x62e
 1219 065e 09       		.uleb128 0x9
 1220 065f 04       		.byte	0x4
 1221 0660 39060000 		.4byte	0x639
 1222 0664 16       		.uleb128 0x16
 1223 0665 01       		.byte	0x1
ARM GAS  C:\Users\embedded\AppData\Local\Temp\ccYKeSIE.s 			page 25


 1224 0666 C6000000 		.4byte	0xc6
 1225 066a 83060000 		.4byte	0x683
 1226 066e 17       		.uleb128 0x17
 1227 066f B8040000 		.4byte	0x4b8
 1228 0673 17       		.uleb128 0x17
 1229 0674 A2000000 		.4byte	0xa2
 1230 0678 17       		.uleb128 0x17
 1231 0679 C6000000 		.4byte	0xc6
 1232 067d 17       		.uleb128 0x17
 1233 067e 65000000 		.4byte	0x65
 1234 0682 00       		.byte	0
 1235 0683 09       		.uleb128 0x9
 1236 0684 04       		.byte	0x4
 1237 0685 64060000 		.4byte	0x664
 1238 0689 16       		.uleb128 0x16
 1239 068a 01       		.byte	0x1
 1240 068b 65000000 		.4byte	0x65
 1241 068f 9E060000 		.4byte	0x69e
 1242 0693 17       		.uleb128 0x17
 1243 0694 B8040000 		.4byte	0x4b8
 1244 0698 17       		.uleb128 0x17
 1245 0699 A2000000 		.4byte	0xa2
 1246 069d 00       		.byte	0
 1247 069e 09       		.uleb128 0x9
 1248 069f 04       		.byte	0x4
 1249 06a0 89060000 		.4byte	0x689
 1250 06a4 0E       		.uleb128 0xe
 1251 06a5 30000000 		.4byte	0x30
 1252 06a9 B4060000 		.4byte	0x6b4
 1253 06ad 0F       		.uleb128 0xf
 1254 06ae 49000000 		.4byte	0x49
 1255 06b2 02       		.byte	0x2
 1256 06b3 00       		.byte	0
 1257 06b4 0E       		.uleb128 0xe
 1258 06b5 30000000 		.4byte	0x30
 1259 06b9 C4060000 		.4byte	0x6c4
 1260 06bd 0F       		.uleb128 0xf
 1261 06be 49000000 		.4byte	0x49
 1262 06c2 00       		.byte	0
 1263 06c3 00       		.byte	0
 1264 06c4 0B       		.uleb128 0xb
 1265 06c5 DB030000 		.4byte	.LASF90
 1266 06c9 06       		.byte	0x6
 1267 06ca 1F01     		.2byte	0x11f
 1268 06cc 3F030000 		.4byte	0x33f
 1269 06d0 1B       		.uleb128 0x1b
 1270 06d1 2C050000 		.4byte	.LASF91
 1271 06d5 0C       		.byte	0xc
 1272 06d6 06       		.byte	0x6
 1273 06d7 2301     		.2byte	0x123
 1274 06d9 0B070000 		.4byte	0x70b
 1275 06dd 1A       		.uleb128 0x1a
 1276 06de BF040000 		.4byte	.LASF24
 1277 06e2 06       		.byte	0x6
 1278 06e3 2501     		.2byte	0x125
 1279 06e5 0B070000 		.4byte	0x70b
 1280 06e9 02       		.byte	0x2
ARM GAS  C:\Users\embedded\AppData\Local\Temp\ccYKeSIE.s 			page 26


 1281 06ea 23       		.byte	0x23
 1282 06eb 00       		.uleb128 0
 1283 06ec 1A       		.uleb128 0x1a
 1284 06ed F9010000 		.4byte	.LASF92
 1285 06f1 06       		.byte	0x6
 1286 06f2 2601     		.2byte	0x126
 1287 06f4 65000000 		.4byte	0x65
 1288 06f8 02       		.byte	0x2
 1289 06f9 23       		.byte	0x23
 1290 06fa 04       		.uleb128 0x4
 1291 06fb 1A       		.uleb128 0x1a
 1292 06fc 17040000 		.4byte	.LASF93
 1293 0700 06       		.byte	0x6
 1294 0701 2701     		.2byte	0x127
 1295 0703 11070000 		.4byte	0x711
 1296 0707 02       		.byte	0x2
 1297 0708 23       		.byte	0x23
 1298 0709 08       		.uleb128 0x8
 1299 070a 00       		.byte	0
 1300 070b 09       		.uleb128 0x9
 1301 070c 04       		.byte	0x4
 1302 070d D0060000 		.4byte	0x6d0
 1303 0711 09       		.uleb128 0x9
 1304 0712 04       		.byte	0x4
 1305 0713 C4060000 		.4byte	0x6c4
 1306 0717 1B       		.uleb128 0x1b
 1307 0718 12000000 		.4byte	.LASF94
 1308 071c 0E       		.byte	0xe
 1309 071d 06       		.byte	0x6
 1310 071e 3F01     		.2byte	0x13f
 1311 0720 52070000 		.4byte	0x752
 1312 0724 1A       		.uleb128 0x1a
 1313 0725 6D040000 		.4byte	.LASF95
 1314 0729 06       		.byte	0x6
 1315 072a 4001     		.2byte	0x140
 1316 072c 52070000 		.4byte	0x752
 1317 0730 02       		.byte	0x2
 1318 0731 23       		.byte	0x23
 1319 0732 00       		.uleb128 0
 1320 0733 1A       		.uleb128 0x1a
 1321 0734 B9040000 		.4byte	.LASF96
 1322 0738 06       		.byte	0x6
 1323 0739 4101     		.2byte	0x141
 1324 073b 52070000 		.4byte	0x752
 1325 073f 02       		.byte	0x2
 1326 0740 23       		.byte	0x23
 1327 0741 06       		.uleb128 0x6
 1328 0742 1A       		.uleb128 0x1a
 1329 0743 E3040000 		.4byte	.LASF97
 1330 0747 06       		.byte	0x6
 1331 0748 4201     		.2byte	0x142
 1332 074a 42000000 		.4byte	0x42
 1333 074e 02       		.byte	0x2
 1334 074f 23       		.byte	0x23
 1335 0750 0C       		.uleb128 0xc
 1336 0751 00       		.byte	0
 1337 0752 0E       		.uleb128 0xe
ARM GAS  C:\Users\embedded\AppData\Local\Temp\ccYKeSIE.s 			page 27


 1338 0753 42000000 		.4byte	0x42
 1339 0757 62070000 		.4byte	0x762
 1340 075b 0F       		.uleb128 0xf
 1341 075c 49000000 		.4byte	0x49
 1342 0760 02       		.byte	0x2
 1343 0761 00       		.byte	0
 1344 0762 1C       		.uleb128 0x1c
 1345 0763 D0       		.byte	0xd0
 1346 0764 06       		.byte	0x6
 1347 0765 8002     		.2byte	0x280
 1348 0767 92080000 		.4byte	0x892
 1349 076b 1A       		.uleb128 0x1a
 1350 076c 10050000 		.4byte	.LASF98
 1351 0770 06       		.byte	0x6
 1352 0771 8202     		.2byte	0x282
 1353 0773 49000000 		.4byte	0x49
 1354 0777 02       		.byte	0x2
 1355 0778 23       		.byte	0x23
 1356 0779 00       		.uleb128 0
 1357 077a 1A       		.uleb128 0x1a
 1358 077b C5040000 		.4byte	.LASF99
 1359 077f 06       		.byte	0x6
 1360 0780 8302     		.2byte	0x283
 1361 0782 21060000 		.4byte	0x621
 1362 0786 02       		.byte	0x2
 1363 0787 23       		.byte	0x23
 1364 0788 04       		.uleb128 0x4
 1365 0789 1A       		.uleb128 0x1a
 1366 078a 28020000 		.4byte	.LASF100
 1367 078e 06       		.byte	0x6
 1368 078f 8402     		.2byte	0x284
 1369 0791 92080000 		.4byte	0x892
 1370 0795 02       		.byte	0x2
 1371 0796 23       		.byte	0x23
 1372 0797 08       		.uleb128 0x8
 1373 0798 1A       		.uleb128 0x1a
 1374 0799 74050000 		.4byte	.LASF101
 1375 079d 06       		.byte	0x6
 1376 079e 8502     		.2byte	0x285
 1377 07a0 C7010000 		.4byte	0x1c7
 1378 07a4 02       		.byte	0x2
 1379 07a5 23       		.byte	0x23
 1380 07a6 24       		.uleb128 0x24
 1381 07a7 1A       		.uleb128 0x1a
 1382 07a8 99010000 		.4byte	.LASF102
 1383 07ac 06       		.byte	0x6
 1384 07ad 8602     		.2byte	0x286
 1385 07af 65000000 		.4byte	0x65
 1386 07b3 02       		.byte	0x2
 1387 07b4 23       		.byte	0x23
 1388 07b5 48       		.uleb128 0x48
 1389 07b6 1A       		.uleb128 0x1a
 1390 07b7 FE030000 		.4byte	.LASF103
 1391 07bb 06       		.byte	0x6
 1392 07bc 8702     		.2byte	0x287
 1393 07be 50000000 		.4byte	0x50
 1394 07c2 02       		.byte	0x2
ARM GAS  C:\Users\embedded\AppData\Local\Temp\ccYKeSIE.s 			page 28


 1395 07c3 23       		.byte	0x23
 1396 07c4 50       		.uleb128 0x50
 1397 07c5 1A       		.uleb128 0x1a
 1398 07c6 8A050000 		.4byte	.LASF104
 1399 07ca 06       		.byte	0x6
 1400 07cb 8802     		.2byte	0x288
 1401 07cd 17070000 		.4byte	0x717
 1402 07d1 02       		.byte	0x2
 1403 07d2 23       		.byte	0x23
 1404 07d3 58       		.uleb128 0x58
 1405 07d4 1A       		.uleb128 0x1a
 1406 07d5 8D030000 		.4byte	.LASF105
 1407 07d9 06       		.byte	0x6
 1408 07da 8902     		.2byte	0x289
 1409 07dc 31010000 		.4byte	0x131
 1410 07e0 02       		.byte	0x2
 1411 07e1 23       		.byte	0x23
 1412 07e2 68       		.uleb128 0x68
 1413 07e3 1A       		.uleb128 0x1a
 1414 07e4 8F050000 		.4byte	.LASF106
 1415 07e8 06       		.byte	0x6
 1416 07e9 8A02     		.2byte	0x28a
 1417 07eb 31010000 		.4byte	0x131
 1418 07ef 02       		.byte	0x2
 1419 07f0 23       		.byte	0x23
 1420 07f1 70       		.uleb128 0x70
 1421 07f2 1A       		.uleb128 0x1a
 1422 07f3 7F030000 		.4byte	.LASF107
 1423 07f7 06       		.byte	0x6
 1424 07f8 8B02     		.2byte	0x28b
 1425 07fa 31010000 		.4byte	0x131
 1426 07fe 02       		.byte	0x2
 1427 07ff 23       		.byte	0x23
 1428 0800 78       		.uleb128 0x78
 1429 0801 1A       		.uleb128 0x1a
 1430 0802 47050000 		.4byte	.LASF108
 1431 0806 06       		.byte	0x6
 1432 0807 8C02     		.2byte	0x28c
 1433 0809 A2080000 		.4byte	0x8a2
 1434 080d 03       		.byte	0x3
 1435 080e 23       		.byte	0x23
 1436 080f 8001     		.uleb128 0x80
 1437 0811 1A       		.uleb128 0x1a
 1438 0812 1C020000 		.4byte	.LASF109
 1439 0816 06       		.byte	0x6
 1440 0817 8D02     		.2byte	0x28d
 1441 0819 B2080000 		.4byte	0x8b2
 1442 081d 03       		.byte	0x3
 1443 081e 23       		.byte	0x23
 1444 081f 8801     		.uleb128 0x88
 1445 0821 1A       		.uleb128 0x1a
 1446 0822 F0040000 		.4byte	.LASF110
 1447 0826 06       		.byte	0x6
 1448 0827 8E02     		.2byte	0x28e
 1449 0829 65000000 		.4byte	0x65
 1450 082d 03       		.byte	0x3
 1451 082e 23       		.byte	0x23
ARM GAS  C:\Users\embedded\AppData\Local\Temp\ccYKeSIE.s 			page 29


 1452 082f A001     		.uleb128 0xa0
 1453 0831 1A       		.uleb128 0x1a
 1454 0832 5F010000 		.4byte	.LASF111
 1455 0836 06       		.byte	0x6
 1456 0837 8F02     		.2byte	0x28f
 1457 0839 31010000 		.4byte	0x131
 1458 083d 03       		.byte	0x3
 1459 083e 23       		.byte	0x23
 1460 083f A401     		.uleb128 0xa4
 1461 0841 1A       		.uleb128 0x1a
 1462 0842 85000000 		.4byte	.LASF112
 1463 0846 06       		.byte	0x6
 1464 0847 9002     		.2byte	0x290
 1465 0849 31010000 		.4byte	0x131
 1466 084d 03       		.byte	0x3
 1467 084e 23       		.byte	0x23
 1468 084f AC01     		.uleb128 0xac
 1469 0851 1A       		.uleb128 0x1a
 1470 0852 4E010000 		.4byte	.LASF113
 1471 0856 06       		.byte	0x6
 1472 0857 9102     		.2byte	0x291
 1473 0859 31010000 		.4byte	0x131
 1474 085d 03       		.byte	0x3
 1475 085e 23       		.byte	0x23
 1476 085f B401     		.uleb128 0xb4
 1477 0861 1A       		.uleb128 0x1a
 1478 0862 2B000000 		.4byte	.LASF114
 1479 0866 06       		.byte	0x6
 1480 0867 9202     		.2byte	0x292
 1481 0869 31010000 		.4byte	0x131
 1482 086d 03       		.byte	0x3
 1483 086e 23       		.byte	0x23
 1484 086f BC01     		.uleb128 0xbc
 1485 0871 1A       		.uleb128 0x1a
 1486 0872 3A000000 		.4byte	.LASF115
 1487 0876 06       		.byte	0x6
 1488 0877 9302     		.2byte	0x293
 1489 0879 31010000 		.4byte	0x131
 1490 087d 03       		.byte	0x3
 1491 087e 23       		.byte	0x23
 1492 087f C401     		.uleb128 0xc4
 1493 0881 1A       		.uleb128 0x1a
 1494 0882 AD030000 		.4byte	.LASF116
 1495 0886 06       		.byte	0x6
 1496 0887 9402     		.2byte	0x294
 1497 0889 65000000 		.4byte	0x65
 1498 088d 03       		.byte	0x3
 1499 088e 23       		.byte	0x23
 1500 088f CC01     		.uleb128 0xcc
 1501 0891 00       		.byte	0
 1502 0892 0E       		.uleb128 0xe
 1503 0893 27060000 		.4byte	0x627
 1504 0897 A2080000 		.4byte	0x8a2
 1505 089b 0F       		.uleb128 0xf
 1506 089c 49000000 		.4byte	0x49
 1507 08a0 19       		.byte	0x19
 1508 08a1 00       		.byte	0
ARM GAS  C:\Users\embedded\AppData\Local\Temp\ccYKeSIE.s 			page 30


 1509 08a2 0E       		.uleb128 0xe
 1510 08a3 27060000 		.4byte	0x627
 1511 08a7 B2080000 		.4byte	0x8b2
 1512 08ab 0F       		.uleb128 0xf
 1513 08ac 49000000 		.4byte	0x49
 1514 08b0 07       		.byte	0x7
 1515 08b1 00       		.byte	0
 1516 08b2 0E       		.uleb128 0xe
 1517 08b3 27060000 		.4byte	0x627
 1518 08b7 C2080000 		.4byte	0x8c2
 1519 08bb 0F       		.uleb128 0xf
 1520 08bc 49000000 		.4byte	0x49
 1521 08c0 17       		.byte	0x17
 1522 08c1 00       		.byte	0
 1523 08c2 1C       		.uleb128 0x1c
 1524 08c3 F0       		.byte	0xf0
 1525 08c4 06       		.byte	0x6
 1526 08c5 9902     		.2byte	0x299
 1527 08c7 EA080000 		.4byte	0x8ea
 1528 08cb 1A       		.uleb128 0x1a
 1529 08cc B1020000 		.4byte	.LASF117
 1530 08d0 06       		.byte	0x6
 1531 08d1 9C02     		.2byte	0x29c
 1532 08d3 EA080000 		.4byte	0x8ea
 1533 08d7 02       		.byte	0x2
 1534 08d8 23       		.byte	0x23
 1535 08d9 00       		.uleb128 0
 1536 08da 1A       		.uleb128 0x1a
 1537 08db 3E050000 		.4byte	.LASF118
 1538 08df 06       		.byte	0x6
 1539 08e0 9D02     		.2byte	0x29d
 1540 08e2 FA080000 		.4byte	0x8fa
 1541 08e6 02       		.byte	0x2
 1542 08e7 23       		.byte	0x23
 1543 08e8 78       		.uleb128 0x78
 1544 08e9 00       		.byte	0
 1545 08ea 0E       		.uleb128 0xe
 1546 08eb 39030000 		.4byte	0x339
 1547 08ef FA080000 		.4byte	0x8fa
 1548 08f3 0F       		.uleb128 0xf
 1549 08f4 49000000 		.4byte	0x49
 1550 08f8 1D       		.byte	0x1d
 1551 08f9 00       		.byte	0
 1552 08fa 0E       		.uleb128 0xe
 1553 08fb 49000000 		.4byte	0x49
 1554 08ff 0A090000 		.4byte	0x90a
 1555 0903 0F       		.uleb128 0xf
 1556 0904 49000000 		.4byte	0x49
 1557 0908 1D       		.byte	0x1d
 1558 0909 00       		.byte	0
 1559 090a 1D       		.uleb128 0x1d
 1560 090b F0       		.byte	0xf0
 1561 090c 06       		.byte	0x6
 1562 090d 7E02     		.2byte	0x27e
 1563 090f 2C090000 		.4byte	0x92c
 1564 0913 1E       		.uleb128 0x1e
 1565 0914 57040000 		.4byte	.LASF67
ARM GAS  C:\Users\embedded\AppData\Local\Temp\ccYKeSIE.s 			page 31


 1566 0918 06       		.byte	0x6
 1567 0919 9502     		.2byte	0x295
 1568 091b 62070000 		.4byte	0x762
 1569 091f 1E       		.uleb128 0x1e
 1570 0920 61050000 		.4byte	.LASF119
 1571 0924 06       		.byte	0x6
 1572 0925 9E02     		.2byte	0x29e
 1573 0927 C2080000 		.4byte	0x8c2
 1574 092b 00       		.byte	0
 1575 092c 0E       		.uleb128 0xe
 1576 092d 27060000 		.4byte	0x627
 1577 0931 3C090000 		.4byte	0x93c
 1578 0935 0F       		.uleb128 0xf
 1579 0936 49000000 		.4byte	0x49
 1580 093a 18       		.byte	0x18
 1581 093b 00       		.byte	0
 1582 093c 0A       		.uleb128 0xa
 1583 093d 7A000000 		.4byte	.LASF121
 1584 0941 01       		.byte	0x1
 1585 0942 09       		.uleb128 0x9
 1586 0943 04       		.byte	0x4
 1587 0944 3C090000 		.4byte	0x93c
 1588 0948 1F       		.uleb128 0x1f
 1589 0949 01       		.byte	0x1
 1590 094a 54090000 		.4byte	0x954
 1591 094e 17       		.uleb128 0x17
 1592 094f B8040000 		.4byte	0x4b8
 1593 0953 00       		.byte	0
 1594 0954 09       		.uleb128 0x9
 1595 0955 04       		.byte	0x4
 1596 0956 48090000 		.4byte	0x948
 1597 095a 09       		.uleb128 0x9
 1598 095b 04       		.byte	0x4
 1599 095c B1010000 		.4byte	0x1b1
 1600 0960 1F       		.uleb128 0x1f
 1601 0961 01       		.byte	0x1
 1602 0962 6C090000 		.4byte	0x96c
 1603 0966 17       		.uleb128 0x17
 1604 0967 65000000 		.4byte	0x65
 1605 096b 00       		.byte	0
 1606 096c 09       		.uleb128 0x9
 1607 096d 04       		.byte	0x4
 1608 096e 72090000 		.4byte	0x972
 1609 0972 09       		.uleb128 0x9
 1610 0973 04       		.byte	0x4
 1611 0974 60090000 		.4byte	0x960
 1612 0978 0E       		.uleb128 0xe
 1613 0979 C4060000 		.4byte	0x6c4
 1614 097d 88090000 		.4byte	0x988
 1615 0981 0F       		.uleb128 0xf
 1616 0982 49000000 		.4byte	0x49
 1617 0986 02       		.byte	0x2
 1618 0987 00       		.byte	0
 1619 0988 20       		.uleb128 0x20
 1620 0989 90040000 		.4byte	.LASF122
 1621 098d 06       		.byte	0x6
 1622 098e 2E03     		.2byte	0x32e
ARM GAS  C:\Users\embedded\AppData\Local\Temp\ccYKeSIE.s 			page 32


 1623 0990 B8040000 		.4byte	0x4b8
 1624 0994 01       		.byte	0x1
 1625 0995 01       		.byte	0x1
 1626 0996 20       		.uleb128 0x20
 1627 0997 FD040000 		.4byte	.LASF123
 1628 099b 06       		.byte	0x6
 1629 099c 2F03     		.2byte	0x32f
 1630 099e BE040000 		.4byte	0x4be
 1631 09a2 01       		.byte	0x1
 1632 09a3 01       		.byte	0x1
 1633 09a4 21       		.uleb128 0x21
 1634 09a5 01       		.byte	0x1
 1635 09a6 A2050000 		.4byte	.LASF135
 1636 09aa 01       		.byte	0x1
 1637 09ab 34       		.byte	0x34
 1638 09ac 01       		.byte	0x1
 1639 09ad 65000000 		.4byte	0x65
 1640 09b1 00000000 		.4byte	.LFB3
 1641 09b5 0C020000 		.4byte	.LFE3
 1642 09b9 00000000 		.4byte	.LLST0
 1643 09bd 01       		.byte	0x1
 1644 09be 560A0000 		.4byte	0xa56
 1645 09c2 22       		.uleb128 0x22
 1646 09c3 14010000 		.4byte	.LASF124
 1647 09c7 01       		.byte	0x1
 1648 09c8 36       		.byte	0x36
 1649 09c9 25000000 		.4byte	0x25
 1650 09cd 02       		.byte	0x2
 1651 09ce 91       		.byte	0x91
 1652 09cf 6F       		.sleb128 -17
 1653 09d0 23       		.uleb128 0x23
 1654 09d1 2A000000 		.4byte	.LBB2
 1655 09d5 0C020000 		.4byte	.LBE2
 1656 09d9 22       		.uleb128 0x22
 1657 09da 32050000 		.4byte	.LASF125
 1658 09de 01       		.byte	0x1
 1659 09df 53       		.byte	0x53
 1660 09e0 25000000 		.4byte	0x25
 1661 09e4 02       		.byte	0x2
 1662 09e5 91       		.byte	0x91
 1663 09e6 6E       		.sleb128 -18
 1664 09e7 22       		.uleb128 0x22
 1665 09e8 4B000000 		.4byte	.LASF126
 1666 09ec 01       		.byte	0x1
 1667 09ed 54       		.byte	0x54
 1668 09ee 25000000 		.4byte	0x25
 1669 09f2 02       		.byte	0x2
 1670 09f3 91       		.byte	0x91
 1671 09f4 6D       		.sleb128 -19
 1672 09f5 22       		.uleb128 0x22
 1673 09f6 85020000 		.4byte	.LASF127
 1674 09fa 01       		.byte	0x1
 1675 09fb 55       		.byte	0x55
 1676 09fc 560A0000 		.4byte	0xa56
 1677 0a00 02       		.byte	0x2
 1678 0a01 91       		.byte	0x91
 1679 0a02 68       		.sleb128 -24
ARM GAS  C:\Users\embedded\AppData\Local\Temp\ccYKeSIE.s 			page 33


 1680 0a03 22       		.uleb128 0x22
 1681 0a04 78020000 		.4byte	.LASF128
 1682 0a08 01       		.byte	0x1
 1683 0a09 56       		.byte	0x56
 1684 0a0a 560A0000 		.4byte	0xa56
 1685 0a0e 02       		.byte	0x2
 1686 0a0f 91       		.byte	0x91
 1687 0a10 64       		.sleb128 -28
 1688 0a11 22       		.uleb128 0x22
 1689 0a12 2C010000 		.4byte	.LASF129
 1690 0a16 01       		.byte	0x1
 1691 0a17 57       		.byte	0x57
 1692 0a18 660A0000 		.4byte	0xa66
 1693 0a1c 02       		.byte	0x2
 1694 0a1d 91       		.byte	0x91
 1695 0a1e 5C       		.sleb128 -36
 1696 0a1f 22       		.uleb128 0x22
 1697 0a20 5E040000 		.4byte	.LASF130
 1698 0a24 01       		.byte	0x1
 1699 0a25 58       		.byte	0x58
 1700 0a26 660A0000 		.4byte	0xa66
 1701 0a2a 02       		.byte	0x2
 1702 0a2b 91       		.byte	0x91
 1703 0a2c 54       		.sleb128 -44
 1704 0a2d 22       		.uleb128 0x22
 1705 0a2e 09040000 		.4byte	.LASF131
 1706 0a32 01       		.byte	0x1
 1707 0a33 59       		.byte	0x59
 1708 0a34 37000000 		.4byte	0x37
 1709 0a38 02       		.byte	0x2
 1710 0a39 91       		.byte	0x91
 1711 0a3a 6A       		.sleb128 -22
 1712 0a3b 23       		.uleb128 0x23
 1713 0a3c F6000000 		.4byte	.LBB3
 1714 0a40 E4010000 		.4byte	.LBE3
 1715 0a44 24       		.uleb128 0x24
 1716 0a45 01       		.byte	0x1
 1717 0a46 A1020000 		.4byte	.LASF136
 1718 0a4a 01       		.byte	0x1
 1719 0a4b 69       		.byte	0x69
 1720 0a4c 65000000 		.4byte	0x65
 1721 0a50 01       		.byte	0x1
 1722 0a51 25       		.uleb128 0x25
 1723 0a52 00       		.byte	0
 1724 0a53 00       		.byte	0
 1725 0a54 00       		.byte	0
 1726 0a55 00       		.byte	0
 1727 0a56 0E       		.uleb128 0xe
 1728 0a57 25000000 		.4byte	0x25
 1729 0a5b 660A0000 		.4byte	0xa66
 1730 0a5f 0F       		.uleb128 0xf
 1731 0a60 49000000 		.4byte	0x49
 1732 0a64 01       		.byte	0x1
 1733 0a65 00       		.byte	0
 1734 0a66 26       		.uleb128 0x26
 1735 0a67 25000000 		.4byte	0x25
 1736 0a6b 0F       		.uleb128 0xf
ARM GAS  C:\Users\embedded\AppData\Local\Temp\ccYKeSIE.s 			page 34


 1737 0a6c 49000000 		.4byte	0x49
 1738 0a70 05       		.byte	0x5
 1739 0a71 00       		.byte	0
 1740 0a72 00       		.byte	0
 1741              		.section	.debug_abbrev,"",%progbits
 1742              	.Ldebug_abbrev0:
 1743 0000 01       		.uleb128 0x1
 1744 0001 11       		.uleb128 0x11
 1745 0002 01       		.byte	0x1
 1746 0003 25       		.uleb128 0x25
 1747 0004 0E       		.uleb128 0xe
 1748 0005 13       		.uleb128 0x13
 1749 0006 0B       		.uleb128 0xb
 1750 0007 03       		.uleb128 0x3
 1751 0008 0E       		.uleb128 0xe
 1752 0009 1B       		.uleb128 0x1b
 1753 000a 0E       		.uleb128 0xe
 1754 000b 11       		.uleb128 0x11
 1755 000c 01       		.uleb128 0x1
 1756 000d 12       		.uleb128 0x12
 1757 000e 01       		.uleb128 0x1
 1758 000f 10       		.uleb128 0x10
 1759 0010 06       		.uleb128 0x6
 1760 0011 00       		.byte	0
 1761 0012 00       		.byte	0
 1762 0013 02       		.uleb128 0x2
 1763 0014 16       		.uleb128 0x16
 1764 0015 00       		.byte	0
 1765 0016 03       		.uleb128 0x3
 1766 0017 08       		.uleb128 0x8
 1767 0018 3A       		.uleb128 0x3a
 1768 0019 0B       		.uleb128 0xb
 1769 001a 3B       		.uleb128 0x3b
 1770 001b 0B       		.uleb128 0xb
 1771 001c 49       		.uleb128 0x49
 1772 001d 13       		.uleb128 0x13
 1773 001e 00       		.byte	0
 1774 001f 00       		.byte	0
 1775 0020 03       		.uleb128 0x3
 1776 0021 24       		.uleb128 0x24
 1777 0022 00       		.byte	0
 1778 0023 0B       		.uleb128 0xb
 1779 0024 0B       		.uleb128 0xb
 1780 0025 3E       		.uleb128 0x3e
 1781 0026 0B       		.uleb128 0xb
 1782 0027 03       		.uleb128 0x3
 1783 0028 0E       		.uleb128 0xe
 1784 0029 00       		.byte	0
 1785 002a 00       		.byte	0
 1786 002b 04       		.uleb128 0x4
 1787 002c 16       		.uleb128 0x16
 1788 002d 00       		.byte	0
 1789 002e 03       		.uleb128 0x3
 1790 002f 0E       		.uleb128 0xe
 1791 0030 3A       		.uleb128 0x3a
 1792 0031 0B       		.uleb128 0xb
 1793 0032 3B       		.uleb128 0x3b
ARM GAS  C:\Users\embedded\AppData\Local\Temp\ccYKeSIE.s 			page 35


 1794 0033 0B       		.uleb128 0xb
 1795 0034 49       		.uleb128 0x49
 1796 0035 13       		.uleb128 0x13
 1797 0036 00       		.byte	0
 1798 0037 00       		.byte	0
 1799 0038 05       		.uleb128 0x5
 1800 0039 24       		.uleb128 0x24
 1801 003a 00       		.byte	0
 1802 003b 0B       		.uleb128 0xb
 1803 003c 0B       		.uleb128 0xb
 1804 003d 3E       		.uleb128 0x3e
 1805 003e 0B       		.uleb128 0xb
 1806 003f 03       		.uleb128 0x3
 1807 0040 08       		.uleb128 0x8
 1808 0041 00       		.byte	0
 1809 0042 00       		.byte	0
 1810 0043 06       		.uleb128 0x6
 1811 0044 04       		.uleb128 0x4
 1812 0045 01       		.byte	0x1
 1813 0046 3E       		.uleb128 0x3e
 1814 0047 0B       		.uleb128 0xb
 1815 0048 0B       		.uleb128 0xb
 1816 0049 0B       		.uleb128 0xb
 1817 004a 49       		.uleb128 0x49
 1818 004b 13       		.uleb128 0x13
 1819 004c 3A       		.uleb128 0x3a
 1820 004d 0B       		.uleb128 0xb
 1821 004e 3B       		.uleb128 0x3b
 1822 004f 0B       		.uleb128 0xb
 1823 0050 01       		.uleb128 0x1
 1824 0051 13       		.uleb128 0x13
 1825 0052 00       		.byte	0
 1826 0053 00       		.byte	0
 1827 0054 07       		.uleb128 0x7
 1828 0055 28       		.uleb128 0x28
 1829 0056 00       		.byte	0
 1830 0057 03       		.uleb128 0x3
 1831 0058 0E       		.uleb128 0xe
 1832 0059 1C       		.uleb128 0x1c
 1833 005a 0B       		.uleb128 0xb
 1834 005b 00       		.byte	0
 1835 005c 00       		.byte	0
 1836 005d 08       		.uleb128 0x8
 1837 005e 0F       		.uleb128 0xf
 1838 005f 00       		.byte	0
 1839 0060 0B       		.uleb128 0xb
 1840 0061 0B       		.uleb128 0xb
 1841 0062 00       		.byte	0
 1842 0063 00       		.byte	0
 1843 0064 09       		.uleb128 0x9
 1844 0065 0F       		.uleb128 0xf
 1845 0066 00       		.byte	0
 1846 0067 0B       		.uleb128 0xb
 1847 0068 0B       		.uleb128 0xb
 1848 0069 49       		.uleb128 0x49
 1849 006a 13       		.uleb128 0x13
 1850 006b 00       		.byte	0
ARM GAS  C:\Users\embedded\AppData\Local\Temp\ccYKeSIE.s 			page 36


 1851 006c 00       		.byte	0
 1852 006d 0A       		.uleb128 0xa
 1853 006e 13       		.uleb128 0x13
 1854 006f 00       		.byte	0
 1855 0070 03       		.uleb128 0x3
 1856 0071 0E       		.uleb128 0xe
 1857 0072 3C       		.uleb128 0x3c
 1858 0073 0C       		.uleb128 0xc
 1859 0074 00       		.byte	0
 1860 0075 00       		.byte	0
 1861 0076 0B       		.uleb128 0xb
 1862 0077 16       		.uleb128 0x16
 1863 0078 00       		.byte	0
 1864 0079 03       		.uleb128 0x3
 1865 007a 0E       		.uleb128 0xe
 1866 007b 3A       		.uleb128 0x3a
 1867 007c 0B       		.uleb128 0xb
 1868 007d 3B       		.uleb128 0x3b
 1869 007e 05       		.uleb128 0x5
 1870 007f 49       		.uleb128 0x49
 1871 0080 13       		.uleb128 0x13
 1872 0081 00       		.byte	0
 1873 0082 00       		.byte	0
 1874 0083 0C       		.uleb128 0xc
 1875 0084 17       		.uleb128 0x17
 1876 0085 01       		.byte	0x1
 1877 0086 0B       		.uleb128 0xb
 1878 0087 0B       		.uleb128 0xb
 1879 0088 3A       		.uleb128 0x3a
 1880 0089 0B       		.uleb128 0xb
 1881 008a 3B       		.uleb128 0x3b
 1882 008b 0B       		.uleb128 0xb
 1883 008c 01       		.uleb128 0x1
 1884 008d 13       		.uleb128 0x13
 1885 008e 00       		.byte	0
 1886 008f 00       		.byte	0
 1887 0090 0D       		.uleb128 0xd
 1888 0091 0D       		.uleb128 0xd
 1889 0092 00       		.byte	0
 1890 0093 03       		.uleb128 0x3
 1891 0094 0E       		.uleb128 0xe
 1892 0095 3A       		.uleb128 0x3a
 1893 0096 0B       		.uleb128 0xb
 1894 0097 3B       		.uleb128 0x3b
 1895 0098 0B       		.uleb128 0xb
 1896 0099 49       		.uleb128 0x49
 1897 009a 13       		.uleb128 0x13
 1898 009b 00       		.byte	0
 1899 009c 00       		.byte	0
 1900 009d 0E       		.uleb128 0xe
 1901 009e 01       		.uleb128 0x1
 1902 009f 01       		.byte	0x1
 1903 00a0 49       		.uleb128 0x49
 1904 00a1 13       		.uleb128 0x13
 1905 00a2 01       		.uleb128 0x1
 1906 00a3 13       		.uleb128 0x13
 1907 00a4 00       		.byte	0
ARM GAS  C:\Users\embedded\AppData\Local\Temp\ccYKeSIE.s 			page 37


 1908 00a5 00       		.byte	0
 1909 00a6 0F       		.uleb128 0xf
 1910 00a7 21       		.uleb128 0x21
 1911 00a8 00       		.byte	0
 1912 00a9 49       		.uleb128 0x49
 1913 00aa 13       		.uleb128 0x13
 1914 00ab 2F       		.uleb128 0x2f
 1915 00ac 0B       		.uleb128 0xb
 1916 00ad 00       		.byte	0
 1917 00ae 00       		.byte	0
 1918 00af 10       		.uleb128 0x10
 1919 00b0 13       		.uleb128 0x13
 1920 00b1 01       		.byte	0x1
 1921 00b2 0B       		.uleb128 0xb
 1922 00b3 0B       		.uleb128 0xb
 1923 00b4 3A       		.uleb128 0x3a
 1924 00b5 0B       		.uleb128 0xb
 1925 00b6 3B       		.uleb128 0x3b
 1926 00b7 0B       		.uleb128 0xb
 1927 00b8 01       		.uleb128 0x1
 1928 00b9 13       		.uleb128 0x13
 1929 00ba 00       		.byte	0
 1930 00bb 00       		.byte	0
 1931 00bc 11       		.uleb128 0x11
 1932 00bd 0D       		.uleb128 0xd
 1933 00be 00       		.byte	0
 1934 00bf 03       		.uleb128 0x3
 1935 00c0 0E       		.uleb128 0xe
 1936 00c1 3A       		.uleb128 0x3a
 1937 00c2 0B       		.uleb128 0xb
 1938 00c3 3B       		.uleb128 0x3b
 1939 00c4 0B       		.uleb128 0xb
 1940 00c5 49       		.uleb128 0x49
 1941 00c6 13       		.uleb128 0x13
 1942 00c7 38       		.uleb128 0x38
 1943 00c8 0A       		.uleb128 0xa
 1944 00c9 00       		.byte	0
 1945 00ca 00       		.byte	0
 1946 00cb 12       		.uleb128 0x12
 1947 00cc 13       		.uleb128 0x13
 1948 00cd 01       		.byte	0x1
 1949 00ce 03       		.uleb128 0x3
 1950 00cf 0E       		.uleb128 0xe
 1951 00d0 0B       		.uleb128 0xb
 1952 00d1 0B       		.uleb128 0xb
 1953 00d2 3A       		.uleb128 0x3a
 1954 00d3 0B       		.uleb128 0xb
 1955 00d4 3B       		.uleb128 0x3b
 1956 00d5 0B       		.uleb128 0xb
 1957 00d6 01       		.uleb128 0x1
 1958 00d7 13       		.uleb128 0x13
 1959 00d8 00       		.byte	0
 1960 00d9 00       		.byte	0
 1961 00da 13       		.uleb128 0x13
 1962 00db 0D       		.uleb128 0xd
 1963 00dc 00       		.byte	0
 1964 00dd 03       		.uleb128 0x3
ARM GAS  C:\Users\embedded\AppData\Local\Temp\ccYKeSIE.s 			page 38


 1965 00de 08       		.uleb128 0x8
 1966 00df 3A       		.uleb128 0x3a
 1967 00e0 0B       		.uleb128 0xb
 1968 00e1 3B       		.uleb128 0x3b
 1969 00e2 0B       		.uleb128 0xb
 1970 00e3 49       		.uleb128 0x49
 1971 00e4 13       		.uleb128 0x13
 1972 00e5 38       		.uleb128 0x38
 1973 00e6 0A       		.uleb128 0xa
 1974 00e7 00       		.byte	0
 1975 00e8 00       		.byte	0
 1976 00e9 14       		.uleb128 0x14
 1977 00ea 13       		.uleb128 0x13
 1978 00eb 01       		.byte	0x1
 1979 00ec 03       		.uleb128 0x3
 1980 00ed 0E       		.uleb128 0xe
 1981 00ee 0B       		.uleb128 0xb
 1982 00ef 05       		.uleb128 0x5
 1983 00f0 3A       		.uleb128 0x3a
 1984 00f1 0B       		.uleb128 0xb
 1985 00f2 3B       		.uleb128 0x3b
 1986 00f3 0B       		.uleb128 0xb
 1987 00f4 01       		.uleb128 0x1
 1988 00f5 13       		.uleb128 0x13
 1989 00f6 00       		.byte	0
 1990 00f7 00       		.byte	0
 1991 00f8 15       		.uleb128 0x15
 1992 00f9 15       		.uleb128 0x15
 1993 00fa 00       		.byte	0
 1994 00fb 27       		.uleb128 0x27
 1995 00fc 0C       		.uleb128 0xc
 1996 00fd 00       		.byte	0
 1997 00fe 00       		.byte	0
 1998 00ff 16       		.uleb128 0x16
 1999 0100 15       		.uleb128 0x15
 2000 0101 01       		.byte	0x1
 2001 0102 27       		.uleb128 0x27
 2002 0103 0C       		.uleb128 0xc
 2003 0104 49       		.uleb128 0x49
 2004 0105 13       		.uleb128 0x13
 2005 0106 01       		.uleb128 0x1
 2006 0107 13       		.uleb128 0x13
 2007 0108 00       		.byte	0
 2008 0109 00       		.byte	0
 2009 010a 17       		.uleb128 0x17
 2010 010b 05       		.uleb128 0x5
 2011 010c 00       		.byte	0
 2012 010d 49       		.uleb128 0x49
 2013 010e 13       		.uleb128 0x13
 2014 010f 00       		.byte	0
 2015 0110 00       		.byte	0
 2016 0111 18       		.uleb128 0x18
 2017 0112 26       		.uleb128 0x26
 2018 0113 00       		.byte	0
 2019 0114 49       		.uleb128 0x49
 2020 0115 13       		.uleb128 0x13
 2021 0116 00       		.byte	0
ARM GAS  C:\Users\embedded\AppData\Local\Temp\ccYKeSIE.s 			page 39


 2022 0117 00       		.byte	0
 2023 0118 19       		.uleb128 0x19
 2024 0119 13       		.uleb128 0x13
 2025 011a 01       		.byte	0x1
 2026 011b 03       		.uleb128 0x3
 2027 011c 0E       		.uleb128 0xe
 2028 011d 0B       		.uleb128 0xb
 2029 011e 05       		.uleb128 0x5
 2030 011f 3A       		.uleb128 0x3a
 2031 0120 0B       		.uleb128 0xb
 2032 0121 3B       		.uleb128 0x3b
 2033 0122 05       		.uleb128 0x5
 2034 0123 01       		.uleb128 0x1
 2035 0124 13       		.uleb128 0x13
 2036 0125 00       		.byte	0
 2037 0126 00       		.byte	0
 2038 0127 1A       		.uleb128 0x1a
 2039 0128 0D       		.uleb128 0xd
 2040 0129 00       		.byte	0
 2041 012a 03       		.uleb128 0x3
 2042 012b 0E       		.uleb128 0xe
 2043 012c 3A       		.uleb128 0x3a
 2044 012d 0B       		.uleb128 0xb
 2045 012e 3B       		.uleb128 0x3b
 2046 012f 05       		.uleb128 0x5
 2047 0130 49       		.uleb128 0x49
 2048 0131 13       		.uleb128 0x13
 2049 0132 38       		.uleb128 0x38
 2050 0133 0A       		.uleb128 0xa
 2051 0134 00       		.byte	0
 2052 0135 00       		.byte	0
 2053 0136 1B       		.uleb128 0x1b
 2054 0137 13       		.uleb128 0x13
 2055 0138 01       		.byte	0x1
 2056 0139 03       		.uleb128 0x3
 2057 013a 0E       		.uleb128 0xe
 2058 013b 0B       		.uleb128 0xb
 2059 013c 0B       		.uleb128 0xb
 2060 013d 3A       		.uleb128 0x3a
 2061 013e 0B       		.uleb128 0xb
 2062 013f 3B       		.uleb128 0x3b
 2063 0140 05       		.uleb128 0x5
 2064 0141 01       		.uleb128 0x1
 2065 0142 13       		.uleb128 0x13
 2066 0143 00       		.byte	0
 2067 0144 00       		.byte	0
 2068 0145 1C       		.uleb128 0x1c
 2069 0146 13       		.uleb128 0x13
 2070 0147 01       		.byte	0x1
 2071 0148 0B       		.uleb128 0xb
 2072 0149 0B       		.uleb128 0xb
 2073 014a 3A       		.uleb128 0x3a
 2074 014b 0B       		.uleb128 0xb
 2075 014c 3B       		.uleb128 0x3b
 2076 014d 05       		.uleb128 0x5
 2077 014e 01       		.uleb128 0x1
 2078 014f 13       		.uleb128 0x13
ARM GAS  C:\Users\embedded\AppData\Local\Temp\ccYKeSIE.s 			page 40


 2079 0150 00       		.byte	0
 2080 0151 00       		.byte	0
 2081 0152 1D       		.uleb128 0x1d
 2082 0153 17       		.uleb128 0x17
 2083 0154 01       		.byte	0x1
 2084 0155 0B       		.uleb128 0xb
 2085 0156 0B       		.uleb128 0xb
 2086 0157 3A       		.uleb128 0x3a
 2087 0158 0B       		.uleb128 0xb
 2088 0159 3B       		.uleb128 0x3b
 2089 015a 05       		.uleb128 0x5
 2090 015b 01       		.uleb128 0x1
 2091 015c 13       		.uleb128 0x13
 2092 015d 00       		.byte	0
 2093 015e 00       		.byte	0
 2094 015f 1E       		.uleb128 0x1e
 2095 0160 0D       		.uleb128 0xd
 2096 0161 00       		.byte	0
 2097 0162 03       		.uleb128 0x3
 2098 0163 0E       		.uleb128 0xe
 2099 0164 3A       		.uleb128 0x3a
 2100 0165 0B       		.uleb128 0xb
 2101 0166 3B       		.uleb128 0x3b
 2102 0167 05       		.uleb128 0x5
 2103 0168 49       		.uleb128 0x49
 2104 0169 13       		.uleb128 0x13
 2105 016a 00       		.byte	0
 2106 016b 00       		.byte	0
 2107 016c 1F       		.uleb128 0x1f
 2108 016d 15       		.uleb128 0x15
 2109 016e 01       		.byte	0x1
 2110 016f 27       		.uleb128 0x27
 2111 0170 0C       		.uleb128 0xc
 2112 0171 01       		.uleb128 0x1
 2113 0172 13       		.uleb128 0x13
 2114 0173 00       		.byte	0
 2115 0174 00       		.byte	0
 2116 0175 20       		.uleb128 0x20
 2117 0176 34       		.uleb128 0x34
 2118 0177 00       		.byte	0
 2119 0178 03       		.uleb128 0x3
 2120 0179 0E       		.uleb128 0xe
 2121 017a 3A       		.uleb128 0x3a
 2122 017b 0B       		.uleb128 0xb
 2123 017c 3B       		.uleb128 0x3b
 2124 017d 05       		.uleb128 0x5
 2125 017e 49       		.uleb128 0x49
 2126 017f 13       		.uleb128 0x13
 2127 0180 3F       		.uleb128 0x3f
 2128 0181 0C       		.uleb128 0xc
 2129 0182 3C       		.uleb128 0x3c
 2130 0183 0C       		.uleb128 0xc
 2131 0184 00       		.byte	0
 2132 0185 00       		.byte	0
 2133 0186 21       		.uleb128 0x21
 2134 0187 2E       		.uleb128 0x2e
 2135 0188 01       		.byte	0x1
ARM GAS  C:\Users\embedded\AppData\Local\Temp\ccYKeSIE.s 			page 41


 2136 0189 3F       		.uleb128 0x3f
 2137 018a 0C       		.uleb128 0xc
 2138 018b 03       		.uleb128 0x3
 2139 018c 0E       		.uleb128 0xe
 2140 018d 3A       		.uleb128 0x3a
 2141 018e 0B       		.uleb128 0xb
 2142 018f 3B       		.uleb128 0x3b
 2143 0190 0B       		.uleb128 0xb
 2144 0191 27       		.uleb128 0x27
 2145 0192 0C       		.uleb128 0xc
 2146 0193 49       		.uleb128 0x49
 2147 0194 13       		.uleb128 0x13
 2148 0195 11       		.uleb128 0x11
 2149 0196 01       		.uleb128 0x1
 2150 0197 12       		.uleb128 0x12
 2151 0198 01       		.uleb128 0x1
 2152 0199 40       		.uleb128 0x40
 2153 019a 06       		.uleb128 0x6
 2154 019b 9642     		.uleb128 0x2116
 2155 019d 0C       		.uleb128 0xc
 2156 019e 01       		.uleb128 0x1
 2157 019f 13       		.uleb128 0x13
 2158 01a0 00       		.byte	0
 2159 01a1 00       		.byte	0
 2160 01a2 22       		.uleb128 0x22
 2161 01a3 34       		.uleb128 0x34
 2162 01a4 00       		.byte	0
 2163 01a5 03       		.uleb128 0x3
 2164 01a6 0E       		.uleb128 0xe
 2165 01a7 3A       		.uleb128 0x3a
 2166 01a8 0B       		.uleb128 0xb
 2167 01a9 3B       		.uleb128 0x3b
 2168 01aa 0B       		.uleb128 0xb
 2169 01ab 49       		.uleb128 0x49
 2170 01ac 13       		.uleb128 0x13
 2171 01ad 02       		.uleb128 0x2
 2172 01ae 0A       		.uleb128 0xa
 2173 01af 00       		.byte	0
 2174 01b0 00       		.byte	0
 2175 01b1 23       		.uleb128 0x23
 2176 01b2 0B       		.uleb128 0xb
 2177 01b3 01       		.byte	0x1
 2178 01b4 11       		.uleb128 0x11
 2179 01b5 01       		.uleb128 0x1
 2180 01b6 12       		.uleb128 0x12
 2181 01b7 01       		.uleb128 0x1
 2182 01b8 00       		.byte	0
 2183 01b9 00       		.byte	0
 2184 01ba 24       		.uleb128 0x24
 2185 01bb 2E       		.uleb128 0x2e
 2186 01bc 01       		.byte	0x1
 2187 01bd 3F       		.uleb128 0x3f
 2188 01be 0C       		.uleb128 0xc
 2189 01bf 03       		.uleb128 0x3
 2190 01c0 0E       		.uleb128 0xe
 2191 01c1 3A       		.uleb128 0x3a
 2192 01c2 0B       		.uleb128 0xb
ARM GAS  C:\Users\embedded\AppData\Local\Temp\ccYKeSIE.s 			page 42


 2193 01c3 3B       		.uleb128 0x3b
 2194 01c4 0B       		.uleb128 0xb
 2195 01c5 49       		.uleb128 0x49
 2196 01c6 13       		.uleb128 0x13
 2197 01c7 3C       		.uleb128 0x3c
 2198 01c8 0C       		.uleb128 0xc
 2199 01c9 00       		.byte	0
 2200 01ca 00       		.byte	0
 2201 01cb 25       		.uleb128 0x25
 2202 01cc 18       		.uleb128 0x18
 2203 01cd 00       		.byte	0
 2204 01ce 00       		.byte	0
 2205 01cf 00       		.byte	0
 2206 01d0 26       		.uleb128 0x26
 2207 01d1 01       		.uleb128 0x1
 2208 01d2 01       		.byte	0x1
 2209 01d3 49       		.uleb128 0x49
 2210 01d4 13       		.uleb128 0x13
 2211 01d5 00       		.byte	0
 2212 01d6 00       		.byte	0
 2213 01d7 00       		.byte	0
 2214              		.section	.debug_loc,"",%progbits
 2215              	.Ldebug_loc0:
 2216              	.LLST0:
 2217 0000 00000000 		.4byte	.LFB3-.Ltext0
 2218 0004 02000000 		.4byte	.LCFI0-.Ltext0
 2219 0008 0200     		.2byte	0x2
 2220 000a 7D       		.byte	0x7d
 2221 000b 00       		.sleb128 0
 2222 000c 02000000 		.4byte	.LCFI0-.Ltext0
 2223 0010 04000000 		.4byte	.LCFI1-.Ltext0
 2224 0014 0200     		.2byte	0x2
 2225 0016 7D       		.byte	0x7d
 2226 0017 0C       		.sleb128 12
 2227 0018 04000000 		.4byte	.LCFI1-.Ltext0
 2228 001c 06000000 		.4byte	.LCFI2-.Ltext0
 2229 0020 0200     		.2byte	0x2
 2230 0022 7D       		.byte	0x7d
 2231 0023 30       		.sleb128 48
 2232 0024 06000000 		.4byte	.LCFI2-.Ltext0
 2233 0028 0C020000 		.4byte	.LFE3-.Ltext0
 2234 002c 0200     		.2byte	0x2
 2235 002e 77       		.byte	0x77
 2236 002f 30       		.sleb128 48
 2237 0030 00000000 		.4byte	0
 2238 0034 00000000 		.4byte	0
 2239              		.section	.debug_aranges,"",%progbits
 2240 0000 1C000000 		.4byte	0x1c
 2241 0004 0200     		.2byte	0x2
 2242 0006 00000000 		.4byte	.Ldebug_info0
 2243 000a 04       		.byte	0x4
 2244 000b 00       		.byte	0
 2245 000c 0000     		.2byte	0
 2246 000e 0000     		.2byte	0
 2247 0010 00000000 		.4byte	.Ltext0
 2248 0014 0C020000 		.4byte	.Letext0-.Ltext0
 2249 0018 00000000 		.4byte	0
ARM GAS  C:\Users\embedded\AppData\Local\Temp\ccYKeSIE.s 			page 43


 2250 001c 00000000 		.4byte	0
 2251              		.section	.debug_line,"",%progbits
 2252              	.Ldebug_line0:
 2253 0000 13010000 		.section	.debug_str,"MS",%progbits,1
 2253      0200B900 
 2253      00000201 
 2253      FB0E0D00 
 2253      01010101 
 2254              	.LASF41:
 2255 0000 5F64736F 		.ascii	"_dso_handle\000"
 2255      5F68616E 
 2255      646C6500 
 2256              	.LASF49:
 2257 000c 5F73697A 		.ascii	"_size\000"
 2257      6500
 2258              	.LASF94:
 2259 0012 5F72616E 		.ascii	"_rand48\000"
 2259      64343800 
 2260              	.LASF73:
 2261 001a 5F656D65 		.ascii	"_emergency\000"
 2261      7267656E 
 2261      637900
 2262              	.LASF63:
 2263 0025 5F646174 		.ascii	"_data\000"
 2263      6100
 2264              	.LASF114:
 2265 002b 5F776372 		.ascii	"_wcrtomb_state\000"
 2265      746F6D62 
 2265      5F737461 
 2265      746500
 2266              	.LASF115:
 2267 003a 5F776373 		.ascii	"_wcsrtombs_state\000"
 2267      72746F6D 
 2267      62735F73 
 2267      74617465 
 2267      00
 2268              	.LASF126:
 2269 004b 68747532 		.ascii	"htu21dfaddress\000"
 2269      31646661 
 2269      64647265 
 2269      737300
 2270              	.LASF4:
 2271 005a 6C6F6E67 		.ascii	"long long unsigned int\000"
 2271      206C6F6E 
 2271      6720756E 
 2271      7369676E 
 2271      65642069 
 2272              	.LASF53:
 2273 0071 5F6C6266 		.ascii	"_lbfsize\000"
 2273      73697A65 
 2273      00
 2274              	.LASF121:
 2275 007a 5F5F6C6F 		.ascii	"__locale_t\000"
 2275      63616C65 
 2275      5F7400
 2276              	.LASF112:
 2277 0085 5F6D6272 		.ascii	"_mbrtowc_state\000"
ARM GAS  C:\Users\embedded\AppData\Local\Temp\ccYKeSIE.s 			page 44


 2277      746F7763 
 2277      5F737461 
 2277      746500
 2278              	.LASF30:
 2279 0094 5F5F746D 		.ascii	"__tm_sec\000"
 2279      5F736563 
 2279      00
 2280              	.LASF7:
 2281 009d 6C6F6E67 		.ascii	"long long int\000"
 2281      206C6F6E 
 2281      6720696E 
 2281      7400
 2282              	.LASF5:
 2283 00ab 7369676E 		.ascii	"signed char\000"
 2283      65642063 
 2283      68617200 
 2284              	.LASF59:
 2285 00b7 5F756275 		.ascii	"_ubuf\000"
 2285      6600
 2286              	.LASF48:
 2287 00bd 5F626173 		.ascii	"_base\000"
 2287      6500
 2288              	.LASF32:
 2289 00c3 5F5F746D 		.ascii	"__tm_hour\000"
 2289      5F686F75 
 2289      7200
 2290              	.LASF88:
 2291 00cd 5F5F7366 		.ascii	"__sf\000"
 2291      00
 2292              	.LASF39:
 2293 00d2 5F6F6E5F 		.ascii	"_on_exit_args\000"
 2293      65786974 
 2293      5F617267 
 2293      7300
 2294              	.LASF54:
 2295 00e0 5F636F6F 		.ascii	"_cookie\000"
 2295      6B696500 
 2296              	.LASF87:
 2297 00e8 5F5F7367 		.ascii	"__sglue\000"
 2297      6C756500 
 2298              	.LASF0:
 2299 00f0 74553136 		.ascii	"tU16\000"
 2299      00
 2300              	.LASF10:
 2301 00f5 6C6F6E67 		.ascii	"long int\000"
 2301      20696E74 
 2301      00
 2302              	.LASF51:
 2303 00fe 5F666C61 		.ascii	"_flags\000"
 2303      677300
 2304              	.LASF43:
 2305 0105 5F69735F 		.ascii	"_is_cxa\000"
 2305      63786100 
 2306              	.LASF69:
 2307 010d 5F737464 		.ascii	"_stdin\000"
 2307      696E00
 2308              	.LASF124:
ARM GAS  C:\Users\embedded\AppData\Local\Temp\ccYKeSIE.s 			page 45


 2309 0114 70636139 		.ascii	"pca9532Present\000"
 2309      35333250 
 2309      72657365 
 2309      6E7400
 2310              	.LASF61:
 2311 0123 5F626C6B 		.ascii	"_blksize\000"
 2311      73697A65 
 2311      00
 2312              	.LASF129:
 2313 012c 74656D70 		.ascii	"temperatureInChar\000"
 2313      65726174 
 2313      75726549 
 2313      6E436861 
 2313      7200
 2314              	.LASF83:
 2315 013e 5F637674 		.ascii	"_cvtbuf\000"
 2315      62756600 
 2316              	.LASF62:
 2317 0146 5F6F6666 		.ascii	"_offset\000"
 2317      73657400 
 2318              	.LASF113:
 2319 014e 5F6D6273 		.ascii	"_mbsrtowcs_state\000"
 2319      72746F77 
 2319      63735F73 
 2319      74617465 
 2319      00
 2320              	.LASF111:
 2321 015f 5F6D6272 		.ascii	"_mbrlen_state\000"
 2321      6C656E5F 
 2321      73746174 
 2321      6500
 2322              	.LASF40:
 2323 016d 5F666E61 		.ascii	"_fnargs\000"
 2323      72677300 
 2324              	.LASF46:
 2325 0175 5F666E73 		.ascii	"_fns\000"
 2325      00
 2326              	.LASF26:
 2327 017a 5F736967 		.ascii	"_sign\000"
 2327      6E00
 2328              	.LASF22:
 2329 0180 5F666C6F 		.ascii	"_flock_t\000"
 2329      636B5F74 
 2329      00
 2330              	.LASF71:
 2331 0189 5F737464 		.ascii	"_stderr\000"
 2331      65727200 
 2332              	.LASF28:
 2333 0191 5F426967 		.ascii	"_Bigint\000"
 2333      696E7400 
 2334              	.LASF102:
 2335 0199 5F67616D 		.ascii	"_gamma_signgam\000"
 2335      6D615F73 
 2335      69676E67 
 2335      616D00
 2336              	.LASF55:
 2337 01a8 5F726561 		.ascii	"_read\000"
ARM GAS  C:\Users\embedded\AppData\Local\Temp\ccYKeSIE.s 			page 46


 2337      6400
 2338              	.LASF79:
 2339 01ae 5F726573 		.ascii	"_result_k\000"
 2339      756C745F 
 2339      6B00
 2340              	.LASF29:
 2341 01b8 5F5F746D 		.ascii	"__tm\000"
 2341      00
 2342              	.LASF3:
 2343 01bd 756E7369 		.ascii	"unsigned int\000"
 2343      676E6564 
 2343      20696E74 
 2343      00
 2344              	.LASF18:
 2345 01ca 5F5F7763 		.ascii	"__wchb\000"
 2345      686200
 2346              	.LASF70:
 2347 01d1 5F737464 		.ascii	"_stdout\000"
 2347      6F757400 
 2348              	.LASF82:
 2349 01d9 5F637674 		.ascii	"_cvtlen\000"
 2349      6C656E00 
 2350              	.LASF11:
 2351 01e1 6C6F6E67 		.ascii	"long unsigned int\000"
 2351      20756E73 
 2351      69676E65 
 2351      6420696E 
 2351      7400
 2352              	.LASF52:
 2353 01f3 5F66696C 		.ascii	"_file\000"
 2353      6500
 2354              	.LASF92:
 2355 01f9 5F6E696F 		.ascii	"_niobs\000"
 2355      627300
 2356              	.LASF2:
 2357 0200 73686F72 		.ascii	"short unsigned int\000"
 2357      7420756E 
 2357      7369676E 
 2357      65642069 
 2357      6E7400
 2358              	.LASF85:
 2359 0213 5F617465 		.ascii	"_atexit0\000"
 2359      78697430 
 2359      00
 2360              	.LASF109:
 2361 021c 5F736967 		.ascii	"_signal_buf\000"
 2361      6E616C5F 
 2361      62756600 
 2362              	.LASF100:
 2363 0228 5F617363 		.ascii	"_asctime_buf\000"
 2363      74696D65 
 2363      5F627566 
 2363      00
 2364              	.LASF78:
 2365 0235 5F726573 		.ascii	"_result\000"
 2365      756C7400 
 2366              	.LASF17:
ARM GAS  C:\Users\embedded\AppData\Local\Temp\ccYKeSIE.s 			page 47


 2367 023d 5F5F7763 		.ascii	"__wch\000"
 2367      6800
 2368              	.LASF13:
 2369 0243 5F4C4F43 		.ascii	"_LOCK_T\000"
 2369      4B5F5400 
 2370              	.LASF133:
 2371 024b 6D61696E 		.ascii	"main.c\000"
 2371      2E6300
 2372              	.LASF16:
 2373 0252 77696E74 		.ascii	"wint_t\000"
 2373      5F7400
 2374              	.LASF64:
 2375 0259 5F6C6F63 		.ascii	"_lock\000"
 2375      6B00
 2376              	.LASF66:
 2377 025f 5F666C61 		.ascii	"_flags2\000"
 2377      67733200 
 2378              	.LASF56:
 2379 0267 5F777269 		.ascii	"_write\000"
 2379      746500
 2380              	.LASF35:
 2381 026e 5F5F746D 		.ascii	"__tm_year\000"
 2381      5F796561 
 2381      7200
 2382              	.LASF128:
 2383 0278 72656164 		.ascii	"readHumidity\000"
 2383      48756D69 
 2383      64697479 
 2383      00
 2384              	.LASF127:
 2385 0285 72656164 		.ascii	"readTemperature\000"
 2385      54656D70 
 2385      65726174 
 2385      75726500 
 2386              	.LASF12:
 2387 0295 6C6F6E67 		.ascii	"long double\000"
 2387      20646F75 
 2387      626C6500 
 2388              	.LASF136:
 2389 02a1 6D656173 		.ascii	"measureHumidity\000"
 2389      75726548 
 2389      756D6964 
 2389      69747900 
 2390              	.LASF117:
 2391 02b1 5F6E6578 		.ascii	"_nextf\000"
 2391      746600
 2392              	.LASF34:
 2393 02b8 5F5F746D 		.ascii	"__tm_mon\000"
 2393      5F6D6F6E 
 2393      00
 2394              	.LASF44:
 2395 02c1 5F617465 		.ascii	"_atexit\000"
 2395      78697400 
 2396              	.LASF76:
 2397 02c9 5F5F7364 		.ascii	"__sdidinit\000"
 2397      6964696E 
 2397      697400
ARM GAS  C:\Users\embedded\AppData\Local\Temp\ccYKeSIE.s 			page 48


 2398              	.LASF14:
 2399 02d4 5F6F6666 		.ascii	"_off_t\000"
 2399      5F7400
 2400              	.LASF134:
 2401 02db 433A5C45 		.ascii	"C:\\Embedded\\2138MiniDemo\\2138\000"
 2401      6D626564 
 2401      6465645C 
 2401      32313338 
 2401      4D696E69 
 2402              	.LASF8:
 2403 02f9 46414C53 		.ascii	"FALSE\000"
 2403      4500
 2404              	.LASF132:
 2405 02ff 474E5520 		.ascii	"GNU C11 7.3.1 20180622 (release) [ARM/embedded-7-br"
 2405      43313120 
 2405      372E332E 
 2405      31203230 
 2405      31383036 
 2406 0332 616E6368 		.ascii	"anch revision 261907] -mcpu=arm7tdmi -mthumb -mthum"
 2406      20726576 
 2406      6973696F 
 2406      6E203236 
 2406      31393037 
 2407 0365 622D696E 		.ascii	"b-interwork -gdwarf-2 -O0\000"
 2407      74657277 
 2407      6F726B20 
 2407      2D676477 
 2407      6172662D 
 2408              	.LASF107:
 2409 037f 5F776374 		.ascii	"_wctomb_state\000"
 2409      6F6D625F 
 2409      73746174 
 2409      6500
 2410              	.LASF105:
 2411 038d 5F6D626C 		.ascii	"_mblen_state\000"
 2411      656E5F73 
 2411      74617465 
 2411      00
 2412              	.LASF1:
 2413 039a 756E7369 		.ascii	"unsigned char\000"
 2413      676E6564 
 2413      20636861 
 2413      7200
 2414              	.LASF84:
 2415 03a8 5F6E6577 		.ascii	"_new\000"
 2415      00
 2416              	.LASF116:
 2417 03ad 5F685F65 		.ascii	"_h_errno\000"
 2417      72726E6F 
 2417      00
 2418              	.LASF6:
 2419 03b6 73686F72 		.ascii	"short int\000"
 2419      7420696E 
 2419      7400
 2420              	.LASF37:
 2421 03c0 5F5F746D 		.ascii	"__tm_yday\000"
 2421      5F796461 
ARM GAS  C:\Users\embedded\AppData\Local\Temp\ccYKeSIE.s 			page 49


 2421      7900
 2422              	.LASF47:
 2423 03ca 5F5F7362 		.ascii	"__sbuf\000"
 2423      756600
 2424              	.LASF81:
 2425 03d1 5F667265 		.ascii	"_freelist\000"
 2425      656C6973 
 2425      7400
 2426              	.LASF90:
 2427 03db 5F5F4649 		.ascii	"__FILE\000"
 2427      4C4500
 2428              	.LASF21:
 2429 03e2 5F6D6273 		.ascii	"_mbstate_t\000"
 2429      74617465 
 2429      5F7400
 2430              	.LASF50:
 2431 03ed 5F5F7346 		.ascii	"__sFILE\000"
 2431      494C4500 
 2432              	.LASF65:
 2433 03f5 5F6D6273 		.ascii	"_mbstate\000"
 2433      74617465 
 2433      00
 2434              	.LASF103:
 2435 03fe 5F72616E 		.ascii	"_rand_next\000"
 2435      645F6E65 
 2435      787400
 2436              	.LASF131:
 2437 0409 68756D69 		.ascii	"humidityValue\000"
 2437      64697479 
 2437      56616C75 
 2437      6500
 2438              	.LASF93:
 2439 0417 5F696F62 		.ascii	"_iobs\000"
 2439      7300
 2440              	.LASF72:
 2441 041d 5F696E63 		.ascii	"_inc\000"
 2441      00
 2442              	.LASF45:
 2443 0422 5F696E64 		.ascii	"_ind\000"
 2443      00
 2444              	.LASF75:
 2445 0427 5F6C6F63 		.ascii	"_locale\000"
 2445      616C6500 
 2446              	.LASF77:
 2447 042f 5F5F636C 		.ascii	"__cleanup\000"
 2447      65616E75 
 2447      7000
 2448              	.LASF74:
 2449 0439 5F756E73 		.ascii	"_unspecified_locale_info\000"
 2449      70656369 
 2449      66696564 
 2449      5F6C6F63 
 2449      616C655F 
 2450              	.LASF9:
 2451 0452 54525545 		.ascii	"TRUE\000"
 2451      00
 2452              	.LASF67:
ARM GAS  C:\Users\embedded\AppData\Local\Temp\ccYKeSIE.s 			page 50


 2453 0457 5F726565 		.ascii	"_reent\000"
 2453      6E7400
 2454              	.LASF130:
 2455 045e 68756D69 		.ascii	"humidityInChar\000"
 2455      64697479 
 2455      496E4368 
 2455      617200
 2456              	.LASF95:
 2457 046d 5F736565 		.ascii	"_seed\000"
 2457      6400
 2458              	.LASF19:
 2459 0473 5F5F636F 		.ascii	"__count\000"
 2459      756E7400 
 2460              	.LASF120:
 2461 047b 5F5F6C6F 		.ascii	"__lock\000"
 2461      636B00
 2462              	.LASF20:
 2463 0482 5F5F7661 		.ascii	"__value\000"
 2463      6C756500 
 2464              	.LASF57:
 2465 048a 5F736565 		.ascii	"_seek\000"
 2465      6B00
 2466              	.LASF122:
 2467 0490 5F696D70 		.ascii	"_impure_ptr\000"
 2467      7572655F 
 2467      70747200 
 2468              	.LASF15:
 2469 049c 5F66706F 		.ascii	"_fpos_t\000"
 2469      735F7400 
 2470              	.LASF68:
 2471 04a4 5F657272 		.ascii	"_errno\000"
 2471      6E6F00
 2472              	.LASF89:
 2473 04ab 63686172 		.ascii	"char\000"
 2473      00
 2474              	.LASF31:
 2475 04b0 5F5F746D 		.ascii	"__tm_min\000"
 2475      5F6D696E 
 2475      00
 2476              	.LASF96:
 2477 04b9 5F6D756C 		.ascii	"_mult\000"
 2477      7400
 2478              	.LASF24:
 2479 04bf 5F6E6578 		.ascii	"_next\000"
 2479      7400
 2480              	.LASF99:
 2481 04c5 5F737472 		.ascii	"_strtok_last\000"
 2481      746F6B5F 
 2481      6C617374 
 2481      00
 2482              	.LASF42:
 2483 04d2 5F666E74 		.ascii	"_fntypes\000"
 2483      79706573 
 2483      00
 2484              	.LASF25:
 2485 04db 5F6D6178 		.ascii	"_maxwds\000"
 2485      77647300 
ARM GAS  C:\Users\embedded\AppData\Local\Temp\ccYKeSIE.s 			page 51


 2486              	.LASF97:
 2487 04e3 5F616464 		.ascii	"_add\000"
 2487      00
 2488              	.LASF23:
 2489 04e8 5F5F554C 		.ascii	"__ULong\000"
 2489      6F6E6700 
 2490              	.LASF110:
 2491 04f0 5F676574 		.ascii	"_getdate_err\000"
 2491      64617465 
 2491      5F657272 
 2491      00
 2492              	.LASF123:
 2493 04fd 5F676C6F 		.ascii	"_global_impure_ptr\000"
 2493      62616C5F 
 2493      696D7075 
 2493      72655F70 
 2493      747200
 2494              	.LASF98:
 2495 0510 5F756E75 		.ascii	"_unused_rand\000"
 2495      7365645F 
 2495      72616E64 
 2495      00
 2496              	.LASF27:
 2497 051d 5F776473 		.ascii	"_wds\000"
 2497      00
 2498              	.LASF36:
 2499 0522 5F5F746D 		.ascii	"__tm_wday\000"
 2499      5F776461 
 2499      7900
 2500              	.LASF91:
 2501 052c 5F676C75 		.ascii	"_glue\000"
 2501      6500
 2502              	.LASF125:
 2503 0532 6C6D3735 		.ascii	"lm75Address\000"
 2503      41646472 
 2503      65737300 
 2504              	.LASF118:
 2505 053e 5F6E6D61 		.ascii	"_nmalloc\000"
 2505      6C6C6F63 
 2505      00
 2506              	.LASF108:
 2507 0547 5F6C3634 		.ascii	"_l64a_buf\000"
 2507      615F6275 
 2507      6600
 2508              	.LASF86:
 2509 0551 5F736967 		.ascii	"_sig_func\000"
 2509      5F66756E 
 2509      6300
 2510              	.LASF60:
 2511 055b 5F6E6275 		.ascii	"_nbuf\000"
 2511      6600
 2512              	.LASF119:
 2513 0561 5F756E75 		.ascii	"_unused\000"
 2513      73656400 
 2514              	.LASF38:
 2515 0569 5F5F746D 		.ascii	"__tm_isdst\000"
 2515      5F697364 
ARM GAS  C:\Users\embedded\AppData\Local\Temp\ccYKeSIE.s 			page 52


 2515      737400
 2516              	.LASF101:
 2517 0574 5F6C6F63 		.ascii	"_localtime_buf\000"
 2517      616C7469 
 2517      6D655F62 
 2517      756600
 2518              	.LASF58:
 2519 0583 5F636C6F 		.ascii	"_close\000"
 2519      736500
 2520              	.LASF104:
 2521 058a 5F723438 		.ascii	"_r48\000"
 2521      00
 2522              	.LASF106:
 2523 058f 5F6D6274 		.ascii	"_mbtowc_state\000"
 2523      6F77635F 
 2523      73746174 
 2523      6500
 2524              	.LASF80:
 2525 059d 5F703573 		.ascii	"_p5s\000"
 2525      00
 2526              	.LASF135:
 2527 05a2 6D61696E 		.ascii	"main\000"
 2527      00
 2528              	.LASF33:
 2529 05a7 5F5F746D 		.ascii	"__tm_mday\000"
 2529      5F6D6461 
 2529      7900
 2530              		.ident	"GCC: (GNU Tools for Arm Embedded Processors 7-2018-q2-update) 7.3.1 20180622 (release) [AR
ARM GAS  C:\Users\embedded\AppData\Local\Temp\ccYKeSIE.s 			page 53


DEFINED SYMBOLS
                            *ABS*:00000000 main.c
C:\Users\embedded\AppData\Local\Temp\ccYKeSIE.s:16     .rodata:00000000 $d
C:\Users\embedded\AppData\Local\Temp\ccYKeSIE.s:45     .text:00000000 main
C:\Users\embedded\AppData\Local\Temp\ccYKeSIE.s:53     .text:00000000 $t
C:\Users\embedded\AppData\Local\Temp\ccYKeSIE.s:333    .text:000001ec $d

UNDEFINED SYMBOLS
i2cInit
pca9532Init
printf_init
lcdInit
lcdColor
lcdClrscr
memset
lcdGotoxy
lcdPuts
measureTemperature
calculateTemperatureValue
measureHumidity
calculateHumidity
sprintf
sdelay
