ARM GAS  C:\Users\embedded\AppData\Local\Temp\ccWE0Kve.s 			page 1


   1              		.cpu arm7tdmi
   2              		.eabi_attribute 20, 1
   3              		.eabi_attribute 21, 1
   4              		.eabi_attribute 23, 3
   5              		.eabi_attribute 24, 1
   6              		.eabi_attribute 25, 1
   7              		.eabi_attribute 26, 1
   8              		.eabi_attribute 30, 6
   9              		.eabi_attribute 34, 0
  10              		.eabi_attribute 18, 4
  11              		.file	"main.c"
  12              		.text
  13              	.Ltext0:
  14              		.cfi_sections	.debug_frame
  15              		.section	.rodata
  16              		.align	2
  17              	.LC0:
  18 0000 53746163 		.ascii	"Stacja pogody\000"
  18      6A612070 
  18      6F676F64 
  18      7900
  19 000e 0000     		.align	2
  20              	.LC2:
  21 0010 506F6D69 		.ascii	"Pomiar\000"
  21      617200
  22 0017 00       		.align	2
  23              	.LC4:
  24 0018 74656D70 		.ascii	"temperatury: \000"
  24      65726174 
  24      7572793A 
  24      2000
  25 0026 0000     		.align	2
  26              	.LC6:
  27 0028 77696C67 		.ascii	"wilgotnosci: \000"
  27      6F746E6F 
  27      7363693A 
  27      2000
  28 0036 0000     		.align	2
  29              	.LC8:
  30 0038 256400   		.ascii	"%d\000"
  31 003b 00       		.align	2
  32              	.LC10:
  33 003c 6A61736E 		.ascii	"jasnosci: \000"
  33      6F736369 
  33      3A2000
  34 0047 00       		.align	2
  35              	.LC12:
  36 0048 6369736E 		.ascii	"cisnienia: \000"
  36      69656E69 
  36      613A2000 
  37              		.align	2
  38              	.LC14:
  39 0054 416B7475 		.ascii	"Aktualny\000"
  39      616C6E79 
  39      00
  40 005d 000000   		.align	2
  41              	.LC16:
ARM GAS  C:\Users\embedded\AppData\Local\Temp\ccWE0Kve.s 			page 2


  42 0060 637A6173 		.ascii	"czas: \000"
  42      3A2000
  43              		.text
  44              		.align	1
  45              		.global	main
  46              		.syntax unified
  47              		.code	16
  48              		.thumb_func
  49              		.fpu softvfp
  50              		.type	main, %function
  51              	main:
  52              	.LFB3:
  53              		.file 1 "main.c"
   1:main.c        **** #include "general.h"
   2:main.c        **** #include <lpc2xxx.h>
   3:main.c        **** #include <printf_P.h>
   4:main.c        **** #include <printf_init.h>
   5:main.c        **** #include <consol.h>
   6:main.c        **** #include <config.h>
   7:main.c        **** #include "irq/irq_handler.h"
   8:main.c        **** #include "timer.h"
   9:main.c        **** #include "VIC.h"
  10:main.c        **** #include "i2c.h"
  11:main.c        **** 
  12:main.c        **** // Include'y do urządzeń peryferyjnych
  13:main.c        **** 
  14:main.c        **** #include "lm75.h"
  15:main.c        **** #include "htu21df.h"
  16:main.c        **** #include "bmp180.h"
  17:main.c        **** #include "tsl2561.h"
  18:main.c        **** 
  19:main.c        **** // End
  20:main.c        **** 
  21:main.c        **** #include "lcd.h"
  22:main.c        **** #include "pca9532.h"
  23:main.c        **** #include "additional.h"
  24:main.c        **** 
  25:main.c        **** #include "Common_Def.h"
  26:main.c        **** #include <stdio.h>
  27:main.c        **** 
  28:main.c        **** /************************************************************************
  29:main.c        ****  * @Description: uruchomienie obsługi przerwań
  30:main.c        ****  * @Parameter:
  31:main.c        ****  *    [in] period    : okres generatora przerwań
  32:main.c        ****  *    [in] duty_cycle: wypełnienie w %
  33:main.c        ****  * @Returns: Nic
  34:main.c        ****  * @Side effects:
  35:main.c        ****  *    przeprogramowany timer #1
  36:main.c        ****  *************************************************************************/
  37:main.c        **** /*
  38:main.c        **** static void init_irq (tU32 period, tU8 duty_cycle)
  39:main.c        **** {
  40:main.c        **** 	//Zainicjuj VIC dla przerwań od Timera #1
  41:main.c        **** 	VICIntSelect &= ~TIMER_1_IRQ;           //Przerwanie od Timera #1 przypisane do IRQ (nie do FIQ)
  42:main.c        **** 	VICVectAddr5  = (tU32)IRQ_Test;         //adres procedury przerwania
  43:main.c        **** 	VICVectCntl5  = VIC_ENABLE_SLOT | TIMER_1_IRQ_NO;
  44:main.c        **** 	VICIntEnable  = TIMER_1_IRQ;            // Przypisanie i odblokowanie slotu w VIC od Timera #1
ARM GAS  C:\Users\embedded\AppData\Local\Temp\ccWE0Kve.s 			page 3


  45:main.c        **** 
  46:main.c        **** 	T1TCR = TIMER_RESET;                    //Zatrzymaj i zresetuj
  47:main.c        **** 	T1PR  = 0;                              //Preskaler nieużywany
  48:main.c        **** 	T1MR0 = ((tU64)period)*((tU64)PERIPHERAL_CLOCK)/1000;
  49:main.c        **** 	T1MR1 = (tU64)T1MR0 * duty_cycle / 100; //Wypełnienie
  50:main.c        **** 	T1IR  = TIMER_ALL_INT;                  //Resetowanie flag przerwań
  51:main.c        **** 	T1MCR = MR0_I | MR1_I | MR0_R;          //Generuj okresowe przerwania dla MR0 i dodatkowo dla MR1
  52:main.c        **** 	T1TCR = TIMER_RUN;                      //Uruchom timer
  53:main.c        **** }
  54:main.c        **** */
  55:main.c        **** 
  56:main.c        **** int main(void)
  57:main.c        **** {
  54              		.loc 1 57 0
  55              		.cfi_startproc
  56              		@ Function supports interworking.
  57              		@ args = 0, pretend = 0, frame = 40
  58              		@ frame_needed = 1, uses_anonymous_args = 0
  59 0000 B0B5     		push	{r4, r5, r7, lr}
  60              	.LCFI0:
  61              		.cfi_def_cfa_offset 16
  62              		.cfi_offset 4, -16
  63              		.cfi_offset 5, -12
  64              		.cfi_offset 7, -8
  65              		.cfi_offset 14, -4
  66 0002 8AB0     		sub	sp, sp, #40
  67              	.LCFI1:
  68              		.cfi_def_cfa_offset 56
  69 0004 00AF     		add	r7, sp, #0
  70              	.LCFI2:
  71              		.cfi_def_cfa_register 7
  58:main.c        **** 	tU8 pca9532Present = FALSE;
  72              		.loc 1 58 0
  73 0006 2725     		movs	r5, #39
  74 0008 7B19     		adds	r3, r7, r5
  75 000a 0022     		movs	r2, #0
  76 000c 1A70     		strb	r2, [r3]
  59:main.c        **** 	// check if connection with PCA9532
  60:main.c        **** 	i2cInit();
  77              		.loc 1 60 0
  78 000e FFF7FEFF 		bl	i2cInit
  61:main.c        **** 	pca9532Present = pca9532Init();
  79              		.loc 1 61 0
  80 0012 7C19     		adds	r4, r7, r5
  81 0014 FFF7FEFF 		bl	pca9532Init
  82 0018 0300     		movs	r3, r0
  83 001a 2370     		strb	r3, [r4]
  62:main.c        **** 	printf_init();
  84              		.loc 1 62 0
  85 001c FFF7FEFF 		bl	printf_init
  63:main.c        **** 	if (TRUE == pca9532Present)
  86              		.loc 1 63 0
  87 0020 7B19     		adds	r3, r7, r5
  88 0022 1B78     		ldrb	r3, [r3]
  89 0024 012B     		cmp	r3, #1
  90 0026 00D0     		beq	.LCB32
  91 0028 1AE1     		b	.L2	@long jump
ARM GAS  C:\Users\embedded\AppData\Local\Temp\ccWE0Kve.s 			page 4


  92              	.LCB32:
  93              	.LBB2:
  64:main.c        **** 	{
  65:main.c        **** 
  66:main.c        **** 		lcdInit();
  94              		.loc 1 66 0
  95 002a FFF7FEFF 		bl	lcdInit
  67:main.c        **** 		lcdColor(0xff, 0x00);
  96              		.loc 1 67 0
  97 002e 0021     		movs	r1, #0
  98 0030 FF20     		movs	r0, #255
  99 0032 FFF7FEFF 		bl	lcdColor
  68:main.c        **** 		lcdClrscr();
 100              		.loc 1 68 0
 101 0036 FFF7FEFF 		bl	lcdClrscr
  69:main.c        **** 
  70:main.c        **** 		/*
  71:main.c        **** 			Inicjalizacja I2C
  72:main.c        **** 		*/
  73:main.c        **** 
  74:main.c        **** 		/*
  75:main.c        **** 			Main loop containg enitre program logic. With every iteration, joystick position is checked
  76:main.c        **** 			and based on that, appropriate measurement value.
  77:main.c        **** 		*/
  78:main.c        **** 		
  79:main.c        **** 		// Address of the LM75 thermometer, when not soldered. 
  80:main.c        **** 		// tU8 lm75Address = 0x9F;
  81:main.c        **** 		// Address of the LM75 thermometer, when soldered.
  82:main.c        **** 		tU8 lm75Address = (0x48 << 1) | 1;
 102              		.loc 1 82 0
 103 003a 2623     		movs	r3, #38
 104 003c FB18     		adds	r3, r7, r3
 105 003e 9122     		movs	r2, #145
 106 0040 1A70     		strb	r2, [r3]
  83:main.c        **** 		tU8 htu21dfaddress = 0x40;
 107              		.loc 1 83 0
 108 0042 2523     		movs	r3, #37
 109 0044 FB18     		adds	r3, r7, r3
 110 0046 4022     		movs	r2, #64
 111 0048 1A70     		strb	r2, [r3]
  84:main.c        **** 		tU8 readTemperature[2] = {};
 112              		.loc 1 84 0
 113 004a 1423     		movs	r3, #20
 114 004c FB18     		adds	r3, r7, r3
 115 004e 0022     		movs	r2, #0
 116 0050 1A80     		strh	r2, [r3]
  85:main.c        **** 		tU8 readHumidity[2] = {};
 117              		.loc 1 85 0
 118 0052 1023     		movs	r3, #16
 119 0054 FB18     		adds	r3, r7, r3
 120 0056 0022     		movs	r2, #0
 121 0058 1A80     		strh	r2, [r3]
  86:main.c        **** 		tU8 charArray[10] = {};
 122              		.loc 1 86 0
 123 005a 3B1D     		adds	r3, r7, #4
 124 005c 1800     		movs	r0, r3
 125 005e 0A23     		movs	r3, #10
ARM GAS  C:\Users\embedded\AppData\Local\Temp\ccWE0Kve.s 			page 5


 126 0060 1A00     		movs	r2, r3
 127 0062 0021     		movs	r1, #0
 128 0064 FFF7FEFF 		bl	memset
 129              	.L9:
  87:main.c        **** 		tU16 humidityValue;
  88:main.c        **** 		tU16 brightnessValue;
  89:main.c        **** 		tS64 pressureValue;
  90:main.c        **** 
  91:main.c        **** 		while (TRUE)
  92:main.c        **** 		{
  93:main.c        **** 
  94:main.c        **** 			// Trzeba będzie napisać jak ustawiony ma być PINSEL.
  95:main.c        **** 
  96:main.c        **** 			// Check if P0.8 center-key is pressed
  97:main.c        **** 			if ((IOPIN & 0x00000100) == 0)
 130              		.loc 1 97 0
 131 0068 814B     		ldr	r3, .L11
 132 006a 1A68     		ldr	r2, [r3]
 133 006c 8023     		movs	r3, #128
 134 006e 5B00     		lsls	r3, r3, #1
 135 0070 1340     		ands	r3, r2
 136 0072 0AD1     		bne	.L3
  98:main.c        **** 			{
  99:main.c        **** 				// Key P0.8 center-key is pressed
 100:main.c        **** 				lcdClrscr();
 137              		.loc 1 100 0
 138 0074 FFF7FEFF 		bl	lcdClrscr
 101:main.c        **** 				lcdGotoxy(0, 0);
 139              		.loc 1 101 0
 140 0078 0021     		movs	r1, #0
 141 007a 0020     		movs	r0, #0
 142 007c FFF7FEFF 		bl	lcdGotoxy
 102:main.c        **** 				lcdPuts("Stacja pogody");
 143              		.loc 1 102 0
 144 0080 7C4B     		ldr	r3, .L11+4
 145 0082 1800     		movs	r0, r3
 146 0084 FFF7FEFF 		bl	lcdPuts
 147 0088 E6E0     		b	.L4
 148              	.L3:
 103:main.c        **** 			}
 104:main.c        **** 			else if ((IOPIN & 0x00000200) == 0 && measureTemperature(lm75Address, readTemperature, 2) != I2C
 149              		.loc 1 104 0
 150 008a 794B     		ldr	r3, .L11
 151 008c 1A68     		ldr	r2, [r3]
 152 008e 8023     		movs	r3, #128
 153 0090 9B00     		lsls	r3, r3, #2
 154 0092 1340     		ands	r3, r2
 155 0094 27D1     		bne	.L5
 156              		.loc 1 104 0 is_stmt 0 discriminator 1
 157 0096 1423     		movs	r3, #20
 158 0098 F918     		adds	r1, r7, r3
 159 009a 2623     		movs	r3, #38
 160 009c FB18     		adds	r3, r7, r3
 161 009e 1B78     		ldrb	r3, [r3]
 162 00a0 0222     		movs	r2, #2
 163 00a2 1800     		movs	r0, r3
 164 00a4 FFF7FEFF 		bl	measureTemperature
ARM GAS  C:\Users\embedded\AppData\Local\Temp\ccWE0Kve.s 			page 6


 165 00a8 0300     		movs	r3, r0
 166 00aa 0133     		adds	r3, r3, #1
 167 00ac 1BD0     		beq	.L5
 105:main.c        **** 			{
 106:main.c        **** 				// Key P0.9 left-key is pressed
 107:main.c        **** 				lcdClrscr();
 168              		.loc 1 107 0 is_stmt 1
 169 00ae FFF7FEFF 		bl	lcdClrscr
 108:main.c        **** 				lcdGotoxy(0, 0);
 170              		.loc 1 108 0
 171 00b2 0021     		movs	r1, #0
 172 00b4 0020     		movs	r0, #0
 173 00b6 FFF7FEFF 		bl	lcdGotoxy
 109:main.c        **** 				lcdPuts("Pomiar");
 174              		.loc 1 109 0
 175 00ba 6F4B     		ldr	r3, .L11+8
 176 00bc 1800     		movs	r0, r3
 177 00be FFF7FEFF 		bl	lcdPuts
 110:main.c        **** 				lcdGotoxy(0, 15);
 178              		.loc 1 110 0
 179 00c2 0F21     		movs	r1, #15
 180 00c4 0020     		movs	r0, #0
 181 00c6 FFF7FEFF 		bl	lcdGotoxy
 111:main.c        **** 				lcdPuts("temperatury: ");
 182              		.loc 1 111 0
 183 00ca 6C4B     		ldr	r3, .L11+12
 184 00cc 1800     		movs	r0, r3
 185 00ce FFF7FEFF 		bl	lcdPuts
 112:main.c        **** 				lcdGotoxy(0, 30);
 186              		.loc 1 112 0
 187 00d2 1E21     		movs	r1, #30
 188 00d4 0020     		movs	r0, #0
 189 00d6 FFF7FEFF 		bl	lcdGotoxy
 113:main.c        **** 				calculateTemperatureValue(readTemperature);
 190              		.loc 1 113 0
 191 00da 1423     		movs	r3, #20
 192 00dc FB18     		adds	r3, r7, r3
 193 00de 1800     		movs	r0, r3
 194 00e0 FFF7FEFF 		bl	calculateTemperatureValue
 195 00e4 B8E0     		b	.L4
 196              	.L5:
 197              	.LBB3:
 114:main.c        **** 			}
 115:main.c        **** 			else if ((IOPIN & 0x00000400) == 0 && measureHumidity(htu21dfaddress, readHumidity, 2) != I2C_CO
 198              		.loc 1 115 0
 199 00e6 624B     		ldr	r3, .L11
 200 00e8 1A68     		ldr	r2, [r3]
 201 00ea 8023     		movs	r3, #128
 202 00ec DB00     		lsls	r3, r3, #3
 203 00ee 1340     		ands	r3, r2
 204 00f0 37D1     		bne	.L6
 205              		.loc 1 115 0 is_stmt 0 discriminator 1
 206 00f2 2523     		movs	r3, #37
 207 00f4 FB18     		adds	r3, r7, r3
 208 00f6 1B78     		ldrb	r3, [r3]
 209 00f8 1022     		movs	r2, #16
 210 00fa B918     		adds	r1, r7, r2
ARM GAS  C:\Users\embedded\AppData\Local\Temp\ccWE0Kve.s 			page 7


 211 00fc 0222     		movs	r2, #2
 212 00fe 1800     		movs	r0, r3
 213 0100 FFF7FEFF 		bl	measureHumidity
 214 0104 0300     		movs	r3, r0
 215 0106 0133     		adds	r3, r3, #1
 216 0108 2BD0     		beq	.L6
 116:main.c        **** 			{
 117:main.c        **** 				// Key P0.10 up-key is pressed
 118:main.c        **** 				lcdClrscr();
 217              		.loc 1 118 0 is_stmt 1
 218 010a FFF7FEFF 		bl	lcdClrscr
 119:main.c        **** 				lcdGotoxy(0, 0);
 219              		.loc 1 119 0
 220 010e 0021     		movs	r1, #0
 221 0110 0020     		movs	r0, #0
 222 0112 FFF7FEFF 		bl	lcdGotoxy
 120:main.c        **** 				lcdPuts("Pomiar");
 223              		.loc 1 120 0
 224 0116 584B     		ldr	r3, .L11+8
 225 0118 1800     		movs	r0, r3
 226 011a FFF7FEFF 		bl	lcdPuts
 121:main.c        **** 				lcdGotoxy(0, 15);
 227              		.loc 1 121 0
 228 011e 0F21     		movs	r1, #15
 229 0120 0020     		movs	r0, #0
 230 0122 FFF7FEFF 		bl	lcdGotoxy
 122:main.c        **** 				lcdPuts("wilgotnosci: ");
 231              		.loc 1 122 0
 232 0126 564B     		ldr	r3, .L11+16
 233 0128 1800     		movs	r0, r3
 234 012a FFF7FEFF 		bl	lcdPuts
 123:main.c        **** 				humidityValue = calculateHumidity(readHumidity);
 235              		.loc 1 123 0
 236 012e 1023     		movs	r3, #16
 237 0130 FB18     		adds	r3, r7, r3
 238 0132 1800     		movs	r0, r3
 239 0134 FFF7FEFF 		bl	calculateHumidity
 240 0138 0300     		movs	r3, r0
 241 013a 1A00     		movs	r2, r3
 242 013c 2221     		movs	r1, #34
 243 013e 7B18     		adds	r3, r7, r1
 244 0140 1A80     		strh	r2, [r3]
 124:main.c        **** 				sprintf(charArray, "%d", humidityValue);
 245              		.loc 1 124 0
 246 0142 7B18     		adds	r3, r7, r1
 247 0144 1A88     		ldrh	r2, [r3]
 248 0146 4F49     		ldr	r1, .L11+20
 249 0148 3B1D     		adds	r3, r7, #4
 250 014a 1800     		movs	r0, r3
 251 014c FFF7FEFF 		bl	sprintf
 125:main.c        **** 				lcdGotoxy(0, 30);
 252              		.loc 1 125 0
 253 0150 1E21     		movs	r1, #30
 254 0152 0020     		movs	r0, #0
 255 0154 FFF7FEFF 		bl	lcdGotoxy
 126:main.c        **** 				lcdPuts(charArray);
 256              		.loc 1 126 0
ARM GAS  C:\Users\embedded\AppData\Local\Temp\ccWE0Kve.s 			page 8


 257 0158 3B1D     		adds	r3, r7, #4
 258 015a 1800     		movs	r0, r3
 259 015c FFF7FEFF 		bl	lcdPuts
 260 0160 7AE0     		b	.L4
 261              	.L6:
 127:main.c        **** 			}
 128:main.c        **** 			else if ((IOPIN & 0x00000800) == 0)
 262              		.loc 1 128 0
 263 0162 434B     		ldr	r3, .L11
 264 0164 1A68     		ldr	r2, [r3]
 265 0166 8023     		movs	r3, #128
 266 0168 1B01     		lsls	r3, r3, #4
 267 016a 1340     		ands	r3, r2
 268 016c 2BD1     		bne	.L7
 129:main.c        **** 			{
 130:main.c        **** 				// Key P0.11 right-key is pressed
 131:main.c        **** 				lcdClrscr();
 269              		.loc 1 131 0
 270 016e FFF7FEFF 		bl	lcdClrscr
 132:main.c        **** 				lcdGotoxy(0, 0);
 271              		.loc 1 132 0
 272 0172 0021     		movs	r1, #0
 273 0174 0020     		movs	r0, #0
 274 0176 FFF7FEFF 		bl	lcdGotoxy
 133:main.c        **** 				lcdGotoxy(0, 0);
 275              		.loc 1 133 0
 276 017a 0021     		movs	r1, #0
 277 017c 0020     		movs	r0, #0
 278 017e FFF7FEFF 		bl	lcdGotoxy
 134:main.c        **** 				lcdPuts("Pomiar");
 279              		.loc 1 134 0
 280 0182 3D4B     		ldr	r3, .L11+8
 281 0184 1800     		movs	r0, r3
 282 0186 FFF7FEFF 		bl	lcdPuts
 135:main.c        **** 				lcdGotoxy(0, 15);
 283              		.loc 1 135 0
 284 018a 0F21     		movs	r1, #15
 285 018c 0020     		movs	r0, #0
 286 018e FFF7FEFF 		bl	lcdGotoxy
 136:main.c        **** 				lcdPuts("jasnosci: ");
 287              		.loc 1 136 0
 288 0192 3D4B     		ldr	r3, .L11+24
 289 0194 1800     		movs	r0, r3
 290 0196 FFF7FEFF 		bl	lcdPuts
 137:main.c        **** 				brightnessValue = measureBrightness();
 291              		.loc 1 137 0
 292 019a 1625     		movs	r5, #22
 293 019c 7C19     		adds	r4, r7, r5
 294 019e FFF7FEFF 		bl	measureBrightness
 295 01a2 0300     		movs	r3, r0
 296 01a4 2380     		strh	r3, [r4]
 138:main.c        **** 				sprintf(charArray, "%d", brightnessValue);
 297              		.loc 1 138 0
 298 01a6 7B19     		adds	r3, r7, r5
 299 01a8 1A88     		ldrh	r2, [r3]
 300 01aa 3649     		ldr	r1, .L11+20
 301 01ac 3B1D     		adds	r3, r7, #4
ARM GAS  C:\Users\embedded\AppData\Local\Temp\ccWE0Kve.s 			page 9


 302 01ae 1800     		movs	r0, r3
 303 01b0 FFF7FEFF 		bl	sprintf
 139:main.c        **** 				lcdGotoxy(0, 30);
 304              		.loc 1 139 0
 305 01b4 1E21     		movs	r1, #30
 306 01b6 0020     		movs	r0, #0
 307 01b8 FFF7FEFF 		bl	lcdGotoxy
 140:main.c        **** 				lcdPuts(charArray);
 308              		.loc 1 140 0
 309 01bc 3B1D     		adds	r3, r7, #4
 310 01be 1800     		movs	r0, r3
 311 01c0 FFF7FEFF 		bl	lcdPuts
 312 01c4 48E0     		b	.L4
 313              	.L7:
 141:main.c        **** 			}
 142:main.c        **** 			else if ((IOPIN & 0x00001000) == 0)
 314              		.loc 1 142 0
 315 01c6 2A4B     		ldr	r3, .L11
 316 01c8 1A68     		ldr	r2, [r3]
 317 01ca 8023     		movs	r3, #128
 318 01cc 5B01     		lsls	r3, r3, #5
 319 01ce 1340     		ands	r3, r2
 320 01d0 2CD1     		bne	.L8
 143:main.c        **** 			{
 144:main.c        **** 				// Key P0.12 down-key is pressed
 145:main.c        **** 				lcdClrscr();
 321              		.loc 1 145 0
 322 01d2 FFF7FEFF 		bl	lcdClrscr
 146:main.c        **** 				lcdGotoxy(0, 0);
 323              		.loc 1 146 0
 324 01d6 0021     		movs	r1, #0
 325 01d8 0020     		movs	r0, #0
 326 01da FFF7FEFF 		bl	lcdGotoxy
 147:main.c        **** 				lcdGotoxy(0, 0);
 327              		.loc 1 147 0
 328 01de 0021     		movs	r1, #0
 329 01e0 0020     		movs	r0, #0
 330 01e2 FFF7FEFF 		bl	lcdGotoxy
 148:main.c        **** 				lcdPuts("Pomiar");
 331              		.loc 1 148 0
 332 01e6 244B     		ldr	r3, .L11+8
 333 01e8 1800     		movs	r0, r3
 334 01ea FFF7FEFF 		bl	lcdPuts
 149:main.c        **** 				lcdGotoxy(0, 15);
 335              		.loc 1 149 0
 336 01ee 0F21     		movs	r1, #15
 337 01f0 0020     		movs	r0, #0
 338 01f2 FFF7FEFF 		bl	lcdGotoxy
 150:main.c        **** 				lcdPuts("cisnienia: ");
 339              		.loc 1 150 0
 340 01f6 254B     		ldr	r3, .L11+28
 341 01f8 1800     		movs	r0, r3
 342 01fa FFF7FEFF 		bl	lcdPuts
 151:main.c        **** 				pressureValue = measurePressure();
 343              		.loc 1 151 0
 344 01fe FFF7FEFF 		bl	measurePressure
 345 0202 0300     		movs	r3, r0
ARM GAS  C:\Users\embedded\AppData\Local\Temp\ccWE0Kve.s 			page 10


 346 0204 0C00     		movs	r4, r1
 347 0206 BB61     		str	r3, [r7, #24]
 348 0208 FC61     		str	r4, [r7, #28]
 152:main.c        **** 				sprintf(charArray, "%d", pressureValue);
 349              		.loc 1 152 0
 350 020a BB69     		ldr	r3, [r7, #24]
 351 020c FC69     		ldr	r4, [r7, #28]
 352 020e 1D49     		ldr	r1, .L11+20
 353 0210 381D     		adds	r0, r7, #4
 354 0212 1A00     		movs	r2, r3
 355 0214 2300     		movs	r3, r4
 356 0216 FFF7FEFF 		bl	sprintf
 153:main.c        **** 				lcdGotoxy(0, 30);
 357              		.loc 1 153 0
 358 021a 1E21     		movs	r1, #30
 359 021c 0020     		movs	r0, #0
 360 021e FFF7FEFF 		bl	lcdGotoxy
 154:main.c        **** 				lcdPuts(charArray);
 361              		.loc 1 154 0
 362 0222 3B1D     		adds	r3, r7, #4
 363 0224 1800     		movs	r0, r3
 364 0226 FFF7FEFF 		bl	lcdPuts
 365 022a 15E0     		b	.L4
 366              	.L8:
 155:main.c        **** 			}
 156:main.c        **** 			else
 157:main.c        **** 			{
 158:main.c        **** 				// Joystick is not pressed at all.
 159:main.c        **** 				lcdClrscr();
 367              		.loc 1 159 0
 368 022c FFF7FEFF 		bl	lcdClrscr
 160:main.c        **** 				lcdGotoxy(0, 0);
 369              		.loc 1 160 0
 370 0230 0021     		movs	r1, #0
 371 0232 0020     		movs	r0, #0
 372 0234 FFF7FEFF 		bl	lcdGotoxy
 161:main.c        **** 				lcdGotoxy(0, 0);
 373              		.loc 1 161 0
 374 0238 0021     		movs	r1, #0
 375 023a 0020     		movs	r0, #0
 376 023c FFF7FEFF 		bl	lcdGotoxy
 162:main.c        **** 				lcdPuts("Aktualny");
 377              		.loc 1 162 0
 378 0240 134B     		ldr	r3, .L11+32
 379 0242 1800     		movs	r0, r3
 380 0244 FFF7FEFF 		bl	lcdPuts
 163:main.c        **** 				lcdGotoxy(0, 15);
 381              		.loc 1 163 0
 382 0248 0F21     		movs	r1, #15
 383 024a 0020     		movs	r0, #0
 384 024c FFF7FEFF 		bl	lcdGotoxy
 164:main.c        **** 				lcdPuts("czas: ");
 385              		.loc 1 164 0
 386 0250 104B     		ldr	r3, .L11+36
 387 0252 1800     		movs	r0, r3
 388 0254 FFF7FEFF 		bl	lcdPuts
 389              	.L4:
ARM GAS  C:\Users\embedded\AppData\Local\Temp\ccWE0Kve.s 			page 11


 390              	.LBE3:
 165:main.c        **** 			}
 166:main.c        **** 			sdelay(1);
 391              		.loc 1 166 0
 392 0258 0120     		movs	r0, #1
 393 025a FFF7FEFF 		bl	sdelay
  97:main.c        **** 			{
 394              		.loc 1 97 0
 395 025e 03E7     		b	.L9
 396              	.L2:
 397              	.LBE2:
 398 0260 0023     		movs	r3, #0
 167:main.c        **** 		}
 168:main.c        **** 	}
 169:main.c        **** }
 399              		.loc 1 169 0
 400 0262 1800     		movs	r0, r3
 401 0264 BD46     		mov	sp, r7
 402 0266 0AB0     		add	sp, sp, #40
 403              		@ sp needed
 404 0268 B0BC     		pop	{r4, r5, r7}
 405 026a 02BC     		pop	{r1}
 406 026c 0847     		bx	r1
 407              	.L12:
 408 026e C046     		.align	2
 409              	.L11:
 410 0270 008002E0 		.word	-536707072
 411 0274 00000000 		.word	.LC0
 412 0278 10000000 		.word	.LC2
 413 027c 18000000 		.word	.LC4
 414 0280 28000000 		.word	.LC6
 415 0284 38000000 		.word	.LC8
 416 0288 3C000000 		.word	.LC10
 417 028c 48000000 		.word	.LC12
 418 0290 54000000 		.word	.LC14
 419 0294 60000000 		.word	.LC16
 420              		.cfi_endproc
 421              	.LFE3:
 422              		.size	main, .-main
 423              	.Letext0:
 424              		.file 2 "general.h"
 425              		.file 3 "c:\\embedded\\tools\\arm-none-eabi\\include\\sys\\lock.h"
 426              		.file 4 "c:\\embedded\\tools\\arm-none-eabi\\include\\sys\\_types.h"
 427              		.file 5 "c:\\embedded\\tools\\lib\\gcc\\arm-none-eabi\\7.3.1\\include\\stddef.h"
 428              		.file 6 "c:\\embedded\\tools\\arm-none-eabi\\include\\sys\\reent.h"
 429              		.file 7 "c:\\embedded\\tools\\arm-none-eabi\\include\\math.h"
 430              		.section	.debug_info,"",%progbits
 431              	.Ldebug_info0:
 432 0000 CF0A0000 		.4byte	0xacf
 433 0004 0200     		.2byte	0x2
 434 0006 00000000 		.4byte	.Ldebug_abbrev0
 435 000a 04       		.byte	0x4
 436 000b 01       		.uleb128 0x1
 437 000c 3C030000 		.4byte	.LASF141
 438 0010 0C       		.byte	0xc
 439 0011 82020000 		.4byte	.LASF142
 440 0015 12030000 		.4byte	.LASF143
ARM GAS  C:\Users\embedded\AppData\Local\Temp\ccWE0Kve.s 			page 12


 441 0019 00000000 		.4byte	.Ltext0
 442 001d 98020000 		.4byte	.Letext0
 443 0021 00000000 		.4byte	.Ldebug_line0
 444 0025 02       		.uleb128 0x2
 445 0026 74553800 		.ascii	"tU8\000"
 446 002a 02       		.byte	0x2
 447 002b 17       		.byte	0x17
 448 002c 30000000 		.4byte	0x30
 449 0030 03       		.uleb128 0x3
 450 0031 01       		.byte	0x1
 451 0032 08       		.byte	0x8
 452 0033 E7030000 		.4byte	.LASF1
 453 0037 04       		.uleb128 0x4
 454 0038 18010000 		.4byte	.LASF0
 455 003c 02       		.byte	0x2
 456 003d 18       		.byte	0x18
 457 003e 42000000 		.4byte	0x42
 458 0042 03       		.uleb128 0x3
 459 0043 02       		.byte	0x2
 460 0044 07       		.byte	0x7
 461 0045 29020000 		.4byte	.LASF2
 462 0049 03       		.uleb128 0x3
 463 004a 04       		.byte	0x4
 464 004b 07       		.byte	0x7
 465 004c E6010000 		.4byte	.LASF3
 466 0050 03       		.uleb128 0x3
 467 0051 08       		.byte	0x8
 468 0052 07       		.byte	0x7
 469 0053 64000000 		.4byte	.LASF4
 470 0057 03       		.uleb128 0x3
 471 0058 01       		.byte	0x1
 472 0059 06       		.byte	0x6
 473 005a D3000000 		.4byte	.LASF5
 474 005e 03       		.uleb128 0x3
 475 005f 02       		.byte	0x2
 476 0060 05       		.byte	0x5
 477 0061 03040000 		.4byte	.LASF6
 478 0065 05       		.uleb128 0x5
 479 0066 04       		.byte	0x4
 480 0067 05       		.byte	0x5
 481 0068 696E7400 		.ascii	"int\000"
 482 006c 04       		.uleb128 0x4
 483 006d 26010000 		.4byte	.LASF7
 484 0071 02       		.byte	0x2
 485 0072 1E       		.byte	0x1e
 486 0073 77000000 		.4byte	0x77
 487 0077 03       		.uleb128 0x3
 488 0078 08       		.byte	0x8
 489 0079 05       		.byte	0x5
 490 007a C5000000 		.4byte	.LASF8
 491 007e 06       		.uleb128 0x6
 492 007f 07       		.byte	0x7
 493 0080 01       		.byte	0x1
 494 0081 30000000 		.4byte	0x30
 495 0085 02       		.byte	0x2
 496 0086 1F       		.byte	0x1f
 497 0087 98000000 		.4byte	0x98
ARM GAS  C:\Users\embedded\AppData\Local\Temp\ccWE0Kve.s 			page 13


 498 008b 07       		.uleb128 0x7
 499 008c 36030000 		.4byte	.LASF9
 500 0090 00       		.byte	0
 501 0091 07       		.uleb128 0x7
 502 0092 AF040000 		.4byte	.LASF10
 503 0096 01       		.byte	0x1
 504 0097 00       		.byte	0
 505 0098 03       		.uleb128 0x3
 506 0099 08       		.byte	0x8
 507 009a 04       		.byte	0x4
 508 009b CC020000 		.4byte	.LASF11
 509 009f 03       		.uleb128 0x3
 510 00a0 04       		.byte	0x4
 511 00a1 05       		.byte	0x5
 512 00a2 1D010000 		.4byte	.LASF12
 513 00a6 03       		.uleb128 0x3
 514 00a7 04       		.byte	0x4
 515 00a8 07       		.byte	0x7
 516 00a9 0A020000 		.4byte	.LASF13
 517 00ad 04       		.uleb128 0x4
 518 00ae 7A020000 		.4byte	.LASF14
 519 00b2 03       		.byte	0x3
 520 00b3 22       		.byte	0x22
 521 00b4 B8000000 		.4byte	0xb8
 522 00b8 08       		.uleb128 0x8
 523 00b9 04       		.byte	0x4
 524 00ba BE000000 		.4byte	0xbe
 525 00be 09       		.uleb128 0x9
 526 00bf C9040000 		.4byte	.LASF121
 527 00c3 01       		.byte	0x1
 528 00c4 04       		.uleb128 0x4
 529 00c5 0B030000 		.4byte	.LASF15
 530 00c9 04       		.byte	0x4
 531 00ca 2C       		.byte	0x2c
 532 00cb 9F000000 		.4byte	0x9f
 533 00cf 04       		.uleb128 0x4
 534 00d0 EA040000 		.4byte	.LASF16
 535 00d4 04       		.byte	0x4
 536 00d5 72       		.byte	0x72
 537 00d6 9F000000 		.4byte	0x9f
 538 00da 0A       		.uleb128 0xa
 539 00db 89020000 		.4byte	.LASF17
 540 00df 05       		.byte	0x5
 541 00e0 6501     		.2byte	0x165
 542 00e2 49000000 		.4byte	0x49
 543 00e6 0B       		.uleb128 0xb
 544 00e7 04       		.byte	0x4
 545 00e8 04       		.byte	0x4
 546 00e9 A6       		.byte	0xa6
 547 00ea 05010000 		.4byte	0x105
 548 00ee 0C       		.uleb128 0xc
 549 00ef 74020000 		.4byte	.LASF18
 550 00f3 04       		.byte	0x4
 551 00f4 A8       		.byte	0xa8
 552 00f5 DA000000 		.4byte	0xda
 553 00f9 0C       		.uleb128 0xc
 554 00fa F3010000 		.4byte	.LASF19
ARM GAS  C:\Users\embedded\AppData\Local\Temp\ccWE0Kve.s 			page 14


 555 00fe 04       		.byte	0x4
 556 00ff A9       		.byte	0xa9
 557 0100 05010000 		.4byte	0x105
 558 0104 00       		.byte	0
 559 0105 0D       		.uleb128 0xd
 560 0106 30000000 		.4byte	0x30
 561 010a 15010000 		.4byte	0x115
 562 010e 0E       		.uleb128 0xe
 563 010f 49000000 		.4byte	0x49
 564 0113 03       		.byte	0x3
 565 0114 00       		.byte	0
 566 0115 0F       		.uleb128 0xf
 567 0116 08       		.byte	0x8
 568 0117 04       		.byte	0x4
 569 0118 A3       		.byte	0xa3
 570 0119 3A010000 		.4byte	0x13a
 571 011d 10       		.uleb128 0x10
 572 011e C1040000 		.4byte	.LASF20
 573 0122 04       		.byte	0x4
 574 0123 A5       		.byte	0xa5
 575 0124 65000000 		.4byte	0x65
 576 0128 02       		.byte	0x2
 577 0129 23       		.byte	0x23
 578 012a 00       		.uleb128 0
 579 012b 10       		.uleb128 0x10
 580 012c D0040000 		.4byte	.LASF21
 581 0130 04       		.byte	0x4
 582 0131 AA       		.byte	0xaa
 583 0132 E6000000 		.4byte	0xe6
 584 0136 02       		.byte	0x2
 585 0137 23       		.byte	0x23
 586 0138 04       		.uleb128 0x4
 587 0139 00       		.byte	0
 588 013a 04       		.uleb128 0x4
 589 013b 3F040000 		.4byte	.LASF22
 590 013f 04       		.byte	0x4
 591 0140 AB       		.byte	0xab
 592 0141 15010000 		.4byte	0x115
 593 0145 04       		.uleb128 0x4
 594 0146 A9010000 		.4byte	.LASF23
 595 014a 04       		.byte	0x4
 596 014b AF       		.byte	0xaf
 597 014c AD000000 		.4byte	0xad
 598 0150 11       		.uleb128 0x11
 599 0151 04       		.byte	0x4
 600 0152 08       		.uleb128 0x8
 601 0153 04       		.byte	0x4
 602 0154 58010000 		.4byte	0x158
 603 0158 03       		.uleb128 0x3
 604 0159 01       		.byte	0x1
 605 015a 08       		.byte	0x8
 606 015b F9040000 		.4byte	.LASF24
 607 015f 12       		.uleb128 0x12
 608 0160 58010000 		.4byte	0x158
 609 0164 04       		.uleb128 0x4
 610 0165 36050000 		.4byte	.LASF25
 611 0169 06       		.byte	0x6
ARM GAS  C:\Users\embedded\AppData\Local\Temp\ccWE0Kve.s 			page 15


 612 016a 16       		.byte	0x16
 613 016b A6000000 		.4byte	0xa6
 614 016f 13       		.uleb128 0x13
 615 0170 BA010000 		.4byte	.LASF30
 616 0174 18       		.byte	0x18
 617 0175 06       		.byte	0x6
 618 0176 2F       		.byte	0x2f
 619 0177 CE010000 		.4byte	0x1ce
 620 017b 10       		.uleb128 0x10
 621 017c 0D050000 		.4byte	.LASF26
 622 0180 06       		.byte	0x6
 623 0181 31       		.byte	0x31
 624 0182 CE010000 		.4byte	0x1ce
 625 0186 02       		.byte	0x2
 626 0187 23       		.byte	0x23
 627 0188 00       		.uleb128 0
 628 0189 14       		.uleb128 0x14
 629 018a 5F6B00   		.ascii	"_k\000"
 630 018d 06       		.byte	0x6
 631 018e 32       		.byte	0x32
 632 018f 65000000 		.4byte	0x65
 633 0193 02       		.byte	0x2
 634 0194 23       		.byte	0x23
 635 0195 04       		.uleb128 0x4
 636 0196 10       		.uleb128 0x10
 637 0197 29050000 		.4byte	.LASF27
 638 019b 06       		.byte	0x6
 639 019c 32       		.byte	0x32
 640 019d 65000000 		.4byte	0x65
 641 01a1 02       		.byte	0x2
 642 01a2 23       		.byte	0x23
 643 01a3 08       		.uleb128 0x8
 644 01a4 10       		.uleb128 0x10
 645 01a5 A3010000 		.4byte	.LASF28
 646 01a9 06       		.byte	0x6
 647 01aa 32       		.byte	0x32
 648 01ab 65000000 		.4byte	0x65
 649 01af 02       		.byte	0x2
 650 01b0 23       		.byte	0x23
 651 01b1 0C       		.uleb128 0xc
 652 01b2 10       		.uleb128 0x10
 653 01b3 8A050000 		.4byte	.LASF29
 654 01b7 06       		.byte	0x6
 655 01b8 32       		.byte	0x32
 656 01b9 65000000 		.4byte	0x65
 657 01bd 02       		.byte	0x2
 658 01be 23       		.byte	0x23
 659 01bf 10       		.uleb128 0x10
 660 01c0 14       		.uleb128 0x14
 661 01c1 5F7800   		.ascii	"_x\000"
 662 01c4 06       		.byte	0x6
 663 01c5 33       		.byte	0x33
 664 01c6 D4010000 		.4byte	0x1d4
 665 01ca 02       		.byte	0x2
 666 01cb 23       		.byte	0x23
 667 01cc 14       		.uleb128 0x14
 668 01cd 00       		.byte	0
ARM GAS  C:\Users\embedded\AppData\Local\Temp\ccWE0Kve.s 			page 16


 669 01ce 08       		.uleb128 0x8
 670 01cf 04       		.byte	0x4
 671 01d0 6F010000 		.4byte	0x16f
 672 01d4 0D       		.uleb128 0xd
 673 01d5 64010000 		.4byte	0x164
 674 01d9 E4010000 		.4byte	0x1e4
 675 01dd 0E       		.uleb128 0xe
 676 01de 49000000 		.4byte	0x49
 677 01e2 00       		.byte	0
 678 01e3 00       		.byte	0
 679 01e4 13       		.uleb128 0x13
 680 01e5 E1010000 		.4byte	.LASF31
 681 01e9 24       		.byte	0x24
 682 01ea 06       		.byte	0x6
 683 01eb 37       		.byte	0x37
 684 01ec 6F020000 		.4byte	0x26f
 685 01f0 10       		.uleb128 0x10
 686 01f1 BC000000 		.4byte	.LASF32
 687 01f5 06       		.byte	0x6
 688 01f6 39       		.byte	0x39
 689 01f7 65000000 		.4byte	0x65
 690 01fb 02       		.byte	0x2
 691 01fc 23       		.byte	0x23
 692 01fd 00       		.uleb128 0
 693 01fe 10       		.uleb128 0x10
 694 01ff FE040000 		.4byte	.LASF33
 695 0203 06       		.byte	0x6
 696 0204 3A       		.byte	0x3a
 697 0205 65000000 		.4byte	0x65
 698 0209 02       		.byte	0x2
 699 020a 23       		.byte	0x23
 700 020b 04       		.uleb128 0x4
 701 020c 10       		.uleb128 0x10
 702 020d EB000000 		.4byte	.LASF34
 703 0211 06       		.byte	0x6
 704 0212 3B       		.byte	0x3b
 705 0213 65000000 		.4byte	0x65
 706 0217 02       		.byte	0x2
 707 0218 23       		.byte	0x23
 708 0219 08       		.uleb128 0x8
 709 021a 10       		.uleb128 0x10
 710 021b 1B060000 		.4byte	.LASF35
 711 021f 06       		.byte	0x6
 712 0220 3C       		.byte	0x3c
 713 0221 65000000 		.4byte	0x65
 714 0225 02       		.byte	0x2
 715 0226 23       		.byte	0x23
 716 0227 0C       		.uleb128 0xc
 717 0228 10       		.uleb128 0x10
 718 0229 EF020000 		.4byte	.LASF36
 719 022d 06       		.byte	0x6
 720 022e 3D       		.byte	0x3d
 721 022f 65000000 		.4byte	0x65
 722 0233 02       		.byte	0x2
 723 0234 23       		.byte	0x23
 724 0235 10       		.uleb128 0x10
 725 0236 10       		.uleb128 0x10
ARM GAS  C:\Users\embedded\AppData\Local\Temp\ccWE0Kve.s 			page 17


 726 0237 A5020000 		.4byte	.LASF37
 727 023b 06       		.byte	0x6
 728 023c 3E       		.byte	0x3e
 729 023d 65000000 		.4byte	0x65
 730 0241 02       		.byte	0x2
 731 0242 23       		.byte	0x23
 732 0243 14       		.uleb128 0x14
 733 0244 10       		.uleb128 0x10
 734 0245 8F050000 		.4byte	.LASF38
 735 0249 06       		.byte	0x6
 736 024a 3F       		.byte	0x3f
 737 024b 65000000 		.4byte	0x65
 738 024f 02       		.byte	0x2
 739 0250 23       		.byte	0x23
 740 0251 18       		.uleb128 0x18
 741 0252 10       		.uleb128 0x10
 742 0253 0D040000 		.4byte	.LASF39
 743 0257 06       		.byte	0x6
 744 0258 40       		.byte	0x40
 745 0259 65000000 		.4byte	0x65
 746 025d 02       		.byte	0x2
 747 025e 23       		.byte	0x23
 748 025f 1C       		.uleb128 0x1c
 749 0260 10       		.uleb128 0x10
 750 0261 DD050000 		.4byte	.LASF40
 751 0265 06       		.byte	0x6
 752 0266 41       		.byte	0x41
 753 0267 65000000 		.4byte	0x65
 754 026b 02       		.byte	0x2
 755 026c 23       		.byte	0x23
 756 026d 20       		.uleb128 0x20
 757 026e 00       		.byte	0
 758 026f 15       		.uleb128 0x15
 759 0270 FA000000 		.4byte	.LASF41
 760 0274 0801     		.2byte	0x108
 761 0276 06       		.byte	0x6
 762 0277 4A       		.byte	0x4a
 763 0278 B8020000 		.4byte	0x2b8
 764 027c 10       		.uleb128 0x10
 765 027d 96010000 		.4byte	.LASF42
 766 0281 06       		.byte	0x6
 767 0282 4B       		.byte	0x4b
 768 0283 B8020000 		.4byte	0x2b8
 769 0287 02       		.byte	0x2
 770 0288 23       		.byte	0x23
 771 0289 00       		.uleb128 0
 772 028a 10       		.uleb128 0x10
 773 028b 00000000 		.4byte	.LASF43
 774 028f 06       		.byte	0x6
 775 0290 4C       		.byte	0x4c
 776 0291 B8020000 		.4byte	0x2b8
 777 0295 03       		.byte	0x3
 778 0296 23       		.byte	0x23
 779 0297 8001     		.uleb128 0x80
 780 0299 10       		.uleb128 0x10
 781 029a 20050000 		.4byte	.LASF44
 782 029e 06       		.byte	0x6
ARM GAS  C:\Users\embedded\AppData\Local\Temp\ccWE0Kve.s 			page 18


 783 029f 4E       		.byte	0x4e
 784 02a0 64010000 		.4byte	0x164
 785 02a4 03       		.byte	0x3
 786 02a5 23       		.byte	0x23
 787 02a6 8002     		.uleb128 0x100
 788 02a8 10       		.uleb128 0x10
 789 02a9 2B010000 		.4byte	.LASF45
 790 02ad 06       		.byte	0x6
 791 02ae 51       		.byte	0x51
 792 02af 64010000 		.4byte	0x164
 793 02b3 03       		.byte	0x3
 794 02b4 23       		.byte	0x23
 795 02b5 8402     		.uleb128 0x104
 796 02b7 00       		.byte	0
 797 02b8 0D       		.uleb128 0xd
 798 02b9 50010000 		.4byte	0x150
 799 02bd C8020000 		.4byte	0x2c8
 800 02c1 0E       		.uleb128 0xe
 801 02c2 49000000 		.4byte	0x49
 802 02c6 1F       		.byte	0x1f
 803 02c7 00       		.byte	0
 804 02c8 15       		.uleb128 0x15
 805 02c9 F8020000 		.4byte	.LASF46
 806 02cd 9001     		.2byte	0x190
 807 02cf 06       		.byte	0x6
 808 02d0 5D       		.byte	0x5d
 809 02d1 0F030000 		.4byte	0x30f
 810 02d5 10       		.uleb128 0x10
 811 02d6 0D050000 		.4byte	.LASF26
 812 02da 06       		.byte	0x6
 813 02db 5E       		.byte	0x5e
 814 02dc 0F030000 		.4byte	0x30f
 815 02e0 02       		.byte	0x2
 816 02e1 23       		.byte	0x23
 817 02e2 00       		.uleb128 0
 818 02e3 10       		.uleb128 0x10
 819 02e4 7F040000 		.4byte	.LASF47
 820 02e8 06       		.byte	0x6
 821 02e9 5F       		.byte	0x5f
 822 02ea 65000000 		.4byte	0x65
 823 02ee 02       		.byte	0x2
 824 02ef 23       		.byte	0x23
 825 02f0 04       		.uleb128 0x4
 826 02f1 10       		.uleb128 0x10
 827 02f2 9E010000 		.4byte	.LASF48
 828 02f6 06       		.byte	0x6
 829 02f7 61       		.byte	0x61
 830 02f8 15030000 		.4byte	0x315
 831 02fc 02       		.byte	0x2
 832 02fd 23       		.byte	0x23
 833 02fe 08       		.uleb128 0x8
 834 02ff 10       		.uleb128 0x10
 835 0300 FA000000 		.4byte	.LASF41
 836 0304 06       		.byte	0x6
 837 0305 62       		.byte	0x62
 838 0306 6F020000 		.4byte	0x26f
 839 030a 03       		.byte	0x3
ARM GAS  C:\Users\embedded\AppData\Local\Temp\ccWE0Kve.s 			page 19


 840 030b 23       		.byte	0x23
 841 030c 8801     		.uleb128 0x88
 842 030e 00       		.byte	0
 843 030f 08       		.uleb128 0x8
 844 0310 04       		.byte	0x4
 845 0311 C8020000 		.4byte	0x2c8
 846 0315 0D       		.uleb128 0xd
 847 0316 25030000 		.4byte	0x325
 848 031a 25030000 		.4byte	0x325
 849 031e 0E       		.uleb128 0xe
 850 031f 49000000 		.4byte	0x49
 851 0323 1F       		.byte	0x1f
 852 0324 00       		.byte	0
 853 0325 08       		.uleb128 0x8
 854 0326 04       		.byte	0x4
 855 0327 2B030000 		.4byte	0x32b
 856 032b 16       		.uleb128 0x16
 857 032c 01       		.byte	0x1
 858 032d 13       		.uleb128 0x13
 859 032e 17040000 		.4byte	.LASF49
 860 0332 08       		.byte	0x8
 861 0333 06       		.byte	0x6
 862 0334 75       		.byte	0x75
 863 0335 56030000 		.4byte	0x356
 864 0339 10       		.uleb128 0x10
 865 033a E5000000 		.4byte	.LASF50
 866 033e 06       		.byte	0x6
 867 033f 76       		.byte	0x76
 868 0340 56030000 		.4byte	0x356
 869 0344 02       		.byte	0x2
 870 0345 23       		.byte	0x23
 871 0346 00       		.uleb128 0
 872 0347 10       		.uleb128 0x10
 873 0348 0C000000 		.4byte	.LASF51
 874 034c 06       		.byte	0x6
 875 034d 77       		.byte	0x77
 876 034e 65000000 		.4byte	0x65
 877 0352 02       		.byte	0x2
 878 0353 23       		.byte	0x23
 879 0354 04       		.uleb128 0x4
 880 0355 00       		.byte	0
 881 0356 08       		.uleb128 0x8
 882 0357 04       		.byte	0x4
 883 0358 30000000 		.4byte	0x30
 884 035c 13       		.uleb128 0x13
 885 035d 4A040000 		.4byte	.LASF52
 886 0361 68       		.byte	0x68
 887 0362 06       		.byte	0x6
 888 0363 B5       		.byte	0xb5
 889 0364 B6040000 		.4byte	0x4b6
 890 0368 14       		.uleb128 0x14
 891 0369 5F7000   		.ascii	"_p\000"
 892 036c 06       		.byte	0x6
 893 036d B6       		.byte	0xb6
 894 036e 56030000 		.4byte	0x356
 895 0372 02       		.byte	0x2
 896 0373 23       		.byte	0x23
ARM GAS  C:\Users\embedded\AppData\Local\Temp\ccWE0Kve.s 			page 20


 897 0374 00       		.uleb128 0
 898 0375 14       		.uleb128 0x14
 899 0376 5F7200   		.ascii	"_r\000"
 900 0379 06       		.byte	0x6
 901 037a B7       		.byte	0xb7
 902 037b 65000000 		.4byte	0x65
 903 037f 02       		.byte	0x2
 904 0380 23       		.byte	0x23
 905 0381 04       		.uleb128 0x4
 906 0382 14       		.uleb128 0x14
 907 0383 5F7700   		.ascii	"_w\000"
 908 0386 06       		.byte	0x6
 909 0387 B8       		.byte	0xb8
 910 0388 65000000 		.4byte	0x65
 911 038c 02       		.byte	0x2
 912 038d 23       		.byte	0x23
 913 038e 08       		.uleb128 0x8
 914 038f 10       		.uleb128 0x10
 915 0390 9F050000 		.4byte	.LASF53
 916 0394 06       		.byte	0x6
 917 0395 B9       		.byte	0xb9
 918 0396 5E000000 		.4byte	0x5e
 919 039a 02       		.byte	0x2
 920 039b 23       		.byte	0x23
 921 039c 0C       		.uleb128 0xc
 922 039d 10       		.uleb128 0x10
 923 039e 1C020000 		.4byte	.LASF54
 924 03a2 06       		.byte	0x6
 925 03a3 BA       		.byte	0xba
 926 03a4 5E000000 		.4byte	0x5e
 927 03a8 02       		.byte	0x2
 928 03a9 23       		.byte	0x23
 929 03aa 0E       		.uleb128 0xe
 930 03ab 14       		.uleb128 0x14
 931 03ac 5F626600 		.ascii	"_bf\000"
 932 03b0 06       		.byte	0x6
 933 03b1 BB       		.byte	0xbb
 934 03b2 2D030000 		.4byte	0x32d
 935 03b6 02       		.byte	0x2
 936 03b7 23       		.byte	0x23
 937 03b8 10       		.uleb128 0x10
 938 03b9 10       		.uleb128 0x10
 939 03ba 8A000000 		.4byte	.LASF55
 940 03be 06       		.byte	0x6
 941 03bf BC       		.byte	0xbc
 942 03c0 65000000 		.4byte	0x65
 943 03c4 02       		.byte	0x2
 944 03c5 23       		.byte	0x23
 945 03c6 18       		.uleb128 0x18
 946 03c7 10       		.uleb128 0x10
 947 03c8 08010000 		.4byte	.LASF56
 948 03cc 06       		.byte	0x6
 949 03cd C3       		.byte	0xc3
 950 03ce 50010000 		.4byte	0x150
 951 03d2 02       		.byte	0x2
 952 03d3 23       		.byte	0x23
 953 03d4 1C       		.uleb128 0x1c
ARM GAS  C:\Users\embedded\AppData\Local\Temp\ccWE0Kve.s 			page 21


 954 03d5 10       		.uleb128 0x10
 955 03d6 D1010000 		.4byte	.LASF57
 956 03da 06       		.byte	0x6
 957 03db C5       		.byte	0xc5
 958 03dc 3E060000 		.4byte	0x63e
 959 03e0 02       		.byte	0x2
 960 03e1 23       		.byte	0x23
 961 03e2 20       		.uleb128 0x20
 962 03e3 10       		.uleb128 0x10
 963 03e4 9E020000 		.4byte	.LASF58
 964 03e8 06       		.byte	0x6
 965 03e9 C7       		.byte	0xc7
 966 03ea 69060000 		.4byte	0x669
 967 03ee 02       		.byte	0x2
 968 03ef 23       		.byte	0x23
 969 03f0 24       		.uleb128 0x24
 970 03f1 10       		.uleb128 0x10
 971 03f2 D8040000 		.4byte	.LASF59
 972 03f6 06       		.byte	0x6
 973 03f7 CA       		.byte	0xca
 974 03f8 8E060000 		.4byte	0x68e
 975 03fc 02       		.byte	0x2
 976 03fd 23       		.byte	0x23
 977 03fe 28       		.uleb128 0x28
 978 03ff 10       		.uleb128 0x10
 979 0400 F7050000 		.4byte	.LASF60
 980 0404 06       		.byte	0x6
 981 0405 CB       		.byte	0xcb
 982 0406 A9060000 		.4byte	0x6a9
 983 040a 02       		.byte	0x2
 984 040b 23       		.byte	0x23
 985 040c 2C       		.uleb128 0x2c
 986 040d 14       		.uleb128 0x14
 987 040e 5F756200 		.ascii	"_ub\000"
 988 0412 06       		.byte	0x6
 989 0413 CE       		.byte	0xce
 990 0414 2D030000 		.4byte	0x32d
 991 0418 02       		.byte	0x2
 992 0419 23       		.byte	0x23
 993 041a 30       		.uleb128 0x30
 994 041b 14       		.uleb128 0x14
 995 041c 5F757000 		.ascii	"_up\000"
 996 0420 06       		.byte	0x6
 997 0421 CF       		.byte	0xcf
 998 0422 56030000 		.4byte	0x356
 999 0426 02       		.byte	0x2
 1000 0427 23       		.byte	0x23
 1001 0428 38       		.uleb128 0x38
 1002 0429 14       		.uleb128 0x14
 1003 042a 5F757200 		.ascii	"_ur\000"
 1004 042e 06       		.byte	0x6
 1005 042f D0       		.byte	0xd0
 1006 0430 65000000 		.4byte	0x65
 1007 0434 02       		.byte	0x2
 1008 0435 23       		.byte	0x23
 1009 0436 3C       		.uleb128 0x3c
 1010 0437 10       		.uleb128 0x10
ARM GAS  C:\Users\embedded\AppData\Local\Temp\ccWE0Kve.s 			page 22


 1011 0438 DF000000 		.4byte	.LASF61
 1012 043c 06       		.byte	0x6
 1013 043d D3       		.byte	0xd3
 1014 043e AF060000 		.4byte	0x6af
 1015 0442 02       		.byte	0x2
 1016 0443 23       		.byte	0x23
 1017 0444 40       		.uleb128 0x40
 1018 0445 10       		.uleb128 0x10
 1019 0446 CF050000 		.4byte	.LASF62
 1020 044a 06       		.byte	0x6
 1021 044b D4       		.byte	0xd4
 1022 044c BF060000 		.4byte	0x6bf
 1023 0450 02       		.byte	0x2
 1024 0451 23       		.byte	0x23
 1025 0452 43       		.uleb128 0x43
 1026 0453 14       		.uleb128 0x14
 1027 0454 5F6C6200 		.ascii	"_lb\000"
 1028 0458 06       		.byte	0x6
 1029 0459 D7       		.byte	0xd7
 1030 045a 2D030000 		.4byte	0x32d
 1031 045e 02       		.byte	0x2
 1032 045f 23       		.byte	0x23
 1033 0460 44       		.uleb128 0x44
 1034 0461 10       		.uleb128 0x10
 1035 0462 57010000 		.4byte	.LASF63
 1036 0466 06       		.byte	0x6
 1037 0467 DA       		.byte	0xda
 1038 0468 65000000 		.4byte	0x65
 1039 046c 02       		.byte	0x2
 1040 046d 23       		.byte	0x23
 1041 046e 4C       		.uleb128 0x4c
 1042 046f 10       		.uleb128 0x10
 1043 0470 6F010000 		.4byte	.LASF64
 1044 0474 06       		.byte	0x6
 1045 0475 DB       		.byte	0xdb
 1046 0476 C4000000 		.4byte	0xc4
 1047 047a 02       		.byte	0x2
 1048 047b 23       		.byte	0x23
 1049 047c 50       		.uleb128 0x50
 1050 047d 10       		.uleb128 0x10
 1051 047e 2F000000 		.4byte	.LASF65
 1052 0482 06       		.byte	0x6
 1053 0483 DE       		.byte	0xde
 1054 0484 D5040000 		.4byte	0x4d5
 1055 0488 02       		.byte	0x2
 1056 0489 23       		.byte	0x23
 1057 048a 54       		.uleb128 0x54
 1058 048b 10       		.uleb128 0x10
 1059 048c 90020000 		.4byte	.LASF66
 1060 0490 06       		.byte	0x6
 1061 0491 E2       		.byte	0xe2
 1062 0492 45010000 		.4byte	0x145
 1063 0496 02       		.byte	0x2
 1064 0497 23       		.byte	0x23
 1065 0498 58       		.uleb128 0x58
 1066 0499 10       		.uleb128 0x10
 1067 049a 52040000 		.4byte	.LASF67
ARM GAS  C:\Users\embedded\AppData\Local\Temp\ccWE0Kve.s 			page 23


 1068 049e 06       		.byte	0x6
 1069 049f E4       		.byte	0xe4
 1070 04a0 3A010000 		.4byte	0x13a
 1071 04a4 02       		.byte	0x2
 1072 04a5 23       		.byte	0x23
 1073 04a6 5C       		.uleb128 0x5c
 1074 04a7 10       		.uleb128 0x10
 1075 04a8 96020000 		.4byte	.LASF68
 1076 04ac 06       		.byte	0x6
 1077 04ad E5       		.byte	0xe5
 1078 04ae 65000000 		.4byte	0x65
 1079 04b2 02       		.byte	0x2
 1080 04b3 23       		.byte	0x23
 1081 04b4 64       		.uleb128 0x64
 1082 04b5 00       		.byte	0
 1083 04b6 17       		.uleb128 0x17
 1084 04b7 01       		.byte	0x1
 1085 04b8 65000000 		.4byte	0x65
 1086 04bc D5040000 		.4byte	0x4d5
 1087 04c0 18       		.uleb128 0x18
 1088 04c1 D5040000 		.4byte	0x4d5
 1089 04c5 18       		.uleb128 0x18
 1090 04c6 50010000 		.4byte	0x150
 1091 04ca 18       		.uleb128 0x18
 1092 04cb 52010000 		.4byte	0x152
 1093 04cf 18       		.uleb128 0x18
 1094 04d0 65000000 		.4byte	0x65
 1095 04d4 00       		.byte	0
 1096 04d5 08       		.uleb128 0x8
 1097 04d6 04       		.byte	0x4
 1098 04d7 E0040000 		.4byte	0x4e0
 1099 04db 12       		.uleb128 0x12
 1100 04dc D5040000 		.4byte	0x4d5
 1101 04e0 19       		.uleb128 0x19
 1102 04e1 B4040000 		.4byte	.LASF69
 1103 04e5 2804     		.2byte	0x428
 1104 04e7 06       		.byte	0x6
 1105 04e8 6002     		.2byte	0x260
 1106 04ea 3E060000 		.4byte	0x63e
 1107 04ee 1A       		.uleb128 0x1a
 1108 04ef F2040000 		.4byte	.LASF70
 1109 04f3 06       		.byte	0x6
 1110 04f4 6202     		.2byte	0x262
 1111 04f6 65000000 		.4byte	0x65
 1112 04fa 02       		.byte	0x2
 1113 04fb 23       		.byte	0x23
 1114 04fc 00       		.uleb128 0
 1115 04fd 1A       		.uleb128 0x1a
 1116 04fe 33010000 		.4byte	.LASF71
 1117 0502 06       		.byte	0x6
 1118 0503 6702     		.2byte	0x267
 1119 0505 1C070000 		.4byte	0x71c
 1120 0509 02       		.byte	0x2
 1121 050a 23       		.byte	0x23
 1122 050b 04       		.uleb128 0x4
 1123 050c 1A       		.uleb128 0x1a
 1124 050d FA010000 		.4byte	.LASF72
ARM GAS  C:\Users\embedded\AppData\Local\Temp\ccWE0Kve.s 			page 24


 1125 0511 06       		.byte	0x6
 1126 0512 6702     		.2byte	0x267
 1127 0514 1C070000 		.4byte	0x71c
 1128 0518 02       		.byte	0x2
 1129 0519 23       		.byte	0x23
 1130 051a 08       		.uleb128 0x8
 1131 051b 1A       		.uleb128 0x1a
 1132 051c B2010000 		.4byte	.LASF73
 1133 0520 06       		.byte	0x6
 1134 0521 6702     		.2byte	0x267
 1135 0523 1C070000 		.4byte	0x71c
 1136 0527 02       		.byte	0x2
 1137 0528 23       		.byte	0x23
 1138 0529 0C       		.uleb128 0xc
 1139 052a 1A       		.uleb128 0x1a
 1140 052b 7A040000 		.4byte	.LASF74
 1141 052f 06       		.byte	0x6
 1142 0530 6902     		.2byte	0x269
 1143 0532 65000000 		.4byte	0x65
 1144 0536 02       		.byte	0x2
 1145 0537 23       		.byte	0x23
 1146 0538 10       		.uleb128 0x10
 1147 0539 1A       		.uleb128 0x1a
 1148 053a 1A000000 		.4byte	.LASF75
 1149 053e 06       		.byte	0x6
 1150 053f 6A02     		.2byte	0x26a
 1151 0541 37090000 		.4byte	0x937
 1152 0545 02       		.byte	0x2
 1153 0546 23       		.byte	0x23
 1154 0547 14       		.uleb128 0x14
 1155 0548 1A       		.uleb128 0x1a
 1156 0549 96040000 		.4byte	.LASF76
 1157 054d 06       		.byte	0x6
 1158 054e 6D02     		.2byte	0x26d
 1159 0550 65000000 		.4byte	0x65
 1160 0554 02       		.byte	0x2
 1161 0555 23       		.byte	0x23
 1162 0556 30       		.uleb128 0x30
 1163 0557 1A       		.uleb128 0x1a
 1164 0558 84040000 		.4byte	.LASF77
 1165 055c 06       		.byte	0x6
 1166 055d 6E02     		.2byte	0x26e
 1167 055f 4D090000 		.4byte	0x94d
 1168 0563 02       		.byte	0x2
 1169 0564 23       		.byte	0x23
 1170 0565 34       		.uleb128 0x34
 1171 0566 1A       		.uleb128 0x1a
 1172 0567 00030000 		.4byte	.LASF78
 1173 056b 06       		.byte	0x6
 1174 056c 7002     		.2byte	0x270
 1175 056e 65000000 		.4byte	0x65
 1176 0572 02       		.byte	0x2
 1177 0573 23       		.byte	0x23
 1178 0574 38       		.uleb128 0x38
 1179 0575 1A       		.uleb128 0x1a
 1180 0576 8C040000 		.4byte	.LASF79
 1181 057a 06       		.byte	0x6
ARM GAS  C:\Users\embedded\AppData\Local\Temp\ccWE0Kve.s 			page 25


 1182 057b 7202     		.2byte	0x272
 1183 057d 5F090000 		.4byte	0x95f
 1184 0581 02       		.byte	0x2
 1185 0582 23       		.byte	0x23
 1186 0583 3C       		.uleb128 0x3c
 1187 0584 1A       		.uleb128 0x1a
 1188 0585 6C020000 		.4byte	.LASF80
 1189 0589 06       		.byte	0x6
 1190 058a 7502     		.2byte	0x275
 1191 058c CE010000 		.4byte	0x1ce
 1192 0590 02       		.byte	0x2
 1193 0591 23       		.byte	0x23
 1194 0592 40       		.uleb128 0x40
 1195 0593 1A       		.uleb128 0x1a
 1196 0594 D7010000 		.4byte	.LASF81
 1197 0598 06       		.byte	0x6
 1198 0599 7602     		.2byte	0x276
 1199 059b 65000000 		.4byte	0x65
 1200 059f 02       		.byte	0x2
 1201 05a0 23       		.byte	0x23
 1202 05a1 44       		.uleb128 0x44
 1203 05a2 1A       		.uleb128 0x1a
 1204 05a3 11060000 		.4byte	.LASF82
 1205 05a7 06       		.byte	0x6
 1206 05a8 7702     		.2byte	0x277
 1207 05aa CE010000 		.4byte	0x1ce
 1208 05ae 02       		.byte	0x2
 1209 05af 23       		.byte	0x23
 1210 05b0 48       		.uleb128 0x48
 1211 05b1 1A       		.uleb128 0x1a
 1212 05b2 2E040000 		.4byte	.LASF83
 1213 05b6 06       		.byte	0x6
 1214 05b7 7802     		.2byte	0x278
 1215 05b9 65090000 		.4byte	0x965
 1216 05bd 02       		.byte	0x2
 1217 05be 23       		.byte	0x23
 1218 05bf 4C       		.uleb128 0x4c
 1219 05c0 1A       		.uleb128 0x1a
 1220 05c1 02020000 		.4byte	.LASF84
 1221 05c5 06       		.byte	0x6
 1222 05c6 7B02     		.2byte	0x27b
 1223 05c8 65000000 		.4byte	0x65
 1224 05cc 02       		.byte	0x2
 1225 05cd 23       		.byte	0x23
 1226 05ce 50       		.uleb128 0x50
 1227 05cf 1A       		.uleb128 0x1a
 1228 05d0 67010000 		.4byte	.LASF85
 1229 05d4 06       		.byte	0x6
 1230 05d5 7C02     		.2byte	0x27c
 1231 05d7 52010000 		.4byte	0x152
 1232 05db 02       		.byte	0x2
 1233 05dc 23       		.byte	0x23
 1234 05dd 54       		.uleb128 0x54
 1235 05de 1A       		.uleb128 0x1a
 1236 05df F5030000 		.4byte	.LASF86
 1237 05e3 06       		.byte	0x6
 1238 05e4 9F02     		.2byte	0x29f
ARM GAS  C:\Users\embedded\AppData\Local\Temp\ccWE0Kve.s 			page 26


 1239 05e6 15090000 		.4byte	0x915
 1240 05ea 02       		.byte	0x2
 1241 05eb 23       		.byte	0x23
 1242 05ec 58       		.uleb128 0x58
 1243 05ed 1A       		.uleb128 0x1a
 1244 05ee F8020000 		.4byte	.LASF46
 1245 05f2 06       		.byte	0x6
 1246 05f3 A302     		.2byte	0x2a3
 1247 05f5 0F030000 		.4byte	0x30f
 1248 05f9 03       		.byte	0x3
 1249 05fa 23       		.byte	0x23
 1250 05fb C802     		.uleb128 0x148
 1251 05fd 1A       		.uleb128 0x1a
 1252 05fe 3C020000 		.4byte	.LASF87
 1253 0602 06       		.byte	0x6
 1254 0603 A402     		.2byte	0x2a4
 1255 0605 C8020000 		.4byte	0x2c8
 1256 0609 03       		.byte	0x3
 1257 060a 23       		.byte	0x23
 1258 060b CC02     		.uleb128 0x14c
 1259 060d 1A       		.uleb128 0x1a
 1260 060e C5050000 		.4byte	.LASF88
 1261 0612 06       		.byte	0x6
 1262 0613 A802     		.2byte	0x2a8
 1263 0615 77090000 		.4byte	0x977
 1264 0619 03       		.byte	0x3
 1265 061a 23       		.byte	0x23
 1266 061b DC05     		.uleb128 0x2dc
 1267 061d 1A       		.uleb128 0x1a
 1268 061e 10010000 		.4byte	.LASF89
 1269 0622 06       		.byte	0x6
 1270 0623 AD02     		.2byte	0x2ad
 1271 0625 DB060000 		.4byte	0x6db
 1272 0629 03       		.byte	0x3
 1273 062a 23       		.byte	0x23
 1274 062b E005     		.uleb128 0x2e0
 1275 062d 1A       		.uleb128 0x1a
 1276 062e F5000000 		.4byte	.LASF90
 1277 0632 06       		.byte	0x6
 1278 0633 AF02     		.2byte	0x2af
 1279 0635 83090000 		.4byte	0x983
 1280 0639 03       		.byte	0x3
 1281 063a 23       		.byte	0x23
 1282 063b EC05     		.uleb128 0x2ec
 1283 063d 00       		.byte	0
 1284 063e 08       		.uleb128 0x8
 1285 063f 04       		.byte	0x4
 1286 0640 B6040000 		.4byte	0x4b6
 1287 0644 17       		.uleb128 0x17
 1288 0645 01       		.byte	0x1
 1289 0646 65000000 		.4byte	0x65
 1290 064a 63060000 		.4byte	0x663
 1291 064e 18       		.uleb128 0x18
 1292 064f D5040000 		.4byte	0x4d5
 1293 0653 18       		.uleb128 0x18
 1294 0654 50010000 		.4byte	0x150
 1295 0658 18       		.uleb128 0x18
ARM GAS  C:\Users\embedded\AppData\Local\Temp\ccWE0Kve.s 			page 27


 1296 0659 63060000 		.4byte	0x663
 1297 065d 18       		.uleb128 0x18
 1298 065e 65000000 		.4byte	0x65
 1299 0662 00       		.byte	0
 1300 0663 08       		.uleb128 0x8
 1301 0664 04       		.byte	0x4
 1302 0665 5F010000 		.4byte	0x15f
 1303 0669 08       		.uleb128 0x8
 1304 066a 04       		.byte	0x4
 1305 066b 44060000 		.4byte	0x644
 1306 066f 17       		.uleb128 0x17
 1307 0670 01       		.byte	0x1
 1308 0671 CF000000 		.4byte	0xcf
 1309 0675 8E060000 		.4byte	0x68e
 1310 0679 18       		.uleb128 0x18
 1311 067a D5040000 		.4byte	0x4d5
 1312 067e 18       		.uleb128 0x18
 1313 067f 50010000 		.4byte	0x150
 1314 0683 18       		.uleb128 0x18
 1315 0684 CF000000 		.4byte	0xcf
 1316 0688 18       		.uleb128 0x18
 1317 0689 65000000 		.4byte	0x65
 1318 068d 00       		.byte	0
 1319 068e 08       		.uleb128 0x8
 1320 068f 04       		.byte	0x4
 1321 0690 6F060000 		.4byte	0x66f
 1322 0694 17       		.uleb128 0x17
 1323 0695 01       		.byte	0x1
 1324 0696 65000000 		.4byte	0x65
 1325 069a A9060000 		.4byte	0x6a9
 1326 069e 18       		.uleb128 0x18
 1327 069f D5040000 		.4byte	0x4d5
 1328 06a3 18       		.uleb128 0x18
 1329 06a4 50010000 		.4byte	0x150
 1330 06a8 00       		.byte	0
 1331 06a9 08       		.uleb128 0x8
 1332 06aa 04       		.byte	0x4
 1333 06ab 94060000 		.4byte	0x694
 1334 06af 0D       		.uleb128 0xd
 1335 06b0 30000000 		.4byte	0x30
 1336 06b4 BF060000 		.4byte	0x6bf
 1337 06b8 0E       		.uleb128 0xe
 1338 06b9 49000000 		.4byte	0x49
 1339 06bd 02       		.byte	0x2
 1340 06be 00       		.byte	0
 1341 06bf 0D       		.uleb128 0xd
 1342 06c0 30000000 		.4byte	0x30
 1343 06c4 CF060000 		.4byte	0x6cf
 1344 06c8 0E       		.uleb128 0xe
 1345 06c9 49000000 		.4byte	0x49
 1346 06cd 00       		.byte	0
 1347 06ce 00       		.byte	0
 1348 06cf 0A       		.uleb128 0xa
 1349 06d0 38040000 		.4byte	.LASF91
 1350 06d4 06       		.byte	0x6
 1351 06d5 1F01     		.2byte	0x11f
 1352 06d7 5C030000 		.4byte	0x35c
ARM GAS  C:\Users\embedded\AppData\Local\Temp\ccWE0Kve.s 			page 28


 1353 06db 1B       		.uleb128 0x1b
 1354 06dc 99050000 		.4byte	.LASF92
 1355 06e0 0C       		.byte	0xc
 1356 06e1 06       		.byte	0x6
 1357 06e2 2301     		.2byte	0x123
 1358 06e4 16070000 		.4byte	0x716
 1359 06e8 1A       		.uleb128 0x1a
 1360 06e9 0D050000 		.4byte	.LASF26
 1361 06ed 06       		.byte	0x6
 1362 06ee 2501     		.2byte	0x125
 1363 06f0 16070000 		.4byte	0x716
 1364 06f4 02       		.byte	0x2
 1365 06f5 23       		.byte	0x23
 1366 06f6 00       		.uleb128 0
 1367 06f7 1A       		.uleb128 0x1a
 1368 06f8 22020000 		.4byte	.LASF93
 1369 06fc 06       		.byte	0x6
 1370 06fd 2601     		.2byte	0x126
 1371 06ff 65000000 		.4byte	0x65
 1372 0703 02       		.byte	0x2
 1373 0704 23       		.byte	0x23
 1374 0705 04       		.uleb128 0x4
 1375 0706 1A       		.uleb128 0x1a
 1376 0707 74040000 		.4byte	.LASF94
 1377 070b 06       		.byte	0x6
 1378 070c 2701     		.2byte	0x127
 1379 070e 1C070000 		.4byte	0x71c
 1380 0712 02       		.byte	0x2
 1381 0713 23       		.byte	0x23
 1382 0714 08       		.uleb128 0x8
 1383 0715 00       		.byte	0
 1384 0716 08       		.uleb128 0x8
 1385 0717 04       		.byte	0x4
 1386 0718 DB060000 		.4byte	0x6db
 1387 071c 08       		.uleb128 0x8
 1388 071d 04       		.byte	0x4
 1389 071e CF060000 		.4byte	0x6cf
 1390 0722 1B       		.uleb128 0x1b
 1391 0723 12000000 		.4byte	.LASF95
 1392 0727 0E       		.byte	0xe
 1393 0728 06       		.byte	0x6
 1394 0729 3F01     		.2byte	0x13f
 1395 072b 5D070000 		.4byte	0x75d
 1396 072f 1A       		.uleb128 0x1a
 1397 0730 BB040000 		.4byte	.LASF96
 1398 0734 06       		.byte	0x6
 1399 0735 4001     		.2byte	0x140
 1400 0737 5D070000 		.4byte	0x75d
 1401 073b 02       		.byte	0x2
 1402 073c 23       		.byte	0x23
 1403 073d 00       		.uleb128 0
 1404 073e 1A       		.uleb128 0x1a
 1405 073f 07050000 		.4byte	.LASF97
 1406 0743 06       		.byte	0x6
 1407 0744 4101     		.2byte	0x141
 1408 0746 5D070000 		.4byte	0x75d
 1409 074a 02       		.byte	0x2
ARM GAS  C:\Users\embedded\AppData\Local\Temp\ccWE0Kve.s 			page 29


 1410 074b 23       		.byte	0x23
 1411 074c 06       		.uleb128 0x6
 1412 074d 1A       		.uleb128 0x1a
 1413 074e 31050000 		.4byte	.LASF98
 1414 0752 06       		.byte	0x6
 1415 0753 4201     		.2byte	0x142
 1416 0755 42000000 		.4byte	0x42
 1417 0759 02       		.byte	0x2
 1418 075a 23       		.byte	0x23
 1419 075b 0C       		.uleb128 0xc
 1420 075c 00       		.byte	0
 1421 075d 0D       		.uleb128 0xd
 1422 075e 42000000 		.4byte	0x42
 1423 0762 6D070000 		.4byte	0x76d
 1424 0766 0E       		.uleb128 0xe
 1425 0767 49000000 		.4byte	0x49
 1426 076b 02       		.byte	0x2
 1427 076c 00       		.byte	0
 1428 076d 1C       		.uleb128 0x1c
 1429 076e D0       		.byte	0xd0
 1430 076f 06       		.byte	0x6
 1431 0770 8002     		.2byte	0x280
 1432 0772 9D080000 		.4byte	0x89d
 1433 0776 1A       		.uleb128 0x1a
 1434 0777 7D050000 		.4byte	.LASF99
 1435 077b 06       		.byte	0x6
 1436 077c 8202     		.2byte	0x282
 1437 077e 49000000 		.4byte	0x49
 1438 0782 02       		.byte	0x2
 1439 0783 23       		.byte	0x23
 1440 0784 00       		.uleb128 0
 1441 0785 1A       		.uleb128 0x1a
 1442 0786 13050000 		.4byte	.LASF100
 1443 078a 06       		.byte	0x6
 1444 078b 8302     		.2byte	0x283
 1445 078d 52010000 		.4byte	0x152
 1446 0791 02       		.byte	0x2
 1447 0792 23       		.byte	0x23
 1448 0793 04       		.uleb128 0x4
 1449 0794 1A       		.uleb128 0x1a
 1450 0795 51020000 		.4byte	.LASF101
 1451 0799 06       		.byte	0x6
 1452 079a 8402     		.2byte	0x284
 1453 079c 9D080000 		.4byte	0x89d
 1454 07a0 02       		.byte	0x2
 1455 07a1 23       		.byte	0x23
 1456 07a2 08       		.uleb128 0x8
 1457 07a3 1A       		.uleb128 0x1a
 1458 07a4 E8050000 		.4byte	.LASF102
 1459 07a8 06       		.byte	0x6
 1460 07a9 8502     		.2byte	0x285
 1461 07ab E4010000 		.4byte	0x1e4
 1462 07af 02       		.byte	0x2
 1463 07b0 23       		.byte	0x23
 1464 07b1 24       		.uleb128 0x24
 1465 07b2 1A       		.uleb128 0x1a
 1466 07b3 C2010000 		.4byte	.LASF103
ARM GAS  C:\Users\embedded\AppData\Local\Temp\ccWE0Kve.s 			page 30


 1467 07b7 06       		.byte	0x6
 1468 07b8 8602     		.2byte	0x286
 1469 07ba 65000000 		.4byte	0x65
 1470 07be 02       		.byte	0x2
 1471 07bf 23       		.byte	0x23
 1472 07c0 48       		.uleb128 0x48
 1473 07c1 1A       		.uleb128 0x1a
 1474 07c2 5B040000 		.4byte	.LASF104
 1475 07c6 06       		.byte	0x6
 1476 07c7 8702     		.2byte	0x287
 1477 07c9 50000000 		.4byte	0x50
 1478 07cd 02       		.byte	0x2
 1479 07ce 23       		.byte	0x23
 1480 07cf 50       		.uleb128 0x50
 1481 07d0 1A       		.uleb128 0x1a
 1482 07d1 FE050000 		.4byte	.LASF105
 1483 07d5 06       		.byte	0x6
 1484 07d6 8802     		.2byte	0x288
 1485 07d8 22070000 		.4byte	0x722
 1486 07dc 02       		.byte	0x2
 1487 07dd 23       		.byte	0x23
 1488 07de 58       		.uleb128 0x58
 1489 07df 1A       		.uleb128 0x1a
 1490 07e0 CA030000 		.4byte	.LASF106
 1491 07e4 06       		.byte	0x6
 1492 07e5 8902     		.2byte	0x289
 1493 07e7 3A010000 		.4byte	0x13a
 1494 07eb 02       		.byte	0x2
 1495 07ec 23       		.byte	0x23
 1496 07ed 68       		.uleb128 0x68
 1497 07ee 1A       		.uleb128 0x1a
 1498 07ef 03060000 		.4byte	.LASF107
 1499 07f3 06       		.byte	0x6
 1500 07f4 8A02     		.2byte	0x28a
 1501 07f6 3A010000 		.4byte	0x13a
 1502 07fa 02       		.byte	0x2
 1503 07fb 23       		.byte	0x23
 1504 07fc 70       		.uleb128 0x70
 1505 07fd 1A       		.uleb128 0x1a
 1506 07fe BC030000 		.4byte	.LASF108
 1507 0802 06       		.byte	0x6
 1508 0803 8B02     		.2byte	0x28b
 1509 0805 3A010000 		.4byte	0x13a
 1510 0809 02       		.byte	0x2
 1511 080a 23       		.byte	0x23
 1512 080b 78       		.uleb128 0x78
 1513 080c 1A       		.uleb128 0x1a
 1514 080d BB050000 		.4byte	.LASF109
 1515 0811 06       		.byte	0x6
 1516 0812 8C02     		.2byte	0x28c
 1517 0814 AD080000 		.4byte	0x8ad
 1518 0818 03       		.byte	0x3
 1519 0819 23       		.byte	0x23
 1520 081a 8001     		.uleb128 0x80
 1521 081c 1A       		.uleb128 0x1a
 1522 081d 45020000 		.4byte	.LASF110
 1523 0821 06       		.byte	0x6
ARM GAS  C:\Users\embedded\AppData\Local\Temp\ccWE0Kve.s 			page 31


 1524 0822 8D02     		.2byte	0x28d
 1525 0824 BD080000 		.4byte	0x8bd
 1526 0828 03       		.byte	0x3
 1527 0829 23       		.byte	0x23
 1528 082a 8801     		.uleb128 0x88
 1529 082c 1A       		.uleb128 0x1a
 1530 082d 3E050000 		.4byte	.LASF111
 1531 0831 06       		.byte	0x6
 1532 0832 8E02     		.2byte	0x28e
 1533 0834 65000000 		.4byte	0x65
 1534 0838 03       		.byte	0x3
 1535 0839 23       		.byte	0x23
 1536 083a A001     		.uleb128 0xa0
 1537 083c 1A       		.uleb128 0x1a
 1538 083d 88010000 		.4byte	.LASF112
 1539 0841 06       		.byte	0x6
 1540 0842 8F02     		.2byte	0x28f
 1541 0844 3A010000 		.4byte	0x13a
 1542 0848 03       		.byte	0x3
 1543 0849 23       		.byte	0x23
 1544 084a A401     		.uleb128 0xa4
 1545 084c 1A       		.uleb128 0x1a
 1546 084d AD000000 		.4byte	.LASF113
 1547 0851 06       		.byte	0x6
 1548 0852 9002     		.2byte	0x290
 1549 0854 3A010000 		.4byte	0x13a
 1550 0858 03       		.byte	0x3
 1551 0859 23       		.byte	0x23
 1552 085a AC01     		.uleb128 0xac
 1553 085c 1A       		.uleb128 0x1a
 1554 085d 77010000 		.4byte	.LASF114
 1555 0861 06       		.byte	0x6
 1556 0862 9102     		.2byte	0x291
 1557 0864 3A010000 		.4byte	0x13a
 1558 0868 03       		.byte	0x3
 1559 0869 23       		.byte	0x23
 1560 086a B401     		.uleb128 0xb4
 1561 086c 1A       		.uleb128 0x1a
 1562 086d 35000000 		.4byte	.LASF115
 1563 0871 06       		.byte	0x6
 1564 0872 9202     		.2byte	0x292
 1565 0874 3A010000 		.4byte	0x13a
 1566 0878 03       		.byte	0x3
 1567 0879 23       		.byte	0x23
 1568 087a BC01     		.uleb128 0xbc
 1569 087c 1A       		.uleb128 0x1a
 1570 087d 44000000 		.4byte	.LASF116
 1571 0881 06       		.byte	0x6
 1572 0882 9302     		.2byte	0x293
 1573 0884 3A010000 		.4byte	0x13a
 1574 0888 03       		.byte	0x3
 1575 0889 23       		.byte	0x23
 1576 088a C401     		.uleb128 0xc4
 1577 088c 1A       		.uleb128 0x1a
 1578 088d FA030000 		.4byte	.LASF117
 1579 0891 06       		.byte	0x6
 1580 0892 9402     		.2byte	0x294
ARM GAS  C:\Users\embedded\AppData\Local\Temp\ccWE0Kve.s 			page 32


 1581 0894 65000000 		.4byte	0x65
 1582 0898 03       		.byte	0x3
 1583 0899 23       		.byte	0x23
 1584 089a CC01     		.uleb128 0xcc
 1585 089c 00       		.byte	0
 1586 089d 0D       		.uleb128 0xd
 1587 089e 58010000 		.4byte	0x158
 1588 08a2 AD080000 		.4byte	0x8ad
 1589 08a6 0E       		.uleb128 0xe
 1590 08a7 49000000 		.4byte	0x49
 1591 08ab 19       		.byte	0x19
 1592 08ac 00       		.byte	0
 1593 08ad 0D       		.uleb128 0xd
 1594 08ae 58010000 		.4byte	0x158
 1595 08b2 BD080000 		.4byte	0x8bd
 1596 08b6 0E       		.uleb128 0xe
 1597 08b7 49000000 		.4byte	0x49
 1598 08bb 07       		.byte	0x7
 1599 08bc 00       		.byte	0
 1600 08bd 0D       		.uleb128 0xd
 1601 08be 58010000 		.4byte	0x158
 1602 08c2 CD080000 		.4byte	0x8cd
 1603 08c6 0E       		.uleb128 0xe
 1604 08c7 49000000 		.4byte	0x49
 1605 08cb 17       		.byte	0x17
 1606 08cc 00       		.byte	0
 1607 08cd 1C       		.uleb128 0x1c
 1608 08ce F0       		.byte	0xf0
 1609 08cf 06       		.byte	0x6
 1610 08d0 9902     		.2byte	0x299
 1611 08d2 F5080000 		.4byte	0x8f5
 1612 08d6 1A       		.uleb128 0x1a
 1613 08d7 E8020000 		.4byte	.LASF118
 1614 08db 06       		.byte	0x6
 1615 08dc 9C02     		.2byte	0x29c
 1616 08de F5080000 		.4byte	0x8f5
 1617 08e2 02       		.byte	0x2
 1618 08e3 23       		.byte	0x23
 1619 08e4 00       		.uleb128 0
 1620 08e5 1A       		.uleb128 0x1a
 1621 08e6 B2050000 		.4byte	.LASF119
 1622 08ea 06       		.byte	0x6
 1623 08eb 9D02     		.2byte	0x29d
 1624 08ed 05090000 		.4byte	0x905
 1625 08f1 02       		.byte	0x2
 1626 08f2 23       		.byte	0x23
 1627 08f3 78       		.uleb128 0x78
 1628 08f4 00       		.byte	0
 1629 08f5 0D       		.uleb128 0xd
 1630 08f6 56030000 		.4byte	0x356
 1631 08fa 05090000 		.4byte	0x905
 1632 08fe 0E       		.uleb128 0xe
 1633 08ff 49000000 		.4byte	0x49
 1634 0903 1D       		.byte	0x1d
 1635 0904 00       		.byte	0
 1636 0905 0D       		.uleb128 0xd
 1637 0906 49000000 		.4byte	0x49
ARM GAS  C:\Users\embedded\AppData\Local\Temp\ccWE0Kve.s 			page 33


 1638 090a 15090000 		.4byte	0x915
 1639 090e 0E       		.uleb128 0xe
 1640 090f 49000000 		.4byte	0x49
 1641 0913 1D       		.byte	0x1d
 1642 0914 00       		.byte	0
 1643 0915 1D       		.uleb128 0x1d
 1644 0916 F0       		.byte	0xf0
 1645 0917 06       		.byte	0x6
 1646 0918 7E02     		.2byte	0x27e
 1647 091a 37090000 		.4byte	0x937
 1648 091e 1E       		.uleb128 0x1e
 1649 091f B4040000 		.4byte	.LASF69
 1650 0923 06       		.byte	0x6
 1651 0924 9502     		.2byte	0x295
 1652 0926 6D070000 		.4byte	0x76d
 1653 092a 1E       		.uleb128 0x1e
 1654 092b D5050000 		.4byte	.LASF120
 1655 092f 06       		.byte	0x6
 1656 0930 9E02     		.2byte	0x29e
 1657 0932 CD080000 		.4byte	0x8cd
 1658 0936 00       		.byte	0
 1659 0937 0D       		.uleb128 0xd
 1660 0938 58010000 		.4byte	0x158
 1661 093c 47090000 		.4byte	0x947
 1662 0940 0E       		.uleb128 0xe
 1663 0941 49000000 		.4byte	0x49
 1664 0945 18       		.byte	0x18
 1665 0946 00       		.byte	0
 1666 0947 09       		.uleb128 0x9
 1667 0948 93000000 		.4byte	.LASF122
 1668 094c 01       		.byte	0x1
 1669 094d 08       		.uleb128 0x8
 1670 094e 04       		.byte	0x4
 1671 094f 47090000 		.4byte	0x947
 1672 0953 1F       		.uleb128 0x1f
 1673 0954 01       		.byte	0x1
 1674 0955 5F090000 		.4byte	0x95f
 1675 0959 18       		.uleb128 0x18
 1676 095a D5040000 		.4byte	0x4d5
 1677 095e 00       		.byte	0
 1678 095f 08       		.uleb128 0x8
 1679 0960 04       		.byte	0x4
 1680 0961 53090000 		.4byte	0x953
 1681 0965 08       		.uleb128 0x8
 1682 0966 04       		.byte	0x4
 1683 0967 CE010000 		.4byte	0x1ce
 1684 096b 1F       		.uleb128 0x1f
 1685 096c 01       		.byte	0x1
 1686 096d 77090000 		.4byte	0x977
 1687 0971 18       		.uleb128 0x18
 1688 0972 65000000 		.4byte	0x65
 1689 0976 00       		.byte	0
 1690 0977 08       		.uleb128 0x8
 1691 0978 04       		.byte	0x4
 1692 0979 7D090000 		.4byte	0x97d
 1693 097d 08       		.uleb128 0x8
 1694 097e 04       		.byte	0x4
ARM GAS  C:\Users\embedded\AppData\Local\Temp\ccWE0Kve.s 			page 34


 1695 097f 6B090000 		.4byte	0x96b
 1696 0983 0D       		.uleb128 0xd
 1697 0984 CF060000 		.4byte	0x6cf
 1698 0988 93090000 		.4byte	0x993
 1699 098c 0E       		.uleb128 0xe
 1700 098d 49000000 		.4byte	0x49
 1701 0991 02       		.byte	0x2
 1702 0992 00       		.byte	0
 1703 0993 20       		.uleb128 0x20
 1704 0994 DE040000 		.4byte	.LASF123
 1705 0998 06       		.byte	0x6
 1706 0999 2E03     		.2byte	0x32e
 1707 099b D5040000 		.4byte	0x4d5
 1708 099f 01       		.byte	0x1
 1709 09a0 01       		.byte	0x1
 1710 09a1 20       		.uleb128 0x20
 1711 09a2 5C050000 		.4byte	.LASF124
 1712 09a6 06       		.byte	0x6
 1713 09a7 2F03     		.2byte	0x32f
 1714 09a9 DB040000 		.4byte	0x4db
 1715 09ad 01       		.byte	0x1
 1716 09ae 01       		.byte	0x1
 1717 09af 03       		.uleb128 0x3
 1718 09b0 04       		.byte	0x4
 1719 09b1 04       		.byte	0x4
 1720 09b2 30030000 		.4byte	.LASF125
 1721 09b6 03       		.uleb128 0x3
 1722 09b7 08       		.byte	0x8
 1723 09b8 04       		.byte	0x4
 1724 09b9 60010000 		.4byte	.LASF126
 1725 09bd 21       		.uleb128 0x21
 1726 09be 4B050000 		.4byte	.LASF144
 1727 09c2 05       		.byte	0x5
 1728 09c3 01       		.byte	0x1
 1729 09c4 57000000 		.4byte	0x57
 1730 09c8 07       		.byte	0x7
 1731 09c9 8202     		.2byte	0x282
 1732 09cb E8090000 		.4byte	0x9e8
 1733 09cf 22       		.uleb128 0x22
 1734 09d0 6F050000 		.4byte	.LASF127
 1735 09d4 7F       		.sleb128 -1
 1736 09d5 07       		.uleb128 0x7
 1737 09d6 3A010000 		.4byte	.LASF128
 1738 09da 00       		.byte	0
 1739 09db 07       		.uleb128 0x7
 1740 09dc 9E000000 		.4byte	.LASF129
 1741 09e0 01       		.byte	0x1
 1742 09e1 07       		.uleb128 0x7
 1743 09e2 7B000000 		.4byte	.LASF130
 1744 09e6 02       		.byte	0x2
 1745 09e7 00       		.byte	0
 1746 09e8 20       		.uleb128 0x20
 1747 09e9 1E040000 		.4byte	.LASF131
 1748 09ed 07       		.byte	0x7
 1749 09ee 8D02     		.2byte	0x28d
 1750 09f0 BD090000 		.4byte	0x9bd
 1751 09f4 01       		.byte	0x1
ARM GAS  C:\Users\embedded\AppData\Local\Temp\ccWE0Kve.s 			page 35


 1752 09f5 01       		.byte	0x1
 1753 09f6 23       		.uleb128 0x23
 1754 09f7 01       		.byte	0x1
 1755 09f8 16060000 		.4byte	.LASF145
 1756 09fc 01       		.byte	0x1
 1757 09fd 38       		.byte	0x38
 1758 09fe 01       		.byte	0x1
 1759 09ff 65000000 		.4byte	0x65
 1760 0a03 00000000 		.4byte	.LFB3
 1761 0a07 98020000 		.4byte	.LFE3
 1762 0a0b 00000000 		.4byte	.LLST0
 1763 0a0f 01       		.byte	0x1
 1764 0a10 B60A0000 		.4byte	0xab6
 1765 0a14 24       		.uleb128 0x24
 1766 0a15 48010000 		.4byte	.LASF132
 1767 0a19 01       		.byte	0x1
 1768 0a1a 3A       		.byte	0x3a
 1769 0a1b 25000000 		.4byte	0x25
 1770 0a1f 02       		.byte	0x2
 1771 0a20 91       		.byte	0x91
 1772 0a21 6F       		.sleb128 -17
 1773 0a22 25       		.uleb128 0x25
 1774 0a23 2A000000 		.4byte	.LBB2
 1775 0a27 60020000 		.4byte	.LBE2
 1776 0a2b 24       		.uleb128 0x24
 1777 0a2c A6050000 		.4byte	.LASF133
 1778 0a30 01       		.byte	0x1
 1779 0a31 52       		.byte	0x52
 1780 0a32 25000000 		.4byte	0x25
 1781 0a36 02       		.byte	0x2
 1782 0a37 91       		.byte	0x91
 1783 0a38 6E       		.sleb128 -18
 1784 0a39 24       		.uleb128 0x24
 1785 0a3a 55000000 		.4byte	.LASF134
 1786 0a3e 01       		.byte	0x1
 1787 0a3f 53       		.byte	0x53
 1788 0a40 25000000 		.4byte	0x25
 1789 0a44 02       		.byte	0x2
 1790 0a45 91       		.byte	0x91
 1791 0a46 6D       		.sleb128 -19
 1792 0a47 24       		.uleb128 0x24
 1793 0a48 BC020000 		.4byte	.LASF135
 1794 0a4c 01       		.byte	0x1
 1795 0a4d 54       		.byte	0x54
 1796 0a4e B60A0000 		.4byte	0xab6
 1797 0a52 02       		.byte	0x2
 1798 0a53 91       		.byte	0x91
 1799 0a54 5C       		.sleb128 -36
 1800 0a55 24       		.uleb128 0x24
 1801 0a56 AF020000 		.4byte	.LASF136
 1802 0a5a 01       		.byte	0x1
 1803 0a5b 55       		.byte	0x55
 1804 0a5c B60A0000 		.4byte	0xab6
 1805 0a60 02       		.byte	0x2
 1806 0a61 91       		.byte	0x91
 1807 0a62 58       		.sleb128 -40
 1808 0a63 24       		.uleb128 0x24
ARM GAS  C:\Users\embedded\AppData\Local\Temp\ccWE0Kve.s 			page 36


 1809 0a64 25000000 		.4byte	.LASF137
 1810 0a68 01       		.byte	0x1
 1811 0a69 56       		.byte	0x56
 1812 0a6a C60A0000 		.4byte	0xac6
 1813 0a6e 02       		.byte	0x2
 1814 0a6f 91       		.byte	0x91
 1815 0a70 4C       		.sleb128 -52
 1816 0a71 24       		.uleb128 0x24
 1817 0a72 66040000 		.4byte	.LASF138
 1818 0a76 01       		.byte	0x1
 1819 0a77 57       		.byte	0x57
 1820 0a78 37000000 		.4byte	0x37
 1821 0a7c 02       		.byte	0x2
 1822 0a7d 91       		.byte	0x91
 1823 0a7e 6A       		.sleb128 -22
 1824 0a7f 24       		.uleb128 0x24
 1825 0a80 D7030000 		.4byte	.LASF139
 1826 0a84 01       		.byte	0x1
 1827 0a85 58       		.byte	0x58
 1828 0a86 37000000 		.4byte	0x37
 1829 0a8a 02       		.byte	0x2
 1830 0a8b 91       		.byte	0x91
 1831 0a8c 5E       		.sleb128 -34
 1832 0a8d 24       		.uleb128 0x24
 1833 0a8e 5E020000 		.4byte	.LASF140
 1834 0a92 01       		.byte	0x1
 1835 0a93 59       		.byte	0x59
 1836 0a94 6C000000 		.4byte	0x6c
 1837 0a98 02       		.byte	0x2
 1838 0a99 91       		.byte	0x91
 1839 0a9a 60       		.sleb128 -32
 1840 0a9b 25       		.uleb128 0x25
 1841 0a9c E6000000 		.4byte	.LBB3
 1842 0aa0 58020000 		.4byte	.LBE3
 1843 0aa4 26       		.uleb128 0x26
 1844 0aa5 01       		.byte	0x1
 1845 0aa6 D8020000 		.4byte	.LASF146
 1846 0aaa 01       		.byte	0x1
 1847 0aab 73       		.byte	0x73
 1848 0aac 65000000 		.4byte	0x65
 1849 0ab0 01       		.byte	0x1
 1850 0ab1 27       		.uleb128 0x27
 1851 0ab2 00       		.byte	0
 1852 0ab3 00       		.byte	0
 1853 0ab4 00       		.byte	0
 1854 0ab5 00       		.byte	0
 1855 0ab6 0D       		.uleb128 0xd
 1856 0ab7 25000000 		.4byte	0x25
 1857 0abb C60A0000 		.4byte	0xac6
 1858 0abf 0E       		.uleb128 0xe
 1859 0ac0 49000000 		.4byte	0x49
 1860 0ac4 01       		.byte	0x1
 1861 0ac5 00       		.byte	0
 1862 0ac6 28       		.uleb128 0x28
 1863 0ac7 25000000 		.4byte	0x25
 1864 0acb 0E       		.uleb128 0xe
 1865 0acc 49000000 		.4byte	0x49
ARM GAS  C:\Users\embedded\AppData\Local\Temp\ccWE0Kve.s 			page 37


 1866 0ad0 09       		.byte	0x9
 1867 0ad1 00       		.byte	0
 1868 0ad2 00       		.byte	0
 1869              		.section	.debug_abbrev,"",%progbits
 1870              	.Ldebug_abbrev0:
 1871 0000 01       		.uleb128 0x1
 1872 0001 11       		.uleb128 0x11
 1873 0002 01       		.byte	0x1
 1874 0003 25       		.uleb128 0x25
 1875 0004 0E       		.uleb128 0xe
 1876 0005 13       		.uleb128 0x13
 1877 0006 0B       		.uleb128 0xb
 1878 0007 03       		.uleb128 0x3
 1879 0008 0E       		.uleb128 0xe
 1880 0009 1B       		.uleb128 0x1b
 1881 000a 0E       		.uleb128 0xe
 1882 000b 11       		.uleb128 0x11
 1883 000c 01       		.uleb128 0x1
 1884 000d 12       		.uleb128 0x12
 1885 000e 01       		.uleb128 0x1
 1886 000f 10       		.uleb128 0x10
 1887 0010 06       		.uleb128 0x6
 1888 0011 00       		.byte	0
 1889 0012 00       		.byte	0
 1890 0013 02       		.uleb128 0x2
 1891 0014 16       		.uleb128 0x16
 1892 0015 00       		.byte	0
 1893 0016 03       		.uleb128 0x3
 1894 0017 08       		.uleb128 0x8
 1895 0018 3A       		.uleb128 0x3a
 1896 0019 0B       		.uleb128 0xb
 1897 001a 3B       		.uleb128 0x3b
 1898 001b 0B       		.uleb128 0xb
 1899 001c 49       		.uleb128 0x49
 1900 001d 13       		.uleb128 0x13
 1901 001e 00       		.byte	0
 1902 001f 00       		.byte	0
 1903 0020 03       		.uleb128 0x3
 1904 0021 24       		.uleb128 0x24
 1905 0022 00       		.byte	0
 1906 0023 0B       		.uleb128 0xb
 1907 0024 0B       		.uleb128 0xb
 1908 0025 3E       		.uleb128 0x3e
 1909 0026 0B       		.uleb128 0xb
 1910 0027 03       		.uleb128 0x3
 1911 0028 0E       		.uleb128 0xe
 1912 0029 00       		.byte	0
 1913 002a 00       		.byte	0
 1914 002b 04       		.uleb128 0x4
 1915 002c 16       		.uleb128 0x16
 1916 002d 00       		.byte	0
 1917 002e 03       		.uleb128 0x3
 1918 002f 0E       		.uleb128 0xe
 1919 0030 3A       		.uleb128 0x3a
 1920 0031 0B       		.uleb128 0xb
 1921 0032 3B       		.uleb128 0x3b
 1922 0033 0B       		.uleb128 0xb
ARM GAS  C:\Users\embedded\AppData\Local\Temp\ccWE0Kve.s 			page 38


 1923 0034 49       		.uleb128 0x49
 1924 0035 13       		.uleb128 0x13
 1925 0036 00       		.byte	0
 1926 0037 00       		.byte	0
 1927 0038 05       		.uleb128 0x5
 1928 0039 24       		.uleb128 0x24
 1929 003a 00       		.byte	0
 1930 003b 0B       		.uleb128 0xb
 1931 003c 0B       		.uleb128 0xb
 1932 003d 3E       		.uleb128 0x3e
 1933 003e 0B       		.uleb128 0xb
 1934 003f 03       		.uleb128 0x3
 1935 0040 08       		.uleb128 0x8
 1936 0041 00       		.byte	0
 1937 0042 00       		.byte	0
 1938 0043 06       		.uleb128 0x6
 1939 0044 04       		.uleb128 0x4
 1940 0045 01       		.byte	0x1
 1941 0046 3E       		.uleb128 0x3e
 1942 0047 0B       		.uleb128 0xb
 1943 0048 0B       		.uleb128 0xb
 1944 0049 0B       		.uleb128 0xb
 1945 004a 49       		.uleb128 0x49
 1946 004b 13       		.uleb128 0x13
 1947 004c 3A       		.uleb128 0x3a
 1948 004d 0B       		.uleb128 0xb
 1949 004e 3B       		.uleb128 0x3b
 1950 004f 0B       		.uleb128 0xb
 1951 0050 01       		.uleb128 0x1
 1952 0051 13       		.uleb128 0x13
 1953 0052 00       		.byte	0
 1954 0053 00       		.byte	0
 1955 0054 07       		.uleb128 0x7
 1956 0055 28       		.uleb128 0x28
 1957 0056 00       		.byte	0
 1958 0057 03       		.uleb128 0x3
 1959 0058 0E       		.uleb128 0xe
 1960 0059 1C       		.uleb128 0x1c
 1961 005a 0B       		.uleb128 0xb
 1962 005b 00       		.byte	0
 1963 005c 00       		.byte	0
 1964 005d 08       		.uleb128 0x8
 1965 005e 0F       		.uleb128 0xf
 1966 005f 00       		.byte	0
 1967 0060 0B       		.uleb128 0xb
 1968 0061 0B       		.uleb128 0xb
 1969 0062 49       		.uleb128 0x49
 1970 0063 13       		.uleb128 0x13
 1971 0064 00       		.byte	0
 1972 0065 00       		.byte	0
 1973 0066 09       		.uleb128 0x9
 1974 0067 13       		.uleb128 0x13
 1975 0068 00       		.byte	0
 1976 0069 03       		.uleb128 0x3
 1977 006a 0E       		.uleb128 0xe
 1978 006b 3C       		.uleb128 0x3c
 1979 006c 0C       		.uleb128 0xc
ARM GAS  C:\Users\embedded\AppData\Local\Temp\ccWE0Kve.s 			page 39


 1980 006d 00       		.byte	0
 1981 006e 00       		.byte	0
 1982 006f 0A       		.uleb128 0xa
 1983 0070 16       		.uleb128 0x16
 1984 0071 00       		.byte	0
 1985 0072 03       		.uleb128 0x3
 1986 0073 0E       		.uleb128 0xe
 1987 0074 3A       		.uleb128 0x3a
 1988 0075 0B       		.uleb128 0xb
 1989 0076 3B       		.uleb128 0x3b
 1990 0077 05       		.uleb128 0x5
 1991 0078 49       		.uleb128 0x49
 1992 0079 13       		.uleb128 0x13
 1993 007a 00       		.byte	0
 1994 007b 00       		.byte	0
 1995 007c 0B       		.uleb128 0xb
 1996 007d 17       		.uleb128 0x17
 1997 007e 01       		.byte	0x1
 1998 007f 0B       		.uleb128 0xb
 1999 0080 0B       		.uleb128 0xb
 2000 0081 3A       		.uleb128 0x3a
 2001 0082 0B       		.uleb128 0xb
 2002 0083 3B       		.uleb128 0x3b
 2003 0084 0B       		.uleb128 0xb
 2004 0085 01       		.uleb128 0x1
 2005 0086 13       		.uleb128 0x13
 2006 0087 00       		.byte	0
 2007 0088 00       		.byte	0
 2008 0089 0C       		.uleb128 0xc
 2009 008a 0D       		.uleb128 0xd
 2010 008b 00       		.byte	0
 2011 008c 03       		.uleb128 0x3
 2012 008d 0E       		.uleb128 0xe
 2013 008e 3A       		.uleb128 0x3a
 2014 008f 0B       		.uleb128 0xb
 2015 0090 3B       		.uleb128 0x3b
 2016 0091 0B       		.uleb128 0xb
 2017 0092 49       		.uleb128 0x49
 2018 0093 13       		.uleb128 0x13
 2019 0094 00       		.byte	0
 2020 0095 00       		.byte	0
 2021 0096 0D       		.uleb128 0xd
 2022 0097 01       		.uleb128 0x1
 2023 0098 01       		.byte	0x1
 2024 0099 49       		.uleb128 0x49
 2025 009a 13       		.uleb128 0x13
 2026 009b 01       		.uleb128 0x1
 2027 009c 13       		.uleb128 0x13
 2028 009d 00       		.byte	0
 2029 009e 00       		.byte	0
 2030 009f 0E       		.uleb128 0xe
 2031 00a0 21       		.uleb128 0x21
 2032 00a1 00       		.byte	0
 2033 00a2 49       		.uleb128 0x49
 2034 00a3 13       		.uleb128 0x13
 2035 00a4 2F       		.uleb128 0x2f
 2036 00a5 0B       		.uleb128 0xb
ARM GAS  C:\Users\embedded\AppData\Local\Temp\ccWE0Kve.s 			page 40


 2037 00a6 00       		.byte	0
 2038 00a7 00       		.byte	0
 2039 00a8 0F       		.uleb128 0xf
 2040 00a9 13       		.uleb128 0x13
 2041 00aa 01       		.byte	0x1
 2042 00ab 0B       		.uleb128 0xb
 2043 00ac 0B       		.uleb128 0xb
 2044 00ad 3A       		.uleb128 0x3a
 2045 00ae 0B       		.uleb128 0xb
 2046 00af 3B       		.uleb128 0x3b
 2047 00b0 0B       		.uleb128 0xb
 2048 00b1 01       		.uleb128 0x1
 2049 00b2 13       		.uleb128 0x13
 2050 00b3 00       		.byte	0
 2051 00b4 00       		.byte	0
 2052 00b5 10       		.uleb128 0x10
 2053 00b6 0D       		.uleb128 0xd
 2054 00b7 00       		.byte	0
 2055 00b8 03       		.uleb128 0x3
 2056 00b9 0E       		.uleb128 0xe
 2057 00ba 3A       		.uleb128 0x3a
 2058 00bb 0B       		.uleb128 0xb
 2059 00bc 3B       		.uleb128 0x3b
 2060 00bd 0B       		.uleb128 0xb
 2061 00be 49       		.uleb128 0x49
 2062 00bf 13       		.uleb128 0x13
 2063 00c0 38       		.uleb128 0x38
 2064 00c1 0A       		.uleb128 0xa
 2065 00c2 00       		.byte	0
 2066 00c3 00       		.byte	0
 2067 00c4 11       		.uleb128 0x11
 2068 00c5 0F       		.uleb128 0xf
 2069 00c6 00       		.byte	0
 2070 00c7 0B       		.uleb128 0xb
 2071 00c8 0B       		.uleb128 0xb
 2072 00c9 00       		.byte	0
 2073 00ca 00       		.byte	0
 2074 00cb 12       		.uleb128 0x12
 2075 00cc 26       		.uleb128 0x26
 2076 00cd 00       		.byte	0
 2077 00ce 49       		.uleb128 0x49
 2078 00cf 13       		.uleb128 0x13
 2079 00d0 00       		.byte	0
 2080 00d1 00       		.byte	0
 2081 00d2 13       		.uleb128 0x13
 2082 00d3 13       		.uleb128 0x13
 2083 00d4 01       		.byte	0x1
 2084 00d5 03       		.uleb128 0x3
 2085 00d6 0E       		.uleb128 0xe
 2086 00d7 0B       		.uleb128 0xb
 2087 00d8 0B       		.uleb128 0xb
 2088 00d9 3A       		.uleb128 0x3a
 2089 00da 0B       		.uleb128 0xb
 2090 00db 3B       		.uleb128 0x3b
 2091 00dc 0B       		.uleb128 0xb
 2092 00dd 01       		.uleb128 0x1
 2093 00de 13       		.uleb128 0x13
ARM GAS  C:\Users\embedded\AppData\Local\Temp\ccWE0Kve.s 			page 41


 2094 00df 00       		.byte	0
 2095 00e0 00       		.byte	0
 2096 00e1 14       		.uleb128 0x14
 2097 00e2 0D       		.uleb128 0xd
 2098 00e3 00       		.byte	0
 2099 00e4 03       		.uleb128 0x3
 2100 00e5 08       		.uleb128 0x8
 2101 00e6 3A       		.uleb128 0x3a
 2102 00e7 0B       		.uleb128 0xb
 2103 00e8 3B       		.uleb128 0x3b
 2104 00e9 0B       		.uleb128 0xb
 2105 00ea 49       		.uleb128 0x49
 2106 00eb 13       		.uleb128 0x13
 2107 00ec 38       		.uleb128 0x38
 2108 00ed 0A       		.uleb128 0xa
 2109 00ee 00       		.byte	0
 2110 00ef 00       		.byte	0
 2111 00f0 15       		.uleb128 0x15
 2112 00f1 13       		.uleb128 0x13
 2113 00f2 01       		.byte	0x1
 2114 00f3 03       		.uleb128 0x3
 2115 00f4 0E       		.uleb128 0xe
 2116 00f5 0B       		.uleb128 0xb
 2117 00f6 05       		.uleb128 0x5
 2118 00f7 3A       		.uleb128 0x3a
 2119 00f8 0B       		.uleb128 0xb
 2120 00f9 3B       		.uleb128 0x3b
 2121 00fa 0B       		.uleb128 0xb
 2122 00fb 01       		.uleb128 0x1
 2123 00fc 13       		.uleb128 0x13
 2124 00fd 00       		.byte	0
 2125 00fe 00       		.byte	0
 2126 00ff 16       		.uleb128 0x16
 2127 0100 15       		.uleb128 0x15
 2128 0101 00       		.byte	0
 2129 0102 27       		.uleb128 0x27
 2130 0103 0C       		.uleb128 0xc
 2131 0104 00       		.byte	0
 2132 0105 00       		.byte	0
 2133 0106 17       		.uleb128 0x17
 2134 0107 15       		.uleb128 0x15
 2135 0108 01       		.byte	0x1
 2136 0109 27       		.uleb128 0x27
 2137 010a 0C       		.uleb128 0xc
 2138 010b 49       		.uleb128 0x49
 2139 010c 13       		.uleb128 0x13
 2140 010d 01       		.uleb128 0x1
 2141 010e 13       		.uleb128 0x13
 2142 010f 00       		.byte	0
 2143 0110 00       		.byte	0
 2144 0111 18       		.uleb128 0x18
 2145 0112 05       		.uleb128 0x5
 2146 0113 00       		.byte	0
 2147 0114 49       		.uleb128 0x49
 2148 0115 13       		.uleb128 0x13
 2149 0116 00       		.byte	0
 2150 0117 00       		.byte	0
ARM GAS  C:\Users\embedded\AppData\Local\Temp\ccWE0Kve.s 			page 42


 2151 0118 19       		.uleb128 0x19
 2152 0119 13       		.uleb128 0x13
 2153 011a 01       		.byte	0x1
 2154 011b 03       		.uleb128 0x3
 2155 011c 0E       		.uleb128 0xe
 2156 011d 0B       		.uleb128 0xb
 2157 011e 05       		.uleb128 0x5
 2158 011f 3A       		.uleb128 0x3a
 2159 0120 0B       		.uleb128 0xb
 2160 0121 3B       		.uleb128 0x3b
 2161 0122 05       		.uleb128 0x5
 2162 0123 01       		.uleb128 0x1
 2163 0124 13       		.uleb128 0x13
 2164 0125 00       		.byte	0
 2165 0126 00       		.byte	0
 2166 0127 1A       		.uleb128 0x1a
 2167 0128 0D       		.uleb128 0xd
 2168 0129 00       		.byte	0
 2169 012a 03       		.uleb128 0x3
 2170 012b 0E       		.uleb128 0xe
 2171 012c 3A       		.uleb128 0x3a
 2172 012d 0B       		.uleb128 0xb
 2173 012e 3B       		.uleb128 0x3b
 2174 012f 05       		.uleb128 0x5
 2175 0130 49       		.uleb128 0x49
 2176 0131 13       		.uleb128 0x13
 2177 0132 38       		.uleb128 0x38
 2178 0133 0A       		.uleb128 0xa
 2179 0134 00       		.byte	0
 2180 0135 00       		.byte	0
 2181 0136 1B       		.uleb128 0x1b
 2182 0137 13       		.uleb128 0x13
 2183 0138 01       		.byte	0x1
 2184 0139 03       		.uleb128 0x3
 2185 013a 0E       		.uleb128 0xe
 2186 013b 0B       		.uleb128 0xb
 2187 013c 0B       		.uleb128 0xb
 2188 013d 3A       		.uleb128 0x3a
 2189 013e 0B       		.uleb128 0xb
 2190 013f 3B       		.uleb128 0x3b
 2191 0140 05       		.uleb128 0x5
 2192 0141 01       		.uleb128 0x1
 2193 0142 13       		.uleb128 0x13
 2194 0143 00       		.byte	0
 2195 0144 00       		.byte	0
 2196 0145 1C       		.uleb128 0x1c
 2197 0146 13       		.uleb128 0x13
 2198 0147 01       		.byte	0x1
 2199 0148 0B       		.uleb128 0xb
 2200 0149 0B       		.uleb128 0xb
 2201 014a 3A       		.uleb128 0x3a
 2202 014b 0B       		.uleb128 0xb
 2203 014c 3B       		.uleb128 0x3b
 2204 014d 05       		.uleb128 0x5
 2205 014e 01       		.uleb128 0x1
 2206 014f 13       		.uleb128 0x13
 2207 0150 00       		.byte	0
ARM GAS  C:\Users\embedded\AppData\Local\Temp\ccWE0Kve.s 			page 43


 2208 0151 00       		.byte	0
 2209 0152 1D       		.uleb128 0x1d
 2210 0153 17       		.uleb128 0x17
 2211 0154 01       		.byte	0x1
 2212 0155 0B       		.uleb128 0xb
 2213 0156 0B       		.uleb128 0xb
 2214 0157 3A       		.uleb128 0x3a
 2215 0158 0B       		.uleb128 0xb
 2216 0159 3B       		.uleb128 0x3b
 2217 015a 05       		.uleb128 0x5
 2218 015b 01       		.uleb128 0x1
 2219 015c 13       		.uleb128 0x13
 2220 015d 00       		.byte	0
 2221 015e 00       		.byte	0
 2222 015f 1E       		.uleb128 0x1e
 2223 0160 0D       		.uleb128 0xd
 2224 0161 00       		.byte	0
 2225 0162 03       		.uleb128 0x3
 2226 0163 0E       		.uleb128 0xe
 2227 0164 3A       		.uleb128 0x3a
 2228 0165 0B       		.uleb128 0xb
 2229 0166 3B       		.uleb128 0x3b
 2230 0167 05       		.uleb128 0x5
 2231 0168 49       		.uleb128 0x49
 2232 0169 13       		.uleb128 0x13
 2233 016a 00       		.byte	0
 2234 016b 00       		.byte	0
 2235 016c 1F       		.uleb128 0x1f
 2236 016d 15       		.uleb128 0x15
 2237 016e 01       		.byte	0x1
 2238 016f 27       		.uleb128 0x27
 2239 0170 0C       		.uleb128 0xc
 2240 0171 01       		.uleb128 0x1
 2241 0172 13       		.uleb128 0x13
 2242 0173 00       		.byte	0
 2243 0174 00       		.byte	0
 2244 0175 20       		.uleb128 0x20
 2245 0176 34       		.uleb128 0x34
 2246 0177 00       		.byte	0
 2247 0178 03       		.uleb128 0x3
 2248 0179 0E       		.uleb128 0xe
 2249 017a 3A       		.uleb128 0x3a
 2250 017b 0B       		.uleb128 0xb
 2251 017c 3B       		.uleb128 0x3b
 2252 017d 05       		.uleb128 0x5
 2253 017e 49       		.uleb128 0x49
 2254 017f 13       		.uleb128 0x13
 2255 0180 3F       		.uleb128 0x3f
 2256 0181 0C       		.uleb128 0xc
 2257 0182 3C       		.uleb128 0x3c
 2258 0183 0C       		.uleb128 0xc
 2259 0184 00       		.byte	0
 2260 0185 00       		.byte	0
 2261 0186 21       		.uleb128 0x21
 2262 0187 04       		.uleb128 0x4
 2263 0188 01       		.byte	0x1
 2264 0189 03       		.uleb128 0x3
ARM GAS  C:\Users\embedded\AppData\Local\Temp\ccWE0Kve.s 			page 44


 2265 018a 0E       		.uleb128 0xe
 2266 018b 3E       		.uleb128 0x3e
 2267 018c 0B       		.uleb128 0xb
 2268 018d 0B       		.uleb128 0xb
 2269 018e 0B       		.uleb128 0xb
 2270 018f 49       		.uleb128 0x49
 2271 0190 13       		.uleb128 0x13
 2272 0191 3A       		.uleb128 0x3a
 2273 0192 0B       		.uleb128 0xb
 2274 0193 3B       		.uleb128 0x3b
 2275 0194 05       		.uleb128 0x5
 2276 0195 01       		.uleb128 0x1
 2277 0196 13       		.uleb128 0x13
 2278 0197 00       		.byte	0
 2279 0198 00       		.byte	0
 2280 0199 22       		.uleb128 0x22
 2281 019a 28       		.uleb128 0x28
 2282 019b 00       		.byte	0
 2283 019c 03       		.uleb128 0x3
 2284 019d 0E       		.uleb128 0xe
 2285 019e 1C       		.uleb128 0x1c
 2286 019f 0D       		.uleb128 0xd
 2287 01a0 00       		.byte	0
 2288 01a1 00       		.byte	0
 2289 01a2 23       		.uleb128 0x23
 2290 01a3 2E       		.uleb128 0x2e
 2291 01a4 01       		.byte	0x1
 2292 01a5 3F       		.uleb128 0x3f
 2293 01a6 0C       		.uleb128 0xc
 2294 01a7 03       		.uleb128 0x3
 2295 01a8 0E       		.uleb128 0xe
 2296 01a9 3A       		.uleb128 0x3a
 2297 01aa 0B       		.uleb128 0xb
 2298 01ab 3B       		.uleb128 0x3b
 2299 01ac 0B       		.uleb128 0xb
 2300 01ad 27       		.uleb128 0x27
 2301 01ae 0C       		.uleb128 0xc
 2302 01af 49       		.uleb128 0x49
 2303 01b0 13       		.uleb128 0x13
 2304 01b1 11       		.uleb128 0x11
 2305 01b2 01       		.uleb128 0x1
 2306 01b3 12       		.uleb128 0x12
 2307 01b4 01       		.uleb128 0x1
 2308 01b5 40       		.uleb128 0x40
 2309 01b6 06       		.uleb128 0x6
 2310 01b7 9642     		.uleb128 0x2116
 2311 01b9 0C       		.uleb128 0xc
 2312 01ba 01       		.uleb128 0x1
 2313 01bb 13       		.uleb128 0x13
 2314 01bc 00       		.byte	0
 2315 01bd 00       		.byte	0
 2316 01be 24       		.uleb128 0x24
 2317 01bf 34       		.uleb128 0x34
 2318 01c0 00       		.byte	0
 2319 01c1 03       		.uleb128 0x3
 2320 01c2 0E       		.uleb128 0xe
 2321 01c3 3A       		.uleb128 0x3a
ARM GAS  C:\Users\embedded\AppData\Local\Temp\ccWE0Kve.s 			page 45


 2322 01c4 0B       		.uleb128 0xb
 2323 01c5 3B       		.uleb128 0x3b
 2324 01c6 0B       		.uleb128 0xb
 2325 01c7 49       		.uleb128 0x49
 2326 01c8 13       		.uleb128 0x13
 2327 01c9 02       		.uleb128 0x2
 2328 01ca 0A       		.uleb128 0xa
 2329 01cb 00       		.byte	0
 2330 01cc 00       		.byte	0
 2331 01cd 25       		.uleb128 0x25
 2332 01ce 0B       		.uleb128 0xb
 2333 01cf 01       		.byte	0x1
 2334 01d0 11       		.uleb128 0x11
 2335 01d1 01       		.uleb128 0x1
 2336 01d2 12       		.uleb128 0x12
 2337 01d3 01       		.uleb128 0x1
 2338 01d4 00       		.byte	0
 2339 01d5 00       		.byte	0
 2340 01d6 26       		.uleb128 0x26
 2341 01d7 2E       		.uleb128 0x2e
 2342 01d8 01       		.byte	0x1
 2343 01d9 3F       		.uleb128 0x3f
 2344 01da 0C       		.uleb128 0xc
 2345 01db 03       		.uleb128 0x3
 2346 01dc 0E       		.uleb128 0xe
 2347 01dd 3A       		.uleb128 0x3a
 2348 01de 0B       		.uleb128 0xb
 2349 01df 3B       		.uleb128 0x3b
 2350 01e0 0B       		.uleb128 0xb
 2351 01e1 49       		.uleb128 0x49
 2352 01e2 13       		.uleb128 0x13
 2353 01e3 3C       		.uleb128 0x3c
 2354 01e4 0C       		.uleb128 0xc
 2355 01e5 00       		.byte	0
 2356 01e6 00       		.byte	0
 2357 01e7 27       		.uleb128 0x27
 2358 01e8 18       		.uleb128 0x18
 2359 01e9 00       		.byte	0
 2360 01ea 00       		.byte	0
 2361 01eb 00       		.byte	0
 2362 01ec 28       		.uleb128 0x28
 2363 01ed 01       		.uleb128 0x1
 2364 01ee 01       		.byte	0x1
 2365 01ef 49       		.uleb128 0x49
 2366 01f0 13       		.uleb128 0x13
 2367 01f1 00       		.byte	0
 2368 01f2 00       		.byte	0
 2369 01f3 00       		.byte	0
 2370              		.section	.debug_loc,"",%progbits
 2371              	.Ldebug_loc0:
 2372              	.LLST0:
 2373 0000 00000000 		.4byte	.LFB3-.Ltext0
 2374 0004 02000000 		.4byte	.LCFI0-.Ltext0
 2375 0008 0200     		.2byte	0x2
 2376 000a 7D       		.byte	0x7d
 2377 000b 00       		.sleb128 0
 2378 000c 02000000 		.4byte	.LCFI0-.Ltext0
ARM GAS  C:\Users\embedded\AppData\Local\Temp\ccWE0Kve.s 			page 46


 2379 0010 04000000 		.4byte	.LCFI1-.Ltext0
 2380 0014 0200     		.2byte	0x2
 2381 0016 7D       		.byte	0x7d
 2382 0017 10       		.sleb128 16
 2383 0018 04000000 		.4byte	.LCFI1-.Ltext0
 2384 001c 06000000 		.4byte	.LCFI2-.Ltext0
 2385 0020 0200     		.2byte	0x2
 2386 0022 7D       		.byte	0x7d
 2387 0023 38       		.sleb128 56
 2388 0024 06000000 		.4byte	.LCFI2-.Ltext0
 2389 0028 98020000 		.4byte	.LFE3-.Ltext0
 2390 002c 0200     		.2byte	0x2
 2391 002e 77       		.byte	0x77
 2392 002f 38       		.sleb128 56
 2393 0030 00000000 		.4byte	0
 2394 0034 00000000 		.4byte	0
 2395              		.section	.debug_aranges,"",%progbits
 2396 0000 1C000000 		.4byte	0x1c
 2397 0004 0200     		.2byte	0x2
 2398 0006 00000000 		.4byte	.Ldebug_info0
 2399 000a 04       		.byte	0x4
 2400 000b 00       		.byte	0
 2401 000c 0000     		.2byte	0
 2402 000e 0000     		.2byte	0
 2403 0010 00000000 		.4byte	.Ltext0
 2404 0014 98020000 		.4byte	.Letext0-.Ltext0
 2405 0018 00000000 		.4byte	0
 2406 001c 00000000 		.4byte	0
 2407              		.section	.debug_line,"",%progbits
 2408              	.Ldebug_line0:
 2409 0000 5A010000 		.section	.debug_str,"MS",%progbits,1
 2409      0200EB00 
 2409      00000201 
 2409      FB0E0D00 
 2409      01010101 
 2410              	.LASF43:
 2411 0000 5F64736F 		.ascii	"_dso_handle\000"
 2411      5F68616E 
 2411      646C6500 
 2412              	.LASF51:
 2413 000c 5F73697A 		.ascii	"_size\000"
 2413      6500
 2414              	.LASF95:
 2415 0012 5F72616E 		.ascii	"_rand48\000"
 2415      64343800 
 2416              	.LASF75:
 2417 001a 5F656D65 		.ascii	"_emergency\000"
 2417      7267656E 
 2417      637900
 2418              	.LASF137:
 2419 0025 63686172 		.ascii	"charArray\000"
 2419      41727261 
 2419      7900
 2420              	.LASF65:
 2421 002f 5F646174 		.ascii	"_data\000"
 2421      6100
 2422              	.LASF115:
ARM GAS  C:\Users\embedded\AppData\Local\Temp\ccWE0Kve.s 			page 47


 2423 0035 5F776372 		.ascii	"_wcrtomb_state\000"
 2423      746F6D62 
 2423      5F737461 
 2423      746500
 2424              	.LASF116:
 2425 0044 5F776373 		.ascii	"_wcsrtombs_state\000"
 2425      72746F6D 
 2425      62735F73 
 2425      74617465 
 2425      00
 2426              	.LASF134:
 2427 0055 68747532 		.ascii	"htu21dfaddress\000"
 2427      31646661 
 2427      64647265 
 2427      737300
 2428              	.LASF4:
 2429 0064 6C6F6E67 		.ascii	"long long unsigned int\000"
 2429      206C6F6E 
 2429      6720756E 
 2429      7369676E 
 2429      65642069 
 2430              	.LASF130:
 2431 007b 5F5F6664 		.ascii	"__fdlibm_posix\000"
 2431      6C69626D 
 2431      5F706F73 
 2431      697800
 2432              	.LASF55:
 2433 008a 5F6C6266 		.ascii	"_lbfsize\000"
 2433      73697A65 
 2433      00
 2434              	.LASF122:
 2435 0093 5F5F6C6F 		.ascii	"__locale_t\000"
 2435      63616C65 
 2435      5F7400
 2436              	.LASF129:
 2437 009e 5F5F6664 		.ascii	"__fdlibm_xopen\000"
 2437      6C69626D 
 2437      5F786F70 
 2437      656E00
 2438              	.LASF113:
 2439 00ad 5F6D6272 		.ascii	"_mbrtowc_state\000"
 2439      746F7763 
 2439      5F737461 
 2439      746500
 2440              	.LASF32:
 2441 00bc 5F5F746D 		.ascii	"__tm_sec\000"
 2441      5F736563 
 2441      00
 2442              	.LASF8:
 2443 00c5 6C6F6E67 		.ascii	"long long int\000"
 2443      206C6F6E 
 2443      6720696E 
 2443      7400
 2444              	.LASF5:
 2445 00d3 7369676E 		.ascii	"signed char\000"
 2445      65642063 
 2445      68617200 
ARM GAS  C:\Users\embedded\AppData\Local\Temp\ccWE0Kve.s 			page 48


 2446              	.LASF61:
 2447 00df 5F756275 		.ascii	"_ubuf\000"
 2447      6600
 2448              	.LASF50:
 2449 00e5 5F626173 		.ascii	"_base\000"
 2449      6500
 2450              	.LASF34:
 2451 00eb 5F5F746D 		.ascii	"__tm_hour\000"
 2451      5F686F75 
 2451      7200
 2452              	.LASF90:
 2453 00f5 5F5F7366 		.ascii	"__sf\000"
 2453      00
 2454              	.LASF41:
 2455 00fa 5F6F6E5F 		.ascii	"_on_exit_args\000"
 2455      65786974 
 2455      5F617267 
 2455      7300
 2456              	.LASF56:
 2457 0108 5F636F6F 		.ascii	"_cookie\000"
 2457      6B696500 
 2458              	.LASF89:
 2459 0110 5F5F7367 		.ascii	"__sglue\000"
 2459      6C756500 
 2460              	.LASF0:
 2461 0118 74553136 		.ascii	"tU16\000"
 2461      00
 2462              	.LASF12:
 2463 011d 6C6F6E67 		.ascii	"long int\000"
 2463      20696E74 
 2463      00
 2464              	.LASF7:
 2465 0126 74533634 		.ascii	"tS64\000"
 2465      00
 2466              	.LASF45:
 2467 012b 5F69735F 		.ascii	"_is_cxa\000"
 2467      63786100 
 2468              	.LASF71:
 2469 0133 5F737464 		.ascii	"_stdin\000"
 2469      696E00
 2470              	.LASF128:
 2471 013a 5F5F6664 		.ascii	"__fdlibm_svid\000"
 2471      6C69626D 
 2471      5F737669 
 2471      6400
 2472              	.LASF132:
 2473 0148 70636139 		.ascii	"pca9532Present\000"
 2473      35333250 
 2473      72657365 
 2473      6E7400
 2474              	.LASF63:
 2475 0157 5F626C6B 		.ascii	"_blksize\000"
 2475      73697A65 
 2475      00
 2476              	.LASF126:
 2477 0160 646F7562 		.ascii	"double\000"
 2477      6C6500
ARM GAS  C:\Users\embedded\AppData\Local\Temp\ccWE0Kve.s 			page 49


 2478              	.LASF85:
 2479 0167 5F637674 		.ascii	"_cvtbuf\000"
 2479      62756600 
 2480              	.LASF64:
 2481 016f 5F6F6666 		.ascii	"_offset\000"
 2481      73657400 
 2482              	.LASF114:
 2483 0177 5F6D6273 		.ascii	"_mbsrtowcs_state\000"
 2483      72746F77 
 2483      63735F73 
 2483      74617465 
 2483      00
 2484              	.LASF112:
 2485 0188 5F6D6272 		.ascii	"_mbrlen_state\000"
 2485      6C656E5F 
 2485      73746174 
 2485      6500
 2486              	.LASF42:
 2487 0196 5F666E61 		.ascii	"_fnargs\000"
 2487      72677300 
 2488              	.LASF48:
 2489 019e 5F666E73 		.ascii	"_fns\000"
 2489      00
 2490              	.LASF28:
 2491 01a3 5F736967 		.ascii	"_sign\000"
 2491      6E00
 2492              	.LASF23:
 2493 01a9 5F666C6F 		.ascii	"_flock_t\000"
 2493      636B5F74 
 2493      00
 2494              	.LASF73:
 2495 01b2 5F737464 		.ascii	"_stderr\000"
 2495      65727200 
 2496              	.LASF30:
 2497 01ba 5F426967 		.ascii	"_Bigint\000"
 2497      696E7400 
 2498              	.LASF103:
 2499 01c2 5F67616D 		.ascii	"_gamma_signgam\000"
 2499      6D615F73 
 2499      69676E67 
 2499      616D00
 2500              	.LASF57:
 2501 01d1 5F726561 		.ascii	"_read\000"
 2501      6400
 2502              	.LASF81:
 2503 01d7 5F726573 		.ascii	"_result_k\000"
 2503      756C745F 
 2503      6B00
 2504              	.LASF31:
 2505 01e1 5F5F746D 		.ascii	"__tm\000"
 2505      00
 2506              	.LASF3:
 2507 01e6 756E7369 		.ascii	"unsigned int\000"
 2507      676E6564 
 2507      20696E74 
 2507      00
 2508              	.LASF19:
ARM GAS  C:\Users\embedded\AppData\Local\Temp\ccWE0Kve.s 			page 50


 2509 01f3 5F5F7763 		.ascii	"__wchb\000"
 2509      686200
 2510              	.LASF72:
 2511 01fa 5F737464 		.ascii	"_stdout\000"
 2511      6F757400 
 2512              	.LASF84:
 2513 0202 5F637674 		.ascii	"_cvtlen\000"
 2513      6C656E00 
 2514              	.LASF13:
 2515 020a 6C6F6E67 		.ascii	"long unsigned int\000"
 2515      20756E73 
 2515      69676E65 
 2515      6420696E 
 2515      7400
 2516              	.LASF54:
 2517 021c 5F66696C 		.ascii	"_file\000"
 2517      6500
 2518              	.LASF93:
 2519 0222 5F6E696F 		.ascii	"_niobs\000"
 2519      627300
 2520              	.LASF2:
 2521 0229 73686F72 		.ascii	"short unsigned int\000"
 2521      7420756E 
 2521      7369676E 
 2521      65642069 
 2521      6E7400
 2522              	.LASF87:
 2523 023c 5F617465 		.ascii	"_atexit0\000"
 2523      78697430 
 2523      00
 2524              	.LASF110:
 2525 0245 5F736967 		.ascii	"_signal_buf\000"
 2525      6E616C5F 
 2525      62756600 
 2526              	.LASF101:
 2527 0251 5F617363 		.ascii	"_asctime_buf\000"
 2527      74696D65 
 2527      5F627566 
 2527      00
 2528              	.LASF140:
 2529 025e 70726573 		.ascii	"pressureValue\000"
 2529      73757265 
 2529      56616C75 
 2529      6500
 2530              	.LASF80:
 2531 026c 5F726573 		.ascii	"_result\000"
 2531      756C7400 
 2532              	.LASF18:
 2533 0274 5F5F7763 		.ascii	"__wch\000"
 2533      6800
 2534              	.LASF14:
 2535 027a 5F4C4F43 		.ascii	"_LOCK_T\000"
 2535      4B5F5400 
 2536              	.LASF142:
 2537 0282 6D61696E 		.ascii	"main.c\000"
 2537      2E6300
 2538              	.LASF17:
ARM GAS  C:\Users\embedded\AppData\Local\Temp\ccWE0Kve.s 			page 51


 2539 0289 77696E74 		.ascii	"wint_t\000"
 2539      5F7400
 2540              	.LASF66:
 2541 0290 5F6C6F63 		.ascii	"_lock\000"
 2541      6B00
 2542              	.LASF68:
 2543 0296 5F666C61 		.ascii	"_flags2\000"
 2543      67733200 
 2544              	.LASF58:
 2545 029e 5F777269 		.ascii	"_write\000"
 2545      746500
 2546              	.LASF37:
 2547 02a5 5F5F746D 		.ascii	"__tm_year\000"
 2547      5F796561 
 2547      7200
 2548              	.LASF136:
 2549 02af 72656164 		.ascii	"readHumidity\000"
 2549      48756D69 
 2549      64697479 
 2549      00
 2550              	.LASF135:
 2551 02bc 72656164 		.ascii	"readTemperature\000"
 2551      54656D70 
 2551      65726174 
 2551      75726500 
 2552              	.LASF11:
 2553 02cc 6C6F6E67 		.ascii	"long double\000"
 2553      20646F75 
 2553      626C6500 
 2554              	.LASF146:
 2555 02d8 6D656173 		.ascii	"measureHumidity\000"
 2555      75726548 
 2555      756D6964 
 2555      69747900 
 2556              	.LASF118:
 2557 02e8 5F6E6578 		.ascii	"_nextf\000"
 2557      746600
 2558              	.LASF36:
 2559 02ef 5F5F746D 		.ascii	"__tm_mon\000"
 2559      5F6D6F6E 
 2559      00
 2560              	.LASF46:
 2561 02f8 5F617465 		.ascii	"_atexit\000"
 2561      78697400 
 2562              	.LASF78:
 2563 0300 5F5F7364 		.ascii	"__sdidinit\000"
 2563      6964696E 
 2563      697400
 2564              	.LASF15:
 2565 030b 5F6F6666 		.ascii	"_off_t\000"
 2565      5F7400
 2566              	.LASF143:
 2567 0312 433A5C45 		.ascii	"C:\\Embedded\\2138MiniDemo\\2138\000"
 2567      6D626564 
 2567      6465645C 
 2567      32313338 
 2567      4D696E69 
ARM GAS  C:\Users\embedded\AppData\Local\Temp\ccWE0Kve.s 			page 52


 2568              	.LASF125:
 2569 0330 666C6F61 		.ascii	"float\000"
 2569      7400
 2570              	.LASF9:
 2571 0336 46414C53 		.ascii	"FALSE\000"
 2571      4500
 2572              	.LASF141:
 2573 033c 474E5520 		.ascii	"GNU C11 7.3.1 20180622 (release) [ARM/embedded-7-br"
 2573      43313120 
 2573      372E332E 
 2573      31203230 
 2573      31383036 
 2574 036f 616E6368 		.ascii	"anch revision 261907] -mcpu=arm7tdmi -mthumb -mthum"
 2574      20726576 
 2574      6973696F 
 2574      6E203236 
 2574      31393037 
 2575 03a2 622D696E 		.ascii	"b-interwork -gdwarf-2 -O0\000"
 2575      74657277 
 2575      6F726B20 
 2575      2D676477 
 2575      6172662D 
 2576              	.LASF108:
 2577 03bc 5F776374 		.ascii	"_wctomb_state\000"
 2577      6F6D625F 
 2577      73746174 
 2577      6500
 2578              	.LASF106:
 2579 03ca 5F6D626C 		.ascii	"_mblen_state\000"
 2579      656E5F73 
 2579      74617465 
 2579      00
 2580              	.LASF139:
 2581 03d7 62726967 		.ascii	"brightnessValue\000"
 2581      68746E65 
 2581      73735661 
 2581      6C756500 
 2582              	.LASF1:
 2583 03e7 756E7369 		.ascii	"unsigned char\000"
 2583      676E6564 
 2583      20636861 
 2583      7200
 2584              	.LASF86:
 2585 03f5 5F6E6577 		.ascii	"_new\000"
 2585      00
 2586              	.LASF117:
 2587 03fa 5F685F65 		.ascii	"_h_errno\000"
 2587      72726E6F 
 2587      00
 2588              	.LASF6:
 2589 0403 73686F72 		.ascii	"short int\000"
 2589      7420696E 
 2589      7400
 2590              	.LASF39:
 2591 040d 5F5F746D 		.ascii	"__tm_yday\000"
 2591      5F796461 
 2591      7900
ARM GAS  C:\Users\embedded\AppData\Local\Temp\ccWE0Kve.s 			page 53


 2592              	.LASF49:
 2593 0417 5F5F7362 		.ascii	"__sbuf\000"
 2593      756600
 2594              	.LASF131:
 2595 041e 5F5F6664 		.ascii	"__fdlib_version\000"
 2595      6C69625F 
 2595      76657273 
 2595      696F6E00 
 2596              	.LASF83:
 2597 042e 5F667265 		.ascii	"_freelist\000"
 2597      656C6973 
 2597      7400
 2598              	.LASF91:
 2599 0438 5F5F4649 		.ascii	"__FILE\000"
 2599      4C4500
 2600              	.LASF22:
 2601 043f 5F6D6273 		.ascii	"_mbstate_t\000"
 2601      74617465 
 2601      5F7400
 2602              	.LASF52:
 2603 044a 5F5F7346 		.ascii	"__sFILE\000"
 2603      494C4500 
 2604              	.LASF67:
 2605 0452 5F6D6273 		.ascii	"_mbstate\000"
 2605      74617465 
 2605      00
 2606              	.LASF104:
 2607 045b 5F72616E 		.ascii	"_rand_next\000"
 2607      645F6E65 
 2607      787400
 2608              	.LASF138:
 2609 0466 68756D69 		.ascii	"humidityValue\000"
 2609      64697479 
 2609      56616C75 
 2609      6500
 2610              	.LASF94:
 2611 0474 5F696F62 		.ascii	"_iobs\000"
 2611      7300
 2612              	.LASF74:
 2613 047a 5F696E63 		.ascii	"_inc\000"
 2613      00
 2614              	.LASF47:
 2615 047f 5F696E64 		.ascii	"_ind\000"
 2615      00
 2616              	.LASF77:
 2617 0484 5F6C6F63 		.ascii	"_locale\000"
 2617      616C6500 
 2618              	.LASF79:
 2619 048c 5F5F636C 		.ascii	"__cleanup\000"
 2619      65616E75 
 2619      7000
 2620              	.LASF76:
 2621 0496 5F756E73 		.ascii	"_unspecified_locale_info\000"
 2621      70656369 
 2621      66696564 
 2621      5F6C6F63 
 2621      616C655F 
ARM GAS  C:\Users\embedded\AppData\Local\Temp\ccWE0Kve.s 			page 54


 2622              	.LASF10:
 2623 04af 54525545 		.ascii	"TRUE\000"
 2623      00
 2624              	.LASF69:
 2625 04b4 5F726565 		.ascii	"_reent\000"
 2625      6E7400
 2626              	.LASF96:
 2627 04bb 5F736565 		.ascii	"_seed\000"
 2627      6400
 2628              	.LASF20:
 2629 04c1 5F5F636F 		.ascii	"__count\000"
 2629      756E7400 
 2630              	.LASF121:
 2631 04c9 5F5F6C6F 		.ascii	"__lock\000"
 2631      636B00
 2632              	.LASF21:
 2633 04d0 5F5F7661 		.ascii	"__value\000"
 2633      6C756500 
 2634              	.LASF59:
 2635 04d8 5F736565 		.ascii	"_seek\000"
 2635      6B00
 2636              	.LASF123:
 2637 04de 5F696D70 		.ascii	"_impure_ptr\000"
 2637      7572655F 
 2637      70747200 
 2638              	.LASF16:
 2639 04ea 5F66706F 		.ascii	"_fpos_t\000"
 2639      735F7400 
 2640              	.LASF70:
 2641 04f2 5F657272 		.ascii	"_errno\000"
 2641      6E6F00
 2642              	.LASF24:
 2643 04f9 63686172 		.ascii	"char\000"
 2643      00
 2644              	.LASF33:
 2645 04fe 5F5F746D 		.ascii	"__tm_min\000"
 2645      5F6D696E 
 2645      00
 2646              	.LASF97:
 2647 0507 5F6D756C 		.ascii	"_mult\000"
 2647      7400
 2648              	.LASF26:
 2649 050d 5F6E6578 		.ascii	"_next\000"
 2649      7400
 2650              	.LASF100:
 2651 0513 5F737472 		.ascii	"_strtok_last\000"
 2651      746F6B5F 
 2651      6C617374 
 2651      00
 2652              	.LASF44:
 2653 0520 5F666E74 		.ascii	"_fntypes\000"
 2653      79706573 
 2653      00
 2654              	.LASF27:
 2655 0529 5F6D6178 		.ascii	"_maxwds\000"
 2655      77647300 
 2656              	.LASF98:
ARM GAS  C:\Users\embedded\AppData\Local\Temp\ccWE0Kve.s 			page 55


 2657 0531 5F616464 		.ascii	"_add\000"
 2657      00
 2658              	.LASF25:
 2659 0536 5F5F554C 		.ascii	"__ULong\000"
 2659      6F6E6700 
 2660              	.LASF111:
 2661 053e 5F676574 		.ascii	"_getdate_err\000"
 2661      64617465 
 2661      5F657272 
 2661      00
 2662              	.LASF144:
 2663 054b 5F5F6664 		.ascii	"__fdlibm_version\000"
 2663      6C69626D 
 2663      5F766572 
 2663      73696F6E 
 2663      00
 2664              	.LASF124:
 2665 055c 5F676C6F 		.ascii	"_global_impure_ptr\000"
 2665      62616C5F 
 2665      696D7075 
 2665      72655F70 
 2665      747200
 2666              	.LASF127:
 2667 056f 5F5F6664 		.ascii	"__fdlibm_ieee\000"
 2667      6C69626D 
 2667      5F696565 
 2667      6500
 2668              	.LASF99:
 2669 057d 5F756E75 		.ascii	"_unused_rand\000"
 2669      7365645F 
 2669      72616E64 
 2669      00
 2670              	.LASF29:
 2671 058a 5F776473 		.ascii	"_wds\000"
 2671      00
 2672              	.LASF38:
 2673 058f 5F5F746D 		.ascii	"__tm_wday\000"
 2673      5F776461 
 2673      7900
 2674              	.LASF92:
 2675 0599 5F676C75 		.ascii	"_glue\000"
 2675      6500
 2676              	.LASF53:
 2677 059f 5F666C61 		.ascii	"_flags\000"
 2677      677300
 2678              	.LASF133:
 2679 05a6 6C6D3735 		.ascii	"lm75Address\000"
 2679      41646472 
 2679      65737300 
 2680              	.LASF119:
 2681 05b2 5F6E6D61 		.ascii	"_nmalloc\000"
 2681      6C6C6F63 
 2681      00
 2682              	.LASF109:
 2683 05bb 5F6C3634 		.ascii	"_l64a_buf\000"
 2683      615F6275 
 2683      6600
ARM GAS  C:\Users\embedded\AppData\Local\Temp\ccWE0Kve.s 			page 56


 2684              	.LASF88:
 2685 05c5 5F736967 		.ascii	"_sig_func\000"
 2685      5F66756E 
 2685      6300
 2686              	.LASF62:
 2687 05cf 5F6E6275 		.ascii	"_nbuf\000"
 2687      6600
 2688              	.LASF120:
 2689 05d5 5F756E75 		.ascii	"_unused\000"
 2689      73656400 
 2690              	.LASF40:
 2691 05dd 5F5F746D 		.ascii	"__tm_isdst\000"
 2691      5F697364 
 2691      737400
 2692              	.LASF102:
 2693 05e8 5F6C6F63 		.ascii	"_localtime_buf\000"
 2693      616C7469 
 2693      6D655F62 
 2693      756600
 2694              	.LASF60:
 2695 05f7 5F636C6F 		.ascii	"_close\000"
 2695      736500
 2696              	.LASF105:
 2697 05fe 5F723438 		.ascii	"_r48\000"
 2697      00
 2698              	.LASF107:
 2699 0603 5F6D6274 		.ascii	"_mbtowc_state\000"
 2699      6F77635F 
 2699      73746174 
 2699      6500
 2700              	.LASF82:
 2701 0611 5F703573 		.ascii	"_p5s\000"
 2701      00
 2702              	.LASF145:
 2703 0616 6D61696E 		.ascii	"main\000"
 2703      00
 2704              	.LASF35:
 2705 061b 5F5F746D 		.ascii	"__tm_mday\000"
 2705      5F6D6461 
 2705      7900
 2706              		.ident	"GCC: (GNU Tools for Arm Embedded Processors 7-2018-q2-update) 7.3.1 20180622 (release) [AR
ARM GAS  C:\Users\embedded\AppData\Local\Temp\ccWE0Kve.s 			page 57


DEFINED SYMBOLS
                            *ABS*:00000000 main.c
C:\Users\embedded\AppData\Local\Temp\ccWE0Kve.s:16     .rodata:00000000 $d
C:\Users\embedded\AppData\Local\Temp\ccWE0Kve.s:51     .text:00000000 main
C:\Users\embedded\AppData\Local\Temp\ccWE0Kve.s:59     .text:00000000 $t
C:\Users\embedded\AppData\Local\Temp\ccWE0Kve.s:410    .text:00000270 $d

UNDEFINED SYMBOLS
i2cInit
pca9532Init
printf_init
lcdInit
lcdColor
lcdClrscr
memset
lcdGotoxy
lcdPuts
measureTemperature
calculateTemperatureValue
measureHumidity
calculateHumidity
sprintf
measureBrightness
measurePressure
sdelay
