ARM GAS  C:\Users\embedded\AppData\Local\Temp\cca40R3I.s 			page 1


   1              		.cpu arm7tdmi
   2              		.eabi_attribute 20, 1
   3              		.eabi_attribute 21, 1
   4              		.eabi_attribute 23, 3
   5              		.eabi_attribute 24, 1
   6              		.eabi_attribute 25, 1
   7              		.eabi_attribute 26, 1
   8              		.eabi_attribute 30, 6
   9              		.eabi_attribute 34, 0
  10              		.eabi_attribute 18, 4
  11              		.file	"main.c"
  12              		.text
  13              	.Ltext0:
  14              		.cfi_sections	.debug_frame
  15              		.align	1
  16              		.syntax unified
  17              		.code	16
  18              		.thumb_func
  19              		.fpu softvfp
  20              		.type	sdelay, %function
  21              	sdelay:
  22              	.LFB3:
  23              		.file 1 "main.c"
   1:main.c        **** /*************************************************************************************
   2:main.c        ****  *
   3:main.c        ****  * @Description:
   4:main.c        ****  * Program przykładowy - odpowiednik "Hello World" dla systemów wbudowanych
   5:main.c        ****  * Rekomendujemy wkopiowywanie do niniejszego projektu nowych funkcjonalności
   6:main.c        ****  *
   7:main.c        ****  *
   8:main.c        ****  * UWAGA! Po zmianie rozszerzenia na cpp program automatycznie będzie używać
   9:main.c        ****  * kompilatora g++. Oczywiście konieczne jest wprowadzenie odpowiednich zmian w
  10:main.c        ****  * pliku "makefile"
  11:main.c        ****  *
  12:main.c        ****  *
  13:main.c        ****  * Program przykładowy wykorzystuje Timer #0 i Timer #1 do "mrugania" diodami
  14:main.c        ****  * Dioda P1.16 jest zapalona i gaszona, a czas pomiędzy tymi zdarzeniami
  15:main.c        ****  * odmierzany jest przez Timer #0.
  16:main.c        ****  * Program aktywnie oczekuje na upłynięcie odmierzanego czasu (1s)
  17:main.c        ****  *
  18:main.c        ****  * Druga z diod P1.17 jest gaszona i zapalana w takt przerwań generowanych
  19:main.c        ****  * przez timer #1, z okresem 500 ms i wypełnieniem 20%.
  20:main.c        ****  * Procedura obsługi przerwań zdefiniowana jest w innym pliku (irq/irq_handler.c)
  21:main.c        ****  * Sama procedura MUSI być oznaczona dla kompilatora jako procedura obsługi 
  22:main.c        ****  * przerwania odpowiedniego typu. W przykładzie jest to przerwanie wektoryzowane.
  23:main.c        ****  * Odpowiednia deklaracja znajduje się w pliku (irq/irq_handler.h)
  24:main.c        ****  * 
  25:main.c        ****  * Prócz "mrugania" diodami program wypisuje na konsoli powitalny tekst.
  26:main.c        ****  * 
  27:main.c        ****  * @Authors: Michał Morawski,
  28:main.c        ****  *           Daniel Arendt, 
  29:main.c        ****  *           Przemysław Ignaciuk,
  30:main.c        ****  *           Marcin Kwapisz
  31:main.c        ****  *
  32:main.c        ****  * @Change log:
  33:main.c        ****  *           2016.12.01: Wersja oryginalna.
  34:main.c        ****  *
ARM GAS  C:\Users\embedded\AppData\Local\Temp\cca40R3I.s 			page 2


  35:main.c        ****  ******************************************************************************/
  36:main.c        **** 
  37:main.c        **** #include "general.h"
  38:main.c        **** #include <lpc2xxx.h>
  39:main.c        **** #include <printf_P.h>
  40:main.c        **** #include <printf_init.h>
  41:main.c        **** #include <consol.h>
  42:main.c        **** #include <config.h>
  43:main.c        **** #include "irq/irq_handler.h"
  44:main.c        **** #include "timer.h"
  45:main.c        **** #include "VIC.h"
  46:main.c        **** 
  47:main.c        **** #include "Common_Def.h"
  48:main.c        **** #include <stdio.h>
  49:main.c        **** 
  50:main.c        **** 
  51:main.c        **** 
  52:main.c        **** /************************************************************************
  53:main.c        ****  * @Description: opóźnienie wyrażone w liczbie sekund
  54:main.c        ****  * @Parameter:
  55:main.c        ****  *    [in] seconds: liczba sekund opĂłĹşnienia
  56:main.c        ****  * @Returns: Nic
  57:main.c        ****  * @Side effects:
  58:main.c        ****  *    przeprogramowany Timer #0
  59:main.c        ****  *************************************************************************/
  60:main.c        **** static void sdelay (tU32 seconds)
  61:main.c        **** {
  24              		.loc 1 61 0
  25              		.cfi_startproc
  26              		@ Function supports interworking.
  27              		@ args = 0, pretend = 0, frame = 8
  28              		@ frame_needed = 1, uses_anonymous_args = 0
  29 0000 80B5     		push	{r7, lr}
  30              	.LCFI0:
  31              		.cfi_def_cfa_offset 8
  32              		.cfi_offset 7, -8
  33              		.cfi_offset 14, -4
  34 0002 82B0     		sub	sp, sp, #8
  35              	.LCFI1:
  36              		.cfi_def_cfa_offset 16
  37 0004 00AF     		add	r7, sp, #0
  38              	.LCFI2:
  39              		.cfi_def_cfa_register 7
  40 0006 7860     		str	r0, [r7, #4]
  62:main.c        **** 	T0TCR = TIMER_RESET;                    //Zatrzymaj i zresetuj
  41              		.loc 1 62 0
  42 0008 0E4B     		ldr	r3, .L3
  43 000a 0222     		movs	r2, #2
  44 000c 1A60     		str	r2, [r3]
  63:main.c        ****     T0PR  = PERIPHERAL_CLOCK-1;             //jednostka w preskalerze
  45              		.loc 1 63 0
  46 000e 0E4B     		ldr	r3, .L3+4
  47 0010 0E4A     		ldr	r2, .L3+8
  48 0012 1A60     		str	r2, [r3]
  64:main.c        ****     T0MR0 = seconds;
  49              		.loc 1 64 0
  50 0014 0E4B     		ldr	r3, .L3+12
ARM GAS  C:\Users\embedded\AppData\Local\Temp\cca40R3I.s 			page 3


  51 0016 7A68     		ldr	r2, [r7, #4]
  52 0018 1A60     		str	r2, [r3]
  65:main.c        ****     T0IR  = TIMER_ALL_INT;                  //Resetowanie flag przerwaĹ„
  53              		.loc 1 65 0
  54 001a 0E4B     		ldr	r3, .L3+16
  55 001c FF22     		movs	r2, #255
  56 001e 1A60     		str	r2, [r3]
  66:main.c        ****     T0MCR = MR0_S;                          //Licz do wartości w MR0 i zatrzymaj się
  57              		.loc 1 66 0
  58 0020 0D4B     		ldr	r3, .L3+20
  59 0022 0422     		movs	r2, #4
  60 0024 1A60     		str	r2, [r3]
  67:main.c        ****     T0TCR = TIMER_RUN;                      //Uruchom timer
  61              		.loc 1 67 0
  62 0026 074B     		ldr	r3, .L3
  63 0028 0122     		movs	r2, #1
  64 002a 1A60     		str	r2, [r3]
  68:main.c        **** 
  69:main.c        ****     // sprawdź czy timer działa
  70:main.c        ****     // nie ma wpisanego ogranicznika liczby pętli, ze względu na charakter procedury
  71:main.c        ****     while (T0TCR & TIMER_RUN)
  65              		.loc 1 71 0
  66 002c C046     		nop
  67              	.L2:
  68              		.loc 1 71 0 is_stmt 0 discriminator 1
  69 002e 054B     		ldr	r3, .L3
  70 0030 1B68     		ldr	r3, [r3]
  71 0032 0122     		movs	r2, #1
  72 0034 1340     		ands	r3, r2
  73 0036 FAD1     		bne	.L2
  72:main.c        ****     {
  73:main.c        ****     }
  74:main.c        **** }
  74              		.loc 1 74 0 is_stmt 1
  75 0038 C046     		nop
  76 003a BD46     		mov	sp, r7
  77 003c 02B0     		add	sp, sp, #8
  78              		@ sp needed
  79 003e 80BC     		pop	{r7}
  80 0040 01BC     		pop	{r0}
  81 0042 0047     		bx	r0
  82              	.L4:
  83              		.align	2
  84              	.L3:
  85 0044 044000E0 		.word	-536854524
  86 0048 0C4000E0 		.word	-536854516
  87 004c FFFF8303 		.word	58982399
  88 0050 184000E0 		.word	-536854504
  89 0054 004000E0 		.word	-536854528
  90 0058 144000E0 		.word	-536854508
  91              		.cfi_endproc
  92              	.LFE3:
  93              		.size	sdelay, .-sdelay
  94              		.global	__aeabi_uldivmod
  95              		.global	__aeabi_lmul
  96              		.align	1
  97              		.syntax unified
ARM GAS  C:\Users\embedded\AppData\Local\Temp\cca40R3I.s 			page 4


  98              		.code	16
  99              		.thumb_func
 100              		.fpu softvfp
 101              		.type	init_irq, %function
 102              	init_irq:
 103              	.LFB4:
  75:main.c        **** 
  76:main.c        **** /************************************************************************
  77:main.c        ****  * @Description: uruchomienie obsługi przerwań
  78:main.c        ****  * @Parameter:
  79:main.c        ****  *    [in] period    : okres generatora przerwań
  80:main.c        ****  *    [in] duty_cycle: wypełnienie w %
  81:main.c        ****  * @Returns: Nic
  82:main.c        ****  * @Side effects:
  83:main.c        ****  *    przeprogramowany timer #1
  84:main.c        ****  *************************************************************************/
  85:main.c        **** static void init_irq (tU32 period, tU8 duty_cycle)
  86:main.c        **** {
 104              		.loc 1 86 0
 105              		.cfi_startproc
 106              		@ Function supports interworking.
 107              		@ args = 0, pretend = 0, frame = 48
 108              		@ frame_needed = 1, uses_anonymous_args = 0
 109 005c F0B5     		push	{r4, r5, r6, r7, lr}
 110              	.LCFI3:
 111              		.cfi_def_cfa_offset 20
 112              		.cfi_offset 4, -20
 113              		.cfi_offset 5, -16
 114              		.cfi_offset 6, -12
 115              		.cfi_offset 7, -8
 116              		.cfi_offset 14, -4
 117 005e 8DB0     		sub	sp, sp, #52
 118              	.LCFI4:
 119              		.cfi_def_cfa_offset 72
 120 0060 00AF     		add	r7, sp, #0
 121              	.LCFI5:
 122              		.cfi_def_cfa_register 7
 123 0062 F862     		str	r0, [r7, #44]
 124 0064 0B00     		movs	r3, r1
 125 0066 2B22     		movs	r2, #43
 126 0068 BA18     		adds	r2, r7, r2
 127 006a 1370     		strb	r3, [r2]
  87:main.c        **** 	//Zainicjuj VIC dla przerwań od Timera #1
  88:main.c        ****     VICIntSelect &= ~TIMER_1_IRQ;           //Przerwanie od Timera #1 przypisane do IRQ (nie do FIQ
 128              		.loc 1 88 0
 129 006c 3C4B     		ldr	r3, .L6
 130 006e 1968     		ldr	r1, [r3]
 131 0070 3B4A     		ldr	r2, .L6
 132 0072 2023     		movs	r3, #32
 133 0074 9943     		bics	r1, r3
 134 0076 0B00     		movs	r3, r1
 135 0078 1360     		str	r3, [r2]
  89:main.c        ****     VICVectAddr5  = (tU32)IRQ_Test;         //adres procedury przerwania
 136              		.loc 1 89 0
 137 007a 3A4A     		ldr	r2, .L6+4
 138 007c 3A4B     		ldr	r3, .L6+8
 139 007e 1360     		str	r3, [r2]
ARM GAS  C:\Users\embedded\AppData\Local\Temp\cca40R3I.s 			page 5


  90:main.c        ****     VICVectCntl5  = VIC_ENABLE_SLOT | TIMER_1_IRQ_NO;
 140              		.loc 1 90 0
 141 0080 3A4A     		ldr	r2, .L6+12
 142 0082 2523     		movs	r3, #37
 143 0084 1360     		str	r3, [r2]
  91:main.c        ****     VICIntEnable  = TIMER_1_IRQ;            // Przypisanie i odblokowanie slotu w VIC od Timera #1
 144              		.loc 1 91 0
 145 0086 3A4A     		ldr	r2, .L6+16
 146 0088 2023     		movs	r3, #32
 147 008a 1360     		str	r3, [r2]
  92:main.c        ****   
  93:main.c        ****     T1TCR = TIMER_RESET;                    //Zatrzymaj i zresetuj
 148              		.loc 1 93 0
 149 008c 394A     		ldr	r2, .L6+20
 150 008e 0223     		movs	r3, #2
 151 0090 1360     		str	r3, [r2]
  94:main.c        ****     T1PR  = 0;                              //Preskaler nieużywany
 152              		.loc 1 94 0
 153 0092 394A     		ldr	r2, .L6+24
 154 0094 0023     		movs	r3, #0
 155 0096 1360     		str	r3, [r2]
  95:main.c        ****     T1MR0 = ((tU64)period)*((tU64)PERIPHERAL_CLOCK)/1000;
 156              		.loc 1 95 0
 157 0098 FB6A     		ldr	r3, [r7, #44]
 158 009a 3B61     		str	r3, [r7, #16]
 159 009c 0023     		movs	r3, #0
 160 009e 7B61     		str	r3, [r7, #20]
 161 00a0 3B69     		ldr	r3, [r7, #16]
 162 00a2 7C69     		ldr	r4, [r7, #20]
 163 00a4 1A0F     		lsrs	r2, r3, #28
 164 00a6 2101     		lsls	r1, r4, #4
 165 00a8 7962     		str	r1, [r7, #36]
 166 00aa 796A     		ldr	r1, [r7, #36]
 167 00ac 1143     		orrs	r1, r2
 168 00ae 7962     		str	r1, [r7, #36]
 169 00b0 1B01     		lsls	r3, r3, #4
 170 00b2 3B62     		str	r3, [r7, #32]
 171 00b4 3B6A     		ldr	r3, [r7, #32]
 172 00b6 7C6A     		ldr	r4, [r7, #36]
 173 00b8 3869     		ldr	r0, [r7, #16]
 174 00ba 7969     		ldr	r1, [r7, #20]
 175 00bc 1B1A     		subs	r3, r3, r0
 176 00be 8C41     		sbcs	r4, r4, r1
 177 00c0 1A0F     		lsrs	r2, r3, #28
 178 00c2 2601     		lsls	r6, r4, #4
 179 00c4 1643     		orrs	r6, r2
 180 00c6 1D01     		lsls	r5, r3, #4
 181 00c8 ED1A     		subs	r5, r5, r3
 182 00ca A641     		sbcs	r6, r6, r4
 183 00cc AB0B     		lsrs	r3, r5, #14
 184 00ce B204     		lsls	r2, r6, #18
 185 00d0 FA61     		str	r2, [r7, #28]
 186 00d2 FA69     		ldr	r2, [r7, #28]
 187 00d4 1A43     		orrs	r2, r3
 188 00d6 FA61     		str	r2, [r7, #28]
 189 00d8 AB04     		lsls	r3, r5, #18
 190 00da BB61     		str	r3, [r7, #24]
ARM GAS  C:\Users\embedded\AppData\Local\Temp\cca40R3I.s 			page 6


 191 00dc BD69     		ldr	r5, [r7, #24]
 192 00de FE69     		ldr	r6, [r7, #28]
 193 00e0 2800     		movs	r0, r5
 194 00e2 3100     		movs	r1, r6
 195 00e4 FA22     		movs	r2, #250
 196 00e6 9200     		lsls	r2, r2, #2
 197 00e8 0023     		movs	r3, #0
 198 00ea FFF7FEFF 		bl	__aeabi_uldivmod
 199              	.LVL0:
 200 00ee 0300     		movs	r3, r0
 201 00f0 0C00     		movs	r4, r1
 202 00f2 1900     		movs	r1, r3
 203 00f4 2200     		movs	r2, r4
 204 00f6 214B     		ldr	r3, .L6+28
 205 00f8 0A00     		movs	r2, r1
 206 00fa 1A60     		str	r2, [r3]
  96:main.c        ****     T1MR1 = (tU64)T1MR0 * duty_cycle / 100; //Wypełnienie
 207              		.loc 1 96 0
 208 00fc 1F4B     		ldr	r3, .L6+28
 209 00fe 1B68     		ldr	r3, [r3]
 210 0100 BB60     		str	r3, [r7, #8]
 211 0102 0023     		movs	r3, #0
 212 0104 FB60     		str	r3, [r7, #12]
 213 0106 2B23     		movs	r3, #43
 214 0108 FB18     		adds	r3, r7, r3
 215 010a 1B78     		ldrb	r3, [r3]
 216 010c 1B06     		lsls	r3, r3, #24
 217 010e 1B0E     		lsrs	r3, r3, #24
 218 0110 3B60     		str	r3, [r7]
 219 0112 0023     		movs	r3, #0
 220 0114 7B60     		str	r3, [r7, #4]
 221 0116 3A68     		ldr	r2, [r7]
 222 0118 7B68     		ldr	r3, [r7, #4]
 223 011a B868     		ldr	r0, [r7, #8]
 224 011c F968     		ldr	r1, [r7, #12]
 225 011e FFF7FEFF 		bl	__aeabi_lmul
 226              	.LVL1:
 227 0122 0300     		movs	r3, r0
 228 0124 0C00     		movs	r4, r1
 229 0126 1800     		movs	r0, r3
 230 0128 2100     		movs	r1, r4
 231 012a 6422     		movs	r2, #100
 232 012c 0023     		movs	r3, #0
 233 012e FFF7FEFF 		bl	__aeabi_uldivmod
 234              	.LVL2:
 235 0132 0300     		movs	r3, r0
 236 0134 0C00     		movs	r4, r1
 237 0136 1900     		movs	r1, r3
 238 0138 2200     		movs	r2, r4
 239 013a 114B     		ldr	r3, .L6+32
 240 013c 0A00     		movs	r2, r1
 241 013e 1A60     		str	r2, [r3]
  97:main.c        ****     T1IR  = TIMER_ALL_INT;                  //Resetowanie flag przerwań
 242              		.loc 1 97 0
 243 0140 104B     		ldr	r3, .L6+36
 244 0142 FF22     		movs	r2, #255
 245 0144 1A60     		str	r2, [r3]
ARM GAS  C:\Users\embedded\AppData\Local\Temp\cca40R3I.s 			page 7


  98:main.c        ****     T1MCR = MR0_I | MR1_I | MR0_R;          //Generuj okresowe przerwania dla MR0 i dodatkowo dla M
 246              		.loc 1 98 0
 247 0146 104B     		ldr	r3, .L6+40
 248 0148 0B22     		movs	r2, #11
 249 014a 1A60     		str	r2, [r3]
  99:main.c        ****     T1TCR = TIMER_RUN;                      //Uruchom timer
 250              		.loc 1 99 0
 251 014c 094B     		ldr	r3, .L6+20
 252 014e 0122     		movs	r2, #1
 253 0150 1A60     		str	r2, [r3]
 100:main.c        **** }
 254              		.loc 1 100 0
 255 0152 C046     		nop
 256 0154 BD46     		mov	sp, r7
 257 0156 0DB0     		add	sp, sp, #52
 258              		@ sp needed
 259 0158 F0BC     		pop	{r4, r5, r6, r7}
 260 015a 01BC     		pop	{r0}
 261 015c 0047     		bx	r0
 262              	.L7:
 263 015e C046     		.align	2
 264              	.L6:
 265 0160 0CF0FFFF 		.word	-4084
 266 0164 14F1FFFF 		.word	-3820
 267 0168 00000000 		.word	IRQ_Test
 268 016c 14F2FFFF 		.word	-3564
 269 0170 10F0FFFF 		.word	-4080
 270 0174 048000E0 		.word	-536838140
 271 0178 0C8000E0 		.word	-536838132
 272 017c 188000E0 		.word	-536838120
 273 0180 1C8000E0 		.word	-536838116
 274 0184 008000E0 		.word	-536838144
 275 0188 148000E0 		.word	-536838124
 276              		.cfi_endproc
 277              	.LFE4:
 278              		.size	init_irq, .-init_irq
 279              		.section	.rodata
 280              		.align	2
 281              	.LC1:
 282 0000 0A0A0A0A 		.ascii	"\012\012\012\012\000"
 282      00
 283 0005 000000   		.align	2
 284              	.LC3:
 285 0008 0A2A2A2A 		.ascii	"\012***********************************************"
 285      2A2A2A2A 
 285      2A2A2A2A 
 285      2A2A2A2A 
 285      2A2A2A2A 
 286 0038 2A2A2A2A 		.ascii	"**********\000"
 286      2A2A2A2A 
 286      2A2A00
 287 0043 00       		.align	2
 288              	.LC5:
 289 0044 0A2A00   		.ascii	"\012*\000"
 290 0047 00       		.align	2
 291              	.LC7:
 292 0048 0A2A2053 		.ascii	"\012* Systemy Wbudowane\000"
ARM GAS  C:\Users\embedded\AppData\Local\Temp\cca40R3I.s 			page 8


 292      79737465 
 292      6D792057 
 292      6275646F 
 292      77616E65 
 293 005d 000000   		.align	2
 294              	.LC9:
 295 0060 0A2A2057 		.ascii	"\012* Wydzial FTIMS\000"
 295      79647A69 
 295      616C2046 
 295      54494D53 
 295      00
 296 0071 000000   		.align	2
 297              	.LC11:
 298 0074 0A2A204D 		.ascii	"\012* Moj pierwszy program\000"
 298      6F6A2070 
 298      69657277 
 298      737A7920 
 298      70726F67 
 299              		.align	2
 300              	.LC13:
 301 008c 4E696520 		.ascii	"Nie swieci\012\000"
 301      73776965 
 301      63690A00 
 302              		.align	2
 303              	.LC15:
 304 0098 53776965 		.ascii	"Swieci\012\000"
 304      63690A00 
 305              		.text
 306              		.align	1
 307              		.global	main
 308              		.syntax unified
 309              		.code	16
 310              		.thumb_func
 311              		.fpu softvfp
 312              		.type	main, %function
 313              	main:
 314              	.LFB5:
 101:main.c        **** 
 102:main.c        **** int main(void)
 103:main.c        **** {
 315              		.loc 1 103 0
 316              		.cfi_startproc
 317              		@ Function supports interworking.
 318              		@ args = 0, pretend = 0, frame = 8
 319              		@ frame_needed = 1, uses_anonymous_args = 0
 320 018c 80B5     		push	{r7, lr}
 321              	.LCFI6:
 322              		.cfi_def_cfa_offset 8
 323              		.cfi_offset 7, -8
 324              		.cfi_offset 14, -4
 325 018e 82B0     		sub	sp, sp, #8
 326              	.LCFI7:
 327              		.cfi_def_cfa_offset 16
 328 0190 00AF     		add	r7, sp, #0
 329              	.LCFI8:
 330              		.cfi_def_cfa_register 7
 104:main.c        **** 	//uruchomienie 'simple printf'
ARM GAS  C:\Users\embedded\AppData\Local\Temp\cca40R3I.s 			page 9


 105:main.c        ****     printf_init();
 331              		.loc 1 105 0
 332 0192 FFF7FEFF 		bl	printf_init
 106:main.c        **** 
 107:main.c        ****     //powitanie
 108:main.c        ****     simplePrintf("\n\n\n\n");
 333              		.loc 1 108 0
 334 0196 2F4B     		ldr	r3, .L12
 335 0198 1800     		movs	r0, r3
 336 019a FFF7FEFF 		bl	simplePrintf
 109:main.c        ****     simplePrintf("\n*********************************************************");
 337              		.loc 1 109 0
 338 019e 2E4B     		ldr	r3, .L12+4
 339 01a0 1800     		movs	r0, r3
 340 01a2 FFF7FEFF 		bl	simplePrintf
 110:main.c        ****     simplePrintf("\n*");
 341              		.loc 1 110 0
 342 01a6 2D4B     		ldr	r3, .L12+8
 343 01a8 1800     		movs	r0, r3
 344 01aa FFF7FEFF 		bl	simplePrintf
 111:main.c        ****     simplePrintf("\n* Systemy Wbudowane");
 345              		.loc 1 111 0
 346 01ae 2C4B     		ldr	r3, .L12+12
 347 01b0 1800     		movs	r0, r3
 348 01b2 FFF7FEFF 		bl	simplePrintf
 112:main.c        ****     simplePrintf("\n* Wydzial FTIMS");
 349              		.loc 1 112 0
 350 01b6 2B4B     		ldr	r3, .L12+16
 351 01b8 1800     		movs	r0, r3
 352 01ba FFF7FEFF 		bl	simplePrintf
 113:main.c        ****     simplePrintf("\n* Moj pierwszy program");
 353              		.loc 1 113 0
 354 01be 2A4B     		ldr	r3, .L12+20
 355 01c0 1800     		movs	r0, r3
 356 01c2 FFF7FEFF 		bl	simplePrintf
 114:main.c        ****     simplePrintf("\n*");
 357              		.loc 1 114 0
 358 01c6 254B     		ldr	r3, .L12+8
 359 01c8 1800     		movs	r0, r3
 360 01ca FFF7FEFF 		bl	simplePrintf
 115:main.c        ****     simplePrintf("\n*********************************************************");
 361              		.loc 1 115 0
 362 01ce 224B     		ldr	r3, .L12+4
 363 01d0 1800     		movs	r0, r3
 364 01d2 FFF7FEFF 		bl	simplePrintf
 116:main.c        **** 
 117:main.c        ****     /*********************************************************************
 118:main.c        ****      * Ta część inicjuje działanie programy
 119:main.c        ****      *********************************************************************/
 120:main.c        ****     // uruchomienie GPIO na nodze P1.16 i P1.17.
 121:main.c        ****     PINSEL2 &= ~(1 << 3);
 365              		.loc 1 121 0
 366 01d6 254B     		ldr	r3, .L12+24
 367 01d8 1A68     		ldr	r2, [r3]
 368 01da 244B     		ldr	r3, .L12+24
 369 01dc 0821     		movs	r1, #8
 370 01de 8A43     		bics	r2, r1
ARM GAS  C:\Users\embedded\AppData\Local\Temp\cca40R3I.s 			page 10


 371 01e0 1A60     		str	r2, [r3]
 122:main.c        ****     // Kierunek out na nodze P1.16
 123:main.c        ****     IODIR1 |= DIODA_LEWA; //(1 << 16);
 372              		.loc 1 123 0
 373 01e2 234B     		ldr	r3, .L12+28
 374 01e4 1A68     		ldr	r2, [r3]
 375 01e6 224B     		ldr	r3, .L12+28
 376 01e8 8021     		movs	r1, #128
 377 01ea 4902     		lsls	r1, r1, #9
 378 01ec 0A43     		orrs	r2, r1
 379 01ee 1A60     		str	r2, [r3]
 124:main.c        ****     // Kierunek out na nodze P1.17
 125:main.c        ****     IODIR1 |= DIODA_PRAWA; //(1 << 17);
 380              		.loc 1 125 0
 381 01f0 1F4B     		ldr	r3, .L12+28
 382 01f2 1A68     		ldr	r2, [r3]
 383 01f4 1E4B     		ldr	r3, .L12+28
 384 01f6 8021     		movs	r1, #128
 385 01f8 8902     		lsls	r1, r1, #10
 386 01fa 0A43     		orrs	r2, r1
 387 01fc 1A60     		str	r2, [r3]
 126:main.c        ****     // Uruchomienie przerwań co 1/2 s.
 127:main.c        ****     init_irq(500, 20);
 388              		.loc 1 127 0
 389 01fe FA23     		movs	r3, #250
 390 0200 5B00     		lsls	r3, r3, #1
 391 0202 1421     		movs	r1, #20
 392 0204 1800     		movs	r0, r3
 393 0206 FFF729FF 		bl	init_irq
 128:main.c        **** 
 129:main.c        ****     /**********************************************************************
 130:main.c        ****      * Ta część jest nieskończoną pętlą realizującą działania programu
 131:main.c        ****      * Należy jednak pamiętać, że część jego funkcjonalności realizowana
 132:main.c        ****      * jest za pomocą przerwań
 133:main.c        ****      **********************************************************************/
 134:main.c        ****     // Aktywne "mruganie" diodą
 135:main.c        ****     tBool dioda_swieci = FALSE;
 394              		.loc 1 135 0
 395 020a FB1D     		adds	r3, r7, #7
 396 020c 0022     		movs	r2, #0
 397 020e 1A70     		strb	r2, [r3]
 398              	.L11:
 136:main.c        ****     while (TRUE)
 137:main.c        ****     {
 138:main.c        ****     	if (dioda_swieci)
 399              		.loc 1 138 0
 400 0210 FB1D     		adds	r3, r7, #7
 401 0212 1B78     		ldrb	r3, [r3]
 402 0214 002B     		cmp	r3, #0
 403 0216 08D0     		beq	.L9
 139:main.c        ****         {
 140:main.c        ****     		IOSET1 = DIODA_LEWA; // (1 << 16);
 404              		.loc 1 140 0
 405 0218 164B     		ldr	r3, .L12+32
 406 021a 8022     		movs	r2, #128
 407 021c 5202     		lsls	r2, r2, #9
 408 021e 1A60     		str	r2, [r3]
ARM GAS  C:\Users\embedded\AppData\Local\Temp\cca40R3I.s 			page 11


 141:main.c        ****     		simplePrintf("Nie swieci\n");
 409              		.loc 1 141 0
 410 0220 154B     		ldr	r3, .L12+36
 411 0222 1800     		movs	r0, r3
 412 0224 FFF7FEFF 		bl	simplePrintf
 413 0228 07E0     		b	.L10
 414              	.L9:
 142:main.c        ****         }
 143:main.c        ****         else
 144:main.c        ****         {
 145:main.c        ****         	IOCLR1 = DIODA_LEWA; //(1 << 16);
 415              		.loc 1 145 0
 416 022a 144B     		ldr	r3, .L12+40
 417 022c 8022     		movs	r2, #128
 418 022e 5202     		lsls	r2, r2, #9
 419 0230 1A60     		str	r2, [r3]
 146:main.c        ****         	simplePrintf("Swieci\n");
 420              		.loc 1 146 0
 421 0232 134B     		ldr	r3, .L12+44
 422 0234 1800     		movs	r0, r3
 423 0236 FFF7FEFF 		bl	simplePrintf
 424              	.L10:
 147:main.c        ****         }
 148:main.c        ****     	dioda_swieci = !dioda_swieci;
 425              		.loc 1 148 0
 426 023a FB1D     		adds	r3, r7, #7
 427 023c 1B78     		ldrb	r3, [r3]
 428 023e 5A42     		rsbs	r2, r3, #0
 429 0240 5341     		adcs	r3, r3, r2
 430 0242 1B06     		lsls	r3, r3, #24
 431 0244 1A0E     		lsrs	r2, r3, #24
 432 0246 FB1D     		adds	r3, r7, #7
 433 0248 1A70     		strb	r2, [r3]
 149:main.c        ****         sdelay(1);  // czekaj 1 s
 434              		.loc 1 149 0
 435 024a 0120     		movs	r0, #1
 436 024c FFF7D8FE 		bl	sdelay
 138:main.c        ****         {
 437              		.loc 1 138 0
 438 0250 DEE7     		b	.L11
 439              	.L13:
 440 0252 C046     		.align	2
 441              	.L12:
 442 0254 00000000 		.word	.LC1
 443 0258 08000000 		.word	.LC3
 444 025c 44000000 		.word	.LC5
 445 0260 48000000 		.word	.LC7
 446 0264 60000000 		.word	.LC9
 447 0268 74000000 		.word	.LC11
 448 026c 14C002E0 		.word	-536690668
 449 0270 188002E0 		.word	-536707048
 450 0274 148002E0 		.word	-536707052
 451 0278 8C000000 		.word	.LC13
 452 027c 1C8002E0 		.word	-536707044
 453 0280 98000000 		.word	.LC15
 454              		.cfi_endproc
 455              	.LFE5:
ARM GAS  C:\Users\embedded\AppData\Local\Temp\cca40R3I.s 			page 12


 456              		.size	main, .-main
 457              	.Letext0:
 458              		.file 2 "general.h"
 459              		.file 3 "c:\\embedded\\tools\\arm-none-eabi\\include\\sys\\lock.h"
 460              		.file 4 "c:\\embedded\\tools\\arm-none-eabi\\include\\sys\\_types.h"
 461              		.file 5 "c:\\embedded\\tools\\lib\\gcc\\arm-none-eabi\\7.3.1\\include\\stddef.h"
 462              		.file 6 "c:\\embedded\\tools\\arm-none-eabi\\include\\sys\\reent.h"
 463              		.section	.debug_info,"",%progbits
 464              	.Ldebug_info0:
 465 0000 3E0A0000 		.4byte	0xa3e
 466 0004 0200     		.2byte	0x2
 467 0006 00000000 		.4byte	.Ldebug_abbrev0
 468 000a 04       		.byte	0x4
 469 000b 01       		.uleb128 0x1
 470 000c BF020000 		.4byte	.LASF129
 471 0010 0C       		.byte	0xc
 472 0011 23020000 		.4byte	.LASF130
 473 0015 8E020000 		.4byte	.LASF131
 474 0019 00000000 		.4byte	.Ltext0
 475 001d 84020000 		.4byte	.Letext0
 476 0021 00000000 		.4byte	.Ldebug_line0
 477 0025 02       		.uleb128 0x2
 478 0026 74553800 		.ascii	"tU8\000"
 479 002a 02       		.byte	0x2
 480 002b 12       		.byte	0x12
 481 002c 30000000 		.4byte	0x30
 482 0030 03       		.uleb128 0x3
 483 0031 01       		.byte	0x1
 484 0032 08       		.byte	0x8
 485 0033 62030000 		.4byte	.LASF0
 486 0037 03       		.uleb128 0x3
 487 0038 02       		.byte	0x2
 488 0039 07       		.byte	0x7
 489 003a D8010000 		.4byte	.LASF1
 490 003e 04       		.uleb128 0x4
 491 003f 37020000 		.4byte	.LASF2
 492 0043 02       		.byte	0x2
 493 0044 14       		.byte	0x14
 494 0045 49000000 		.4byte	0x49
 495 0049 03       		.uleb128 0x3
 496 004a 04       		.byte	0x4
 497 004b 07       		.byte	0x7
 498 004c 95010000 		.4byte	.LASF3
 499 0050 04       		.uleb128 0x4
 500 0051 C0040000 		.4byte	.LASF4
 501 0055 02       		.byte	0x2
 502 0056 15       		.byte	0x15
 503 0057 5B000000 		.4byte	0x5b
 504 005b 03       		.uleb128 0x3
 505 005c 08       		.byte	0x8
 506 005d 07       		.byte	0x7
 507 005e 53000000 		.4byte	.LASF5
 508 0062 03       		.uleb128 0x3
 509 0063 01       		.byte	0x1
 510 0064 06       		.byte	0x6
 511 0065 A4000000 		.4byte	.LASF6
 512 0069 03       		.uleb128 0x3
ARM GAS  C:\Users\embedded\AppData\Local\Temp\cca40R3I.s 			page 13


 513 006a 02       		.byte	0x2
 514 006b 05       		.byte	0x5
 515 006c 7E030000 		.4byte	.LASF7
 516 0070 05       		.uleb128 0x5
 517 0071 04       		.byte	0x4
 518 0072 05       		.byte	0x5
 519 0073 696E7400 		.ascii	"int\000"
 520 0077 03       		.uleb128 0x3
 521 0078 08       		.byte	0x8
 522 0079 05       		.byte	0x5
 523 007a 96000000 		.4byte	.LASF8
 524 007e 06       		.uleb128 0x6
 525 007f 07       		.byte	0x7
 526 0080 01       		.byte	0x1
 527 0081 30000000 		.4byte	0x30
 528 0085 02       		.byte	0x2
 529 0086 1A       		.byte	0x1a
 530 0087 98000000 		.4byte	0x98
 531 008b 07       		.uleb128 0x7
 532 008c B9020000 		.4byte	.LASF9
 533 0090 00       		.byte	0
 534 0091 07       		.uleb128 0x7
 535 0092 1D040000 		.4byte	.LASF10
 536 0096 01       		.byte	0x1
 537 0097 00       		.byte	0
 538 0098 04       		.uleb128 0x4
 539 0099 D9000000 		.4byte	.LASF11
 540 009d 02       		.byte	0x2
 541 009e 1B       		.byte	0x1b
 542 009f 7E000000 		.4byte	0x7e
 543 00a3 03       		.uleb128 0x3
 544 00a4 04       		.byte	0x4
 545 00a5 05       		.byte	0x5
 546 00a6 E7000000 		.4byte	.LASF12
 547 00aa 03       		.uleb128 0x3
 548 00ab 04       		.byte	0x4
 549 00ac 07       		.byte	0x7
 550 00ad B9010000 		.4byte	.LASF13
 551 00b1 03       		.uleb128 0x3
 552 00b2 08       		.byte	0x8
 553 00b3 04       		.byte	0x4
 554 00b4 4D020000 		.4byte	.LASF14
 555 00b8 08       		.uleb128 0x8
 556 00b9 04       		.byte	0x4
 557 00ba 04       		.uleb128 0x4
 558 00bb 1B020000 		.4byte	.LASF15
 559 00bf 03       		.byte	0x3
 560 00c0 22       		.byte	0x22
 561 00c1 C5000000 		.4byte	0xc5
 562 00c5 09       		.uleb128 0x9
 563 00c6 04       		.byte	0x4
 564 00c7 CB000000 		.4byte	0xcb
 565 00cb 0A       		.uleb128 0xa
 566 00cc 37040000 		.4byte	.LASF122
 567 00d0 01       		.byte	0x1
 568 00d1 04       		.uleb128 0x4
 569 00d2 87020000 		.4byte	.LASF16
ARM GAS  C:\Users\embedded\AppData\Local\Temp\cca40R3I.s 			page 14


 570 00d6 04       		.byte	0x4
 571 00d7 2C       		.byte	0x2c
 572 00d8 A3000000 		.4byte	0xa3
 573 00dc 04       		.uleb128 0x4
 574 00dd 58040000 		.4byte	.LASF17
 575 00e1 04       		.byte	0x4
 576 00e2 72       		.byte	0x72
 577 00e3 A3000000 		.4byte	0xa3
 578 00e7 0B       		.uleb128 0xb
 579 00e8 2A020000 		.4byte	.LASF18
 580 00ec 05       		.byte	0x5
 581 00ed 6501     		.2byte	0x165
 582 00ef 49000000 		.4byte	0x49
 583 00f3 0C       		.uleb128 0xc
 584 00f4 04       		.byte	0x4
 585 00f5 04       		.byte	0x4
 586 00f6 A6       		.byte	0xa6
 587 00f7 12010000 		.4byte	0x112
 588 00fb 0D       		.uleb128 0xd
 589 00fc 15020000 		.4byte	.LASF19
 590 0100 04       		.byte	0x4
 591 0101 A8       		.byte	0xa8
 592 0102 E7000000 		.4byte	0xe7
 593 0106 0D       		.uleb128 0xd
 594 0107 A2010000 		.4byte	.LASF20
 595 010b 04       		.byte	0x4
 596 010c A9       		.byte	0xa9
 597 010d 12010000 		.4byte	0x112
 598 0111 00       		.byte	0
 599 0112 0E       		.uleb128 0xe
 600 0113 30000000 		.4byte	0x30
 601 0117 22010000 		.4byte	0x122
 602 011b 0F       		.uleb128 0xf
 603 011c 49000000 		.4byte	0x49
 604 0120 03       		.byte	0x3
 605 0121 00       		.byte	0
 606 0122 10       		.uleb128 0x10
 607 0123 08       		.byte	0x8
 608 0124 04       		.byte	0x4
 609 0125 A3       		.byte	0xa3
 610 0126 47010000 		.4byte	0x147
 611 012a 11       		.uleb128 0x11
 612 012b 2F040000 		.4byte	.LASF21
 613 012f 04       		.byte	0x4
 614 0130 A5       		.byte	0xa5
 615 0131 70000000 		.4byte	0x70
 616 0135 02       		.byte	0x2
 617 0136 23       		.byte	0x23
 618 0137 00       		.uleb128 0
 619 0138 11       		.uleb128 0x11
 620 0139 3E040000 		.4byte	.LASF22
 621 013d 04       		.byte	0x4
 622 013e AA       		.byte	0xaa
 623 013f F3000000 		.4byte	0xf3
 624 0143 02       		.byte	0x2
 625 0144 23       		.byte	0x23
 626 0145 04       		.uleb128 0x4
ARM GAS  C:\Users\embedded\AppData\Local\Temp\cca40R3I.s 			page 15


 627 0146 00       		.byte	0
 628 0147 04       		.uleb128 0x4
 629 0148 B2030000 		.4byte	.LASF23
 630 014c 04       		.byte	0x4
 631 014d AB       		.byte	0xab
 632 014e 22010000 		.4byte	0x122
 633 0152 04       		.uleb128 0x4
 634 0153 58010000 		.4byte	.LASF24
 635 0157 04       		.byte	0x4
 636 0158 AF       		.byte	0xaf
 637 0159 BA000000 		.4byte	0xba
 638 015d 04       		.uleb128 0x4
 639 015e AB040000 		.4byte	.LASF25
 640 0162 06       		.byte	0x6
 641 0163 16       		.byte	0x16
 642 0164 AA000000 		.4byte	0xaa
 643 0168 12       		.uleb128 0x12
 644 0169 69010000 		.4byte	.LASF30
 645 016d 18       		.byte	0x18
 646 016e 06       		.byte	0x6
 647 016f 2F       		.byte	0x2f
 648 0170 C7010000 		.4byte	0x1c7
 649 0174 11       		.uleb128 0x11
 650 0175 82040000 		.4byte	.LASF26
 651 0179 06       		.byte	0x6
 652 017a 31       		.byte	0x31
 653 017b C7010000 		.4byte	0x1c7
 654 017f 02       		.byte	0x2
 655 0180 23       		.byte	0x23
 656 0181 00       		.uleb128 0
 657 0182 13       		.uleb128 0x13
 658 0183 5F6B00   		.ascii	"_k\000"
 659 0186 06       		.byte	0x6
 660 0187 32       		.byte	0x32
 661 0188 70000000 		.4byte	0x70
 662 018c 02       		.byte	0x2
 663 018d 23       		.byte	0x23
 664 018e 04       		.uleb128 0x4
 665 018f 11       		.uleb128 0x11
 666 0190 9E040000 		.4byte	.LASF27
 667 0194 06       		.byte	0x6
 668 0195 32       		.byte	0x32
 669 0196 70000000 		.4byte	0x70
 670 019a 02       		.byte	0x2
 671 019b 23       		.byte	0x23
 672 019c 08       		.uleb128 0x8
 673 019d 11       		.uleb128 0x11
 674 019e 52010000 		.4byte	.LASF28
 675 01a2 06       		.byte	0x6
 676 01a3 32       		.byte	0x32
 677 01a4 70000000 		.4byte	0x70
 678 01a8 02       		.byte	0x2
 679 01a9 23       		.byte	0x23
 680 01aa 0C       		.uleb128 0xc
 681 01ab 11       		.uleb128 0x11
 682 01ac E5040000 		.4byte	.LASF29
 683 01b0 06       		.byte	0x6
ARM GAS  C:\Users\embedded\AppData\Local\Temp\cca40R3I.s 			page 16


 684 01b1 32       		.byte	0x32
 685 01b2 70000000 		.4byte	0x70
 686 01b6 02       		.byte	0x2
 687 01b7 23       		.byte	0x23
 688 01b8 10       		.uleb128 0x10
 689 01b9 13       		.uleb128 0x13
 690 01ba 5F7800   		.ascii	"_x\000"
 691 01bd 06       		.byte	0x6
 692 01be 33       		.byte	0x33
 693 01bf CD010000 		.4byte	0x1cd
 694 01c3 02       		.byte	0x2
 695 01c4 23       		.byte	0x23
 696 01c5 14       		.uleb128 0x14
 697 01c6 00       		.byte	0
 698 01c7 09       		.uleb128 0x9
 699 01c8 04       		.byte	0x4
 700 01c9 68010000 		.4byte	0x168
 701 01cd 0E       		.uleb128 0xe
 702 01ce 5D010000 		.4byte	0x15d
 703 01d2 DD010000 		.4byte	0x1dd
 704 01d6 0F       		.uleb128 0xf
 705 01d7 49000000 		.4byte	0x49
 706 01db 00       		.byte	0
 707 01dc 00       		.byte	0
 708 01dd 12       		.uleb128 0x12
 709 01de 90010000 		.4byte	.LASF31
 710 01e2 24       		.byte	0x24
 711 01e3 06       		.byte	0x6
 712 01e4 37       		.byte	0x37
 713 01e5 68020000 		.4byte	0x268
 714 01e9 11       		.uleb128 0x11
 715 01ea 8D000000 		.4byte	.LASF32
 716 01ee 06       		.byte	0x6
 717 01ef 39       		.byte	0x39
 718 01f0 70000000 		.4byte	0x70
 719 01f4 02       		.byte	0x2
 720 01f5 23       		.byte	0x23
 721 01f6 00       		.uleb128 0
 722 01f7 11       		.uleb128 0x11
 723 01f8 6C040000 		.4byte	.LASF33
 724 01fc 06       		.byte	0x6
 725 01fd 3A       		.byte	0x3a
 726 01fe 70000000 		.4byte	0x70
 727 0202 02       		.byte	0x2
 728 0203 23       		.byte	0x23
 729 0204 04       		.uleb128 0x4
 730 0205 11       		.uleb128 0x11
 731 0206 BC000000 		.4byte	.LASF34
 732 020a 06       		.byte	0x6
 733 020b 3B       		.byte	0x3b
 734 020c 70000000 		.4byte	0x70
 735 0210 02       		.byte	0x2
 736 0211 23       		.byte	0x23
 737 0212 08       		.uleb128 0x8
 738 0213 11       		.uleb128 0x11
 739 0214 63050000 		.4byte	.LASF35
 740 0218 06       		.byte	0x6
ARM GAS  C:\Users\embedded\AppData\Local\Temp\cca40R3I.s 			page 17


 741 0219 3C       		.byte	0x3c
 742 021a 70000000 		.4byte	0x70
 743 021e 02       		.byte	0x2
 744 021f 23       		.byte	0x23
 745 0220 0C       		.uleb128 0xc
 746 0221 11       		.uleb128 0x11
 747 0222 6B020000 		.4byte	.LASF36
 748 0226 06       		.byte	0x6
 749 0227 3D       		.byte	0x3d
 750 0228 70000000 		.4byte	0x70
 751 022c 02       		.byte	0x2
 752 022d 23       		.byte	0x23
 753 022e 10       		.uleb128 0x10
 754 022f 11       		.uleb128 0x11
 755 0230 43020000 		.4byte	.LASF37
 756 0234 06       		.byte	0x6
 757 0235 3E       		.byte	0x3e
 758 0236 70000000 		.4byte	0x70
 759 023a 02       		.byte	0x2
 760 023b 23       		.byte	0x23
 761 023c 14       		.uleb128 0x14
 762 023d 11       		.uleb128 0x11
 763 023e EA040000 		.4byte	.LASF38
 764 0242 06       		.byte	0x6
 765 0243 3F       		.byte	0x3f
 766 0244 70000000 		.4byte	0x70
 767 0248 02       		.byte	0x2
 768 0249 23       		.byte	0x23
 769 024a 18       		.uleb128 0x18
 770 024b 11       		.uleb128 0x11
 771 024c 88030000 		.4byte	.LASF39
 772 0250 06       		.byte	0x6
 773 0251 40       		.byte	0x40
 774 0252 70000000 		.4byte	0x70
 775 0256 02       		.byte	0x2
 776 0257 23       		.byte	0x23
 777 0258 1C       		.uleb128 0x1c
 778 0259 11       		.uleb128 0x11
 779 025a 25050000 		.4byte	.LASF40
 780 025e 06       		.byte	0x6
 781 025f 41       		.byte	0x41
 782 0260 70000000 		.4byte	0x70
 783 0264 02       		.byte	0x2
 784 0265 23       		.byte	0x23
 785 0266 20       		.uleb128 0x20
 786 0267 00       		.byte	0
 787 0268 14       		.uleb128 0x14
 788 0269 CB000000 		.4byte	.LASF41
 789 026d 0801     		.2byte	0x108
 790 026f 06       		.byte	0x6
 791 0270 4A       		.byte	0x4a
 792 0271 B1020000 		.4byte	0x2b1
 793 0275 11       		.uleb128 0x11
 794 0276 45010000 		.4byte	.LASF42
 795 027a 06       		.byte	0x6
 796 027b 4B       		.byte	0x4b
 797 027c B1020000 		.4byte	0x2b1
ARM GAS  C:\Users\embedded\AppData\Local\Temp\cca40R3I.s 			page 18


 798 0280 02       		.byte	0x2
 799 0281 23       		.byte	0x23
 800 0282 00       		.uleb128 0
 801 0283 11       		.uleb128 0x11
 802 0284 00000000 		.4byte	.LASF43
 803 0288 06       		.byte	0x6
 804 0289 4C       		.byte	0x4c
 805 028a B1020000 		.4byte	0x2b1
 806 028e 03       		.byte	0x3
 807 028f 23       		.byte	0x23
 808 0290 8001     		.uleb128 0x80
 809 0292 11       		.uleb128 0x11
 810 0293 95040000 		.4byte	.LASF44
 811 0297 06       		.byte	0x6
 812 0298 4E       		.byte	0x4e
 813 0299 5D010000 		.4byte	0x15d
 814 029d 03       		.byte	0x3
 815 029e 23       		.byte	0x23
 816 029f 8002     		.uleb128 0x100
 817 02a1 11       		.uleb128 0x11
 818 02a2 FE000000 		.4byte	.LASF45
 819 02a6 06       		.byte	0x6
 820 02a7 51       		.byte	0x51
 821 02a8 5D010000 		.4byte	0x15d
 822 02ac 03       		.byte	0x3
 823 02ad 23       		.byte	0x23
 824 02ae 8402     		.uleb128 0x104
 825 02b0 00       		.byte	0
 826 02b1 0E       		.uleb128 0xe
 827 02b2 B8000000 		.4byte	0xb8
 828 02b6 C1020000 		.4byte	0x2c1
 829 02ba 0F       		.uleb128 0xf
 830 02bb 49000000 		.4byte	0x49
 831 02bf 1F       		.byte	0x1f
 832 02c0 00       		.byte	0
 833 02c1 14       		.uleb128 0x14
 834 02c2 74020000 		.4byte	.LASF46
 835 02c6 9001     		.2byte	0x190
 836 02c8 06       		.byte	0x6
 837 02c9 5D       		.byte	0x5d
 838 02ca 08030000 		.4byte	0x308
 839 02ce 11       		.uleb128 0x11
 840 02cf 82040000 		.4byte	.LASF26
 841 02d3 06       		.byte	0x6
 842 02d4 5E       		.byte	0x5e
 843 02d5 08030000 		.4byte	0x308
 844 02d9 02       		.byte	0x2
 845 02da 23       		.byte	0x23
 846 02db 00       		.uleb128 0
 847 02dc 11       		.uleb128 0x11
 848 02dd E4030000 		.4byte	.LASF47
 849 02e1 06       		.byte	0x6
 850 02e2 5F       		.byte	0x5f
 851 02e3 70000000 		.4byte	0x70
 852 02e7 02       		.byte	0x2
 853 02e8 23       		.byte	0x23
 854 02e9 04       		.uleb128 0x4
ARM GAS  C:\Users\embedded\AppData\Local\Temp\cca40R3I.s 			page 19


 855 02ea 11       		.uleb128 0x11
 856 02eb 4D010000 		.4byte	.LASF48
 857 02ef 06       		.byte	0x6
 858 02f0 61       		.byte	0x61
 859 02f1 0E030000 		.4byte	0x30e
 860 02f5 02       		.byte	0x2
 861 02f6 23       		.byte	0x23
 862 02f7 08       		.uleb128 0x8
 863 02f8 11       		.uleb128 0x11
 864 02f9 CB000000 		.4byte	.LASF41
 865 02fd 06       		.byte	0x6
 866 02fe 62       		.byte	0x62
 867 02ff 68020000 		.4byte	0x268
 868 0303 03       		.byte	0x3
 869 0304 23       		.byte	0x23
 870 0305 8801     		.uleb128 0x88
 871 0307 00       		.byte	0
 872 0308 09       		.uleb128 0x9
 873 0309 04       		.byte	0x4
 874 030a C1020000 		.4byte	0x2c1
 875 030e 0E       		.uleb128 0xe
 876 030f 1E030000 		.4byte	0x31e
 877 0313 1E030000 		.4byte	0x31e
 878 0317 0F       		.uleb128 0xf
 879 0318 49000000 		.4byte	0x49
 880 031c 1F       		.byte	0x1f
 881 031d 00       		.byte	0
 882 031e 09       		.uleb128 0x9
 883 031f 04       		.byte	0x4
 884 0320 24030000 		.4byte	0x324
 885 0324 15       		.uleb128 0x15
 886 0325 01       		.byte	0x1
 887 0326 12       		.uleb128 0x12
 888 0327 92030000 		.4byte	.LASF49
 889 032b 08       		.byte	0x8
 890 032c 06       		.byte	0x6
 891 032d 75       		.byte	0x75
 892 032e 4F030000 		.4byte	0x34f
 893 0332 11       		.uleb128 0x11
 894 0333 B6000000 		.4byte	.LASF50
 895 0337 06       		.byte	0x6
 896 0338 76       		.byte	0x76
 897 0339 4F030000 		.4byte	0x34f
 898 033d 02       		.byte	0x2
 899 033e 23       		.byte	0x23
 900 033f 00       		.uleb128 0
 901 0340 11       		.uleb128 0x11
 902 0341 0C000000 		.4byte	.LASF51
 903 0345 06       		.byte	0x6
 904 0346 77       		.byte	0x77
 905 0347 70000000 		.4byte	0x70
 906 034b 02       		.byte	0x2
 907 034c 23       		.byte	0x23
 908 034d 04       		.uleb128 0x4
 909 034e 00       		.byte	0
 910 034f 09       		.uleb128 0x9
 911 0350 04       		.byte	0x4
ARM GAS  C:\Users\embedded\AppData\Local\Temp\cca40R3I.s 			page 20


 912 0351 30000000 		.4byte	0x30
 913 0355 12       		.uleb128 0x12
 914 0356 BD030000 		.4byte	.LASF52
 915 035a 68       		.byte	0x68
 916 035b 06       		.byte	0x6
 917 035c B5       		.byte	0xb5
 918 035d AF040000 		.4byte	0x4af
 919 0361 13       		.uleb128 0x13
 920 0362 5F7000   		.ascii	"_p\000"
 921 0365 06       		.byte	0x6
 922 0366 B6       		.byte	0xb6
 923 0367 4F030000 		.4byte	0x34f
 924 036b 02       		.byte	0x2
 925 036c 23       		.byte	0x23
 926 036d 00       		.uleb128 0
 927 036e 13       		.uleb128 0x13
 928 036f 5F7200   		.ascii	"_r\000"
 929 0372 06       		.byte	0x6
 930 0373 B7       		.byte	0xb7
 931 0374 70000000 		.4byte	0x70
 932 0378 02       		.byte	0x2
 933 0379 23       		.byte	0x23
 934 037a 04       		.uleb128 0x4
 935 037b 13       		.uleb128 0x13
 936 037c 5F7700   		.ascii	"_w\000"
 937 037f 06       		.byte	0x6
 938 0380 B8       		.byte	0xb8
 939 0381 70000000 		.4byte	0x70
 940 0385 02       		.byte	0x2
 941 0386 23       		.byte	0x23
 942 0387 08       		.uleb128 0x8
 943 0388 11       		.uleb128 0x11
 944 0389 F7000000 		.4byte	.LASF53
 945 038d 06       		.byte	0x6
 946 038e B9       		.byte	0xb9
 947 038f 69000000 		.4byte	0x69
 948 0393 02       		.byte	0x2
 949 0394 23       		.byte	0x23
 950 0395 0C       		.uleb128 0xc
 951 0396 11       		.uleb128 0x11
 952 0397 CB010000 		.4byte	.LASF54
 953 039b 06       		.byte	0x6
 954 039c BA       		.byte	0xba
 955 039d 69000000 		.4byte	0x69
 956 03a1 02       		.byte	0x2
 957 03a2 23       		.byte	0x23
 958 03a3 0E       		.uleb128 0xe
 959 03a4 13       		.uleb128 0x13
 960 03a5 5F626600 		.ascii	"_bf\000"
 961 03a9 06       		.byte	0x6
 962 03aa BB       		.byte	0xbb
 963 03ab 26030000 		.4byte	0x326
 964 03af 02       		.byte	0x2
 965 03b0 23       		.byte	0x23
 966 03b1 10       		.uleb128 0x10
 967 03b2 11       		.uleb128 0x11
 968 03b3 6A000000 		.4byte	.LASF55
ARM GAS  C:\Users\embedded\AppData\Local\Temp\cca40R3I.s 			page 21


 969 03b7 06       		.byte	0x6
 970 03b8 BC       		.byte	0xbc
 971 03b9 70000000 		.4byte	0x70
 972 03bd 02       		.byte	0x2
 973 03be 23       		.byte	0x23
 974 03bf 18       		.uleb128 0x18
 975 03c0 11       		.uleb128 0x11
 976 03c1 12000000 		.4byte	.LASF56
 977 03c5 06       		.byte	0x6
 978 03c6 C3       		.byte	0xc3
 979 03c7 B8000000 		.4byte	0xb8
 980 03cb 02       		.byte	0x2
 981 03cc 23       		.byte	0x23
 982 03cd 1C       		.uleb128 0x1c
 983 03ce 11       		.uleb128 0x11
 984 03cf 80010000 		.4byte	.LASF57
 985 03d3 06       		.byte	0x6
 986 03d4 C5       		.byte	0xc5
 987 03d5 49060000 		.4byte	0x649
 988 03d9 02       		.byte	0x2
 989 03da 23       		.byte	0x23
 990 03db 20       		.uleb128 0x20
 991 03dc 11       		.uleb128 0x11
 992 03dd 3C020000 		.4byte	.LASF58
 993 03e1 06       		.byte	0x6
 994 03e2 C7       		.byte	0xc7
 995 03e3 74060000 		.4byte	0x674
 996 03e7 02       		.byte	0x2
 997 03e8 23       		.byte	0x23
 998 03e9 24       		.uleb128 0x24
 999 03ea 11       		.uleb128 0x11
 1000 03eb 46040000 		.4byte	.LASF59
 1001 03ef 06       		.byte	0x6
 1002 03f0 CA       		.byte	0xca
 1003 03f1 99060000 		.4byte	0x699
 1004 03f5 02       		.byte	0x2
 1005 03f6 23       		.byte	0x23
 1006 03f7 28       		.uleb128 0x28
 1007 03f8 11       		.uleb128 0x11
 1008 03f9 3F050000 		.4byte	.LASF60
 1009 03fd 06       		.byte	0x6
 1010 03fe CB       		.byte	0xcb
 1011 03ff B4060000 		.4byte	0x6b4
 1012 0403 02       		.byte	0x2
 1013 0404 23       		.byte	0x23
 1014 0405 2C       		.uleb128 0x2c
 1015 0406 13       		.uleb128 0x13
 1016 0407 5F756200 		.ascii	"_ub\000"
 1017 040b 06       		.byte	0x6
 1018 040c CE       		.byte	0xce
 1019 040d 26030000 		.4byte	0x326
 1020 0411 02       		.byte	0x2
 1021 0412 23       		.byte	0x23
 1022 0413 30       		.uleb128 0x30
 1023 0414 13       		.uleb128 0x13
 1024 0415 5F757000 		.ascii	"_up\000"
 1025 0419 06       		.byte	0x6
ARM GAS  C:\Users\embedded\AppData\Local\Temp\cca40R3I.s 			page 22


 1026 041a CF       		.byte	0xcf
 1027 041b 4F030000 		.4byte	0x34f
 1028 041f 02       		.byte	0x2
 1029 0420 23       		.byte	0x23
 1030 0421 38       		.uleb128 0x38
 1031 0422 13       		.uleb128 0x13
 1032 0423 5F757200 		.ascii	"_ur\000"
 1033 0427 06       		.byte	0x6
 1034 0428 D0       		.byte	0xd0
 1035 0429 70000000 		.4byte	0x70
 1036 042d 02       		.byte	0x2
 1037 042e 23       		.byte	0x23
 1038 042f 3C       		.uleb128 0x3c
 1039 0430 11       		.uleb128 0x11
 1040 0431 B0000000 		.4byte	.LASF61
 1041 0435 06       		.byte	0x6
 1042 0436 D3       		.byte	0xd3
 1043 0437 BA060000 		.4byte	0x6ba
 1044 043b 02       		.byte	0x2
 1045 043c 23       		.byte	0x23
 1046 043d 40       		.uleb128 0x40
 1047 043e 11       		.uleb128 0x11
 1048 043f 17050000 		.4byte	.LASF62
 1049 0443 06       		.byte	0x6
 1050 0444 D4       		.byte	0xd4
 1051 0445 CA060000 		.4byte	0x6ca
 1052 0449 02       		.byte	0x2
 1053 044a 23       		.byte	0x23
 1054 044b 43       		.uleb128 0x43
 1055 044c 13       		.uleb128 0x13
 1056 044d 5F6C6200 		.ascii	"_lb\000"
 1057 0451 06       		.byte	0x6
 1058 0452 D7       		.byte	0xd7
 1059 0453 26030000 		.4byte	0x326
 1060 0457 02       		.byte	0x2
 1061 0458 23       		.byte	0x23
 1062 0459 44       		.uleb128 0x44
 1063 045a 11       		.uleb128 0x11
 1064 045b 0D010000 		.4byte	.LASF63
 1065 045f 06       		.byte	0x6
 1066 0460 DA       		.byte	0xda
 1067 0461 70000000 		.4byte	0x70
 1068 0465 02       		.byte	0x2
 1069 0466 23       		.byte	0x23
 1070 0467 4C       		.uleb128 0x4c
 1071 0468 11       		.uleb128 0x11
 1072 0469 1E010000 		.4byte	.LASF64
 1073 046d 06       		.byte	0x6
 1074 046e DB       		.byte	0xdb
 1075 046f D1000000 		.4byte	0xd1
 1076 0473 02       		.byte	0x2
 1077 0474 23       		.byte	0x23
 1078 0475 50       		.uleb128 0x50
 1079 0476 11       		.uleb128 0x11
 1080 0477 2D000000 		.4byte	.LASF65
 1081 047b 06       		.byte	0x6
 1082 047c DE       		.byte	0xde
ARM GAS  C:\Users\embedded\AppData\Local\Temp\cca40R3I.s 			page 23


 1083 047d CE040000 		.4byte	0x4ce
 1084 0481 02       		.byte	0x2
 1085 0482 23       		.byte	0x23
 1086 0483 54       		.uleb128 0x54
 1087 0484 11       		.uleb128 0x11
 1088 0485 31020000 		.4byte	.LASF66
 1089 0489 06       		.byte	0x6
 1090 048a E2       		.byte	0xe2
 1091 048b 52010000 		.4byte	0x152
 1092 048f 02       		.byte	0x2
 1093 0490 23       		.byte	0x23
 1094 0491 58       		.uleb128 0x58
 1095 0492 11       		.uleb128 0x11
 1096 0493 C5030000 		.4byte	.LASF67
 1097 0497 06       		.byte	0x6
 1098 0498 E4       		.byte	0xe4
 1099 0499 47010000 		.4byte	0x147
 1100 049d 02       		.byte	0x2
 1101 049e 23       		.byte	0x23
 1102 049f 5C       		.uleb128 0x5c
 1103 04a0 11       		.uleb128 0x11
 1104 04a1 99030000 		.4byte	.LASF68
 1105 04a5 06       		.byte	0x6
 1106 04a6 E5       		.byte	0xe5
 1107 04a7 70000000 		.4byte	0x70
 1108 04ab 02       		.byte	0x2
 1109 04ac 23       		.byte	0x23
 1110 04ad 64       		.uleb128 0x64
 1111 04ae 00       		.byte	0
 1112 04af 16       		.uleb128 0x16
 1113 04b0 01       		.byte	0x1
 1114 04b1 70000000 		.4byte	0x70
 1115 04b5 CE040000 		.4byte	0x4ce
 1116 04b9 17       		.uleb128 0x17
 1117 04ba CE040000 		.4byte	0x4ce
 1118 04be 17       		.uleb128 0x17
 1119 04bf B8000000 		.4byte	0xb8
 1120 04c3 17       		.uleb128 0x17
 1121 04c4 37060000 		.4byte	0x637
 1122 04c8 17       		.uleb128 0x17
 1123 04c9 70000000 		.4byte	0x70
 1124 04cd 00       		.byte	0
 1125 04ce 09       		.uleb128 0x9
 1126 04cf 04       		.byte	0x4
 1127 04d0 D9040000 		.4byte	0x4d9
 1128 04d4 18       		.uleb128 0x18
 1129 04d5 CE040000 		.4byte	0x4ce
 1130 04d9 19       		.uleb128 0x19
 1131 04da 22040000 		.4byte	.LASF69
 1132 04de 2804     		.2byte	0x428
 1133 04e0 06       		.byte	0x6
 1134 04e1 6002     		.2byte	0x260
 1135 04e3 37060000 		.4byte	0x637
 1136 04e7 1A       		.uleb128 0x1a
 1137 04e8 60040000 		.4byte	.LASF70
 1138 04ec 06       		.byte	0x6
 1139 04ed 6202     		.2byte	0x262
ARM GAS  C:\Users\embedded\AppData\Local\Temp\cca40R3I.s 			page 24


 1140 04ef 70000000 		.4byte	0x70
 1141 04f3 02       		.byte	0x2
 1142 04f4 23       		.byte	0x23
 1143 04f5 00       		.uleb128 0
 1144 04f6 1A       		.uleb128 0x1a
 1145 04f7 06010000 		.4byte	.LASF71
 1146 04fb 06       		.byte	0x6
 1147 04fc 6702     		.2byte	0x267
 1148 04fe 27070000 		.4byte	0x727
 1149 0502 02       		.byte	0x2
 1150 0503 23       		.byte	0x23
 1151 0504 04       		.uleb128 0x4
 1152 0505 1A       		.uleb128 0x1a
 1153 0506 A9010000 		.4byte	.LASF72
 1154 050a 06       		.byte	0x6
 1155 050b 6702     		.2byte	0x267
 1156 050d 27070000 		.4byte	0x727
 1157 0511 02       		.byte	0x2
 1158 0512 23       		.byte	0x23
 1159 0513 08       		.uleb128 0x8
 1160 0514 1A       		.uleb128 0x1a
 1161 0515 61010000 		.4byte	.LASF73
 1162 0519 06       		.byte	0x6
 1163 051a 6702     		.2byte	0x267
 1164 051c 27070000 		.4byte	0x727
 1165 0520 02       		.byte	0x2
 1166 0521 23       		.byte	0x23
 1167 0522 0C       		.uleb128 0xc
 1168 0523 1A       		.uleb128 0x1a
 1169 0524 DF030000 		.4byte	.LASF74
 1170 0528 06       		.byte	0x6
 1171 0529 6902     		.2byte	0x269
 1172 052b 70000000 		.4byte	0x70
 1173 052f 02       		.byte	0x2
 1174 0530 23       		.byte	0x23
 1175 0531 10       		.uleb128 0x10
 1176 0532 1A       		.uleb128 0x1a
 1177 0533 22000000 		.4byte	.LASF75
 1178 0537 06       		.byte	0x6
 1179 0538 6A02     		.2byte	0x26a
 1180 053a 42090000 		.4byte	0x942
 1181 053e 02       		.byte	0x2
 1182 053f 23       		.byte	0x23
 1183 0540 14       		.uleb128 0x14
 1184 0541 1A       		.uleb128 0x1a
 1185 0542 04040000 		.4byte	.LASF76
 1186 0546 06       		.byte	0x6
 1187 0547 6D02     		.2byte	0x26d
 1188 0549 70000000 		.4byte	0x70
 1189 054d 02       		.byte	0x2
 1190 054e 23       		.byte	0x23
 1191 054f 30       		.uleb128 0x30
 1192 0550 1A       		.uleb128 0x1a
 1193 0551 F2030000 		.4byte	.LASF77
 1194 0555 06       		.byte	0x6
 1195 0556 6E02     		.2byte	0x26e
 1196 0558 58090000 		.4byte	0x958
ARM GAS  C:\Users\embedded\AppData\Local\Temp\cca40R3I.s 			page 25


 1197 055c 02       		.byte	0x2
 1198 055d 23       		.byte	0x23
 1199 055e 34       		.uleb128 0x34
 1200 055f 1A       		.uleb128 0x1a
 1201 0560 7C020000 		.4byte	.LASF78
 1202 0564 06       		.byte	0x6
 1203 0565 7002     		.2byte	0x270
 1204 0567 70000000 		.4byte	0x70
 1205 056b 02       		.byte	0x2
 1206 056c 23       		.byte	0x23
 1207 056d 38       		.uleb128 0x38
 1208 056e 1A       		.uleb128 0x1a
 1209 056f FA030000 		.4byte	.LASF79
 1210 0573 06       		.byte	0x6
 1211 0574 7202     		.2byte	0x272
 1212 0576 6A090000 		.4byte	0x96a
 1213 057a 02       		.byte	0x2
 1214 057b 23       		.byte	0x23
 1215 057c 3C       		.uleb128 0x3c
 1216 057d 1A       		.uleb128 0x1a
 1217 057e 0D020000 		.4byte	.LASF80
 1218 0582 06       		.byte	0x6
 1219 0583 7502     		.2byte	0x275
 1220 0585 C7010000 		.4byte	0x1c7
 1221 0589 02       		.byte	0x2
 1222 058a 23       		.byte	0x23
 1223 058b 40       		.uleb128 0x40
 1224 058c 1A       		.uleb128 0x1a
 1225 058d 86010000 		.4byte	.LASF81
 1226 0591 06       		.byte	0x6
 1227 0592 7602     		.2byte	0x276
 1228 0594 70000000 		.4byte	0x70
 1229 0598 02       		.byte	0x2
 1230 0599 23       		.byte	0x23
 1231 059a 44       		.uleb128 0x44
 1232 059b 1A       		.uleb128 0x1a
 1233 059c 59050000 		.4byte	.LASF82
 1234 05a0 06       		.byte	0x6
 1235 05a1 7702     		.2byte	0x277
 1236 05a3 C7010000 		.4byte	0x1c7
 1237 05a7 02       		.byte	0x2
 1238 05a8 23       		.byte	0x23
 1239 05a9 48       		.uleb128 0x48
 1240 05aa 1A       		.uleb128 0x1a
 1241 05ab A1030000 		.4byte	.LASF83
 1242 05af 06       		.byte	0x6
 1243 05b0 7802     		.2byte	0x278
 1244 05b2 70090000 		.4byte	0x970
 1245 05b6 02       		.byte	0x2
 1246 05b7 23       		.byte	0x23
 1247 05b8 4C       		.uleb128 0x4c
 1248 05b9 1A       		.uleb128 0x1a
 1249 05ba B1010000 		.4byte	.LASF84
 1250 05be 06       		.byte	0x6
 1251 05bf 7B02     		.2byte	0x27b
 1252 05c1 70000000 		.4byte	0x70
 1253 05c5 02       		.byte	0x2
ARM GAS  C:\Users\embedded\AppData\Local\Temp\cca40R3I.s 			page 26


 1254 05c6 23       		.byte	0x23
 1255 05c7 50       		.uleb128 0x50
 1256 05c8 1A       		.uleb128 0x1a
 1257 05c9 16010000 		.4byte	.LASF85
 1258 05cd 06       		.byte	0x6
 1259 05ce 7C02     		.2byte	0x27c
 1260 05d0 37060000 		.4byte	0x637
 1261 05d4 02       		.byte	0x2
 1262 05d5 23       		.byte	0x23
 1263 05d6 54       		.uleb128 0x54
 1264 05d7 1A       		.uleb128 0x1a
 1265 05d8 70030000 		.4byte	.LASF86
 1266 05dc 06       		.byte	0x6
 1267 05dd 9F02     		.2byte	0x29f
 1268 05df 20090000 		.4byte	0x920
 1269 05e3 02       		.byte	0x2
 1270 05e4 23       		.byte	0x23
 1271 05e5 58       		.uleb128 0x58
 1272 05e6 1A       		.uleb128 0x1a
 1273 05e7 74020000 		.4byte	.LASF46
 1274 05eb 06       		.byte	0x6
 1275 05ec A302     		.2byte	0x2a3
 1276 05ee 08030000 		.4byte	0x308
 1277 05f2 03       		.byte	0x3
 1278 05f3 23       		.byte	0x23
 1279 05f4 C802     		.uleb128 0x148
 1280 05f6 1A       		.uleb128 0x1a
 1281 05f7 EB010000 		.4byte	.LASF87
 1282 05fb 06       		.byte	0x6
 1283 05fc A402     		.2byte	0x2a4
 1284 05fe C1020000 		.4byte	0x2c1
 1285 0602 03       		.byte	0x3
 1286 0603 23       		.byte	0x23
 1287 0604 CC02     		.uleb128 0x14c
 1288 0606 1A       		.uleb128 0x1a
 1289 0607 0D050000 		.4byte	.LASF88
 1290 060b 06       		.byte	0x6
 1291 060c A802     		.2byte	0x2a8
 1292 060e 82090000 		.4byte	0x982
 1293 0612 03       		.byte	0x3
 1294 0613 23       		.byte	0x23
 1295 0614 DC05     		.uleb128 0x2dc
 1296 0616 1A       		.uleb128 0x1a
 1297 0617 DF000000 		.4byte	.LASF89
 1298 061b 06       		.byte	0x6
 1299 061c AD02     		.2byte	0x2ad
 1300 061e E6060000 		.4byte	0x6e6
 1301 0622 03       		.byte	0x3
 1302 0623 23       		.byte	0x23
 1303 0624 E005     		.uleb128 0x2e0
 1304 0626 1A       		.uleb128 0x1a
 1305 0627 C6000000 		.4byte	.LASF90
 1306 062b 06       		.byte	0x6
 1307 062c AF02     		.2byte	0x2af
 1308 062e 8E090000 		.4byte	0x98e
 1309 0632 03       		.byte	0x3
 1310 0633 23       		.byte	0x23
ARM GAS  C:\Users\embedded\AppData\Local\Temp\cca40R3I.s 			page 27


 1311 0634 EC05     		.uleb128 0x2ec
 1312 0636 00       		.byte	0
 1313 0637 09       		.uleb128 0x9
 1314 0638 04       		.byte	0x4
 1315 0639 3D060000 		.4byte	0x63d
 1316 063d 03       		.uleb128 0x3
 1317 063e 01       		.byte	0x1
 1318 063f 08       		.byte	0x8
 1319 0640 67040000 		.4byte	.LASF91
 1320 0644 18       		.uleb128 0x18
 1321 0645 3D060000 		.4byte	0x63d
 1322 0649 09       		.uleb128 0x9
 1323 064a 04       		.byte	0x4
 1324 064b AF040000 		.4byte	0x4af
 1325 064f 16       		.uleb128 0x16
 1326 0650 01       		.byte	0x1
 1327 0651 70000000 		.4byte	0x70
 1328 0655 6E060000 		.4byte	0x66e
 1329 0659 17       		.uleb128 0x17
 1330 065a CE040000 		.4byte	0x4ce
 1331 065e 17       		.uleb128 0x17
 1332 065f B8000000 		.4byte	0xb8
 1333 0663 17       		.uleb128 0x17
 1334 0664 6E060000 		.4byte	0x66e
 1335 0668 17       		.uleb128 0x17
 1336 0669 70000000 		.4byte	0x70
 1337 066d 00       		.byte	0
 1338 066e 09       		.uleb128 0x9
 1339 066f 04       		.byte	0x4
 1340 0670 44060000 		.4byte	0x644
 1341 0674 09       		.uleb128 0x9
 1342 0675 04       		.byte	0x4
 1343 0676 4F060000 		.4byte	0x64f
 1344 067a 16       		.uleb128 0x16
 1345 067b 01       		.byte	0x1
 1346 067c DC000000 		.4byte	0xdc
 1347 0680 99060000 		.4byte	0x699
 1348 0684 17       		.uleb128 0x17
 1349 0685 CE040000 		.4byte	0x4ce
 1350 0689 17       		.uleb128 0x17
 1351 068a B8000000 		.4byte	0xb8
 1352 068e 17       		.uleb128 0x17
 1353 068f DC000000 		.4byte	0xdc
 1354 0693 17       		.uleb128 0x17
 1355 0694 70000000 		.4byte	0x70
 1356 0698 00       		.byte	0
 1357 0699 09       		.uleb128 0x9
 1358 069a 04       		.byte	0x4
 1359 069b 7A060000 		.4byte	0x67a
 1360 069f 16       		.uleb128 0x16
 1361 06a0 01       		.byte	0x1
 1362 06a1 70000000 		.4byte	0x70
 1363 06a5 B4060000 		.4byte	0x6b4
 1364 06a9 17       		.uleb128 0x17
 1365 06aa CE040000 		.4byte	0x4ce
 1366 06ae 17       		.uleb128 0x17
 1367 06af B8000000 		.4byte	0xb8
ARM GAS  C:\Users\embedded\AppData\Local\Temp\cca40R3I.s 			page 28


 1368 06b3 00       		.byte	0
 1369 06b4 09       		.uleb128 0x9
 1370 06b5 04       		.byte	0x4
 1371 06b6 9F060000 		.4byte	0x69f
 1372 06ba 0E       		.uleb128 0xe
 1373 06bb 30000000 		.4byte	0x30
 1374 06bf CA060000 		.4byte	0x6ca
 1375 06c3 0F       		.uleb128 0xf
 1376 06c4 49000000 		.4byte	0x49
 1377 06c8 02       		.byte	0x2
 1378 06c9 00       		.byte	0
 1379 06ca 0E       		.uleb128 0xe
 1380 06cb 30000000 		.4byte	0x30
 1381 06cf DA060000 		.4byte	0x6da
 1382 06d3 0F       		.uleb128 0xf
 1383 06d4 49000000 		.4byte	0x49
 1384 06d8 00       		.byte	0
 1385 06d9 00       		.byte	0
 1386 06da 0B       		.uleb128 0xb
 1387 06db AB030000 		.4byte	.LASF92
 1388 06df 06       		.byte	0x6
 1389 06e0 1F01     		.2byte	0x11f
 1390 06e2 55030000 		.4byte	0x355
 1391 06e6 1B       		.uleb128 0x1b
 1392 06e7 F4040000 		.4byte	.LASF93
 1393 06eb 0C       		.byte	0xc
 1394 06ec 06       		.byte	0x6
 1395 06ed 2301     		.2byte	0x123
 1396 06ef 21070000 		.4byte	0x721
 1397 06f3 1A       		.uleb128 0x1a
 1398 06f4 82040000 		.4byte	.LASF26
 1399 06f8 06       		.byte	0x6
 1400 06f9 2501     		.2byte	0x125
 1401 06fb 21070000 		.4byte	0x721
 1402 06ff 02       		.byte	0x2
 1403 0700 23       		.byte	0x23
 1404 0701 00       		.uleb128 0
 1405 0702 1A       		.uleb128 0x1a
 1406 0703 D1010000 		.4byte	.LASF94
 1407 0707 06       		.byte	0x6
 1408 0708 2601     		.2byte	0x126
 1409 070a 70000000 		.4byte	0x70
 1410 070e 02       		.byte	0x2
 1411 070f 23       		.byte	0x23
 1412 0710 04       		.uleb128 0x4
 1413 0711 1A       		.uleb128 0x1a
 1414 0712 D9030000 		.4byte	.LASF95
 1415 0716 06       		.byte	0x6
 1416 0717 2701     		.2byte	0x127
 1417 0719 27070000 		.4byte	0x727
 1418 071d 02       		.byte	0x2
 1419 071e 23       		.byte	0x23
 1420 071f 08       		.uleb128 0x8
 1421 0720 00       		.byte	0
 1422 0721 09       		.uleb128 0x9
 1423 0722 04       		.byte	0x4
 1424 0723 E6060000 		.4byte	0x6e6
ARM GAS  C:\Users\embedded\AppData\Local\Temp\cca40R3I.s 			page 29


 1425 0727 09       		.uleb128 0x9
 1426 0728 04       		.byte	0x4
 1427 0729 DA060000 		.4byte	0x6da
 1428 072d 1B       		.uleb128 0x1b
 1429 072e 1A000000 		.4byte	.LASF96
 1430 0732 0E       		.byte	0xe
 1431 0733 06       		.byte	0x6
 1432 0734 3F01     		.2byte	0x13f
 1433 0736 68070000 		.4byte	0x768
 1434 073a 1A       		.uleb128 0x1a
 1435 073b 29040000 		.4byte	.LASF97
 1436 073f 06       		.byte	0x6
 1437 0740 4001     		.2byte	0x140
 1438 0742 68070000 		.4byte	0x768
 1439 0746 02       		.byte	0x2
 1440 0747 23       		.byte	0x23
 1441 0748 00       		.uleb128 0
 1442 0749 1A       		.uleb128 0x1a
 1443 074a 75040000 		.4byte	.LASF98
 1444 074e 06       		.byte	0x6
 1445 074f 4101     		.2byte	0x141
 1446 0751 68070000 		.4byte	0x768
 1447 0755 02       		.byte	0x2
 1448 0756 23       		.byte	0x23
 1449 0757 06       		.uleb128 0x6
 1450 0758 1A       		.uleb128 0x1a
 1451 0759 A6040000 		.4byte	.LASF99
 1452 075d 06       		.byte	0x6
 1453 075e 4201     		.2byte	0x142
 1454 0760 37000000 		.4byte	0x37
 1455 0764 02       		.byte	0x2
 1456 0765 23       		.byte	0x23
 1457 0766 0C       		.uleb128 0xc
 1458 0767 00       		.byte	0
 1459 0768 0E       		.uleb128 0xe
 1460 0769 37000000 		.4byte	0x37
 1461 076d 78070000 		.4byte	0x778
 1462 0771 0F       		.uleb128 0xf
 1463 0772 49000000 		.4byte	0x49
 1464 0776 02       		.byte	0x2
 1465 0777 00       		.byte	0
 1466 0778 1C       		.uleb128 0x1c
 1467 0779 D0       		.byte	0xd0
 1468 077a 06       		.byte	0x6
 1469 077b 8002     		.2byte	0x280
 1470 077d A8080000 		.4byte	0x8a8
 1471 0781 1A       		.uleb128 0x1a
 1472 0782 D8040000 		.4byte	.LASF100
 1473 0786 06       		.byte	0x6
 1474 0787 8202     		.2byte	0x282
 1475 0789 49000000 		.4byte	0x49
 1476 078d 02       		.byte	0x2
 1477 078e 23       		.byte	0x23
 1478 078f 00       		.uleb128 0
 1479 0790 1A       		.uleb128 0x1a
 1480 0791 88040000 		.4byte	.LASF101
 1481 0795 06       		.byte	0x6
ARM GAS  C:\Users\embedded\AppData\Local\Temp\cca40R3I.s 			page 30


 1482 0796 8302     		.2byte	0x283
 1483 0798 37060000 		.4byte	0x637
 1484 079c 02       		.byte	0x2
 1485 079d 23       		.byte	0x23
 1486 079e 04       		.uleb128 0x4
 1487 079f 1A       		.uleb128 0x1a
 1488 07a0 00020000 		.4byte	.LASF102
 1489 07a4 06       		.byte	0x6
 1490 07a5 8402     		.2byte	0x284
 1491 07a7 A8080000 		.4byte	0x8a8
 1492 07ab 02       		.byte	0x2
 1493 07ac 23       		.byte	0x23
 1494 07ad 08       		.uleb128 0x8
 1495 07ae 1A       		.uleb128 0x1a
 1496 07af 30050000 		.4byte	.LASF103
 1497 07b3 06       		.byte	0x6
 1498 07b4 8502     		.2byte	0x285
 1499 07b6 DD010000 		.4byte	0x1dd
 1500 07ba 02       		.byte	0x2
 1501 07bb 23       		.byte	0x23
 1502 07bc 24       		.uleb128 0x24
 1503 07bd 1A       		.uleb128 0x1a
 1504 07be 71010000 		.4byte	.LASF104
 1505 07c2 06       		.byte	0x6
 1506 07c3 8602     		.2byte	0x286
 1507 07c5 70000000 		.4byte	0x70
 1508 07c9 02       		.byte	0x2
 1509 07ca 23       		.byte	0x23
 1510 07cb 48       		.uleb128 0x48
 1511 07cc 1A       		.uleb128 0x1a
 1512 07cd CE030000 		.4byte	.LASF105
 1513 07d1 06       		.byte	0x6
 1514 07d2 8702     		.2byte	0x287
 1515 07d4 5B000000 		.4byte	0x5b
 1516 07d8 02       		.byte	0x2
 1517 07d9 23       		.byte	0x23
 1518 07da 50       		.uleb128 0x50
 1519 07db 1A       		.uleb128 0x1a
 1520 07dc 46050000 		.4byte	.LASF106
 1521 07e0 06       		.byte	0x6
 1522 07e1 8802     		.2byte	0x288
 1523 07e3 2D070000 		.4byte	0x72d
 1524 07e7 02       		.byte	0x2
 1525 07e8 23       		.byte	0x23
 1526 07e9 58       		.uleb128 0x58
 1527 07ea 1A       		.uleb128 0x1a
 1528 07eb 55030000 		.4byte	.LASF107
 1529 07ef 06       		.byte	0x6
 1530 07f0 8902     		.2byte	0x289
 1531 07f2 47010000 		.4byte	0x147
 1532 07f6 02       		.byte	0x2
 1533 07f7 23       		.byte	0x23
 1534 07f8 68       		.uleb128 0x68
 1535 07f9 1A       		.uleb128 0x1a
 1536 07fa 4B050000 		.4byte	.LASF108
 1537 07fe 06       		.byte	0x6
 1538 07ff 8A02     		.2byte	0x28a
ARM GAS  C:\Users\embedded\AppData\Local\Temp\cca40R3I.s 			page 31


 1539 0801 47010000 		.4byte	0x147
 1540 0805 02       		.byte	0x2
 1541 0806 23       		.byte	0x23
 1542 0807 70       		.uleb128 0x70
 1543 0808 1A       		.uleb128 0x1a
 1544 0809 47030000 		.4byte	.LASF109
 1545 080d 06       		.byte	0x6
 1546 080e 8B02     		.2byte	0x28b
 1547 0810 47010000 		.4byte	0x147
 1548 0814 02       		.byte	0x2
 1549 0815 23       		.byte	0x23
 1550 0816 78       		.uleb128 0x78
 1551 0817 1A       		.uleb128 0x1a
 1552 0818 03050000 		.4byte	.LASF110
 1553 081c 06       		.byte	0x6
 1554 081d 8C02     		.2byte	0x28c
 1555 081f B8080000 		.4byte	0x8b8
 1556 0823 03       		.byte	0x3
 1557 0824 23       		.byte	0x23
 1558 0825 8001     		.uleb128 0x80
 1559 0827 1A       		.uleb128 0x1a
 1560 0828 F4010000 		.4byte	.LASF111
 1561 082c 06       		.byte	0x6
 1562 082d 8D02     		.2byte	0x28d
 1563 082f C8080000 		.4byte	0x8c8
 1564 0833 03       		.byte	0x3
 1565 0834 23       		.byte	0x23
 1566 0835 8801     		.uleb128 0x88
 1567 0837 1A       		.uleb128 0x1a
 1568 0838 B3040000 		.4byte	.LASF112
 1569 083c 06       		.byte	0x6
 1570 083d 8E02     		.2byte	0x28e
 1571 083f 70000000 		.4byte	0x70
 1572 0843 03       		.byte	0x3
 1573 0844 23       		.byte	0x23
 1574 0845 A001     		.uleb128 0xa0
 1575 0847 1A       		.uleb128 0x1a
 1576 0848 37010000 		.4byte	.LASF113
 1577 084c 06       		.byte	0x6
 1578 084d 8F02     		.2byte	0x28f
 1579 084f 47010000 		.4byte	0x147
 1580 0853 03       		.byte	0x3
 1581 0854 23       		.byte	0x23
 1582 0855 A401     		.uleb128 0xa4
 1583 0857 1A       		.uleb128 0x1a
 1584 0858 7E000000 		.4byte	.LASF114
 1585 085c 06       		.byte	0x6
 1586 085d 9002     		.2byte	0x290
 1587 085f 47010000 		.4byte	0x147
 1588 0863 03       		.byte	0x3
 1589 0864 23       		.byte	0x23
 1590 0865 AC01     		.uleb128 0xac
 1591 0867 1A       		.uleb128 0x1a
 1592 0868 26010000 		.4byte	.LASF115
 1593 086c 06       		.byte	0x6
 1594 086d 9102     		.2byte	0x291
 1595 086f 47010000 		.4byte	0x147
ARM GAS  C:\Users\embedded\AppData\Local\Temp\cca40R3I.s 			page 32


 1596 0873 03       		.byte	0x3
 1597 0874 23       		.byte	0x23
 1598 0875 B401     		.uleb128 0xb4
 1599 0877 1A       		.uleb128 0x1a
 1600 0878 33000000 		.4byte	.LASF116
 1601 087c 06       		.byte	0x6
 1602 087d 9202     		.2byte	0x292
 1603 087f 47010000 		.4byte	0x147
 1604 0883 03       		.byte	0x3
 1605 0884 23       		.byte	0x23
 1606 0885 BC01     		.uleb128 0xbc
 1607 0887 1A       		.uleb128 0x1a
 1608 0888 42000000 		.4byte	.LASF117
 1609 088c 06       		.byte	0x6
 1610 088d 9302     		.2byte	0x293
 1611 088f 47010000 		.4byte	0x147
 1612 0893 03       		.byte	0x3
 1613 0894 23       		.byte	0x23
 1614 0895 C401     		.uleb128 0xc4
 1615 0897 1A       		.uleb128 0x1a
 1616 0898 75030000 		.4byte	.LASF118
 1617 089c 06       		.byte	0x6
 1618 089d 9402     		.2byte	0x294
 1619 089f 70000000 		.4byte	0x70
 1620 08a3 03       		.byte	0x3
 1621 08a4 23       		.byte	0x23
 1622 08a5 CC01     		.uleb128 0xcc
 1623 08a7 00       		.byte	0
 1624 08a8 0E       		.uleb128 0xe
 1625 08a9 3D060000 		.4byte	0x63d
 1626 08ad B8080000 		.4byte	0x8b8
 1627 08b1 0F       		.uleb128 0xf
 1628 08b2 49000000 		.4byte	0x49
 1629 08b6 19       		.byte	0x19
 1630 08b7 00       		.byte	0
 1631 08b8 0E       		.uleb128 0xe
 1632 08b9 3D060000 		.4byte	0x63d
 1633 08bd C8080000 		.4byte	0x8c8
 1634 08c1 0F       		.uleb128 0xf
 1635 08c2 49000000 		.4byte	0x49
 1636 08c6 07       		.byte	0x7
 1637 08c7 00       		.byte	0
 1638 08c8 0E       		.uleb128 0xe
 1639 08c9 3D060000 		.4byte	0x63d
 1640 08cd D8080000 		.4byte	0x8d8
 1641 08d1 0F       		.uleb128 0xf
 1642 08d2 49000000 		.4byte	0x49
 1643 08d6 17       		.byte	0x17
 1644 08d7 00       		.byte	0
 1645 08d8 1C       		.uleb128 0x1c
 1646 08d9 F0       		.byte	0xf0
 1647 08da 06       		.byte	0x6
 1648 08db 9902     		.2byte	0x299
 1649 08dd 00090000 		.4byte	0x900
 1650 08e1 1A       		.uleb128 0x1a
 1651 08e2 64020000 		.4byte	.LASF119
 1652 08e6 06       		.byte	0x6
ARM GAS  C:\Users\embedded\AppData\Local\Temp\cca40R3I.s 			page 33


 1653 08e7 9C02     		.2byte	0x29c
 1654 08e9 00090000 		.4byte	0x900
 1655 08ed 02       		.byte	0x2
 1656 08ee 23       		.byte	0x23
 1657 08ef 00       		.uleb128 0
 1658 08f0 1A       		.uleb128 0x1a
 1659 08f1 FA040000 		.4byte	.LASF120
 1660 08f5 06       		.byte	0x6
 1661 08f6 9D02     		.2byte	0x29d
 1662 08f8 10090000 		.4byte	0x910
 1663 08fc 02       		.byte	0x2
 1664 08fd 23       		.byte	0x23
 1665 08fe 78       		.uleb128 0x78
 1666 08ff 00       		.byte	0
 1667 0900 0E       		.uleb128 0xe
 1668 0901 4F030000 		.4byte	0x34f
 1669 0905 10090000 		.4byte	0x910
 1670 0909 0F       		.uleb128 0xf
 1671 090a 49000000 		.4byte	0x49
 1672 090e 1D       		.byte	0x1d
 1673 090f 00       		.byte	0
 1674 0910 0E       		.uleb128 0xe
 1675 0911 49000000 		.4byte	0x49
 1676 0915 20090000 		.4byte	0x920
 1677 0919 0F       		.uleb128 0xf
 1678 091a 49000000 		.4byte	0x49
 1679 091e 1D       		.byte	0x1d
 1680 091f 00       		.byte	0
 1681 0920 1D       		.uleb128 0x1d
 1682 0921 F0       		.byte	0xf0
 1683 0922 06       		.byte	0x6
 1684 0923 7E02     		.2byte	0x27e
 1685 0925 42090000 		.4byte	0x942
 1686 0929 1E       		.uleb128 0x1e
 1687 092a 22040000 		.4byte	.LASF69
 1688 092e 06       		.byte	0x6
 1689 092f 9502     		.2byte	0x295
 1690 0931 78070000 		.4byte	0x778
 1691 0935 1E       		.uleb128 0x1e
 1692 0936 1D050000 		.4byte	.LASF121
 1693 093a 06       		.byte	0x6
 1694 093b 9E02     		.2byte	0x29e
 1695 093d D8080000 		.4byte	0x8d8
 1696 0941 00       		.byte	0
 1697 0942 0E       		.uleb128 0xe
 1698 0943 3D060000 		.4byte	0x63d
 1699 0947 52090000 		.4byte	0x952
 1700 094b 0F       		.uleb128 0xf
 1701 094c 49000000 		.4byte	0x49
 1702 0950 18       		.byte	0x18
 1703 0951 00       		.byte	0
 1704 0952 0A       		.uleb128 0xa
 1705 0953 73000000 		.4byte	.LASF123
 1706 0957 01       		.byte	0x1
 1707 0958 09       		.uleb128 0x9
 1708 0959 04       		.byte	0x4
 1709 095a 52090000 		.4byte	0x952
ARM GAS  C:\Users\embedded\AppData\Local\Temp\cca40R3I.s 			page 34


 1710 095e 1F       		.uleb128 0x1f
 1711 095f 01       		.byte	0x1
 1712 0960 6A090000 		.4byte	0x96a
 1713 0964 17       		.uleb128 0x17
 1714 0965 CE040000 		.4byte	0x4ce
 1715 0969 00       		.byte	0
 1716 096a 09       		.uleb128 0x9
 1717 096b 04       		.byte	0x4
 1718 096c 5E090000 		.4byte	0x95e
 1719 0970 09       		.uleb128 0x9
 1720 0971 04       		.byte	0x4
 1721 0972 C7010000 		.4byte	0x1c7
 1722 0976 1F       		.uleb128 0x1f
 1723 0977 01       		.byte	0x1
 1724 0978 82090000 		.4byte	0x982
 1725 097c 17       		.uleb128 0x17
 1726 097d 70000000 		.4byte	0x70
 1727 0981 00       		.byte	0
 1728 0982 09       		.uleb128 0x9
 1729 0983 04       		.byte	0x4
 1730 0984 88090000 		.4byte	0x988
 1731 0988 09       		.uleb128 0x9
 1732 0989 04       		.byte	0x4
 1733 098a 76090000 		.4byte	0x976
 1734 098e 0E       		.uleb128 0xe
 1735 098f DA060000 		.4byte	0x6da
 1736 0993 9E090000 		.4byte	0x99e
 1737 0997 0F       		.uleb128 0xf
 1738 0998 49000000 		.4byte	0x49
 1739 099c 02       		.byte	0x2
 1740 099d 00       		.byte	0
 1741 099e 20       		.uleb128 0x20
 1742 099f 4C040000 		.4byte	.LASF124
 1743 09a3 06       		.byte	0x6
 1744 09a4 2E03     		.2byte	0x32e
 1745 09a6 CE040000 		.4byte	0x4ce
 1746 09aa 01       		.byte	0x1
 1747 09ab 01       		.byte	0x1
 1748 09ac 20       		.uleb128 0x20
 1749 09ad C5040000 		.4byte	.LASF125
 1750 09b1 06       		.byte	0x6
 1751 09b2 2F03     		.2byte	0x32f
 1752 09b4 D4040000 		.4byte	0x4d4
 1753 09b8 01       		.byte	0x1
 1754 09b9 01       		.byte	0x1
 1755 09ba 21       		.uleb128 0x21
 1756 09bb 01       		.byte	0x1
 1757 09bc 5E050000 		.4byte	.LASF132
 1758 09c0 01       		.byte	0x1
 1759 09c1 66       		.byte	0x66
 1760 09c2 01       		.byte	0x1
 1761 09c3 70000000 		.4byte	0x70
 1762 09c7 8C010000 		.4byte	.LFB5
 1763 09cb 84020000 		.4byte	.LFE5
 1764 09cf 00000000 		.4byte	.LLST2
 1765 09d3 01       		.byte	0x1
 1766 09d4 E7090000 		.4byte	0x9e7
ARM GAS  C:\Users\embedded\AppData\Local\Temp\cca40R3I.s 			page 35


 1767 09d8 22       		.uleb128 0x22
 1768 09d9 AC020000 		.4byte	.LASF133
 1769 09dd 01       		.byte	0x1
 1770 09de 87       		.byte	0x87
 1771 09df 98000000 		.4byte	0x98
 1772 09e3 02       		.byte	0x2
 1773 09e4 91       		.byte	0x91
 1774 09e5 77       		.sleb128 -9
 1775 09e6 00       		.byte	0
 1776 09e7 23       		.uleb128 0x23
 1777 09e8 E9030000 		.4byte	.LASF134
 1778 09ec 01       		.byte	0x1
 1779 09ed 55       		.byte	0x55
 1780 09ee 01       		.byte	0x1
 1781 09ef 5C000000 		.4byte	.LFB4
 1782 09f3 8C010000 		.4byte	.LFE4
 1783 09f7 38000000 		.4byte	.LLST1
 1784 09fb 01       		.byte	0x1
 1785 09fc 1D0A0000 		.4byte	0xa1d
 1786 0a00 24       		.uleb128 0x24
 1787 0a01 7B040000 		.4byte	.LASF126
 1788 0a05 01       		.byte	0x1
 1789 0a06 55       		.byte	0x55
 1790 0a07 3E000000 		.4byte	0x3e
 1791 0a0b 02       		.byte	0x2
 1792 0a0c 91       		.byte	0x91
 1793 0a0d 64       		.sleb128 -28
 1794 0a0e 24       		.uleb128 0x24
 1795 0a0f 59020000 		.4byte	.LASF127
 1796 0a13 01       		.byte	0x1
 1797 0a14 55       		.byte	0x55
 1798 0a15 25000000 		.4byte	0x25
 1799 0a19 02       		.byte	0x2
 1800 0a1a 91       		.byte	0x91
 1801 0a1b 63       		.sleb128 -29
 1802 0a1c 00       		.byte	0
 1803 0a1d 25       		.uleb128 0x25
 1804 0a1e F0000000 		.4byte	.LASF135
 1805 0a22 01       		.byte	0x1
 1806 0a23 3C       		.byte	0x3c
 1807 0a24 01       		.byte	0x1
 1808 0a25 00000000 		.4byte	.LFB3
 1809 0a29 5C000000 		.4byte	.LFE3
 1810 0a2d 72000000 		.4byte	.LLST0
 1811 0a31 01       		.byte	0x1
 1812 0a32 24       		.uleb128 0x24
 1813 0a33 3F030000 		.4byte	.LASF128
 1814 0a37 01       		.byte	0x1
 1815 0a38 3C       		.byte	0x3c
 1816 0a39 3E000000 		.4byte	0x3e
 1817 0a3d 02       		.byte	0x2
 1818 0a3e 91       		.byte	0x91
 1819 0a3f 74       		.sleb128 -12
 1820 0a40 00       		.byte	0
 1821 0a41 00       		.byte	0
 1822              		.section	.debug_abbrev,"",%progbits
 1823              	.Ldebug_abbrev0:
ARM GAS  C:\Users\embedded\AppData\Local\Temp\cca40R3I.s 			page 36


 1824 0000 01       		.uleb128 0x1
 1825 0001 11       		.uleb128 0x11
 1826 0002 01       		.byte	0x1
 1827 0003 25       		.uleb128 0x25
 1828 0004 0E       		.uleb128 0xe
 1829 0005 13       		.uleb128 0x13
 1830 0006 0B       		.uleb128 0xb
 1831 0007 03       		.uleb128 0x3
 1832 0008 0E       		.uleb128 0xe
 1833 0009 1B       		.uleb128 0x1b
 1834 000a 0E       		.uleb128 0xe
 1835 000b 11       		.uleb128 0x11
 1836 000c 01       		.uleb128 0x1
 1837 000d 12       		.uleb128 0x12
 1838 000e 01       		.uleb128 0x1
 1839 000f 10       		.uleb128 0x10
 1840 0010 06       		.uleb128 0x6
 1841 0011 00       		.byte	0
 1842 0012 00       		.byte	0
 1843 0013 02       		.uleb128 0x2
 1844 0014 16       		.uleb128 0x16
 1845 0015 00       		.byte	0
 1846 0016 03       		.uleb128 0x3
 1847 0017 08       		.uleb128 0x8
 1848 0018 3A       		.uleb128 0x3a
 1849 0019 0B       		.uleb128 0xb
 1850 001a 3B       		.uleb128 0x3b
 1851 001b 0B       		.uleb128 0xb
 1852 001c 49       		.uleb128 0x49
 1853 001d 13       		.uleb128 0x13
 1854 001e 00       		.byte	0
 1855 001f 00       		.byte	0
 1856 0020 03       		.uleb128 0x3
 1857 0021 24       		.uleb128 0x24
 1858 0022 00       		.byte	0
 1859 0023 0B       		.uleb128 0xb
 1860 0024 0B       		.uleb128 0xb
 1861 0025 3E       		.uleb128 0x3e
 1862 0026 0B       		.uleb128 0xb
 1863 0027 03       		.uleb128 0x3
 1864 0028 0E       		.uleb128 0xe
 1865 0029 00       		.byte	0
 1866 002a 00       		.byte	0
 1867 002b 04       		.uleb128 0x4
 1868 002c 16       		.uleb128 0x16
 1869 002d 00       		.byte	0
 1870 002e 03       		.uleb128 0x3
 1871 002f 0E       		.uleb128 0xe
 1872 0030 3A       		.uleb128 0x3a
 1873 0031 0B       		.uleb128 0xb
 1874 0032 3B       		.uleb128 0x3b
 1875 0033 0B       		.uleb128 0xb
 1876 0034 49       		.uleb128 0x49
 1877 0035 13       		.uleb128 0x13
 1878 0036 00       		.byte	0
 1879 0037 00       		.byte	0
 1880 0038 05       		.uleb128 0x5
ARM GAS  C:\Users\embedded\AppData\Local\Temp\cca40R3I.s 			page 37


 1881 0039 24       		.uleb128 0x24
 1882 003a 00       		.byte	0
 1883 003b 0B       		.uleb128 0xb
 1884 003c 0B       		.uleb128 0xb
 1885 003d 3E       		.uleb128 0x3e
 1886 003e 0B       		.uleb128 0xb
 1887 003f 03       		.uleb128 0x3
 1888 0040 08       		.uleb128 0x8
 1889 0041 00       		.byte	0
 1890 0042 00       		.byte	0
 1891 0043 06       		.uleb128 0x6
 1892 0044 04       		.uleb128 0x4
 1893 0045 01       		.byte	0x1
 1894 0046 3E       		.uleb128 0x3e
 1895 0047 0B       		.uleb128 0xb
 1896 0048 0B       		.uleb128 0xb
 1897 0049 0B       		.uleb128 0xb
 1898 004a 49       		.uleb128 0x49
 1899 004b 13       		.uleb128 0x13
 1900 004c 3A       		.uleb128 0x3a
 1901 004d 0B       		.uleb128 0xb
 1902 004e 3B       		.uleb128 0x3b
 1903 004f 0B       		.uleb128 0xb
 1904 0050 01       		.uleb128 0x1
 1905 0051 13       		.uleb128 0x13
 1906 0052 00       		.byte	0
 1907 0053 00       		.byte	0
 1908 0054 07       		.uleb128 0x7
 1909 0055 28       		.uleb128 0x28
 1910 0056 00       		.byte	0
 1911 0057 03       		.uleb128 0x3
 1912 0058 0E       		.uleb128 0xe
 1913 0059 1C       		.uleb128 0x1c
 1914 005a 0B       		.uleb128 0xb
 1915 005b 00       		.byte	0
 1916 005c 00       		.byte	0
 1917 005d 08       		.uleb128 0x8
 1918 005e 0F       		.uleb128 0xf
 1919 005f 00       		.byte	0
 1920 0060 0B       		.uleb128 0xb
 1921 0061 0B       		.uleb128 0xb
 1922 0062 00       		.byte	0
 1923 0063 00       		.byte	0
 1924 0064 09       		.uleb128 0x9
 1925 0065 0F       		.uleb128 0xf
 1926 0066 00       		.byte	0
 1927 0067 0B       		.uleb128 0xb
 1928 0068 0B       		.uleb128 0xb
 1929 0069 49       		.uleb128 0x49
 1930 006a 13       		.uleb128 0x13
 1931 006b 00       		.byte	0
 1932 006c 00       		.byte	0
 1933 006d 0A       		.uleb128 0xa
 1934 006e 13       		.uleb128 0x13
 1935 006f 00       		.byte	0
 1936 0070 03       		.uleb128 0x3
 1937 0071 0E       		.uleb128 0xe
ARM GAS  C:\Users\embedded\AppData\Local\Temp\cca40R3I.s 			page 38


 1938 0072 3C       		.uleb128 0x3c
 1939 0073 0C       		.uleb128 0xc
 1940 0074 00       		.byte	0
 1941 0075 00       		.byte	0
 1942 0076 0B       		.uleb128 0xb
 1943 0077 16       		.uleb128 0x16
 1944 0078 00       		.byte	0
 1945 0079 03       		.uleb128 0x3
 1946 007a 0E       		.uleb128 0xe
 1947 007b 3A       		.uleb128 0x3a
 1948 007c 0B       		.uleb128 0xb
 1949 007d 3B       		.uleb128 0x3b
 1950 007e 05       		.uleb128 0x5
 1951 007f 49       		.uleb128 0x49
 1952 0080 13       		.uleb128 0x13
 1953 0081 00       		.byte	0
 1954 0082 00       		.byte	0
 1955 0083 0C       		.uleb128 0xc
 1956 0084 17       		.uleb128 0x17
 1957 0085 01       		.byte	0x1
 1958 0086 0B       		.uleb128 0xb
 1959 0087 0B       		.uleb128 0xb
 1960 0088 3A       		.uleb128 0x3a
 1961 0089 0B       		.uleb128 0xb
 1962 008a 3B       		.uleb128 0x3b
 1963 008b 0B       		.uleb128 0xb
 1964 008c 01       		.uleb128 0x1
 1965 008d 13       		.uleb128 0x13
 1966 008e 00       		.byte	0
 1967 008f 00       		.byte	0
 1968 0090 0D       		.uleb128 0xd
 1969 0091 0D       		.uleb128 0xd
 1970 0092 00       		.byte	0
 1971 0093 03       		.uleb128 0x3
 1972 0094 0E       		.uleb128 0xe
 1973 0095 3A       		.uleb128 0x3a
 1974 0096 0B       		.uleb128 0xb
 1975 0097 3B       		.uleb128 0x3b
 1976 0098 0B       		.uleb128 0xb
 1977 0099 49       		.uleb128 0x49
 1978 009a 13       		.uleb128 0x13
 1979 009b 00       		.byte	0
 1980 009c 00       		.byte	0
 1981 009d 0E       		.uleb128 0xe
 1982 009e 01       		.uleb128 0x1
 1983 009f 01       		.byte	0x1
 1984 00a0 49       		.uleb128 0x49
 1985 00a1 13       		.uleb128 0x13
 1986 00a2 01       		.uleb128 0x1
 1987 00a3 13       		.uleb128 0x13
 1988 00a4 00       		.byte	0
 1989 00a5 00       		.byte	0
 1990 00a6 0F       		.uleb128 0xf
 1991 00a7 21       		.uleb128 0x21
 1992 00a8 00       		.byte	0
 1993 00a9 49       		.uleb128 0x49
 1994 00aa 13       		.uleb128 0x13
ARM GAS  C:\Users\embedded\AppData\Local\Temp\cca40R3I.s 			page 39


 1995 00ab 2F       		.uleb128 0x2f
 1996 00ac 0B       		.uleb128 0xb
 1997 00ad 00       		.byte	0
 1998 00ae 00       		.byte	0
 1999 00af 10       		.uleb128 0x10
 2000 00b0 13       		.uleb128 0x13
 2001 00b1 01       		.byte	0x1
 2002 00b2 0B       		.uleb128 0xb
 2003 00b3 0B       		.uleb128 0xb
 2004 00b4 3A       		.uleb128 0x3a
 2005 00b5 0B       		.uleb128 0xb
 2006 00b6 3B       		.uleb128 0x3b
 2007 00b7 0B       		.uleb128 0xb
 2008 00b8 01       		.uleb128 0x1
 2009 00b9 13       		.uleb128 0x13
 2010 00ba 00       		.byte	0
 2011 00bb 00       		.byte	0
 2012 00bc 11       		.uleb128 0x11
 2013 00bd 0D       		.uleb128 0xd
 2014 00be 00       		.byte	0
 2015 00bf 03       		.uleb128 0x3
 2016 00c0 0E       		.uleb128 0xe
 2017 00c1 3A       		.uleb128 0x3a
 2018 00c2 0B       		.uleb128 0xb
 2019 00c3 3B       		.uleb128 0x3b
 2020 00c4 0B       		.uleb128 0xb
 2021 00c5 49       		.uleb128 0x49
 2022 00c6 13       		.uleb128 0x13
 2023 00c7 38       		.uleb128 0x38
 2024 00c8 0A       		.uleb128 0xa
 2025 00c9 00       		.byte	0
 2026 00ca 00       		.byte	0
 2027 00cb 12       		.uleb128 0x12
 2028 00cc 13       		.uleb128 0x13
 2029 00cd 01       		.byte	0x1
 2030 00ce 03       		.uleb128 0x3
 2031 00cf 0E       		.uleb128 0xe
 2032 00d0 0B       		.uleb128 0xb
 2033 00d1 0B       		.uleb128 0xb
 2034 00d2 3A       		.uleb128 0x3a
 2035 00d3 0B       		.uleb128 0xb
 2036 00d4 3B       		.uleb128 0x3b
 2037 00d5 0B       		.uleb128 0xb
 2038 00d6 01       		.uleb128 0x1
 2039 00d7 13       		.uleb128 0x13
 2040 00d8 00       		.byte	0
 2041 00d9 00       		.byte	0
 2042 00da 13       		.uleb128 0x13
 2043 00db 0D       		.uleb128 0xd
 2044 00dc 00       		.byte	0
 2045 00dd 03       		.uleb128 0x3
 2046 00de 08       		.uleb128 0x8
 2047 00df 3A       		.uleb128 0x3a
 2048 00e0 0B       		.uleb128 0xb
 2049 00e1 3B       		.uleb128 0x3b
 2050 00e2 0B       		.uleb128 0xb
 2051 00e3 49       		.uleb128 0x49
ARM GAS  C:\Users\embedded\AppData\Local\Temp\cca40R3I.s 			page 40


 2052 00e4 13       		.uleb128 0x13
 2053 00e5 38       		.uleb128 0x38
 2054 00e6 0A       		.uleb128 0xa
 2055 00e7 00       		.byte	0
 2056 00e8 00       		.byte	0
 2057 00e9 14       		.uleb128 0x14
 2058 00ea 13       		.uleb128 0x13
 2059 00eb 01       		.byte	0x1
 2060 00ec 03       		.uleb128 0x3
 2061 00ed 0E       		.uleb128 0xe
 2062 00ee 0B       		.uleb128 0xb
 2063 00ef 05       		.uleb128 0x5
 2064 00f0 3A       		.uleb128 0x3a
 2065 00f1 0B       		.uleb128 0xb
 2066 00f2 3B       		.uleb128 0x3b
 2067 00f3 0B       		.uleb128 0xb
 2068 00f4 01       		.uleb128 0x1
 2069 00f5 13       		.uleb128 0x13
 2070 00f6 00       		.byte	0
 2071 00f7 00       		.byte	0
 2072 00f8 15       		.uleb128 0x15
 2073 00f9 15       		.uleb128 0x15
 2074 00fa 00       		.byte	0
 2075 00fb 27       		.uleb128 0x27
 2076 00fc 0C       		.uleb128 0xc
 2077 00fd 00       		.byte	0
 2078 00fe 00       		.byte	0
 2079 00ff 16       		.uleb128 0x16
 2080 0100 15       		.uleb128 0x15
 2081 0101 01       		.byte	0x1
 2082 0102 27       		.uleb128 0x27
 2083 0103 0C       		.uleb128 0xc
 2084 0104 49       		.uleb128 0x49
 2085 0105 13       		.uleb128 0x13
 2086 0106 01       		.uleb128 0x1
 2087 0107 13       		.uleb128 0x13
 2088 0108 00       		.byte	0
 2089 0109 00       		.byte	0
 2090 010a 17       		.uleb128 0x17
 2091 010b 05       		.uleb128 0x5
 2092 010c 00       		.byte	0
 2093 010d 49       		.uleb128 0x49
 2094 010e 13       		.uleb128 0x13
 2095 010f 00       		.byte	0
 2096 0110 00       		.byte	0
 2097 0111 18       		.uleb128 0x18
 2098 0112 26       		.uleb128 0x26
 2099 0113 00       		.byte	0
 2100 0114 49       		.uleb128 0x49
 2101 0115 13       		.uleb128 0x13
 2102 0116 00       		.byte	0
 2103 0117 00       		.byte	0
 2104 0118 19       		.uleb128 0x19
 2105 0119 13       		.uleb128 0x13
 2106 011a 01       		.byte	0x1
 2107 011b 03       		.uleb128 0x3
 2108 011c 0E       		.uleb128 0xe
ARM GAS  C:\Users\embedded\AppData\Local\Temp\cca40R3I.s 			page 41


 2109 011d 0B       		.uleb128 0xb
 2110 011e 05       		.uleb128 0x5
 2111 011f 3A       		.uleb128 0x3a
 2112 0120 0B       		.uleb128 0xb
 2113 0121 3B       		.uleb128 0x3b
 2114 0122 05       		.uleb128 0x5
 2115 0123 01       		.uleb128 0x1
 2116 0124 13       		.uleb128 0x13
 2117 0125 00       		.byte	0
 2118 0126 00       		.byte	0
 2119 0127 1A       		.uleb128 0x1a
 2120 0128 0D       		.uleb128 0xd
 2121 0129 00       		.byte	0
 2122 012a 03       		.uleb128 0x3
 2123 012b 0E       		.uleb128 0xe
 2124 012c 3A       		.uleb128 0x3a
 2125 012d 0B       		.uleb128 0xb
 2126 012e 3B       		.uleb128 0x3b
 2127 012f 05       		.uleb128 0x5
 2128 0130 49       		.uleb128 0x49
 2129 0131 13       		.uleb128 0x13
 2130 0132 38       		.uleb128 0x38
 2131 0133 0A       		.uleb128 0xa
 2132 0134 00       		.byte	0
 2133 0135 00       		.byte	0
 2134 0136 1B       		.uleb128 0x1b
 2135 0137 13       		.uleb128 0x13
 2136 0138 01       		.byte	0x1
 2137 0139 03       		.uleb128 0x3
 2138 013a 0E       		.uleb128 0xe
 2139 013b 0B       		.uleb128 0xb
 2140 013c 0B       		.uleb128 0xb
 2141 013d 3A       		.uleb128 0x3a
 2142 013e 0B       		.uleb128 0xb
 2143 013f 3B       		.uleb128 0x3b
 2144 0140 05       		.uleb128 0x5
 2145 0141 01       		.uleb128 0x1
 2146 0142 13       		.uleb128 0x13
 2147 0143 00       		.byte	0
 2148 0144 00       		.byte	0
 2149 0145 1C       		.uleb128 0x1c
 2150 0146 13       		.uleb128 0x13
 2151 0147 01       		.byte	0x1
 2152 0148 0B       		.uleb128 0xb
 2153 0149 0B       		.uleb128 0xb
 2154 014a 3A       		.uleb128 0x3a
 2155 014b 0B       		.uleb128 0xb
 2156 014c 3B       		.uleb128 0x3b
 2157 014d 05       		.uleb128 0x5
 2158 014e 01       		.uleb128 0x1
 2159 014f 13       		.uleb128 0x13
 2160 0150 00       		.byte	0
 2161 0151 00       		.byte	0
 2162 0152 1D       		.uleb128 0x1d
 2163 0153 17       		.uleb128 0x17
 2164 0154 01       		.byte	0x1
 2165 0155 0B       		.uleb128 0xb
ARM GAS  C:\Users\embedded\AppData\Local\Temp\cca40R3I.s 			page 42


 2166 0156 0B       		.uleb128 0xb
 2167 0157 3A       		.uleb128 0x3a
 2168 0158 0B       		.uleb128 0xb
 2169 0159 3B       		.uleb128 0x3b
 2170 015a 05       		.uleb128 0x5
 2171 015b 01       		.uleb128 0x1
 2172 015c 13       		.uleb128 0x13
 2173 015d 00       		.byte	0
 2174 015e 00       		.byte	0
 2175 015f 1E       		.uleb128 0x1e
 2176 0160 0D       		.uleb128 0xd
 2177 0161 00       		.byte	0
 2178 0162 03       		.uleb128 0x3
 2179 0163 0E       		.uleb128 0xe
 2180 0164 3A       		.uleb128 0x3a
 2181 0165 0B       		.uleb128 0xb
 2182 0166 3B       		.uleb128 0x3b
 2183 0167 05       		.uleb128 0x5
 2184 0168 49       		.uleb128 0x49
 2185 0169 13       		.uleb128 0x13
 2186 016a 00       		.byte	0
 2187 016b 00       		.byte	0
 2188 016c 1F       		.uleb128 0x1f
 2189 016d 15       		.uleb128 0x15
 2190 016e 01       		.byte	0x1
 2191 016f 27       		.uleb128 0x27
 2192 0170 0C       		.uleb128 0xc
 2193 0171 01       		.uleb128 0x1
 2194 0172 13       		.uleb128 0x13
 2195 0173 00       		.byte	0
 2196 0174 00       		.byte	0
 2197 0175 20       		.uleb128 0x20
 2198 0176 34       		.uleb128 0x34
 2199 0177 00       		.byte	0
 2200 0178 03       		.uleb128 0x3
 2201 0179 0E       		.uleb128 0xe
 2202 017a 3A       		.uleb128 0x3a
 2203 017b 0B       		.uleb128 0xb
 2204 017c 3B       		.uleb128 0x3b
 2205 017d 05       		.uleb128 0x5
 2206 017e 49       		.uleb128 0x49
 2207 017f 13       		.uleb128 0x13
 2208 0180 3F       		.uleb128 0x3f
 2209 0181 0C       		.uleb128 0xc
 2210 0182 3C       		.uleb128 0x3c
 2211 0183 0C       		.uleb128 0xc
 2212 0184 00       		.byte	0
 2213 0185 00       		.byte	0
 2214 0186 21       		.uleb128 0x21
 2215 0187 2E       		.uleb128 0x2e
 2216 0188 01       		.byte	0x1
 2217 0189 3F       		.uleb128 0x3f
 2218 018a 0C       		.uleb128 0xc
 2219 018b 03       		.uleb128 0x3
 2220 018c 0E       		.uleb128 0xe
 2221 018d 3A       		.uleb128 0x3a
 2222 018e 0B       		.uleb128 0xb
ARM GAS  C:\Users\embedded\AppData\Local\Temp\cca40R3I.s 			page 43


 2223 018f 3B       		.uleb128 0x3b
 2224 0190 0B       		.uleb128 0xb
 2225 0191 27       		.uleb128 0x27
 2226 0192 0C       		.uleb128 0xc
 2227 0193 49       		.uleb128 0x49
 2228 0194 13       		.uleb128 0x13
 2229 0195 11       		.uleb128 0x11
 2230 0196 01       		.uleb128 0x1
 2231 0197 12       		.uleb128 0x12
 2232 0198 01       		.uleb128 0x1
 2233 0199 40       		.uleb128 0x40
 2234 019a 06       		.uleb128 0x6
 2235 019b 9642     		.uleb128 0x2116
 2236 019d 0C       		.uleb128 0xc
 2237 019e 01       		.uleb128 0x1
 2238 019f 13       		.uleb128 0x13
 2239 01a0 00       		.byte	0
 2240 01a1 00       		.byte	0
 2241 01a2 22       		.uleb128 0x22
 2242 01a3 34       		.uleb128 0x34
 2243 01a4 00       		.byte	0
 2244 01a5 03       		.uleb128 0x3
 2245 01a6 0E       		.uleb128 0xe
 2246 01a7 3A       		.uleb128 0x3a
 2247 01a8 0B       		.uleb128 0xb
 2248 01a9 3B       		.uleb128 0x3b
 2249 01aa 0B       		.uleb128 0xb
 2250 01ab 49       		.uleb128 0x49
 2251 01ac 13       		.uleb128 0x13
 2252 01ad 02       		.uleb128 0x2
 2253 01ae 0A       		.uleb128 0xa
 2254 01af 00       		.byte	0
 2255 01b0 00       		.byte	0
 2256 01b1 23       		.uleb128 0x23
 2257 01b2 2E       		.uleb128 0x2e
 2258 01b3 01       		.byte	0x1
 2259 01b4 03       		.uleb128 0x3
 2260 01b5 0E       		.uleb128 0xe
 2261 01b6 3A       		.uleb128 0x3a
 2262 01b7 0B       		.uleb128 0xb
 2263 01b8 3B       		.uleb128 0x3b
 2264 01b9 0B       		.uleb128 0xb
 2265 01ba 27       		.uleb128 0x27
 2266 01bb 0C       		.uleb128 0xc
 2267 01bc 11       		.uleb128 0x11
 2268 01bd 01       		.uleb128 0x1
 2269 01be 12       		.uleb128 0x12
 2270 01bf 01       		.uleb128 0x1
 2271 01c0 40       		.uleb128 0x40
 2272 01c1 06       		.uleb128 0x6
 2273 01c2 9642     		.uleb128 0x2116
 2274 01c4 0C       		.uleb128 0xc
 2275 01c5 01       		.uleb128 0x1
 2276 01c6 13       		.uleb128 0x13
 2277 01c7 00       		.byte	0
 2278 01c8 00       		.byte	0
 2279 01c9 24       		.uleb128 0x24
ARM GAS  C:\Users\embedded\AppData\Local\Temp\cca40R3I.s 			page 44


 2280 01ca 05       		.uleb128 0x5
 2281 01cb 00       		.byte	0
 2282 01cc 03       		.uleb128 0x3
 2283 01cd 0E       		.uleb128 0xe
 2284 01ce 3A       		.uleb128 0x3a
 2285 01cf 0B       		.uleb128 0xb
 2286 01d0 3B       		.uleb128 0x3b
 2287 01d1 0B       		.uleb128 0xb
 2288 01d2 49       		.uleb128 0x49
 2289 01d3 13       		.uleb128 0x13
 2290 01d4 02       		.uleb128 0x2
 2291 01d5 0A       		.uleb128 0xa
 2292 01d6 00       		.byte	0
 2293 01d7 00       		.byte	0
 2294 01d8 25       		.uleb128 0x25
 2295 01d9 2E       		.uleb128 0x2e
 2296 01da 01       		.byte	0x1
 2297 01db 03       		.uleb128 0x3
 2298 01dc 0E       		.uleb128 0xe
 2299 01dd 3A       		.uleb128 0x3a
 2300 01de 0B       		.uleb128 0xb
 2301 01df 3B       		.uleb128 0x3b
 2302 01e0 0B       		.uleb128 0xb
 2303 01e1 27       		.uleb128 0x27
 2304 01e2 0C       		.uleb128 0xc
 2305 01e3 11       		.uleb128 0x11
 2306 01e4 01       		.uleb128 0x1
 2307 01e5 12       		.uleb128 0x12
 2308 01e6 01       		.uleb128 0x1
 2309 01e7 40       		.uleb128 0x40
 2310 01e8 06       		.uleb128 0x6
 2311 01e9 9742     		.uleb128 0x2117
 2312 01eb 0C       		.uleb128 0xc
 2313 01ec 00       		.byte	0
 2314 01ed 00       		.byte	0
 2315 01ee 00       		.byte	0
 2316              		.section	.debug_loc,"",%progbits
 2317              	.Ldebug_loc0:
 2318              	.LLST2:
 2319 0000 8C010000 		.4byte	.LFB5-.Ltext0
 2320 0004 8E010000 		.4byte	.LCFI6-.Ltext0
 2321 0008 0200     		.2byte	0x2
 2322 000a 7D       		.byte	0x7d
 2323 000b 00       		.sleb128 0
 2324 000c 8E010000 		.4byte	.LCFI6-.Ltext0
 2325 0010 90010000 		.4byte	.LCFI7-.Ltext0
 2326 0014 0200     		.2byte	0x2
 2327 0016 7D       		.byte	0x7d
 2328 0017 08       		.sleb128 8
 2329 0018 90010000 		.4byte	.LCFI7-.Ltext0
 2330 001c 92010000 		.4byte	.LCFI8-.Ltext0
 2331 0020 0200     		.2byte	0x2
 2332 0022 7D       		.byte	0x7d
 2333 0023 10       		.sleb128 16
 2334 0024 92010000 		.4byte	.LCFI8-.Ltext0
 2335 0028 84020000 		.4byte	.LFE5-.Ltext0
 2336 002c 0200     		.2byte	0x2
ARM GAS  C:\Users\embedded\AppData\Local\Temp\cca40R3I.s 			page 45


 2337 002e 77       		.byte	0x77
 2338 002f 10       		.sleb128 16
 2339 0030 00000000 		.4byte	0
 2340 0034 00000000 		.4byte	0
 2341              	.LLST1:
 2342 0038 5C000000 		.4byte	.LFB4-.Ltext0
 2343 003c 5E000000 		.4byte	.LCFI3-.Ltext0
 2344 0040 0200     		.2byte	0x2
 2345 0042 7D       		.byte	0x7d
 2346 0043 00       		.sleb128 0
 2347 0044 5E000000 		.4byte	.LCFI3-.Ltext0
 2348 0048 60000000 		.4byte	.LCFI4-.Ltext0
 2349 004c 0200     		.2byte	0x2
 2350 004e 7D       		.byte	0x7d
 2351 004f 14       		.sleb128 20
 2352 0050 60000000 		.4byte	.LCFI4-.Ltext0
 2353 0054 62000000 		.4byte	.LCFI5-.Ltext0
 2354 0058 0300     		.2byte	0x3
 2355 005a 7D       		.byte	0x7d
 2356 005b C800     		.sleb128 72
 2357 005d 62000000 		.4byte	.LCFI5-.Ltext0
 2358 0061 8C010000 		.4byte	.LFE4-.Ltext0
 2359 0065 0300     		.2byte	0x3
 2360 0067 77       		.byte	0x77
 2361 0068 C800     		.sleb128 72
 2362 006a 00000000 		.4byte	0
 2363 006e 00000000 		.4byte	0
 2364              	.LLST0:
 2365 0072 00000000 		.4byte	.LFB3-.Ltext0
 2366 0076 02000000 		.4byte	.LCFI0-.Ltext0
 2367 007a 0200     		.2byte	0x2
 2368 007c 7D       		.byte	0x7d
 2369 007d 00       		.sleb128 0
 2370 007e 02000000 		.4byte	.LCFI0-.Ltext0
 2371 0082 04000000 		.4byte	.LCFI1-.Ltext0
 2372 0086 0200     		.2byte	0x2
 2373 0088 7D       		.byte	0x7d
 2374 0089 08       		.sleb128 8
 2375 008a 04000000 		.4byte	.LCFI1-.Ltext0
 2376 008e 06000000 		.4byte	.LCFI2-.Ltext0
 2377 0092 0200     		.2byte	0x2
 2378 0094 7D       		.byte	0x7d
 2379 0095 10       		.sleb128 16
 2380 0096 06000000 		.4byte	.LCFI2-.Ltext0
 2381 009a 5C000000 		.4byte	.LFE3-.Ltext0
 2382 009e 0200     		.2byte	0x2
 2383 00a0 77       		.byte	0x77
 2384 00a1 10       		.sleb128 16
 2385 00a2 00000000 		.4byte	0
 2386 00a6 00000000 		.4byte	0
 2387              		.section	.debug_aranges,"",%progbits
 2388 0000 1C000000 		.4byte	0x1c
 2389 0004 0200     		.2byte	0x2
 2390 0006 00000000 		.4byte	.Ldebug_info0
 2391 000a 04       		.byte	0x4
 2392 000b 00       		.byte	0
 2393 000c 0000     		.2byte	0
ARM GAS  C:\Users\embedded\AppData\Local\Temp\cca40R3I.s 			page 46


 2394 000e 0000     		.2byte	0
 2395 0010 00000000 		.4byte	.Ltext0
 2396 0014 84020000 		.4byte	.Letext0-.Ltext0
 2397 0018 00000000 		.4byte	0
 2398 001c 00000000 		.4byte	0
 2399              		.section	.debug_line,"",%progbits
 2400              	.Ldebug_line0:
 2401 0000 0B010000 		.section	.debug_str,"MS",%progbits,1
 2401      0200B900 
 2401      00000201 
 2401      FB0E0D00 
 2401      01010101 
 2402              	.LASF43:
 2403 0000 5F64736F 		.ascii	"_dso_handle\000"
 2403      5F68616E 
 2403      646C6500 
 2404              	.LASF51:
 2405 000c 5F73697A 		.ascii	"_size\000"
 2405      6500
 2406              	.LASF56:
 2407 0012 5F636F6F 		.ascii	"_cookie\000"
 2407      6B696500 
 2408              	.LASF96:
 2409 001a 5F72616E 		.ascii	"_rand48\000"
 2409      64343800 
 2410              	.LASF75:
 2411 0022 5F656D65 		.ascii	"_emergency\000"
 2411      7267656E 
 2411      637900
 2412              	.LASF65:
 2413 002d 5F646174 		.ascii	"_data\000"
 2413      6100
 2414              	.LASF116:
 2415 0033 5F776372 		.ascii	"_wcrtomb_state\000"
 2415      746F6D62 
 2415      5F737461 
 2415      746500
 2416              	.LASF117:
 2417 0042 5F776373 		.ascii	"_wcsrtombs_state\000"
 2417      72746F6D 
 2417      62735F73 
 2417      74617465 
 2417      00
 2418              	.LASF5:
 2419 0053 6C6F6E67 		.ascii	"long long unsigned int\000"
 2419      206C6F6E 
 2419      6720756E 
 2419      7369676E 
 2419      65642069 
 2420              	.LASF55:
 2421 006a 5F6C6266 		.ascii	"_lbfsize\000"
 2421      73697A65 
 2421      00
 2422              	.LASF123:
 2423 0073 5F5F6C6F 		.ascii	"__locale_t\000"
 2423      63616C65 
 2423      5F7400
ARM GAS  C:\Users\embedded\AppData\Local\Temp\cca40R3I.s 			page 47


 2424              	.LASF114:
 2425 007e 5F6D6272 		.ascii	"_mbrtowc_state\000"
 2425      746F7763 
 2425      5F737461 
 2425      746500
 2426              	.LASF32:
 2427 008d 5F5F746D 		.ascii	"__tm_sec\000"
 2427      5F736563 
 2427      00
 2428              	.LASF8:
 2429 0096 6C6F6E67 		.ascii	"long long int\000"
 2429      206C6F6E 
 2429      6720696E 
 2429      7400
 2430              	.LASF6:
 2431 00a4 7369676E 		.ascii	"signed char\000"
 2431      65642063 
 2431      68617200 
 2432              	.LASF61:
 2433 00b0 5F756275 		.ascii	"_ubuf\000"
 2433      6600
 2434              	.LASF50:
 2435 00b6 5F626173 		.ascii	"_base\000"
 2435      6500
 2436              	.LASF34:
 2437 00bc 5F5F746D 		.ascii	"__tm_hour\000"
 2437      5F686F75 
 2437      7200
 2438              	.LASF90:
 2439 00c6 5F5F7366 		.ascii	"__sf\000"
 2439      00
 2440              	.LASF41:
 2441 00cb 5F6F6E5F 		.ascii	"_on_exit_args\000"
 2441      65786974 
 2441      5F617267 
 2441      7300
 2442              	.LASF11:
 2443 00d9 74426F6F 		.ascii	"tBool\000"
 2443      6C00
 2444              	.LASF89:
 2445 00df 5F5F7367 		.ascii	"__sglue\000"
 2445      6C756500 
 2446              	.LASF12:
 2447 00e7 6C6F6E67 		.ascii	"long int\000"
 2447      20696E74 
 2447      00
 2448              	.LASF135:
 2449 00f0 7364656C 		.ascii	"sdelay\000"
 2449      617900
 2450              	.LASF53:
 2451 00f7 5F666C61 		.ascii	"_flags\000"
 2451      677300
 2452              	.LASF45:
 2453 00fe 5F69735F 		.ascii	"_is_cxa\000"
 2453      63786100 
 2454              	.LASF71:
 2455 0106 5F737464 		.ascii	"_stdin\000"
ARM GAS  C:\Users\embedded\AppData\Local\Temp\cca40R3I.s 			page 48


 2455      696E00
 2456              	.LASF63:
 2457 010d 5F626C6B 		.ascii	"_blksize\000"
 2457      73697A65 
 2457      00
 2458              	.LASF85:
 2459 0116 5F637674 		.ascii	"_cvtbuf\000"
 2459      62756600 
 2460              	.LASF64:
 2461 011e 5F6F6666 		.ascii	"_offset\000"
 2461      73657400 
 2462              	.LASF115:
 2463 0126 5F6D6273 		.ascii	"_mbsrtowcs_state\000"
 2463      72746F77 
 2463      63735F73 
 2463      74617465 
 2463      00
 2464              	.LASF113:
 2465 0137 5F6D6272 		.ascii	"_mbrlen_state\000"
 2465      6C656E5F 
 2465      73746174 
 2465      6500
 2466              	.LASF42:
 2467 0145 5F666E61 		.ascii	"_fnargs\000"
 2467      72677300 
 2468              	.LASF48:
 2469 014d 5F666E73 		.ascii	"_fns\000"
 2469      00
 2470              	.LASF28:
 2471 0152 5F736967 		.ascii	"_sign\000"
 2471      6E00
 2472              	.LASF24:
 2473 0158 5F666C6F 		.ascii	"_flock_t\000"
 2473      636B5F74 
 2473      00
 2474              	.LASF73:
 2475 0161 5F737464 		.ascii	"_stderr\000"
 2475      65727200 
 2476              	.LASF30:
 2477 0169 5F426967 		.ascii	"_Bigint\000"
 2477      696E7400 
 2478              	.LASF104:
 2479 0171 5F67616D 		.ascii	"_gamma_signgam\000"
 2479      6D615F73 
 2479      69676E67 
 2479      616D00
 2480              	.LASF57:
 2481 0180 5F726561 		.ascii	"_read\000"
 2481      6400
 2482              	.LASF81:
 2483 0186 5F726573 		.ascii	"_result_k\000"
 2483      756C745F 
 2483      6B00
 2484              	.LASF31:
 2485 0190 5F5F746D 		.ascii	"__tm\000"
 2485      00
 2486              	.LASF3:
ARM GAS  C:\Users\embedded\AppData\Local\Temp\cca40R3I.s 			page 49


 2487 0195 756E7369 		.ascii	"unsigned int\000"
 2487      676E6564 
 2487      20696E74 
 2487      00
 2488              	.LASF20:
 2489 01a2 5F5F7763 		.ascii	"__wchb\000"
 2489      686200
 2490              	.LASF72:
 2491 01a9 5F737464 		.ascii	"_stdout\000"
 2491      6F757400 
 2492              	.LASF84:
 2493 01b1 5F637674 		.ascii	"_cvtlen\000"
 2493      6C656E00 
 2494              	.LASF13:
 2495 01b9 6C6F6E67 		.ascii	"long unsigned int\000"
 2495      20756E73 
 2495      69676E65 
 2495      6420696E 
 2495      7400
 2496              	.LASF54:
 2497 01cb 5F66696C 		.ascii	"_file\000"
 2497      6500
 2498              	.LASF94:
 2499 01d1 5F6E696F 		.ascii	"_niobs\000"
 2499      627300
 2500              	.LASF1:
 2501 01d8 73686F72 		.ascii	"short unsigned int\000"
 2501      7420756E 
 2501      7369676E 
 2501      65642069 
 2501      6E7400
 2502              	.LASF87:
 2503 01eb 5F617465 		.ascii	"_atexit0\000"
 2503      78697430 
 2503      00
 2504              	.LASF111:
 2505 01f4 5F736967 		.ascii	"_signal_buf\000"
 2505      6E616C5F 
 2505      62756600 
 2506              	.LASF102:
 2507 0200 5F617363 		.ascii	"_asctime_buf\000"
 2507      74696D65 
 2507      5F627566 
 2507      00
 2508              	.LASF80:
 2509 020d 5F726573 		.ascii	"_result\000"
 2509      756C7400 
 2510              	.LASF19:
 2511 0215 5F5F7763 		.ascii	"__wch\000"
 2511      6800
 2512              	.LASF15:
 2513 021b 5F4C4F43 		.ascii	"_LOCK_T\000"
 2513      4B5F5400 
 2514              	.LASF130:
 2515 0223 6D61696E 		.ascii	"main.c\000"
 2515      2E6300
 2516              	.LASF18:
ARM GAS  C:\Users\embedded\AppData\Local\Temp\cca40R3I.s 			page 50


 2517 022a 77696E74 		.ascii	"wint_t\000"
 2517      5F7400
 2518              	.LASF66:
 2519 0231 5F6C6F63 		.ascii	"_lock\000"
 2519      6B00
 2520              	.LASF2:
 2521 0237 74553332 		.ascii	"tU32\000"
 2521      00
 2522              	.LASF58:
 2523 023c 5F777269 		.ascii	"_write\000"
 2523      746500
 2524              	.LASF37:
 2525 0243 5F5F746D 		.ascii	"__tm_year\000"
 2525      5F796561 
 2525      7200
 2526              	.LASF14:
 2527 024d 6C6F6E67 		.ascii	"long double\000"
 2527      20646F75 
 2527      626C6500 
 2528              	.LASF127:
 2529 0259 64757479 		.ascii	"duty_cycle\000"
 2529      5F637963 
 2529      6C6500
 2530              	.LASF119:
 2531 0264 5F6E6578 		.ascii	"_nextf\000"
 2531      746600
 2532              	.LASF36:
 2533 026b 5F5F746D 		.ascii	"__tm_mon\000"
 2533      5F6D6F6E 
 2533      00
 2534              	.LASF46:
 2535 0274 5F617465 		.ascii	"_atexit\000"
 2535      78697400 
 2536              	.LASF78:
 2537 027c 5F5F7364 		.ascii	"__sdidinit\000"
 2537      6964696E 
 2537      697400
 2538              	.LASF16:
 2539 0287 5F6F6666 		.ascii	"_off_t\000"
 2539      5F7400
 2540              	.LASF131:
 2541 028e 433A5C45 		.ascii	"C:\\Embedded\\2138MiniDemo\\2138\000"
 2541      6D626564 
 2541      6465645C 
 2541      32313338 
 2541      4D696E69 
 2542              	.LASF133:
 2543 02ac 64696F64 		.ascii	"dioda_swieci\000"
 2543      615F7377 
 2543      69656369 
 2543      00
 2544              	.LASF9:
 2545 02b9 46414C53 		.ascii	"FALSE\000"
 2545      4500
 2546              	.LASF129:
 2547 02bf 474E5520 		.ascii	"GNU C11 7.3.1 20180622 (release) [ARM/embedded-7-br"
 2547      43313120 
ARM GAS  C:\Users\embedded\AppData\Local\Temp\cca40R3I.s 			page 51


 2547      372E332E 
 2547      31203230 
 2547      31383036 
 2548 02f2 616E6368 		.ascii	"anch revision 261907] -mcpu=arm7tdmi -mthumb -mthum"
 2548      20726576 
 2548      6973696F 
 2548      6E203236 
 2548      31393037 
 2549 0325 622D696E 		.ascii	"b-interwork -gdwarf-2 -O0\000"
 2549      74657277 
 2549      6F726B20 
 2549      2D676477 
 2549      6172662D 
 2550              	.LASF128:
 2551 033f 7365636F 		.ascii	"seconds\000"
 2551      6E647300 
 2552              	.LASF109:
 2553 0347 5F776374 		.ascii	"_wctomb_state\000"
 2553      6F6D625F 
 2553      73746174 
 2553      6500
 2554              	.LASF107:
 2555 0355 5F6D626C 		.ascii	"_mblen_state\000"
 2555      656E5F73 
 2555      74617465 
 2555      00
 2556              	.LASF0:
 2557 0362 756E7369 		.ascii	"unsigned char\000"
 2557      676E6564 
 2557      20636861 
 2557      7200
 2558              	.LASF86:
 2559 0370 5F6E6577 		.ascii	"_new\000"
 2559      00
 2560              	.LASF118:
 2561 0375 5F685F65 		.ascii	"_h_errno\000"
 2561      72726E6F 
 2561      00
 2562              	.LASF7:
 2563 037e 73686F72 		.ascii	"short int\000"
 2563      7420696E 
 2563      7400
 2564              	.LASF39:
 2565 0388 5F5F746D 		.ascii	"__tm_yday\000"
 2565      5F796461 
 2565      7900
 2566              	.LASF49:
 2567 0392 5F5F7362 		.ascii	"__sbuf\000"
 2567      756600
 2568              	.LASF68:
 2569 0399 5F666C61 		.ascii	"_flags2\000"
 2569      67733200 
 2570              	.LASF83:
 2571 03a1 5F667265 		.ascii	"_freelist\000"
 2571      656C6973 
 2571      7400
 2572              	.LASF92:
ARM GAS  C:\Users\embedded\AppData\Local\Temp\cca40R3I.s 			page 52


 2573 03ab 5F5F4649 		.ascii	"__FILE\000"
 2573      4C4500
 2574              	.LASF23:
 2575 03b2 5F6D6273 		.ascii	"_mbstate_t\000"
 2575      74617465 
 2575      5F7400
 2576              	.LASF52:
 2577 03bd 5F5F7346 		.ascii	"__sFILE\000"
 2577      494C4500 
 2578              	.LASF67:
 2579 03c5 5F6D6273 		.ascii	"_mbstate\000"
 2579      74617465 
 2579      00
 2580              	.LASF105:
 2581 03ce 5F72616E 		.ascii	"_rand_next\000"
 2581      645F6E65 
 2581      787400
 2582              	.LASF95:
 2583 03d9 5F696F62 		.ascii	"_iobs\000"
 2583      7300
 2584              	.LASF74:
 2585 03df 5F696E63 		.ascii	"_inc\000"
 2585      00
 2586              	.LASF47:
 2587 03e4 5F696E64 		.ascii	"_ind\000"
 2587      00
 2588              	.LASF134:
 2589 03e9 696E6974 		.ascii	"init_irq\000"
 2589      5F697271 
 2589      00
 2590              	.LASF77:
 2591 03f2 5F6C6F63 		.ascii	"_locale\000"
 2591      616C6500 
 2592              	.LASF79:
 2593 03fa 5F5F636C 		.ascii	"__cleanup\000"
 2593      65616E75 
 2593      7000
 2594              	.LASF76:
 2595 0404 5F756E73 		.ascii	"_unspecified_locale_info\000"
 2595      70656369 
 2595      66696564 
 2595      5F6C6F63 
 2595      616C655F 
 2596              	.LASF10:
 2597 041d 54525545 		.ascii	"TRUE\000"
 2597      00
 2598              	.LASF69:
 2599 0422 5F726565 		.ascii	"_reent\000"
 2599      6E7400
 2600              	.LASF97:
 2601 0429 5F736565 		.ascii	"_seed\000"
 2601      6400
 2602              	.LASF21:
 2603 042f 5F5F636F 		.ascii	"__count\000"
 2603      756E7400 
 2604              	.LASF122:
 2605 0437 5F5F6C6F 		.ascii	"__lock\000"
ARM GAS  C:\Users\embedded\AppData\Local\Temp\cca40R3I.s 			page 53


 2605      636B00
 2606              	.LASF22:
 2607 043e 5F5F7661 		.ascii	"__value\000"
 2607      6C756500 
 2608              	.LASF59:
 2609 0446 5F736565 		.ascii	"_seek\000"
 2609      6B00
 2610              	.LASF124:
 2611 044c 5F696D70 		.ascii	"_impure_ptr\000"
 2611      7572655F 
 2611      70747200 
 2612              	.LASF17:
 2613 0458 5F66706F 		.ascii	"_fpos_t\000"
 2613      735F7400 
 2614              	.LASF70:
 2615 0460 5F657272 		.ascii	"_errno\000"
 2615      6E6F00
 2616              	.LASF91:
 2617 0467 63686172 		.ascii	"char\000"
 2617      00
 2618              	.LASF33:
 2619 046c 5F5F746D 		.ascii	"__tm_min\000"
 2619      5F6D696E 
 2619      00
 2620              	.LASF98:
 2621 0475 5F6D756C 		.ascii	"_mult\000"
 2621      7400
 2622              	.LASF126:
 2623 047b 70657269 		.ascii	"period\000"
 2623      6F6400
 2624              	.LASF26:
 2625 0482 5F6E6578 		.ascii	"_next\000"
 2625      7400
 2626              	.LASF101:
 2627 0488 5F737472 		.ascii	"_strtok_last\000"
 2627      746F6B5F 
 2627      6C617374 
 2627      00
 2628              	.LASF44:
 2629 0495 5F666E74 		.ascii	"_fntypes\000"
 2629      79706573 
 2629      00
 2630              	.LASF27:
 2631 049e 5F6D6178 		.ascii	"_maxwds\000"
 2631      77647300 
 2632              	.LASF99:
 2633 04a6 5F616464 		.ascii	"_add\000"
 2633      00
 2634              	.LASF25:
 2635 04ab 5F5F554C 		.ascii	"__ULong\000"
 2635      6F6E6700 
 2636              	.LASF112:
 2637 04b3 5F676574 		.ascii	"_getdate_err\000"
 2637      64617465 
 2637      5F657272 
 2637      00
 2638              	.LASF4:
ARM GAS  C:\Users\embedded\AppData\Local\Temp\cca40R3I.s 			page 54


 2639 04c0 74553634 		.ascii	"tU64\000"
 2639      00
 2640              	.LASF125:
 2641 04c5 5F676C6F 		.ascii	"_global_impure_ptr\000"
 2641      62616C5F 
 2641      696D7075 
 2641      72655F70 
 2641      747200
 2642              	.LASF100:
 2643 04d8 5F756E75 		.ascii	"_unused_rand\000"
 2643      7365645F 
 2643      72616E64 
 2643      00
 2644              	.LASF29:
 2645 04e5 5F776473 		.ascii	"_wds\000"
 2645      00
 2646              	.LASF38:
 2647 04ea 5F5F746D 		.ascii	"__tm_wday\000"
 2647      5F776461 
 2647      7900
 2648              	.LASF93:
 2649 04f4 5F676C75 		.ascii	"_glue\000"
 2649      6500
 2650              	.LASF120:
 2651 04fa 5F6E6D61 		.ascii	"_nmalloc\000"
 2651      6C6C6F63 
 2651      00
 2652              	.LASF110:
 2653 0503 5F6C3634 		.ascii	"_l64a_buf\000"
 2653      615F6275 
 2653      6600
 2654              	.LASF88:
 2655 050d 5F736967 		.ascii	"_sig_func\000"
 2655      5F66756E 
 2655      6300
 2656              	.LASF62:
 2657 0517 5F6E6275 		.ascii	"_nbuf\000"
 2657      6600
 2658              	.LASF121:
 2659 051d 5F756E75 		.ascii	"_unused\000"
 2659      73656400 
 2660              	.LASF40:
 2661 0525 5F5F746D 		.ascii	"__tm_isdst\000"
 2661      5F697364 
 2661      737400
 2662              	.LASF103:
 2663 0530 5F6C6F63 		.ascii	"_localtime_buf\000"
 2663      616C7469 
 2663      6D655F62 
 2663      756600
 2664              	.LASF60:
 2665 053f 5F636C6F 		.ascii	"_close\000"
 2665      736500
 2666              	.LASF106:
 2667 0546 5F723438 		.ascii	"_r48\000"
 2667      00
 2668              	.LASF108:
ARM GAS  C:\Users\embedded\AppData\Local\Temp\cca40R3I.s 			page 55


 2669 054b 5F6D6274 		.ascii	"_mbtowc_state\000"
 2669      6F77635F 
 2669      73746174 
 2669      6500
 2670              	.LASF82:
 2671 0559 5F703573 		.ascii	"_p5s\000"
 2671      00
 2672              	.LASF132:
 2673 055e 6D61696E 		.ascii	"main\000"
 2673      00
 2674              	.LASF35:
 2675 0563 5F5F746D 		.ascii	"__tm_mday\000"
 2675      5F6D6461 
 2675      7900
 2676              		.ident	"GCC: (GNU Tools for Arm Embedded Processors 7-2018-q2-update) 7.3.1 20180622 (release) [AR
ARM GAS  C:\Users\embedded\AppData\Local\Temp\cca40R3I.s 			page 56


DEFINED SYMBOLS
                            *ABS*:00000000 main.c
C:\Users\embedded\AppData\Local\Temp\cca40R3I.s:21     .text:00000000 sdelay
C:\Users\embedded\AppData\Local\Temp\cca40R3I.s:29     .text:00000000 $t
C:\Users\embedded\AppData\Local\Temp\cca40R3I.s:85     .text:00000044 $d
C:\Users\embedded\AppData\Local\Temp\cca40R3I.s:96     .text:0000005c $t
C:\Users\embedded\AppData\Local\Temp\cca40R3I.s:102    .text:0000005c init_irq
C:\Users\embedded\AppData\Local\Temp\cca40R3I.s:265    .text:00000160 $d
C:\Users\embedded\AppData\Local\Temp\cca40R3I.s:280    .rodata:00000000 $d
C:\Users\embedded\AppData\Local\Temp\cca40R3I.s:306    .text:0000018c $t
C:\Users\embedded\AppData\Local\Temp\cca40R3I.s:313    .text:0000018c main
C:\Users\embedded\AppData\Local\Temp\cca40R3I.s:442    .text:00000254 $d

UNDEFINED SYMBOLS
__aeabi_uldivmod
__aeabi_lmul
IRQ_Test
printf_init
simplePrintf
