ARM GAS  C:\Users\embedded\AppData\Local\Temp\ccjFShSO.s 			page 1


   1              		.cpu arm7tdmi
   2              		.eabi_attribute 20, 1
   3              		.eabi_attribute 21, 1
   4              		.eabi_attribute 23, 3
   5              		.eabi_attribute 24, 1
   6              		.eabi_attribute 25, 1
   7              		.eabi_attribute 26, 1
   8              		.eabi_attribute 30, 6
   9              		.eabi_attribute 34, 0
  10              		.eabi_attribute 18, 4
  11              		.file	"main.c"
  12              		.text
  13              	.Ltext0:
  14              		.cfi_sections	.debug_frame
  15              		.section	.rodata
  16              		.align	2
  17              	.LC0:
  18 0000 54656D70 		.ascii	"Temp: %d \000"
  18      3A202564 
  18      2000
  19              		.text
  20              		.align	1
  21              		.global	main
  22              		.syntax unified
  23              		.code	16
  24              		.thumb_func
  25              		.fpu softvfp
  26              		.type	main, %function
  27              	main:
  28              	.LFB3:
  29              		.file 1 "main.c"
   1:main.c        **** /*************************************************************************************
   2:main.c        ****  *
   3:main.c        ****  * @Description:
   4:main.c        ****  * Program przykładowy - odpowiednik "Hello World" dla systemów wbudowanych
   5:main.c        ****  * Rekomendujemy wkopiowywanie do niniejszego projektu nowych funkcjonalności
   6:main.c        ****  *
   7:main.c        ****  *
   8:main.c        ****  * UWAGA! Po zmianie rozszerzenia na cpp program automatycznie będzie używać
   9:main.c        ****  * kompilatora g++. Oczywiście konieczne jest wprowadzenie odpowiednich zmian w
  10:main.c        ****  * pliku "makefile"
  11:main.c        ****  *
  12:main.c        ****  *
  13:main.c        ****  * Program przykładowy wykorzystuje Timer #0 i Timer #1 do "mrugania" diodami
  14:main.c        ****  * Dioda P1.16 jest zapalona i gaszona, a czas pomiędzy tymi zdarzeniami
  15:main.c        ****  * odmierzany jest przez Timer #0.
  16:main.c        ****  * Program aktywnie oczekuje na upłynięcie odmierzanego czasu (1s)
  17:main.c        ****  *
  18:main.c        ****  * Druga z diod P1.17 jest gaszona i zapalana w takt przerwań generowanych
  19:main.c        ****  * przez timer #1, z okresem 500 ms i wypełnieniem 20%.
  20:main.c        ****  * Procedura obsługi przerwań zdefiniowana jest w innym pliku (irq/irq_handler.c)
  21:main.c        ****  * Sama procedura MUSI być oznaczona dla kompilatora jako procedura obsługi 
  22:main.c        ****  * przerwania odpowiedniego typu. W przykładzie jest to przerwanie wektoryzowane.
  23:main.c        ****  * Odpowiednia deklaracja znajduje się w pliku (irq/irq_handler.h)
  24:main.c        ****  * 
  25:main.c        ****  * Prócz "mrugania" diodami program wypisuje na konsoli powitalny tekst.
  26:main.c        ****  * 
ARM GAS  C:\Users\embedded\AppData\Local\Temp\ccjFShSO.s 			page 2


  27:main.c        ****  * @Authors: Michał Morawski,
  28:main.c        ****  *           Daniel Arendt, 
  29:main.c        ****  *           Przemysław Ignaciuk,
  30:main.c        ****  *           Marcin Kwapisz
  31:main.c        ****  *
  32:main.c        ****  * @Change log:
  33:main.c        ****  *           2016.12.01: Wersja oryginalna.
  34:main.c        ****  *
  35:main.c        ****  ******************************************************************************/
  36:main.c        **** 
  37:main.c        **** #include "general.h"
  38:main.c        **** #include <lpc2xxx.h>
  39:main.c        **** #include <printf_P.h>
  40:main.c        **** #include <printf_init.h>
  41:main.c        **** #include <consol.h>
  42:main.c        **** #include <config.h>
  43:main.c        **** #include "irq/irq_handler.h"
  44:main.c        **** #include "timer.h"
  45:main.c        **** #include "VIC.h"
  46:main.c        **** #include "i2c.h"
  47:main.c        **** #include "lm75.h"
  48:main.c        **** #include "lcd.h"
  49:main.c        **** #include "pca9532.h"
  50:main.c        **** #include "additional.h"
  51:main.c        **** 
  52:main.c        **** #include "Common_Def.h"
  53:main.c        **** #include <stdio.h>
  54:main.c        **** 
  55:main.c        **** /************************************************************************
  56:main.c        ****  * @Description: uruchomienie obsługi przerwań
  57:main.c        ****  * @Parameter:
  58:main.c        ****  *    [in] period    : okres generatora przerwań
  59:main.c        ****  *    [in] duty_cycle: wypełnienie w %
  60:main.c        ****  * @Returns: Nic
  61:main.c        ****  * @Side effects:
  62:main.c        ****  *    przeprogramowany timer #1
  63:main.c        ****  *************************************************************************/
  64:main.c        **** /*
  65:main.c        **** static void init_irq (tU32 period, tU8 duty_cycle)
  66:main.c        **** {
  67:main.c        **** 	//Zainicjuj VIC dla przerwań od Timera #1
  68:main.c        ****     VICIntSelect &= ~TIMER_1_IRQ;           //Przerwanie od Timera #1 przypisane do IRQ (nie do FIQ
  69:main.c        ****     VICVectAddr5  = (tU32)IRQ_Test;         //adres procedury przerwania
  70:main.c        ****     VICVectCntl5  = VIC_ENABLE_SLOT | TIMER_1_IRQ_NO;
  71:main.c        ****     VICIntEnable  = TIMER_1_IRQ;            // Przypisanie i odblokowanie slotu w VIC od Timera #1
  72:main.c        ****   
  73:main.c        ****     T1TCR = TIMER_RESET;                    //Zatrzymaj i zresetuj
  74:main.c        ****     T1PR  = 0;                              //Preskaler nieużywany
  75:main.c        ****     T1MR0 = ((tU64)period)*((tU64)PERIPHERAL_CLOCK)/1000;
  76:main.c        ****     T1MR1 = (tU64)T1MR0 * duty_cycle / 100; //Wypełnienie
  77:main.c        ****     T1IR  = TIMER_ALL_INT;                  //Resetowanie flag przerwań
  78:main.c        ****     T1MCR = MR0_I | MR1_I | MR0_R;          //Generuj okresowe przerwania dla MR0 i dodatkowo dla M
  79:main.c        ****     T1TCR = TIMER_RUN;                      //Uruchom timer
  80:main.c        **** }
  81:main.c        **** */
  82:main.c        **** 
  83:main.c        **** int main(void)
ARM GAS  C:\Users\embedded\AppData\Local\Temp\ccjFShSO.s 			page 3


  84:main.c        **** {
  30              		.loc 1 84 0
  31              		.cfi_startproc
  32              		@ Function supports interworking.
  33              		@ args = 0, pretend = 0, frame = 32
  34              		@ frame_needed = 1, uses_anonymous_args = 0
  35 0000 90B5     		push	{r4, r7, lr}
  36              	.LCFI0:
  37              		.cfi_def_cfa_offset 12
  38              		.cfi_offset 4, -12
  39              		.cfi_offset 7, -8
  40              		.cfi_offset 14, -4
  41 0002 89B0     		sub	sp, sp, #36
  42              	.LCFI1:
  43              		.cfi_def_cfa_offset 48
  44 0004 00AF     		add	r7, sp, #0
  45              	.LCFI2:
  46              		.cfi_def_cfa_register 7
  85:main.c        **** 		tU8 pca9532Present = FALSE;
  47              		.loc 1 85 0
  48 0006 1F24     		movs	r4, #31
  49 0008 3B19     		adds	r3, r7, r4
  50 000a 0022     		movs	r2, #0
  51 000c 1A70     		strb	r2, [r3]
  86:main.c        **** 		//check if connection with PCA9532
  87:main.c        **** 	    i2cInit();
  52              		.loc 1 87 0
  53 000e FFF7FEFF 		bl	i2cInit
  88:main.c        **** 		pca9532Present = pca9532Init();
  54              		.loc 1 88 0
  55 0012 3C19     		adds	r4, r7, r4
  56 0014 FFF7FEFF 		bl	pca9532Init
  57 0018 0300     		movs	r3, r0
  58 001a 2370     		strb	r3, [r4]
  89:main.c        **** 		printf_init();
  59              		.loc 1 89 0
  60 001c FFF7FEFF 		bl	printf_init
  61              	.L5:
  90:main.c        **** 		while(1) {
  91:main.c        **** 		if (TRUE == pca9532Present)
  62              		.loc 1 91 0
  63 0020 1F23     		movs	r3, #31
  64 0022 FB18     		adds	r3, r7, r3
  65 0024 1B78     		ldrb	r3, [r3]
  66 0026 012B     		cmp	r3, #1
  67 0028 FAD1     		bne	.L5
  68              	.LBB2:
  92:main.c        **** 		{
  93:main.c        **** 
  94:main.c        **** 				lcdInit();
  69              		.loc 1 94 0
  70 002a FFF7FEFF 		bl	lcdInit
  95:main.c        **** 			    lcdColor(0xff, 0x00);
  71              		.loc 1 95 0
  72 002e 0021     		movs	r1, #0
  73 0030 FF20     		movs	r0, #255
  74 0032 FFF7FEFF 		bl	lcdColor
ARM GAS  C:\Users\embedded\AppData\Local\Temp\ccjFShSO.s 			page 4


  96:main.c        **** 			    lcdClrscr();
  75              		.loc 1 96 0
  76 0036 FFF7FEFF 		bl	lcdClrscr
  97:main.c        **** 
  98:main.c        **** 			    /*
  99:main.c        **** 			        Inicjalizacja I2C
 100:main.c        **** 			    */
 101:main.c        **** 
 102:main.c        **** 
 103:main.c        **** 			    /*
 104:main.c        **** 			        Główna pętla zawierająca całą logikę programu - tj. w okresach 2 sekudnowych nast
 105:main.c        **** 			        pomiar temperatury, który jest wyświetlany na wyświetlaczu.
 106:main.c        **** 			    */
 107:main.c        **** 
 108:main.c        **** 			    /*
 109:main.c        **** 			         Adres termometru LM75 po drugiej stronie interfejsu I2C.
 110:main.c        **** 			         Jak nie zadzaiała to 3 przedostatnie bity zamienić i 1 i sprawdzić.
 111:main.c        **** 			    */
 112:main.c        **** 			    tU8 lm75Address = 0x9F;
  77              		.loc 1 112 0
  78 003a 1E23     		movs	r3, #30
  79 003c FB18     		adds	r3, r7, r3
  80 003e 9F22     		movs	r2, #159
  81 0040 1A70     		strb	r2, [r3]
  82              	.L4:
 113:main.c        **** 			    // dla zalutowanego	tU8 lm75Address = (0x48<<1)|1;
 114:main.c        **** 			    //tU8 htu21dfaddress = 0x40;
 115:main.c        **** 			    tU8 readTemperature[2];
 116:main.c        **** 			    //tU8 readHumidity[2];
 117:main.c        **** 			    tU8 temperatureInChar[20];
 118:main.c        **** 			    //tU8 humidityInChar[43];
 119:main.c        **** 			    tS8 temperatureValue;
 120:main.c        **** 			    //tS8 humidityValue;
 121:main.c        **** 
 122:main.c        **** 			    while (TRUE)
 123:main.c        **** 			    {
 124:main.c        **** 			    	lcdGotoxy(0,0);
  83              		.loc 1 124 0
  84 0042 0021     		movs	r1, #0
  85 0044 0020     		movs	r0, #0
  86 0046 FFF7FEFF 		bl	lcdGotoxy
 125:main.c        **** 			    	if (measureTemperature(lm75Address, readTemperature, 2) != I2C_CODE_ERROR)
  87              		.loc 1 125 0
  88 004a 1823     		movs	r3, #24
  89 004c F918     		adds	r1, r7, r3
  90 004e 1E23     		movs	r3, #30
  91 0050 FB18     		adds	r3, r7, r3
  92 0052 1B78     		ldrb	r3, [r3]
  93 0054 0222     		movs	r2, #2
  94 0056 1800     		movs	r0, r3
  95 0058 FFF7FEFF 		bl	measureTemperature
  96 005c 0300     		movs	r3, r0
  97 005e 0133     		adds	r3, r3, #1
  98 0060 1BD0     		beq	.L3
 126:main.c        **** 			    	        {
 127:main.c        **** 			    	            temperatureValue = calculateTemperatureValue(readTemperature);
  99              		.loc 1 127 0
ARM GAS  C:\Users\embedded\AppData\Local\Temp\ccjFShSO.s 			page 5


 100 0062 1823     		movs	r3, #24
 101 0064 FB18     		adds	r3, r7, r3
 102 0066 1800     		movs	r0, r3
 103 0068 FFF7FEFF 		bl	calculateTemperatureValue
 104 006c 0300     		movs	r3, r0
 105 006e 1A00     		movs	r2, r3
 106 0070 1D24     		movs	r4, #29
 107 0072 3B19     		adds	r3, r7, r4
 108 0074 1A70     		strb	r2, [r3]
 128:main.c        **** 			    	            lcdClrscr();
 109              		.loc 1 128 0
 110 0076 FFF7FEFF 		bl	lcdClrscr
 129:main.c        **** 			    	            sprintf(temperatureInChar, "Temp: %d ", temperatureValue);
 111              		.loc 1 129 0
 112 007a 3B19     		adds	r3, r7, r4
 113 007c 0022     		movs	r2, #0
 114 007e 9A56     		ldrsb	r2, [r3, r2]
 115 0080 0849     		ldr	r1, .L6
 116 0082 3B1D     		adds	r3, r7, #4
 117 0084 1800     		movs	r0, r3
 118 0086 FFF7FEFF 		bl	sprintf
 130:main.c        **** 			    	            lcdGotoxy(10, 10);
 119              		.loc 1 130 0
 120 008a 0A21     		movs	r1, #10
 121 008c 0A20     		movs	r0, #10
 122 008e FFF7FEFF 		bl	lcdGotoxy
 131:main.c        **** 			    	            lcdPuts(temperatureInChar);
 123              		.loc 1 131 0
 124 0092 3B1D     		adds	r3, r7, #4
 125 0094 1800     		movs	r0, r3
 126 0096 FFF7FEFF 		bl	lcdPuts
 127              	.L3:
 132:main.c        **** 			    	        }
 133:main.c        **** 			        sdelay(2);
 128              		.loc 1 133 0
 129 009a 0220     		movs	r0, #2
 130 009c FFF7FEFF 		bl	sdelay
 124:main.c        **** 			    	if (measureTemperature(lm75Address, readTemperature, 2) != I2C_CODE_ERROR)
 131              		.loc 1 124 0
 132 00a0 CFE7     		b	.L4
 133              	.L7:
 134 00a2 C046     		.align	2
 135              	.L6:
 136 00a4 00000000 		.word	.LC0
 137              	.LBE2:
 138              		.cfi_endproc
 139              	.LFE3:
 140              		.size	main, .-main
 141              	.Letext0:
 142              		.file 2 "general.h"
 143              		.file 3 "c:\\embedded\\tools\\arm-none-eabi\\include\\sys\\lock.h"
 144              		.file 4 "c:\\embedded\\tools\\arm-none-eabi\\include\\sys\\_types.h"
 145              		.file 5 "c:\\embedded\\tools\\lib\\gcc\\arm-none-eabi\\7.3.1\\include\\stddef.h"
 146              		.file 6 "c:\\embedded\\tools\\arm-none-eabi\\include\\sys\\reent.h"
 147              		.section	.debug_info,"",%progbits
 148              	.Ldebug_info0:
 149 0000 2C0A0000 		.4byte	0xa2c
ARM GAS  C:\Users\embedded\AppData\Local\Temp\ccjFShSO.s 			page 6


 150 0004 0200     		.2byte	0x2
 151 0006 00000000 		.4byte	.Ldebug_abbrev0
 152 000a 04       		.byte	0x4
 153 000b 01       		.uleb128 0x1
 154 000c D6020000 		.4byte	.LASF128
 155 0010 0C       		.byte	0xc
 156 0011 3F020000 		.4byte	.LASF129
 157 0015 B2020000 		.4byte	.LASF130
 158 0019 00000000 		.4byte	.Ltext0
 159 001d A8000000 		.4byte	.Letext0
 160 0021 00000000 		.4byte	.Ldebug_line0
 161 0025 02       		.uleb128 0x2
 162 0026 74553800 		.ascii	"tU8\000"
 163 002a 02       		.byte	0x2
 164 002b 17       		.byte	0x17
 165 002c 30000000 		.4byte	0x30
 166 0030 03       		.uleb128 0x3
 167 0031 01       		.byte	0x1
 168 0032 08       		.byte	0x8
 169 0033 71030000 		.4byte	.LASF0
 170 0037 03       		.uleb128 0x3
 171 0038 02       		.byte	0x2
 172 0039 07       		.byte	0x7
 173 003a EC010000 		.4byte	.LASF1
 174 003e 03       		.uleb128 0x3
 175 003f 04       		.byte	0x4
 176 0040 07       		.byte	0x7
 177 0041 A9010000 		.4byte	.LASF2
 178 0045 03       		.uleb128 0x3
 179 0046 08       		.byte	0x8
 180 0047 07       		.byte	0x7
 181 0048 4B000000 		.4byte	.LASF3
 182 004c 02       		.uleb128 0x2
 183 004d 74533800 		.ascii	"tS8\000"
 184 0051 02       		.byte	0x2
 185 0052 1B       		.byte	0x1b
 186 0053 57000000 		.4byte	0x57
 187 0057 03       		.uleb128 0x3
 188 0058 01       		.byte	0x1
 189 0059 06       		.byte	0x6
 190 005a 9C000000 		.4byte	.LASF4
 191 005e 03       		.uleb128 0x3
 192 005f 02       		.byte	0x2
 193 0060 05       		.byte	0x5
 194 0061 8D030000 		.4byte	.LASF5
 195 0065 04       		.uleb128 0x4
 196 0066 04       		.byte	0x4
 197 0067 05       		.byte	0x5
 198 0068 696E7400 		.ascii	"int\000"
 199 006c 03       		.uleb128 0x3
 200 006d 08       		.byte	0x8
 201 006e 05       		.byte	0x5
 202 006f 8E000000 		.4byte	.LASF6
 203 0073 05       		.uleb128 0x5
 204 0074 07       		.byte	0x7
 205 0075 01       		.byte	0x1
 206 0076 30000000 		.4byte	0x30
ARM GAS  C:\Users\embedded\AppData\Local\Temp\ccjFShSO.s 			page 7


 207 007a 02       		.byte	0x2
 208 007b 1F       		.byte	0x1f
 209 007c 8D000000 		.4byte	0x8d
 210 0080 06       		.uleb128 0x6
 211 0081 D0020000 		.4byte	.LASF7
 212 0085 00       		.byte	0
 213 0086 06       		.uleb128 0x6
 214 0087 1B040000 		.4byte	.LASF8
 215 008b 01       		.byte	0x1
 216 008c 00       		.byte	0
 217 008d 03       		.uleb128 0x3
 218 008e 04       		.byte	0x4
 219 008f 05       		.byte	0x5
 220 0090 E1000000 		.4byte	.LASF9
 221 0094 03       		.uleb128 0x3
 222 0095 04       		.byte	0x4
 223 0096 07       		.byte	0x7
 224 0097 CD010000 		.4byte	.LASF10
 225 009b 03       		.uleb128 0x3
 226 009c 08       		.byte	0x8
 227 009d 04       		.byte	0x4
 228 009e 7C020000 		.4byte	.LASF11
 229 00a2 07       		.uleb128 0x7
 230 00a3 04       		.byte	0x4
 231 00a4 08       		.uleb128 0x8
 232 00a5 37020000 		.4byte	.LASF12
 233 00a9 03       		.byte	0x3
 234 00aa 22       		.byte	0x22
 235 00ab AF000000 		.4byte	0xaf
 236 00af 09       		.uleb128 0x9
 237 00b0 04       		.byte	0x4
 238 00b1 B5000000 		.4byte	0xb5
 239 00b5 0A       		.uleb128 0xa
 240 00b6 3E040000 		.4byte	.LASF119
 241 00ba 01       		.byte	0x1
 242 00bb 08       		.uleb128 0x8
 243 00bc AB020000 		.4byte	.LASF13
 244 00c0 04       		.byte	0x4
 245 00c1 2C       		.byte	0x2c
 246 00c2 8D000000 		.4byte	0x8d
 247 00c6 08       		.uleb128 0x8
 248 00c7 5F040000 		.4byte	.LASF14
 249 00cb 04       		.byte	0x4
 250 00cc 72       		.byte	0x72
 251 00cd 8D000000 		.4byte	0x8d
 252 00d1 0B       		.uleb128 0xb
 253 00d2 46020000 		.4byte	.LASF15
 254 00d6 05       		.byte	0x5
 255 00d7 6501     		.2byte	0x165
 256 00d9 3E000000 		.4byte	0x3e
 257 00dd 0C       		.uleb128 0xc
 258 00de 04       		.byte	0x4
 259 00df 04       		.byte	0x4
 260 00e0 A6       		.byte	0xa6
 261 00e1 FC000000 		.4byte	0xfc
 262 00e5 0D       		.uleb128 0xd
 263 00e6 31020000 		.4byte	.LASF16
ARM GAS  C:\Users\embedded\AppData\Local\Temp\ccjFShSO.s 			page 8


 264 00ea 04       		.byte	0x4
 265 00eb A8       		.byte	0xa8
 266 00ec D1000000 		.4byte	0xd1
 267 00f0 0D       		.uleb128 0xd
 268 00f1 B6010000 		.4byte	.LASF17
 269 00f5 04       		.byte	0x4
 270 00f6 A9       		.byte	0xa9
 271 00f7 FC000000 		.4byte	0xfc
 272 00fb 00       		.byte	0
 273 00fc 0E       		.uleb128 0xe
 274 00fd 30000000 		.4byte	0x30
 275 0101 0C010000 		.4byte	0x10c
 276 0105 0F       		.uleb128 0xf
 277 0106 3E000000 		.4byte	0x3e
 278 010a 03       		.byte	0x3
 279 010b 00       		.byte	0
 280 010c 10       		.uleb128 0x10
 281 010d 08       		.byte	0x8
 282 010e 04       		.byte	0x4
 283 010f A3       		.byte	0xa3
 284 0110 31010000 		.4byte	0x131
 285 0114 11       		.uleb128 0x11
 286 0115 36040000 		.4byte	.LASF18
 287 0119 04       		.byte	0x4
 288 011a A5       		.byte	0xa5
 289 011b 65000000 		.4byte	0x65
 290 011f 02       		.byte	0x2
 291 0120 23       		.byte	0x23
 292 0121 00       		.uleb128 0
 293 0122 11       		.uleb128 0x11
 294 0123 45040000 		.4byte	.LASF19
 295 0127 04       		.byte	0x4
 296 0128 AA       		.byte	0xaa
 297 0129 DD000000 		.4byte	0xdd
 298 012d 02       		.byte	0x2
 299 012e 23       		.byte	0x23
 300 012f 04       		.uleb128 0x4
 301 0130 00       		.byte	0
 302 0131 08       		.uleb128 0x8
 303 0132 B9030000 		.4byte	.LASF20
 304 0136 04       		.byte	0x4
 305 0137 AB       		.byte	0xab
 306 0138 0C010000 		.4byte	0x10c
 307 013c 08       		.uleb128 0x8
 308 013d 6C010000 		.4byte	.LASF21
 309 0141 04       		.byte	0x4
 310 0142 AF       		.byte	0xaf
 311 0143 A4000000 		.4byte	0xa4
 312 0147 08       		.uleb128 0x8
 313 0148 AB040000 		.4byte	.LASF22
 314 014c 06       		.byte	0x6
 315 014d 16       		.byte	0x16
 316 014e 94000000 		.4byte	0x94
 317 0152 12       		.uleb128 0x12
 318 0153 7D010000 		.4byte	.LASF27
 319 0157 18       		.byte	0x18
 320 0158 06       		.byte	0x6
ARM GAS  C:\Users\embedded\AppData\Local\Temp\ccjFShSO.s 			page 9


 321 0159 2F       		.byte	0x2f
 322 015a B1010000 		.4byte	0x1b1
 323 015e 11       		.uleb128 0x11
 324 015f 82040000 		.4byte	.LASF23
 325 0163 06       		.byte	0x6
 326 0164 31       		.byte	0x31
 327 0165 B1010000 		.4byte	0x1b1
 328 0169 02       		.byte	0x2
 329 016a 23       		.byte	0x23
 330 016b 00       		.uleb128 0
 331 016c 13       		.uleb128 0x13
 332 016d 5F6B00   		.ascii	"_k\000"
 333 0170 06       		.byte	0x6
 334 0171 32       		.byte	0x32
 335 0172 65000000 		.4byte	0x65
 336 0176 02       		.byte	0x2
 337 0177 23       		.byte	0x23
 338 0178 04       		.uleb128 0x4
 339 0179 11       		.uleb128 0x11
 340 017a 9E040000 		.4byte	.LASF24
 341 017e 06       		.byte	0x6
 342 017f 32       		.byte	0x32
 343 0180 65000000 		.4byte	0x65
 344 0184 02       		.byte	0x2
 345 0185 23       		.byte	0x23
 346 0186 08       		.uleb128 0x8
 347 0187 11       		.uleb128 0x11
 348 0188 66010000 		.4byte	.LASF25
 349 018c 06       		.byte	0x6
 350 018d 32       		.byte	0x32
 351 018e 65000000 		.4byte	0x65
 352 0192 02       		.byte	0x2
 353 0193 23       		.byte	0x23
 354 0194 0C       		.uleb128 0xc
 355 0195 11       		.uleb128 0x11
 356 0196 E0040000 		.4byte	.LASF26
 357 019a 06       		.byte	0x6
 358 019b 32       		.byte	0x32
 359 019c 65000000 		.4byte	0x65
 360 01a0 02       		.byte	0x2
 361 01a1 23       		.byte	0x23
 362 01a2 10       		.uleb128 0x10
 363 01a3 13       		.uleb128 0x13
 364 01a4 5F7800   		.ascii	"_x\000"
 365 01a7 06       		.byte	0x6
 366 01a8 33       		.byte	0x33
 367 01a9 B7010000 		.4byte	0x1b7
 368 01ad 02       		.byte	0x2
 369 01ae 23       		.byte	0x23
 370 01af 14       		.uleb128 0x14
 371 01b0 00       		.byte	0
 372 01b1 09       		.uleb128 0x9
 373 01b2 04       		.byte	0x4
 374 01b3 52010000 		.4byte	0x152
 375 01b7 0E       		.uleb128 0xe
 376 01b8 47010000 		.4byte	0x147
 377 01bc C7010000 		.4byte	0x1c7
ARM GAS  C:\Users\embedded\AppData\Local\Temp\ccjFShSO.s 			page 10


 378 01c0 0F       		.uleb128 0xf
 379 01c1 3E000000 		.4byte	0x3e
 380 01c5 00       		.byte	0
 381 01c6 00       		.byte	0
 382 01c7 12       		.uleb128 0x12
 383 01c8 A4010000 		.4byte	.LASF28
 384 01cc 24       		.byte	0x24
 385 01cd 06       		.byte	0x6
 386 01ce 37       		.byte	0x37
 387 01cf 52020000 		.4byte	0x252
 388 01d3 11       		.uleb128 0x11
 389 01d4 85000000 		.4byte	.LASF29
 390 01d8 06       		.byte	0x6
 391 01d9 39       		.byte	0x39
 392 01da 65000000 		.4byte	0x65
 393 01de 02       		.byte	0x2
 394 01df 23       		.byte	0x23
 395 01e0 00       		.uleb128 0
 396 01e1 11       		.uleb128 0x11
 397 01e2 73040000 		.4byte	.LASF30
 398 01e6 06       		.byte	0x6
 399 01e7 3A       		.byte	0x3a
 400 01e8 65000000 		.4byte	0x65
 401 01ec 02       		.byte	0x2
 402 01ed 23       		.byte	0x23
 403 01ee 04       		.uleb128 0x4
 404 01ef 11       		.uleb128 0x11
 405 01f0 B4000000 		.4byte	.LASF31
 406 01f4 06       		.byte	0x6
 407 01f5 3B       		.byte	0x3b
 408 01f6 65000000 		.4byte	0x65
 409 01fa 02       		.byte	0x2
 410 01fb 23       		.byte	0x23
 411 01fc 08       		.uleb128 0x8
 412 01fd 11       		.uleb128 0x11
 413 01fe 6A050000 		.4byte	.LASF32
 414 0202 06       		.byte	0x6
 415 0203 3C       		.byte	0x3c
 416 0204 65000000 		.4byte	0x65
 417 0208 02       		.byte	0x2
 418 0209 23       		.byte	0x23
 419 020a 0C       		.uleb128 0xc
 420 020b 11       		.uleb128 0x11
 421 020c 8F020000 		.4byte	.LASF33
 422 0210 06       		.byte	0x6
 423 0211 3D       		.byte	0x3d
 424 0212 65000000 		.4byte	0x65
 425 0216 02       		.byte	0x2
 426 0217 23       		.byte	0x23
 427 0218 10       		.uleb128 0x10
 428 0219 11       		.uleb128 0x11
 429 021a 62020000 		.4byte	.LASF34
 430 021e 06       		.byte	0x6
 431 021f 3E       		.byte	0x3e
 432 0220 65000000 		.4byte	0x65
 433 0224 02       		.byte	0x2
 434 0225 23       		.byte	0x23
ARM GAS  C:\Users\embedded\AppData\Local\Temp\ccjFShSO.s 			page 11


 435 0226 14       		.uleb128 0x14
 436 0227 11       		.uleb128 0x11
 437 0228 E5040000 		.4byte	.LASF35
 438 022c 06       		.byte	0x6
 439 022d 3F       		.byte	0x3f
 440 022e 65000000 		.4byte	0x65
 441 0232 02       		.byte	0x2
 442 0233 23       		.byte	0x23
 443 0234 18       		.uleb128 0x18
 444 0235 11       		.uleb128 0x11
 445 0236 97030000 		.4byte	.LASF36
 446 023a 06       		.byte	0x6
 447 023b 40       		.byte	0x40
 448 023c 65000000 		.4byte	0x65
 449 0240 02       		.byte	0x2
 450 0241 23       		.byte	0x23
 451 0242 1C       		.uleb128 0x1c
 452 0243 11       		.uleb128 0x11
 453 0244 2C050000 		.4byte	.LASF37
 454 0248 06       		.byte	0x6
 455 0249 41       		.byte	0x41
 456 024a 65000000 		.4byte	0x65
 457 024e 02       		.byte	0x2
 458 024f 23       		.byte	0x23
 459 0250 20       		.uleb128 0x20
 460 0251 00       		.byte	0
 461 0252 14       		.uleb128 0x14
 462 0253 C3000000 		.4byte	.LASF38
 463 0257 0801     		.2byte	0x108
 464 0259 06       		.byte	0x6
 465 025a 4A       		.byte	0x4a
 466 025b 9B020000 		.4byte	0x29b
 467 025f 11       		.uleb128 0x11
 468 0260 59010000 		.4byte	.LASF39
 469 0264 06       		.byte	0x6
 470 0265 4B       		.byte	0x4b
 471 0266 9B020000 		.4byte	0x29b
 472 026a 02       		.byte	0x2
 473 026b 23       		.byte	0x23
 474 026c 00       		.uleb128 0
 475 026d 11       		.uleb128 0x11
 476 026e 00000000 		.4byte	.LASF40
 477 0272 06       		.byte	0x6
 478 0273 4C       		.byte	0x4c
 479 0274 9B020000 		.4byte	0x29b
 480 0278 03       		.byte	0x3
 481 0279 23       		.byte	0x23
 482 027a 8001     		.uleb128 0x80
 483 027c 11       		.uleb128 0x11
 484 027d 95040000 		.4byte	.LASF41
 485 0281 06       		.byte	0x6
 486 0282 4E       		.byte	0x4e
 487 0283 47010000 		.4byte	0x147
 488 0287 03       		.byte	0x3
 489 0288 23       		.byte	0x23
 490 0289 8002     		.uleb128 0x100
 491 028b 11       		.uleb128 0x11
ARM GAS  C:\Users\embedded\AppData\Local\Temp\ccjFShSO.s 			page 12


 492 028c F1000000 		.4byte	.LASF42
 493 0290 06       		.byte	0x6
 494 0291 51       		.byte	0x51
 495 0292 47010000 		.4byte	0x147
 496 0296 03       		.byte	0x3
 497 0297 23       		.byte	0x23
 498 0298 8402     		.uleb128 0x104
 499 029a 00       		.byte	0
 500 029b 0E       		.uleb128 0xe
 501 029c A2000000 		.4byte	0xa2
 502 02a0 AB020000 		.4byte	0x2ab
 503 02a4 0F       		.uleb128 0xf
 504 02a5 3E000000 		.4byte	0x3e
 505 02a9 1F       		.byte	0x1f
 506 02aa 00       		.byte	0
 507 02ab 14       		.uleb128 0x14
 508 02ac 98020000 		.4byte	.LASF43
 509 02b0 9001     		.2byte	0x190
 510 02b2 06       		.byte	0x6
 511 02b3 5D       		.byte	0x5d
 512 02b4 F2020000 		.4byte	0x2f2
 513 02b8 11       		.uleb128 0x11
 514 02b9 82040000 		.4byte	.LASF23
 515 02bd 06       		.byte	0x6
 516 02be 5E       		.byte	0x5e
 517 02bf F2020000 		.4byte	0x2f2
 518 02c3 02       		.byte	0x2
 519 02c4 23       		.byte	0x23
 520 02c5 00       		.uleb128 0
 521 02c6 11       		.uleb128 0x11
 522 02c7 EB030000 		.4byte	.LASF44
 523 02cb 06       		.byte	0x6
 524 02cc 5F       		.byte	0x5f
 525 02cd 65000000 		.4byte	0x65
 526 02d1 02       		.byte	0x2
 527 02d2 23       		.byte	0x23
 528 02d3 04       		.uleb128 0x4
 529 02d4 11       		.uleb128 0x11
 530 02d5 61010000 		.4byte	.LASF45
 531 02d9 06       		.byte	0x6
 532 02da 61       		.byte	0x61
 533 02db F8020000 		.4byte	0x2f8
 534 02df 02       		.byte	0x2
 535 02e0 23       		.byte	0x23
 536 02e1 08       		.uleb128 0x8
 537 02e2 11       		.uleb128 0x11
 538 02e3 C3000000 		.4byte	.LASF38
 539 02e7 06       		.byte	0x6
 540 02e8 62       		.byte	0x62
 541 02e9 52020000 		.4byte	0x252
 542 02ed 03       		.byte	0x3
 543 02ee 23       		.byte	0x23
 544 02ef 8801     		.uleb128 0x88
 545 02f1 00       		.byte	0
 546 02f2 09       		.uleb128 0x9
 547 02f3 04       		.byte	0x4
 548 02f4 AB020000 		.4byte	0x2ab
ARM GAS  C:\Users\embedded\AppData\Local\Temp\ccjFShSO.s 			page 13


 549 02f8 0E       		.uleb128 0xe
 550 02f9 08030000 		.4byte	0x308
 551 02fd 08030000 		.4byte	0x308
 552 0301 0F       		.uleb128 0xf
 553 0302 3E000000 		.4byte	0x3e
 554 0306 1F       		.byte	0x1f
 555 0307 00       		.byte	0
 556 0308 09       		.uleb128 0x9
 557 0309 04       		.byte	0x4
 558 030a 0E030000 		.4byte	0x30e
 559 030e 15       		.uleb128 0x15
 560 030f 01       		.byte	0x1
 561 0310 12       		.uleb128 0x12
 562 0311 A1030000 		.4byte	.LASF46
 563 0315 08       		.byte	0x8
 564 0316 06       		.byte	0x6
 565 0317 75       		.byte	0x75
 566 0318 39030000 		.4byte	0x339
 567 031c 11       		.uleb128 0x11
 568 031d AE000000 		.4byte	.LASF47
 569 0321 06       		.byte	0x6
 570 0322 76       		.byte	0x76
 571 0323 39030000 		.4byte	0x339
 572 0327 02       		.byte	0x2
 573 0328 23       		.byte	0x23
 574 0329 00       		.uleb128 0
 575 032a 11       		.uleb128 0x11
 576 032b 0C000000 		.4byte	.LASF48
 577 032f 06       		.byte	0x6
 578 0330 77       		.byte	0x77
 579 0331 65000000 		.4byte	0x65
 580 0335 02       		.byte	0x2
 581 0336 23       		.byte	0x23
 582 0337 04       		.uleb128 0x4
 583 0338 00       		.byte	0
 584 0339 09       		.uleb128 0x9
 585 033a 04       		.byte	0x4
 586 033b 30000000 		.4byte	0x30
 587 033f 12       		.uleb128 0x12
 588 0340 C4030000 		.4byte	.LASF49
 589 0344 68       		.byte	0x68
 590 0345 06       		.byte	0x6
 591 0346 B5       		.byte	0xb5
 592 0347 99040000 		.4byte	0x499
 593 034b 13       		.uleb128 0x13
 594 034c 5F7000   		.ascii	"_p\000"
 595 034f 06       		.byte	0x6
 596 0350 B6       		.byte	0xb6
 597 0351 39030000 		.4byte	0x339
 598 0355 02       		.byte	0x2
 599 0356 23       		.byte	0x23
 600 0357 00       		.uleb128 0
 601 0358 13       		.uleb128 0x13
 602 0359 5F7200   		.ascii	"_r\000"
 603 035c 06       		.byte	0x6
 604 035d B7       		.byte	0xb7
 605 035e 65000000 		.4byte	0x65
ARM GAS  C:\Users\embedded\AppData\Local\Temp\ccjFShSO.s 			page 14


 606 0362 02       		.byte	0x2
 607 0363 23       		.byte	0x23
 608 0364 04       		.uleb128 0x4
 609 0365 13       		.uleb128 0x13
 610 0366 5F7700   		.ascii	"_w\000"
 611 0369 06       		.byte	0x6
 612 036a B8       		.byte	0xb8
 613 036b 65000000 		.4byte	0x65
 614 036f 02       		.byte	0x2
 615 0370 23       		.byte	0x23
 616 0371 08       		.uleb128 0x8
 617 0372 11       		.uleb128 0x11
 618 0373 EA000000 		.4byte	.LASF50
 619 0377 06       		.byte	0x6
 620 0378 B9       		.byte	0xb9
 621 0379 5E000000 		.4byte	0x5e
 622 037d 02       		.byte	0x2
 623 037e 23       		.byte	0x23
 624 037f 0C       		.uleb128 0xc
 625 0380 11       		.uleb128 0x11
 626 0381 DF010000 		.4byte	.LASF51
 627 0385 06       		.byte	0x6
 628 0386 BA       		.byte	0xba
 629 0387 5E000000 		.4byte	0x5e
 630 038b 02       		.byte	0x2
 631 038c 23       		.byte	0x23
 632 038d 0E       		.uleb128 0xe
 633 038e 13       		.uleb128 0x13
 634 038f 5F626600 		.ascii	"_bf\000"
 635 0393 06       		.byte	0x6
 636 0394 BB       		.byte	0xbb
 637 0395 10030000 		.4byte	0x310
 638 0399 02       		.byte	0x2
 639 039a 23       		.byte	0x23
 640 039b 10       		.uleb128 0x10
 641 039c 11       		.uleb128 0x11
 642 039d 62000000 		.4byte	.LASF52
 643 03a1 06       		.byte	0x6
 644 03a2 BC       		.byte	0xbc
 645 03a3 65000000 		.4byte	0x65
 646 03a7 02       		.byte	0x2
 647 03a8 23       		.byte	0x23
 648 03a9 18       		.uleb128 0x18
 649 03aa 11       		.uleb128 0x11
 650 03ab D1000000 		.4byte	.LASF53
 651 03af 06       		.byte	0x6
 652 03b0 C3       		.byte	0xc3
 653 03b1 A2000000 		.4byte	0xa2
 654 03b5 02       		.byte	0x2
 655 03b6 23       		.byte	0x23
 656 03b7 1C       		.uleb128 0x1c
 657 03b8 11       		.uleb128 0x11
 658 03b9 94010000 		.4byte	.LASF54
 659 03bd 06       		.byte	0x6
 660 03be C5       		.byte	0xc5
 661 03bf 33060000 		.4byte	0x633
 662 03c3 02       		.byte	0x2
ARM GAS  C:\Users\embedded\AppData\Local\Temp\ccjFShSO.s 			page 15


 663 03c4 23       		.byte	0x23
 664 03c5 20       		.uleb128 0x20
 665 03c6 11       		.uleb128 0x11
 666 03c7 5B020000 		.4byte	.LASF55
 667 03cb 06       		.byte	0x6
 668 03cc C7       		.byte	0xc7
 669 03cd 5E060000 		.4byte	0x65e
 670 03d1 02       		.byte	0x2
 671 03d2 23       		.byte	0x23
 672 03d3 24       		.uleb128 0x24
 673 03d4 11       		.uleb128 0x11
 674 03d5 4D040000 		.4byte	.LASF56
 675 03d9 06       		.byte	0x6
 676 03da CA       		.byte	0xca
 677 03db 83060000 		.4byte	0x683
 678 03df 02       		.byte	0x2
 679 03e0 23       		.byte	0x23
 680 03e1 28       		.uleb128 0x28
 681 03e2 11       		.uleb128 0x11
 682 03e3 46050000 		.4byte	.LASF57
 683 03e7 06       		.byte	0x6
 684 03e8 CB       		.byte	0xcb
 685 03e9 9E060000 		.4byte	0x69e
 686 03ed 02       		.byte	0x2
 687 03ee 23       		.byte	0x23
 688 03ef 2C       		.uleb128 0x2c
 689 03f0 13       		.uleb128 0x13
 690 03f1 5F756200 		.ascii	"_ub\000"
 691 03f5 06       		.byte	0x6
 692 03f6 CE       		.byte	0xce
 693 03f7 10030000 		.4byte	0x310
 694 03fb 02       		.byte	0x2
 695 03fc 23       		.byte	0x23
 696 03fd 30       		.uleb128 0x30
 697 03fe 13       		.uleb128 0x13
 698 03ff 5F757000 		.ascii	"_up\000"
 699 0403 06       		.byte	0x6
 700 0404 CF       		.byte	0xcf
 701 0405 39030000 		.4byte	0x339
 702 0409 02       		.byte	0x2
 703 040a 23       		.byte	0x23
 704 040b 38       		.uleb128 0x38
 705 040c 13       		.uleb128 0x13
 706 040d 5F757200 		.ascii	"_ur\000"
 707 0411 06       		.byte	0x6
 708 0412 D0       		.byte	0xd0
 709 0413 65000000 		.4byte	0x65
 710 0417 02       		.byte	0x2
 711 0418 23       		.byte	0x23
 712 0419 3C       		.uleb128 0x3c
 713 041a 11       		.uleb128 0x11
 714 041b A8000000 		.4byte	.LASF58
 715 041f 06       		.byte	0x6
 716 0420 D3       		.byte	0xd3
 717 0421 A4060000 		.4byte	0x6a4
 718 0425 02       		.byte	0x2
 719 0426 23       		.byte	0x23
ARM GAS  C:\Users\embedded\AppData\Local\Temp\ccjFShSO.s 			page 16


 720 0427 40       		.uleb128 0x40
 721 0428 11       		.uleb128 0x11
 722 0429 1E050000 		.4byte	.LASF59
 723 042d 06       		.byte	0x6
 724 042e D4       		.byte	0xd4
 725 042f B4060000 		.4byte	0x6b4
 726 0433 02       		.byte	0x2
 727 0434 23       		.byte	0x23
 728 0435 43       		.uleb128 0x43
 729 0436 13       		.uleb128 0x13
 730 0437 5F6C6200 		.ascii	"_lb\000"
 731 043b 06       		.byte	0x6
 732 043c D7       		.byte	0xd7
 733 043d 10030000 		.4byte	0x310
 734 0441 02       		.byte	0x2
 735 0442 23       		.byte	0x23
 736 0443 44       		.uleb128 0x44
 737 0444 11       		.uleb128 0x11
 738 0445 0F010000 		.4byte	.LASF60
 739 0449 06       		.byte	0x6
 740 044a DA       		.byte	0xda
 741 044b 65000000 		.4byte	0x65
 742 044f 02       		.byte	0x2
 743 0450 23       		.byte	0x23
 744 0451 4C       		.uleb128 0x4c
 745 0452 11       		.uleb128 0x11
 746 0453 32010000 		.4byte	.LASF61
 747 0457 06       		.byte	0x6
 748 0458 DB       		.byte	0xdb
 749 0459 BB000000 		.4byte	0xbb
 750 045d 02       		.byte	0x2
 751 045e 23       		.byte	0x23
 752 045f 50       		.uleb128 0x50
 753 0460 11       		.uleb128 0x11
 754 0461 25000000 		.4byte	.LASF62
 755 0465 06       		.byte	0x6
 756 0466 DE       		.byte	0xde
 757 0467 B8040000 		.4byte	0x4b8
 758 046b 02       		.byte	0x2
 759 046c 23       		.byte	0x23
 760 046d 54       		.uleb128 0x54
 761 046e 11       		.uleb128 0x11
 762 046f 4D020000 		.4byte	.LASF63
 763 0473 06       		.byte	0x6
 764 0474 E2       		.byte	0xe2
 765 0475 3C010000 		.4byte	0x13c
 766 0479 02       		.byte	0x2
 767 047a 23       		.byte	0x23
 768 047b 58       		.uleb128 0x58
 769 047c 11       		.uleb128 0x11
 770 047d CC030000 		.4byte	.LASF64
 771 0481 06       		.byte	0x6
 772 0482 E4       		.byte	0xe4
 773 0483 31010000 		.4byte	0x131
 774 0487 02       		.byte	0x2
 775 0488 23       		.byte	0x23
 776 0489 5C       		.uleb128 0x5c
ARM GAS  C:\Users\embedded\AppData\Local\Temp\ccjFShSO.s 			page 17


 777 048a 11       		.uleb128 0x11
 778 048b 53020000 		.4byte	.LASF65
 779 048f 06       		.byte	0x6
 780 0490 E5       		.byte	0xe5
 781 0491 65000000 		.4byte	0x65
 782 0495 02       		.byte	0x2
 783 0496 23       		.byte	0x23
 784 0497 64       		.uleb128 0x64
 785 0498 00       		.byte	0
 786 0499 16       		.uleb128 0x16
 787 049a 01       		.byte	0x1
 788 049b 65000000 		.4byte	0x65
 789 049f B8040000 		.4byte	0x4b8
 790 04a3 17       		.uleb128 0x17
 791 04a4 B8040000 		.4byte	0x4b8
 792 04a8 17       		.uleb128 0x17
 793 04a9 A2000000 		.4byte	0xa2
 794 04ad 17       		.uleb128 0x17
 795 04ae 21060000 		.4byte	0x621
 796 04b2 17       		.uleb128 0x17
 797 04b3 65000000 		.4byte	0x65
 798 04b7 00       		.byte	0
 799 04b8 09       		.uleb128 0x9
 800 04b9 04       		.byte	0x4
 801 04ba C3040000 		.4byte	0x4c3
 802 04be 18       		.uleb128 0x18
 803 04bf B8040000 		.4byte	0x4b8
 804 04c3 19       		.uleb128 0x19
 805 04c4 20040000 		.4byte	.LASF66
 806 04c8 2804     		.2byte	0x428
 807 04ca 06       		.byte	0x6
 808 04cb 6002     		.2byte	0x260
 809 04cd 21060000 		.4byte	0x621
 810 04d1 1A       		.uleb128 0x1a
 811 04d2 67040000 		.4byte	.LASF67
 812 04d6 06       		.byte	0x6
 813 04d7 6202     		.2byte	0x262
 814 04d9 65000000 		.4byte	0x65
 815 04dd 02       		.byte	0x2
 816 04de 23       		.byte	0x23
 817 04df 00       		.uleb128 0
 818 04e0 1A       		.uleb128 0x1a
 819 04e1 F9000000 		.4byte	.LASF68
 820 04e5 06       		.byte	0x6
 821 04e6 6702     		.2byte	0x267
 822 04e8 11070000 		.4byte	0x711
 823 04ec 02       		.byte	0x2
 824 04ed 23       		.byte	0x23
 825 04ee 04       		.uleb128 0x4
 826 04ef 1A       		.uleb128 0x1a
 827 04f0 BD010000 		.4byte	.LASF69
 828 04f4 06       		.byte	0x6
 829 04f5 6702     		.2byte	0x267
 830 04f7 11070000 		.4byte	0x711
 831 04fb 02       		.byte	0x2
 832 04fc 23       		.byte	0x23
 833 04fd 08       		.uleb128 0x8
ARM GAS  C:\Users\embedded\AppData\Local\Temp\ccjFShSO.s 			page 18


 834 04fe 1A       		.uleb128 0x1a
 835 04ff 75010000 		.4byte	.LASF70
 836 0503 06       		.byte	0x6
 837 0504 6702     		.2byte	0x267
 838 0506 11070000 		.4byte	0x711
 839 050a 02       		.byte	0x2
 840 050b 23       		.byte	0x23
 841 050c 0C       		.uleb128 0xc
 842 050d 1A       		.uleb128 0x1a
 843 050e E6030000 		.4byte	.LASF71
 844 0512 06       		.byte	0x6
 845 0513 6902     		.2byte	0x269
 846 0515 65000000 		.4byte	0x65
 847 0519 02       		.byte	0x2
 848 051a 23       		.byte	0x23
 849 051b 10       		.uleb128 0x10
 850 051c 1A       		.uleb128 0x1a
 851 051d 1A000000 		.4byte	.LASF72
 852 0521 06       		.byte	0x6
 853 0522 6A02     		.2byte	0x26a
 854 0524 2C090000 		.4byte	0x92c
 855 0528 02       		.byte	0x2
 856 0529 23       		.byte	0x23
 857 052a 14       		.uleb128 0x14
 858 052b 1A       		.uleb128 0x1a
 859 052c 02040000 		.4byte	.LASF73
 860 0530 06       		.byte	0x6
 861 0531 6D02     		.2byte	0x26d
 862 0533 65000000 		.4byte	0x65
 863 0537 02       		.byte	0x2
 864 0538 23       		.byte	0x23
 865 0539 30       		.uleb128 0x30
 866 053a 1A       		.uleb128 0x1a
 867 053b F0030000 		.4byte	.LASF74
 868 053f 06       		.byte	0x6
 869 0540 6E02     		.2byte	0x26e
 870 0542 42090000 		.4byte	0x942
 871 0546 02       		.byte	0x2
 872 0547 23       		.byte	0x23
 873 0548 34       		.uleb128 0x34
 874 0549 1A       		.uleb128 0x1a
 875 054a A0020000 		.4byte	.LASF75
 876 054e 06       		.byte	0x6
 877 054f 7002     		.2byte	0x270
 878 0551 65000000 		.4byte	0x65
 879 0555 02       		.byte	0x2
 880 0556 23       		.byte	0x23
 881 0557 38       		.uleb128 0x38
 882 0558 1A       		.uleb128 0x1a
 883 0559 F8030000 		.4byte	.LASF76
 884 055d 06       		.byte	0x6
 885 055e 7202     		.2byte	0x272
 886 0560 54090000 		.4byte	0x954
 887 0564 02       		.byte	0x2
 888 0565 23       		.byte	0x23
 889 0566 3C       		.uleb128 0x3c
 890 0567 1A       		.uleb128 0x1a
ARM GAS  C:\Users\embedded\AppData\Local\Temp\ccjFShSO.s 			page 19


 891 0568 29020000 		.4byte	.LASF77
 892 056c 06       		.byte	0x6
 893 056d 7502     		.2byte	0x275
 894 056f B1010000 		.4byte	0x1b1
 895 0573 02       		.byte	0x2
 896 0574 23       		.byte	0x23
 897 0575 40       		.uleb128 0x40
 898 0576 1A       		.uleb128 0x1a
 899 0577 9A010000 		.4byte	.LASF78
 900 057b 06       		.byte	0x6
 901 057c 7602     		.2byte	0x276
 902 057e 65000000 		.4byte	0x65
 903 0582 02       		.byte	0x2
 904 0583 23       		.byte	0x23
 905 0584 44       		.uleb128 0x44
 906 0585 1A       		.uleb128 0x1a
 907 0586 60050000 		.4byte	.LASF79
 908 058a 06       		.byte	0x6
 909 058b 7702     		.2byte	0x277
 910 058d B1010000 		.4byte	0x1b1
 911 0591 02       		.byte	0x2
 912 0592 23       		.byte	0x23
 913 0593 48       		.uleb128 0x48
 914 0594 1A       		.uleb128 0x1a
 915 0595 A8030000 		.4byte	.LASF80
 916 0599 06       		.byte	0x6
 917 059a 7802     		.2byte	0x278
 918 059c 5A090000 		.4byte	0x95a
 919 05a0 02       		.byte	0x2
 920 05a1 23       		.byte	0x23
 921 05a2 4C       		.uleb128 0x4c
 922 05a3 1A       		.uleb128 0x1a
 923 05a4 C5010000 		.4byte	.LASF81
 924 05a8 06       		.byte	0x6
 925 05a9 7B02     		.2byte	0x27b
 926 05ab 65000000 		.4byte	0x65
 927 05af 02       		.byte	0x2
 928 05b0 23       		.byte	0x23
 929 05b1 50       		.uleb128 0x50
 930 05b2 1A       		.uleb128 0x1a
 931 05b3 2A010000 		.4byte	.LASF82
 932 05b7 06       		.byte	0x6
 933 05b8 7C02     		.2byte	0x27c
 934 05ba 21060000 		.4byte	0x621
 935 05be 02       		.byte	0x2
 936 05bf 23       		.byte	0x23
 937 05c0 54       		.uleb128 0x54
 938 05c1 1A       		.uleb128 0x1a
 939 05c2 7F030000 		.4byte	.LASF83
 940 05c6 06       		.byte	0x6
 941 05c7 9F02     		.2byte	0x29f
 942 05c9 0A090000 		.4byte	0x90a
 943 05cd 02       		.byte	0x2
 944 05ce 23       		.byte	0x23
 945 05cf 58       		.uleb128 0x58
 946 05d0 1A       		.uleb128 0x1a
 947 05d1 98020000 		.4byte	.LASF43
ARM GAS  C:\Users\embedded\AppData\Local\Temp\ccjFShSO.s 			page 20


 948 05d5 06       		.byte	0x6
 949 05d6 A302     		.2byte	0x2a3
 950 05d8 F2020000 		.4byte	0x2f2
 951 05dc 03       		.byte	0x3
 952 05dd 23       		.byte	0x23
 953 05de C802     		.uleb128 0x148
 954 05e0 1A       		.uleb128 0x1a
 955 05e1 2D040000 		.4byte	.LASF84
 956 05e5 06       		.byte	0x6
 957 05e6 A402     		.2byte	0x2a4
 958 05e8 AB020000 		.4byte	0x2ab
 959 05ec 03       		.byte	0x3
 960 05ed 23       		.byte	0x23
 961 05ee CC02     		.uleb128 0x14c
 962 05f0 1A       		.uleb128 0x1a
 963 05f1 14050000 		.4byte	.LASF85
 964 05f5 06       		.byte	0x6
 965 05f6 A802     		.2byte	0x2a8
 966 05f8 6C090000 		.4byte	0x96c
 967 05fc 03       		.byte	0x3
 968 05fd 23       		.byte	0x23
 969 05fe DC05     		.uleb128 0x2dc
 970 0600 1A       		.uleb128 0x1a
 971 0601 D9000000 		.4byte	.LASF86
 972 0605 06       		.byte	0x6
 973 0606 AD02     		.2byte	0x2ad
 974 0608 D0060000 		.4byte	0x6d0
 975 060c 03       		.byte	0x3
 976 060d 23       		.byte	0x23
 977 060e E005     		.uleb128 0x2e0
 978 0610 1A       		.uleb128 0x1a
 979 0611 BE000000 		.4byte	.LASF87
 980 0615 06       		.byte	0x6
 981 0616 AF02     		.2byte	0x2af
 982 0618 78090000 		.4byte	0x978
 983 061c 03       		.byte	0x3
 984 061d 23       		.byte	0x23
 985 061e EC05     		.uleb128 0x2ec
 986 0620 00       		.byte	0
 987 0621 09       		.uleb128 0x9
 988 0622 04       		.byte	0x4
 989 0623 27060000 		.4byte	0x627
 990 0627 03       		.uleb128 0x3
 991 0628 01       		.byte	0x1
 992 0629 08       		.byte	0x8
 993 062a 6E040000 		.4byte	.LASF88
 994 062e 18       		.uleb128 0x18
 995 062f 27060000 		.4byte	0x627
 996 0633 09       		.uleb128 0x9
 997 0634 04       		.byte	0x4
 998 0635 99040000 		.4byte	0x499
 999 0639 16       		.uleb128 0x16
 1000 063a 01       		.byte	0x1
 1001 063b 65000000 		.4byte	0x65
 1002 063f 58060000 		.4byte	0x658
 1003 0643 17       		.uleb128 0x17
 1004 0644 B8040000 		.4byte	0x4b8
ARM GAS  C:\Users\embedded\AppData\Local\Temp\ccjFShSO.s 			page 21


 1005 0648 17       		.uleb128 0x17
 1006 0649 A2000000 		.4byte	0xa2
 1007 064d 17       		.uleb128 0x17
 1008 064e 58060000 		.4byte	0x658
 1009 0652 17       		.uleb128 0x17
 1010 0653 65000000 		.4byte	0x65
 1011 0657 00       		.byte	0
 1012 0658 09       		.uleb128 0x9
 1013 0659 04       		.byte	0x4
 1014 065a 2E060000 		.4byte	0x62e
 1015 065e 09       		.uleb128 0x9
 1016 065f 04       		.byte	0x4
 1017 0660 39060000 		.4byte	0x639
 1018 0664 16       		.uleb128 0x16
 1019 0665 01       		.byte	0x1
 1020 0666 C6000000 		.4byte	0xc6
 1021 066a 83060000 		.4byte	0x683
 1022 066e 17       		.uleb128 0x17
 1023 066f B8040000 		.4byte	0x4b8
 1024 0673 17       		.uleb128 0x17
 1025 0674 A2000000 		.4byte	0xa2
 1026 0678 17       		.uleb128 0x17
 1027 0679 C6000000 		.4byte	0xc6
 1028 067d 17       		.uleb128 0x17
 1029 067e 65000000 		.4byte	0x65
 1030 0682 00       		.byte	0
 1031 0683 09       		.uleb128 0x9
 1032 0684 04       		.byte	0x4
 1033 0685 64060000 		.4byte	0x664
 1034 0689 16       		.uleb128 0x16
 1035 068a 01       		.byte	0x1
 1036 068b 65000000 		.4byte	0x65
 1037 068f 9E060000 		.4byte	0x69e
 1038 0693 17       		.uleb128 0x17
 1039 0694 B8040000 		.4byte	0x4b8
 1040 0698 17       		.uleb128 0x17
 1041 0699 A2000000 		.4byte	0xa2
 1042 069d 00       		.byte	0
 1043 069e 09       		.uleb128 0x9
 1044 069f 04       		.byte	0x4
 1045 06a0 89060000 		.4byte	0x689
 1046 06a4 0E       		.uleb128 0xe
 1047 06a5 30000000 		.4byte	0x30
 1048 06a9 B4060000 		.4byte	0x6b4
 1049 06ad 0F       		.uleb128 0xf
 1050 06ae 3E000000 		.4byte	0x3e
 1051 06b2 02       		.byte	0x2
 1052 06b3 00       		.byte	0
 1053 06b4 0E       		.uleb128 0xe
 1054 06b5 30000000 		.4byte	0x30
 1055 06b9 C4060000 		.4byte	0x6c4
 1056 06bd 0F       		.uleb128 0xf
 1057 06be 3E000000 		.4byte	0x3e
 1058 06c2 00       		.byte	0
 1059 06c3 00       		.byte	0
 1060 06c4 0B       		.uleb128 0xb
 1061 06c5 B2030000 		.4byte	.LASF89
ARM GAS  C:\Users\embedded\AppData\Local\Temp\ccjFShSO.s 			page 22


 1062 06c9 06       		.byte	0x6
 1063 06ca 1F01     		.2byte	0x11f
 1064 06cc 3F030000 		.4byte	0x33f
 1065 06d0 1B       		.uleb128 0x1b
 1066 06d1 EF040000 		.4byte	.LASF90
 1067 06d5 0C       		.byte	0xc
 1068 06d6 06       		.byte	0x6
 1069 06d7 2301     		.2byte	0x123
 1070 06d9 0B070000 		.4byte	0x70b
 1071 06dd 1A       		.uleb128 0x1a
 1072 06de 82040000 		.4byte	.LASF23
 1073 06e2 06       		.byte	0x6
 1074 06e3 2501     		.2byte	0x125
 1075 06e5 0B070000 		.4byte	0x70b
 1076 06e9 02       		.byte	0x2
 1077 06ea 23       		.byte	0x23
 1078 06eb 00       		.uleb128 0
 1079 06ec 1A       		.uleb128 0x1a
 1080 06ed E5010000 		.4byte	.LASF91
 1081 06f1 06       		.byte	0x6
 1082 06f2 2601     		.2byte	0x126
 1083 06f4 65000000 		.4byte	0x65
 1084 06f8 02       		.byte	0x2
 1085 06f9 23       		.byte	0x23
 1086 06fa 04       		.uleb128 0x4
 1087 06fb 1A       		.uleb128 0x1a
 1088 06fc E0030000 		.4byte	.LASF92
 1089 0700 06       		.byte	0x6
 1090 0701 2701     		.2byte	0x127
 1091 0703 11070000 		.4byte	0x711
 1092 0707 02       		.byte	0x2
 1093 0708 23       		.byte	0x23
 1094 0709 08       		.uleb128 0x8
 1095 070a 00       		.byte	0
 1096 070b 09       		.uleb128 0x9
 1097 070c 04       		.byte	0x4
 1098 070d D0060000 		.4byte	0x6d0
 1099 0711 09       		.uleb128 0x9
 1100 0712 04       		.byte	0x4
 1101 0713 C4060000 		.4byte	0x6c4
 1102 0717 1B       		.uleb128 0x1b
 1103 0718 12000000 		.4byte	.LASF93
 1104 071c 0E       		.byte	0xe
 1105 071d 06       		.byte	0x6
 1106 071e 3F01     		.2byte	0x13f
 1107 0720 52070000 		.4byte	0x752
 1108 0724 1A       		.uleb128 0x1a
 1109 0725 27040000 		.4byte	.LASF94
 1110 0729 06       		.byte	0x6
 1111 072a 4001     		.2byte	0x140
 1112 072c 52070000 		.4byte	0x752
 1113 0730 02       		.byte	0x2
 1114 0731 23       		.byte	0x23
 1115 0732 00       		.uleb128 0
 1116 0733 1A       		.uleb128 0x1a
 1117 0734 7C040000 		.4byte	.LASF95
 1118 0738 06       		.byte	0x6
ARM GAS  C:\Users\embedded\AppData\Local\Temp\ccjFShSO.s 			page 23


 1119 0739 4101     		.2byte	0x141
 1120 073b 52070000 		.4byte	0x752
 1121 073f 02       		.byte	0x2
 1122 0740 23       		.byte	0x23
 1123 0741 06       		.uleb128 0x6
 1124 0742 1A       		.uleb128 0x1a
 1125 0743 A6040000 		.4byte	.LASF96
 1126 0747 06       		.byte	0x6
 1127 0748 4201     		.2byte	0x142
 1128 074a 37000000 		.4byte	0x37
 1129 074e 02       		.byte	0x2
 1130 074f 23       		.byte	0x23
 1131 0750 0C       		.uleb128 0xc
 1132 0751 00       		.byte	0
 1133 0752 0E       		.uleb128 0xe
 1134 0753 37000000 		.4byte	0x37
 1135 0757 62070000 		.4byte	0x762
 1136 075b 0F       		.uleb128 0xf
 1137 075c 3E000000 		.4byte	0x3e
 1138 0760 02       		.byte	0x2
 1139 0761 00       		.byte	0
 1140 0762 1C       		.uleb128 0x1c
 1141 0763 D0       		.byte	0xd0
 1142 0764 06       		.byte	0x6
 1143 0765 8002     		.2byte	0x280
 1144 0767 92080000 		.4byte	0x892
 1145 076b 1A       		.uleb128 0x1a
 1146 076c D3040000 		.4byte	.LASF97
 1147 0770 06       		.byte	0x6
 1148 0771 8202     		.2byte	0x282
 1149 0773 3E000000 		.4byte	0x3e
 1150 0777 02       		.byte	0x2
 1151 0778 23       		.byte	0x23
 1152 0779 00       		.uleb128 0
 1153 077a 1A       		.uleb128 0x1a
 1154 077b 88040000 		.4byte	.LASF98
 1155 077f 06       		.byte	0x6
 1156 0780 8302     		.2byte	0x283
 1157 0782 21060000 		.4byte	0x621
 1158 0786 02       		.byte	0x2
 1159 0787 23       		.byte	0x23
 1160 0788 04       		.uleb128 0x4
 1161 0789 1A       		.uleb128 0x1a
 1162 078a 1C020000 		.4byte	.LASF99
 1163 078e 06       		.byte	0x6
 1164 078f 8402     		.2byte	0x284
 1165 0791 92080000 		.4byte	0x892
 1166 0795 02       		.byte	0x2
 1167 0796 23       		.byte	0x23
 1168 0797 08       		.uleb128 0x8
 1169 0798 1A       		.uleb128 0x1a
 1170 0799 37050000 		.4byte	.LASF100
 1171 079d 06       		.byte	0x6
 1172 079e 8502     		.2byte	0x285
 1173 07a0 C7010000 		.4byte	0x1c7
 1174 07a4 02       		.byte	0x2
 1175 07a5 23       		.byte	0x23
ARM GAS  C:\Users\embedded\AppData\Local\Temp\ccjFShSO.s 			page 24


 1176 07a6 24       		.uleb128 0x24
 1177 07a7 1A       		.uleb128 0x1a
 1178 07a8 85010000 		.4byte	.LASF101
 1179 07ac 06       		.byte	0x6
 1180 07ad 8602     		.2byte	0x286
 1181 07af 65000000 		.4byte	0x65
 1182 07b3 02       		.byte	0x2
 1183 07b4 23       		.byte	0x23
 1184 07b5 48       		.uleb128 0x48
 1185 07b6 1A       		.uleb128 0x1a
 1186 07b7 D5030000 		.4byte	.LASF102
 1187 07bb 06       		.byte	0x6
 1188 07bc 8702     		.2byte	0x287
 1189 07be 45000000 		.4byte	0x45
 1190 07c2 02       		.byte	0x2
 1191 07c3 23       		.byte	0x23
 1192 07c4 50       		.uleb128 0x50
 1193 07c5 1A       		.uleb128 0x1a
 1194 07c6 4D050000 		.4byte	.LASF103
 1195 07ca 06       		.byte	0x6
 1196 07cb 8802     		.2byte	0x288
 1197 07cd 17070000 		.4byte	0x717
 1198 07d1 02       		.byte	0x2
 1199 07d2 23       		.byte	0x23
 1200 07d3 58       		.uleb128 0x58
 1201 07d4 1A       		.uleb128 0x1a
 1202 07d5 64030000 		.4byte	.LASF104
 1203 07d9 06       		.byte	0x6
 1204 07da 8902     		.2byte	0x289
 1205 07dc 31010000 		.4byte	0x131
 1206 07e0 02       		.byte	0x2
 1207 07e1 23       		.byte	0x23
 1208 07e2 68       		.uleb128 0x68
 1209 07e3 1A       		.uleb128 0x1a
 1210 07e4 52050000 		.4byte	.LASF105
 1211 07e8 06       		.byte	0x6
 1212 07e9 8A02     		.2byte	0x28a
 1213 07eb 31010000 		.4byte	0x131
 1214 07ef 02       		.byte	0x2
 1215 07f0 23       		.byte	0x23
 1216 07f1 70       		.uleb128 0x70
 1217 07f2 1A       		.uleb128 0x1a
 1218 07f3 56030000 		.4byte	.LASF106
 1219 07f7 06       		.byte	0x6
 1220 07f8 8B02     		.2byte	0x28b
 1221 07fa 31010000 		.4byte	0x131
 1222 07fe 02       		.byte	0x2
 1223 07ff 23       		.byte	0x23
 1224 0800 78       		.uleb128 0x78
 1225 0801 1A       		.uleb128 0x1a
 1226 0802 0A050000 		.4byte	.LASF107
 1227 0806 06       		.byte	0x6
 1228 0807 8C02     		.2byte	0x28c
 1229 0809 A2080000 		.4byte	0x8a2
 1230 080d 03       		.byte	0x3
 1231 080e 23       		.byte	0x23
 1232 080f 8001     		.uleb128 0x80
ARM GAS  C:\Users\embedded\AppData\Local\Temp\ccjFShSO.s 			page 25


 1233 0811 1A       		.uleb128 0x1a
 1234 0812 10020000 		.4byte	.LASF108
 1235 0816 06       		.byte	0x6
 1236 0817 8D02     		.2byte	0x28d
 1237 0819 B2080000 		.4byte	0x8b2
 1238 081d 03       		.byte	0x3
 1239 081e 23       		.byte	0x23
 1240 081f 8801     		.uleb128 0x88
 1241 0821 1A       		.uleb128 0x1a
 1242 0822 B3040000 		.4byte	.LASF109
 1243 0826 06       		.byte	0x6
 1244 0827 8E02     		.2byte	0x28e
 1245 0829 65000000 		.4byte	0x65
 1246 082d 03       		.byte	0x3
 1247 082e 23       		.byte	0x23
 1248 082f A001     		.uleb128 0xa0
 1249 0831 1A       		.uleb128 0x1a
 1250 0832 4B010000 		.4byte	.LASF110
 1251 0836 06       		.byte	0x6
 1252 0837 8F02     		.2byte	0x28f
 1253 0839 31010000 		.4byte	0x131
 1254 083d 03       		.byte	0x3
 1255 083e 23       		.byte	0x23
 1256 083f A401     		.uleb128 0xa4
 1257 0841 1A       		.uleb128 0x1a
 1258 0842 76000000 		.4byte	.LASF111
 1259 0846 06       		.byte	0x6
 1260 0847 9002     		.2byte	0x290
 1261 0849 31010000 		.4byte	0x131
 1262 084d 03       		.byte	0x3
 1263 084e 23       		.byte	0x23
 1264 084f AC01     		.uleb128 0xac
 1265 0851 1A       		.uleb128 0x1a
 1266 0852 3A010000 		.4byte	.LASF112
 1267 0856 06       		.byte	0x6
 1268 0857 9102     		.2byte	0x291
 1269 0859 31010000 		.4byte	0x131
 1270 085d 03       		.byte	0x3
 1271 085e 23       		.byte	0x23
 1272 085f B401     		.uleb128 0xb4
 1273 0861 1A       		.uleb128 0x1a
 1274 0862 2B000000 		.4byte	.LASF113
 1275 0866 06       		.byte	0x6
 1276 0867 9202     		.2byte	0x292
 1277 0869 31010000 		.4byte	0x131
 1278 086d 03       		.byte	0x3
 1279 086e 23       		.byte	0x23
 1280 086f BC01     		.uleb128 0xbc
 1281 0871 1A       		.uleb128 0x1a
 1282 0872 3A000000 		.4byte	.LASF114
 1283 0876 06       		.byte	0x6
 1284 0877 9302     		.2byte	0x293
 1285 0879 31010000 		.4byte	0x131
 1286 087d 03       		.byte	0x3
 1287 087e 23       		.byte	0x23
 1288 087f C401     		.uleb128 0xc4
 1289 0881 1A       		.uleb128 0x1a
ARM GAS  C:\Users\embedded\AppData\Local\Temp\ccjFShSO.s 			page 26


 1290 0882 84030000 		.4byte	.LASF115
 1291 0886 06       		.byte	0x6
 1292 0887 9402     		.2byte	0x294
 1293 0889 65000000 		.4byte	0x65
 1294 088d 03       		.byte	0x3
 1295 088e 23       		.byte	0x23
 1296 088f CC01     		.uleb128 0xcc
 1297 0891 00       		.byte	0
 1298 0892 0E       		.uleb128 0xe
 1299 0893 27060000 		.4byte	0x627
 1300 0897 A2080000 		.4byte	0x8a2
 1301 089b 0F       		.uleb128 0xf
 1302 089c 3E000000 		.4byte	0x3e
 1303 08a0 19       		.byte	0x19
 1304 08a1 00       		.byte	0
 1305 08a2 0E       		.uleb128 0xe
 1306 08a3 27060000 		.4byte	0x627
 1307 08a7 B2080000 		.4byte	0x8b2
 1308 08ab 0F       		.uleb128 0xf
 1309 08ac 3E000000 		.4byte	0x3e
 1310 08b0 07       		.byte	0x7
 1311 08b1 00       		.byte	0
 1312 08b2 0E       		.uleb128 0xe
 1313 08b3 27060000 		.4byte	0x627
 1314 08b7 C2080000 		.4byte	0x8c2
 1315 08bb 0F       		.uleb128 0xf
 1316 08bc 3E000000 		.4byte	0x3e
 1317 08c0 17       		.byte	0x17
 1318 08c1 00       		.byte	0
 1319 08c2 1C       		.uleb128 0x1c
 1320 08c3 F0       		.byte	0xf0
 1321 08c4 06       		.byte	0x6
 1322 08c5 9902     		.2byte	0x299
 1323 08c7 EA080000 		.4byte	0x8ea
 1324 08cb 1A       		.uleb128 0x1a
 1325 08cc 88020000 		.4byte	.LASF116
 1326 08d0 06       		.byte	0x6
 1327 08d1 9C02     		.2byte	0x29c
 1328 08d3 EA080000 		.4byte	0x8ea
 1329 08d7 02       		.byte	0x2
 1330 08d8 23       		.byte	0x23
 1331 08d9 00       		.uleb128 0
 1332 08da 1A       		.uleb128 0x1a
 1333 08db 01050000 		.4byte	.LASF117
 1334 08df 06       		.byte	0x6
 1335 08e0 9D02     		.2byte	0x29d
 1336 08e2 FA080000 		.4byte	0x8fa
 1337 08e6 02       		.byte	0x2
 1338 08e7 23       		.byte	0x23
 1339 08e8 78       		.uleb128 0x78
 1340 08e9 00       		.byte	0
 1341 08ea 0E       		.uleb128 0xe
 1342 08eb 39030000 		.4byte	0x339
 1343 08ef FA080000 		.4byte	0x8fa
 1344 08f3 0F       		.uleb128 0xf
 1345 08f4 3E000000 		.4byte	0x3e
 1346 08f8 1D       		.byte	0x1d
ARM GAS  C:\Users\embedded\AppData\Local\Temp\ccjFShSO.s 			page 27


 1347 08f9 00       		.byte	0
 1348 08fa 0E       		.uleb128 0xe
 1349 08fb 3E000000 		.4byte	0x3e
 1350 08ff 0A090000 		.4byte	0x90a
 1351 0903 0F       		.uleb128 0xf
 1352 0904 3E000000 		.4byte	0x3e
 1353 0908 1D       		.byte	0x1d
 1354 0909 00       		.byte	0
 1355 090a 1D       		.uleb128 0x1d
 1356 090b F0       		.byte	0xf0
 1357 090c 06       		.byte	0x6
 1358 090d 7E02     		.2byte	0x27e
 1359 090f 2C090000 		.4byte	0x92c
 1360 0913 1E       		.uleb128 0x1e
 1361 0914 20040000 		.4byte	.LASF66
 1362 0918 06       		.byte	0x6
 1363 0919 9502     		.2byte	0x295
 1364 091b 62070000 		.4byte	0x762
 1365 091f 1E       		.uleb128 0x1e
 1366 0920 24050000 		.4byte	.LASF118
 1367 0924 06       		.byte	0x6
 1368 0925 9E02     		.2byte	0x29e
 1369 0927 C2080000 		.4byte	0x8c2
 1370 092b 00       		.byte	0
 1371 092c 0E       		.uleb128 0xe
 1372 092d 27060000 		.4byte	0x627
 1373 0931 3C090000 		.4byte	0x93c
 1374 0935 0F       		.uleb128 0xf
 1375 0936 3E000000 		.4byte	0x3e
 1376 093a 18       		.byte	0x18
 1377 093b 00       		.byte	0
 1378 093c 0A       		.uleb128 0xa
 1379 093d 6B000000 		.4byte	.LASF120
 1380 0941 01       		.byte	0x1
 1381 0942 09       		.uleb128 0x9
 1382 0943 04       		.byte	0x4
 1383 0944 3C090000 		.4byte	0x93c
 1384 0948 1F       		.uleb128 0x1f
 1385 0949 01       		.byte	0x1
 1386 094a 54090000 		.4byte	0x954
 1387 094e 17       		.uleb128 0x17
 1388 094f B8040000 		.4byte	0x4b8
 1389 0953 00       		.byte	0
 1390 0954 09       		.uleb128 0x9
 1391 0955 04       		.byte	0x4
 1392 0956 48090000 		.4byte	0x948
 1393 095a 09       		.uleb128 0x9
 1394 095b 04       		.byte	0x4
 1395 095c B1010000 		.4byte	0x1b1
 1396 0960 1F       		.uleb128 0x1f
 1397 0961 01       		.byte	0x1
 1398 0962 6C090000 		.4byte	0x96c
 1399 0966 17       		.uleb128 0x17
 1400 0967 65000000 		.4byte	0x65
 1401 096b 00       		.byte	0
 1402 096c 09       		.uleb128 0x9
 1403 096d 04       		.byte	0x4
ARM GAS  C:\Users\embedded\AppData\Local\Temp\ccjFShSO.s 			page 28


 1404 096e 72090000 		.4byte	0x972
 1405 0972 09       		.uleb128 0x9
 1406 0973 04       		.byte	0x4
 1407 0974 60090000 		.4byte	0x960
 1408 0978 0E       		.uleb128 0xe
 1409 0979 C4060000 		.4byte	0x6c4
 1410 097d 88090000 		.4byte	0x988
 1411 0981 0F       		.uleb128 0xf
 1412 0982 3E000000 		.4byte	0x3e
 1413 0986 02       		.byte	0x2
 1414 0987 00       		.byte	0
 1415 0988 20       		.uleb128 0x20
 1416 0989 53040000 		.4byte	.LASF121
 1417 098d 06       		.byte	0x6
 1418 098e 2E03     		.2byte	0x32e
 1419 0990 B8040000 		.4byte	0x4b8
 1420 0994 01       		.byte	0x1
 1421 0995 01       		.byte	0x1
 1422 0996 20       		.uleb128 0x20
 1423 0997 C0040000 		.4byte	.LASF122
 1424 099b 06       		.byte	0x6
 1425 099c 2F03     		.2byte	0x32f
 1426 099e BE040000 		.4byte	0x4be
 1427 09a2 01       		.byte	0x1
 1428 09a3 01       		.byte	0x1
 1429 09a4 21       		.uleb128 0x21
 1430 09a5 01       		.byte	0x1
 1431 09a6 65050000 		.4byte	.LASF131
 1432 09aa 01       		.byte	0x1
 1433 09ab 53       		.byte	0x53
 1434 09ac 01       		.byte	0x1
 1435 09ad 65000000 		.4byte	0x65
 1436 09b1 00000000 		.4byte	.LFB3
 1437 09b5 A8000000 		.4byte	.LFE3
 1438 09b9 00000000 		.4byte	.LLST0
 1439 09bd 01       		.byte	0x1
 1440 09be 130A0000 		.4byte	0xa13
 1441 09c2 22       		.uleb128 0x22
 1442 09c3 00010000 		.4byte	.LASF123
 1443 09c7 01       		.byte	0x1
 1444 09c8 55       		.byte	0x55
 1445 09c9 25000000 		.4byte	0x25
 1446 09cd 02       		.byte	0x2
 1447 09ce 91       		.byte	0x91
 1448 09cf 6F       		.sleb128 -17
 1449 09d0 23       		.uleb128 0x23
 1450 09d1 2A000000 		.4byte	.LBB2
 1451 09d5 A8000000 		.4byte	.LBE2
 1452 09d9 22       		.uleb128 0x22
 1453 09da F5040000 		.4byte	.LASF124
 1454 09de 01       		.byte	0x1
 1455 09df 70       		.byte	0x70
 1456 09e0 25000000 		.4byte	0x25
 1457 09e4 02       		.byte	0x2
 1458 09e5 91       		.byte	0x91
 1459 09e6 6E       		.sleb128 -18
 1460 09e7 22       		.uleb128 0x22
ARM GAS  C:\Users\embedded\AppData\Local\Temp\ccjFShSO.s 			page 29


 1461 09e8 6C020000 		.4byte	.LASF125
 1462 09ec 01       		.byte	0x1
 1463 09ed 73       		.byte	0x73
 1464 09ee 130A0000 		.4byte	0xa13
 1465 09f2 02       		.byte	0x2
 1466 09f3 91       		.byte	0x91
 1467 09f4 68       		.sleb128 -24
 1468 09f5 22       		.uleb128 0x22
 1469 09f6 18010000 		.4byte	.LASF126
 1470 09fa 01       		.byte	0x1
 1471 09fb 75       		.byte	0x75
 1472 09fc 230A0000 		.4byte	0xa23
 1473 0a00 02       		.byte	0x2
 1474 0a01 91       		.byte	0x91
 1475 0a02 54       		.sleb128 -44
 1476 0a03 22       		.uleb128 0x22
 1477 0a04 FF010000 		.4byte	.LASF127
 1478 0a08 01       		.byte	0x1
 1479 0a09 77       		.byte	0x77
 1480 0a0a 4C000000 		.4byte	0x4c
 1481 0a0e 02       		.byte	0x2
 1482 0a0f 91       		.byte	0x91
 1483 0a10 6D       		.sleb128 -19
 1484 0a11 00       		.byte	0
 1485 0a12 00       		.byte	0
 1486 0a13 0E       		.uleb128 0xe
 1487 0a14 25000000 		.4byte	0x25
 1488 0a18 230A0000 		.4byte	0xa23
 1489 0a1c 0F       		.uleb128 0xf
 1490 0a1d 3E000000 		.4byte	0x3e
 1491 0a21 01       		.byte	0x1
 1492 0a22 00       		.byte	0
 1493 0a23 24       		.uleb128 0x24
 1494 0a24 25000000 		.4byte	0x25
 1495 0a28 0F       		.uleb128 0xf
 1496 0a29 3E000000 		.4byte	0x3e
 1497 0a2d 13       		.byte	0x13
 1498 0a2e 00       		.byte	0
 1499 0a2f 00       		.byte	0
 1500              		.section	.debug_abbrev,"",%progbits
 1501              	.Ldebug_abbrev0:
 1502 0000 01       		.uleb128 0x1
 1503 0001 11       		.uleb128 0x11
 1504 0002 01       		.byte	0x1
 1505 0003 25       		.uleb128 0x25
 1506 0004 0E       		.uleb128 0xe
 1507 0005 13       		.uleb128 0x13
 1508 0006 0B       		.uleb128 0xb
 1509 0007 03       		.uleb128 0x3
 1510 0008 0E       		.uleb128 0xe
 1511 0009 1B       		.uleb128 0x1b
 1512 000a 0E       		.uleb128 0xe
 1513 000b 11       		.uleb128 0x11
 1514 000c 01       		.uleb128 0x1
 1515 000d 12       		.uleb128 0x12
 1516 000e 01       		.uleb128 0x1
 1517 000f 10       		.uleb128 0x10
ARM GAS  C:\Users\embedded\AppData\Local\Temp\ccjFShSO.s 			page 30


 1518 0010 06       		.uleb128 0x6
 1519 0011 00       		.byte	0
 1520 0012 00       		.byte	0
 1521 0013 02       		.uleb128 0x2
 1522 0014 16       		.uleb128 0x16
 1523 0015 00       		.byte	0
 1524 0016 03       		.uleb128 0x3
 1525 0017 08       		.uleb128 0x8
 1526 0018 3A       		.uleb128 0x3a
 1527 0019 0B       		.uleb128 0xb
 1528 001a 3B       		.uleb128 0x3b
 1529 001b 0B       		.uleb128 0xb
 1530 001c 49       		.uleb128 0x49
 1531 001d 13       		.uleb128 0x13
 1532 001e 00       		.byte	0
 1533 001f 00       		.byte	0
 1534 0020 03       		.uleb128 0x3
 1535 0021 24       		.uleb128 0x24
 1536 0022 00       		.byte	0
 1537 0023 0B       		.uleb128 0xb
 1538 0024 0B       		.uleb128 0xb
 1539 0025 3E       		.uleb128 0x3e
 1540 0026 0B       		.uleb128 0xb
 1541 0027 03       		.uleb128 0x3
 1542 0028 0E       		.uleb128 0xe
 1543 0029 00       		.byte	0
 1544 002a 00       		.byte	0
 1545 002b 04       		.uleb128 0x4
 1546 002c 24       		.uleb128 0x24
 1547 002d 00       		.byte	0
 1548 002e 0B       		.uleb128 0xb
 1549 002f 0B       		.uleb128 0xb
 1550 0030 3E       		.uleb128 0x3e
 1551 0031 0B       		.uleb128 0xb
 1552 0032 03       		.uleb128 0x3
 1553 0033 08       		.uleb128 0x8
 1554 0034 00       		.byte	0
 1555 0035 00       		.byte	0
 1556 0036 05       		.uleb128 0x5
 1557 0037 04       		.uleb128 0x4
 1558 0038 01       		.byte	0x1
 1559 0039 3E       		.uleb128 0x3e
 1560 003a 0B       		.uleb128 0xb
 1561 003b 0B       		.uleb128 0xb
 1562 003c 0B       		.uleb128 0xb
 1563 003d 49       		.uleb128 0x49
 1564 003e 13       		.uleb128 0x13
 1565 003f 3A       		.uleb128 0x3a
 1566 0040 0B       		.uleb128 0xb
 1567 0041 3B       		.uleb128 0x3b
 1568 0042 0B       		.uleb128 0xb
 1569 0043 01       		.uleb128 0x1
 1570 0044 13       		.uleb128 0x13
 1571 0045 00       		.byte	0
 1572 0046 00       		.byte	0
 1573 0047 06       		.uleb128 0x6
 1574 0048 28       		.uleb128 0x28
ARM GAS  C:\Users\embedded\AppData\Local\Temp\ccjFShSO.s 			page 31


 1575 0049 00       		.byte	0
 1576 004a 03       		.uleb128 0x3
 1577 004b 0E       		.uleb128 0xe
 1578 004c 1C       		.uleb128 0x1c
 1579 004d 0B       		.uleb128 0xb
 1580 004e 00       		.byte	0
 1581 004f 00       		.byte	0
 1582 0050 07       		.uleb128 0x7
 1583 0051 0F       		.uleb128 0xf
 1584 0052 00       		.byte	0
 1585 0053 0B       		.uleb128 0xb
 1586 0054 0B       		.uleb128 0xb
 1587 0055 00       		.byte	0
 1588 0056 00       		.byte	0
 1589 0057 08       		.uleb128 0x8
 1590 0058 16       		.uleb128 0x16
 1591 0059 00       		.byte	0
 1592 005a 03       		.uleb128 0x3
 1593 005b 0E       		.uleb128 0xe
 1594 005c 3A       		.uleb128 0x3a
 1595 005d 0B       		.uleb128 0xb
 1596 005e 3B       		.uleb128 0x3b
 1597 005f 0B       		.uleb128 0xb
 1598 0060 49       		.uleb128 0x49
 1599 0061 13       		.uleb128 0x13
 1600 0062 00       		.byte	0
 1601 0063 00       		.byte	0
 1602 0064 09       		.uleb128 0x9
 1603 0065 0F       		.uleb128 0xf
 1604 0066 00       		.byte	0
 1605 0067 0B       		.uleb128 0xb
 1606 0068 0B       		.uleb128 0xb
 1607 0069 49       		.uleb128 0x49
 1608 006a 13       		.uleb128 0x13
 1609 006b 00       		.byte	0
 1610 006c 00       		.byte	0
 1611 006d 0A       		.uleb128 0xa
 1612 006e 13       		.uleb128 0x13
 1613 006f 00       		.byte	0
 1614 0070 03       		.uleb128 0x3
 1615 0071 0E       		.uleb128 0xe
 1616 0072 3C       		.uleb128 0x3c
 1617 0073 0C       		.uleb128 0xc
 1618 0074 00       		.byte	0
 1619 0075 00       		.byte	0
 1620 0076 0B       		.uleb128 0xb
 1621 0077 16       		.uleb128 0x16
 1622 0078 00       		.byte	0
 1623 0079 03       		.uleb128 0x3
 1624 007a 0E       		.uleb128 0xe
 1625 007b 3A       		.uleb128 0x3a
 1626 007c 0B       		.uleb128 0xb
 1627 007d 3B       		.uleb128 0x3b
 1628 007e 05       		.uleb128 0x5
 1629 007f 49       		.uleb128 0x49
 1630 0080 13       		.uleb128 0x13
 1631 0081 00       		.byte	0
ARM GAS  C:\Users\embedded\AppData\Local\Temp\ccjFShSO.s 			page 32


 1632 0082 00       		.byte	0
 1633 0083 0C       		.uleb128 0xc
 1634 0084 17       		.uleb128 0x17
 1635 0085 01       		.byte	0x1
 1636 0086 0B       		.uleb128 0xb
 1637 0087 0B       		.uleb128 0xb
 1638 0088 3A       		.uleb128 0x3a
 1639 0089 0B       		.uleb128 0xb
 1640 008a 3B       		.uleb128 0x3b
 1641 008b 0B       		.uleb128 0xb
 1642 008c 01       		.uleb128 0x1
 1643 008d 13       		.uleb128 0x13
 1644 008e 00       		.byte	0
 1645 008f 00       		.byte	0
 1646 0090 0D       		.uleb128 0xd
 1647 0091 0D       		.uleb128 0xd
 1648 0092 00       		.byte	0
 1649 0093 03       		.uleb128 0x3
 1650 0094 0E       		.uleb128 0xe
 1651 0095 3A       		.uleb128 0x3a
 1652 0096 0B       		.uleb128 0xb
 1653 0097 3B       		.uleb128 0x3b
 1654 0098 0B       		.uleb128 0xb
 1655 0099 49       		.uleb128 0x49
 1656 009a 13       		.uleb128 0x13
 1657 009b 00       		.byte	0
 1658 009c 00       		.byte	0
 1659 009d 0E       		.uleb128 0xe
 1660 009e 01       		.uleb128 0x1
 1661 009f 01       		.byte	0x1
 1662 00a0 49       		.uleb128 0x49
 1663 00a1 13       		.uleb128 0x13
 1664 00a2 01       		.uleb128 0x1
 1665 00a3 13       		.uleb128 0x13
 1666 00a4 00       		.byte	0
 1667 00a5 00       		.byte	0
 1668 00a6 0F       		.uleb128 0xf
 1669 00a7 21       		.uleb128 0x21
 1670 00a8 00       		.byte	0
 1671 00a9 49       		.uleb128 0x49
 1672 00aa 13       		.uleb128 0x13
 1673 00ab 2F       		.uleb128 0x2f
 1674 00ac 0B       		.uleb128 0xb
 1675 00ad 00       		.byte	0
 1676 00ae 00       		.byte	0
 1677 00af 10       		.uleb128 0x10
 1678 00b0 13       		.uleb128 0x13
 1679 00b1 01       		.byte	0x1
 1680 00b2 0B       		.uleb128 0xb
 1681 00b3 0B       		.uleb128 0xb
 1682 00b4 3A       		.uleb128 0x3a
 1683 00b5 0B       		.uleb128 0xb
 1684 00b6 3B       		.uleb128 0x3b
 1685 00b7 0B       		.uleb128 0xb
 1686 00b8 01       		.uleb128 0x1
 1687 00b9 13       		.uleb128 0x13
 1688 00ba 00       		.byte	0
ARM GAS  C:\Users\embedded\AppData\Local\Temp\ccjFShSO.s 			page 33


 1689 00bb 00       		.byte	0
 1690 00bc 11       		.uleb128 0x11
 1691 00bd 0D       		.uleb128 0xd
 1692 00be 00       		.byte	0
 1693 00bf 03       		.uleb128 0x3
 1694 00c0 0E       		.uleb128 0xe
 1695 00c1 3A       		.uleb128 0x3a
 1696 00c2 0B       		.uleb128 0xb
 1697 00c3 3B       		.uleb128 0x3b
 1698 00c4 0B       		.uleb128 0xb
 1699 00c5 49       		.uleb128 0x49
 1700 00c6 13       		.uleb128 0x13
 1701 00c7 38       		.uleb128 0x38
 1702 00c8 0A       		.uleb128 0xa
 1703 00c9 00       		.byte	0
 1704 00ca 00       		.byte	0
 1705 00cb 12       		.uleb128 0x12
 1706 00cc 13       		.uleb128 0x13
 1707 00cd 01       		.byte	0x1
 1708 00ce 03       		.uleb128 0x3
 1709 00cf 0E       		.uleb128 0xe
 1710 00d0 0B       		.uleb128 0xb
 1711 00d1 0B       		.uleb128 0xb
 1712 00d2 3A       		.uleb128 0x3a
 1713 00d3 0B       		.uleb128 0xb
 1714 00d4 3B       		.uleb128 0x3b
 1715 00d5 0B       		.uleb128 0xb
 1716 00d6 01       		.uleb128 0x1
 1717 00d7 13       		.uleb128 0x13
 1718 00d8 00       		.byte	0
 1719 00d9 00       		.byte	0
 1720 00da 13       		.uleb128 0x13
 1721 00db 0D       		.uleb128 0xd
 1722 00dc 00       		.byte	0
 1723 00dd 03       		.uleb128 0x3
 1724 00de 08       		.uleb128 0x8
 1725 00df 3A       		.uleb128 0x3a
 1726 00e0 0B       		.uleb128 0xb
 1727 00e1 3B       		.uleb128 0x3b
 1728 00e2 0B       		.uleb128 0xb
 1729 00e3 49       		.uleb128 0x49
 1730 00e4 13       		.uleb128 0x13
 1731 00e5 38       		.uleb128 0x38
 1732 00e6 0A       		.uleb128 0xa
 1733 00e7 00       		.byte	0
 1734 00e8 00       		.byte	0
 1735 00e9 14       		.uleb128 0x14
 1736 00ea 13       		.uleb128 0x13
 1737 00eb 01       		.byte	0x1
 1738 00ec 03       		.uleb128 0x3
 1739 00ed 0E       		.uleb128 0xe
 1740 00ee 0B       		.uleb128 0xb
 1741 00ef 05       		.uleb128 0x5
 1742 00f0 3A       		.uleb128 0x3a
 1743 00f1 0B       		.uleb128 0xb
 1744 00f2 3B       		.uleb128 0x3b
 1745 00f3 0B       		.uleb128 0xb
ARM GAS  C:\Users\embedded\AppData\Local\Temp\ccjFShSO.s 			page 34


 1746 00f4 01       		.uleb128 0x1
 1747 00f5 13       		.uleb128 0x13
 1748 00f6 00       		.byte	0
 1749 00f7 00       		.byte	0
 1750 00f8 15       		.uleb128 0x15
 1751 00f9 15       		.uleb128 0x15
 1752 00fa 00       		.byte	0
 1753 00fb 27       		.uleb128 0x27
 1754 00fc 0C       		.uleb128 0xc
 1755 00fd 00       		.byte	0
 1756 00fe 00       		.byte	0
 1757 00ff 16       		.uleb128 0x16
 1758 0100 15       		.uleb128 0x15
 1759 0101 01       		.byte	0x1
 1760 0102 27       		.uleb128 0x27
 1761 0103 0C       		.uleb128 0xc
 1762 0104 49       		.uleb128 0x49
 1763 0105 13       		.uleb128 0x13
 1764 0106 01       		.uleb128 0x1
 1765 0107 13       		.uleb128 0x13
 1766 0108 00       		.byte	0
 1767 0109 00       		.byte	0
 1768 010a 17       		.uleb128 0x17
 1769 010b 05       		.uleb128 0x5
 1770 010c 00       		.byte	0
 1771 010d 49       		.uleb128 0x49
 1772 010e 13       		.uleb128 0x13
 1773 010f 00       		.byte	0
 1774 0110 00       		.byte	0
 1775 0111 18       		.uleb128 0x18
 1776 0112 26       		.uleb128 0x26
 1777 0113 00       		.byte	0
 1778 0114 49       		.uleb128 0x49
 1779 0115 13       		.uleb128 0x13
 1780 0116 00       		.byte	0
 1781 0117 00       		.byte	0
 1782 0118 19       		.uleb128 0x19
 1783 0119 13       		.uleb128 0x13
 1784 011a 01       		.byte	0x1
 1785 011b 03       		.uleb128 0x3
 1786 011c 0E       		.uleb128 0xe
 1787 011d 0B       		.uleb128 0xb
 1788 011e 05       		.uleb128 0x5
 1789 011f 3A       		.uleb128 0x3a
 1790 0120 0B       		.uleb128 0xb
 1791 0121 3B       		.uleb128 0x3b
 1792 0122 05       		.uleb128 0x5
 1793 0123 01       		.uleb128 0x1
 1794 0124 13       		.uleb128 0x13
 1795 0125 00       		.byte	0
 1796 0126 00       		.byte	0
 1797 0127 1A       		.uleb128 0x1a
 1798 0128 0D       		.uleb128 0xd
 1799 0129 00       		.byte	0
 1800 012a 03       		.uleb128 0x3
 1801 012b 0E       		.uleb128 0xe
 1802 012c 3A       		.uleb128 0x3a
ARM GAS  C:\Users\embedded\AppData\Local\Temp\ccjFShSO.s 			page 35


 1803 012d 0B       		.uleb128 0xb
 1804 012e 3B       		.uleb128 0x3b
 1805 012f 05       		.uleb128 0x5
 1806 0130 49       		.uleb128 0x49
 1807 0131 13       		.uleb128 0x13
 1808 0132 38       		.uleb128 0x38
 1809 0133 0A       		.uleb128 0xa
 1810 0134 00       		.byte	0
 1811 0135 00       		.byte	0
 1812 0136 1B       		.uleb128 0x1b
 1813 0137 13       		.uleb128 0x13
 1814 0138 01       		.byte	0x1
 1815 0139 03       		.uleb128 0x3
 1816 013a 0E       		.uleb128 0xe
 1817 013b 0B       		.uleb128 0xb
 1818 013c 0B       		.uleb128 0xb
 1819 013d 3A       		.uleb128 0x3a
 1820 013e 0B       		.uleb128 0xb
 1821 013f 3B       		.uleb128 0x3b
 1822 0140 05       		.uleb128 0x5
 1823 0141 01       		.uleb128 0x1
 1824 0142 13       		.uleb128 0x13
 1825 0143 00       		.byte	0
 1826 0144 00       		.byte	0
 1827 0145 1C       		.uleb128 0x1c
 1828 0146 13       		.uleb128 0x13
 1829 0147 01       		.byte	0x1
 1830 0148 0B       		.uleb128 0xb
 1831 0149 0B       		.uleb128 0xb
 1832 014a 3A       		.uleb128 0x3a
 1833 014b 0B       		.uleb128 0xb
 1834 014c 3B       		.uleb128 0x3b
 1835 014d 05       		.uleb128 0x5
 1836 014e 01       		.uleb128 0x1
 1837 014f 13       		.uleb128 0x13
 1838 0150 00       		.byte	0
 1839 0151 00       		.byte	0
 1840 0152 1D       		.uleb128 0x1d
 1841 0153 17       		.uleb128 0x17
 1842 0154 01       		.byte	0x1
 1843 0155 0B       		.uleb128 0xb
 1844 0156 0B       		.uleb128 0xb
 1845 0157 3A       		.uleb128 0x3a
 1846 0158 0B       		.uleb128 0xb
 1847 0159 3B       		.uleb128 0x3b
 1848 015a 05       		.uleb128 0x5
 1849 015b 01       		.uleb128 0x1
 1850 015c 13       		.uleb128 0x13
 1851 015d 00       		.byte	0
 1852 015e 00       		.byte	0
 1853 015f 1E       		.uleb128 0x1e
 1854 0160 0D       		.uleb128 0xd
 1855 0161 00       		.byte	0
 1856 0162 03       		.uleb128 0x3
 1857 0163 0E       		.uleb128 0xe
 1858 0164 3A       		.uleb128 0x3a
 1859 0165 0B       		.uleb128 0xb
ARM GAS  C:\Users\embedded\AppData\Local\Temp\ccjFShSO.s 			page 36


 1860 0166 3B       		.uleb128 0x3b
 1861 0167 05       		.uleb128 0x5
 1862 0168 49       		.uleb128 0x49
 1863 0169 13       		.uleb128 0x13
 1864 016a 00       		.byte	0
 1865 016b 00       		.byte	0
 1866 016c 1F       		.uleb128 0x1f
 1867 016d 15       		.uleb128 0x15
 1868 016e 01       		.byte	0x1
 1869 016f 27       		.uleb128 0x27
 1870 0170 0C       		.uleb128 0xc
 1871 0171 01       		.uleb128 0x1
 1872 0172 13       		.uleb128 0x13
 1873 0173 00       		.byte	0
 1874 0174 00       		.byte	0
 1875 0175 20       		.uleb128 0x20
 1876 0176 34       		.uleb128 0x34
 1877 0177 00       		.byte	0
 1878 0178 03       		.uleb128 0x3
 1879 0179 0E       		.uleb128 0xe
 1880 017a 3A       		.uleb128 0x3a
 1881 017b 0B       		.uleb128 0xb
 1882 017c 3B       		.uleb128 0x3b
 1883 017d 05       		.uleb128 0x5
 1884 017e 49       		.uleb128 0x49
 1885 017f 13       		.uleb128 0x13
 1886 0180 3F       		.uleb128 0x3f
 1887 0181 0C       		.uleb128 0xc
 1888 0182 3C       		.uleb128 0x3c
 1889 0183 0C       		.uleb128 0xc
 1890 0184 00       		.byte	0
 1891 0185 00       		.byte	0
 1892 0186 21       		.uleb128 0x21
 1893 0187 2E       		.uleb128 0x2e
 1894 0188 01       		.byte	0x1
 1895 0189 3F       		.uleb128 0x3f
 1896 018a 0C       		.uleb128 0xc
 1897 018b 03       		.uleb128 0x3
 1898 018c 0E       		.uleb128 0xe
 1899 018d 3A       		.uleb128 0x3a
 1900 018e 0B       		.uleb128 0xb
 1901 018f 3B       		.uleb128 0x3b
 1902 0190 0B       		.uleb128 0xb
 1903 0191 27       		.uleb128 0x27
 1904 0192 0C       		.uleb128 0xc
 1905 0193 49       		.uleb128 0x49
 1906 0194 13       		.uleb128 0x13
 1907 0195 11       		.uleb128 0x11
 1908 0196 01       		.uleb128 0x1
 1909 0197 12       		.uleb128 0x12
 1910 0198 01       		.uleb128 0x1
 1911 0199 40       		.uleb128 0x40
 1912 019a 06       		.uleb128 0x6
 1913 019b 9642     		.uleb128 0x2116
 1914 019d 0C       		.uleb128 0xc
 1915 019e 01       		.uleb128 0x1
 1916 019f 13       		.uleb128 0x13
ARM GAS  C:\Users\embedded\AppData\Local\Temp\ccjFShSO.s 			page 37


 1917 01a0 00       		.byte	0
 1918 01a1 00       		.byte	0
 1919 01a2 22       		.uleb128 0x22
 1920 01a3 34       		.uleb128 0x34
 1921 01a4 00       		.byte	0
 1922 01a5 03       		.uleb128 0x3
 1923 01a6 0E       		.uleb128 0xe
 1924 01a7 3A       		.uleb128 0x3a
 1925 01a8 0B       		.uleb128 0xb
 1926 01a9 3B       		.uleb128 0x3b
 1927 01aa 0B       		.uleb128 0xb
 1928 01ab 49       		.uleb128 0x49
 1929 01ac 13       		.uleb128 0x13
 1930 01ad 02       		.uleb128 0x2
 1931 01ae 0A       		.uleb128 0xa
 1932 01af 00       		.byte	0
 1933 01b0 00       		.byte	0
 1934 01b1 23       		.uleb128 0x23
 1935 01b2 0B       		.uleb128 0xb
 1936 01b3 01       		.byte	0x1
 1937 01b4 11       		.uleb128 0x11
 1938 01b5 01       		.uleb128 0x1
 1939 01b6 12       		.uleb128 0x12
 1940 01b7 01       		.uleb128 0x1
 1941 01b8 00       		.byte	0
 1942 01b9 00       		.byte	0
 1943 01ba 24       		.uleb128 0x24
 1944 01bb 01       		.uleb128 0x1
 1945 01bc 01       		.byte	0x1
 1946 01bd 49       		.uleb128 0x49
 1947 01be 13       		.uleb128 0x13
 1948 01bf 00       		.byte	0
 1949 01c0 00       		.byte	0
 1950 01c1 00       		.byte	0
 1951              		.section	.debug_loc,"",%progbits
 1952              	.Ldebug_loc0:
 1953              	.LLST0:
 1954 0000 00000000 		.4byte	.LFB3-.Ltext0
 1955 0004 02000000 		.4byte	.LCFI0-.Ltext0
 1956 0008 0200     		.2byte	0x2
 1957 000a 7D       		.byte	0x7d
 1958 000b 00       		.sleb128 0
 1959 000c 02000000 		.4byte	.LCFI0-.Ltext0
 1960 0010 04000000 		.4byte	.LCFI1-.Ltext0
 1961 0014 0200     		.2byte	0x2
 1962 0016 7D       		.byte	0x7d
 1963 0017 0C       		.sleb128 12
 1964 0018 04000000 		.4byte	.LCFI1-.Ltext0
 1965 001c 06000000 		.4byte	.LCFI2-.Ltext0
 1966 0020 0200     		.2byte	0x2
 1967 0022 7D       		.byte	0x7d
 1968 0023 30       		.sleb128 48
 1969 0024 06000000 		.4byte	.LCFI2-.Ltext0
 1970 0028 A8000000 		.4byte	.LFE3-.Ltext0
 1971 002c 0200     		.2byte	0x2
 1972 002e 77       		.byte	0x77
 1973 002f 30       		.sleb128 48
ARM GAS  C:\Users\embedded\AppData\Local\Temp\ccjFShSO.s 			page 38


 1974 0030 00000000 		.4byte	0
 1975 0034 00000000 		.4byte	0
 1976              		.section	.debug_aranges,"",%progbits
 1977 0000 1C000000 		.4byte	0x1c
 1978 0004 0200     		.2byte	0x2
 1979 0006 00000000 		.4byte	.Ldebug_info0
 1980 000a 04       		.byte	0x4
 1981 000b 00       		.byte	0
 1982 000c 0000     		.2byte	0
 1983 000e 0000     		.2byte	0
 1984 0010 00000000 		.4byte	.Ltext0
 1985 0014 A8000000 		.4byte	.Letext0-.Ltext0
 1986 0018 00000000 		.4byte	0
 1987 001c 00000000 		.4byte	0
 1988              		.section	.debug_line,"",%progbits
 1989              	.Ldebug_line0:
 1990 0000 E7000000 		.section	.debug_str,"MS",%progbits,1
 1990      0200B900 
 1990      00000201 
 1990      FB0E0D00 
 1990      01010101 
 1991              	.LASF40:
 1992 0000 5F64736F 		.ascii	"_dso_handle\000"
 1992      5F68616E 
 1992      646C6500 
 1993              	.LASF48:
 1994 000c 5F73697A 		.ascii	"_size\000"
 1994      6500
 1995              	.LASF93:
 1996 0012 5F72616E 		.ascii	"_rand48\000"
 1996      64343800 
 1997              	.LASF72:
 1998 001a 5F656D65 		.ascii	"_emergency\000"
 1998      7267656E 
 1998      637900
 1999              	.LASF62:
 2000 0025 5F646174 		.ascii	"_data\000"
 2000      6100
 2001              	.LASF113:
 2002 002b 5F776372 		.ascii	"_wcrtomb_state\000"
 2002      746F6D62 
 2002      5F737461 
 2002      746500
 2003              	.LASF114:
 2004 003a 5F776373 		.ascii	"_wcsrtombs_state\000"
 2004      72746F6D 
 2004      62735F73 
 2004      74617465 
 2004      00
 2005              	.LASF3:
 2006 004b 6C6F6E67 		.ascii	"long long unsigned int\000"
 2006      206C6F6E 
 2006      6720756E 
 2006      7369676E 
 2006      65642069 
 2007              	.LASF52:
 2008 0062 5F6C6266 		.ascii	"_lbfsize\000"
ARM GAS  C:\Users\embedded\AppData\Local\Temp\ccjFShSO.s 			page 39


 2008      73697A65 
 2008      00
 2009              	.LASF120:
 2010 006b 5F5F6C6F 		.ascii	"__locale_t\000"
 2010      63616C65 
 2010      5F7400
 2011              	.LASF111:
 2012 0076 5F6D6272 		.ascii	"_mbrtowc_state\000"
 2012      746F7763 
 2012      5F737461 
 2012      746500
 2013              	.LASF29:
 2014 0085 5F5F746D 		.ascii	"__tm_sec\000"
 2014      5F736563 
 2014      00
 2015              	.LASF6:
 2016 008e 6C6F6E67 		.ascii	"long long int\000"
 2016      206C6F6E 
 2016      6720696E 
 2016      7400
 2017              	.LASF4:
 2018 009c 7369676E 		.ascii	"signed char\000"
 2018      65642063 
 2018      68617200 
 2019              	.LASF58:
 2020 00a8 5F756275 		.ascii	"_ubuf\000"
 2020      6600
 2021              	.LASF47:
 2022 00ae 5F626173 		.ascii	"_base\000"
 2022      6500
 2023              	.LASF31:
 2024 00b4 5F5F746D 		.ascii	"__tm_hour\000"
 2024      5F686F75 
 2024      7200
 2025              	.LASF87:
 2026 00be 5F5F7366 		.ascii	"__sf\000"
 2026      00
 2027              	.LASF38:
 2028 00c3 5F6F6E5F 		.ascii	"_on_exit_args\000"
 2028      65786974 
 2028      5F617267 
 2028      7300
 2029              	.LASF53:
 2030 00d1 5F636F6F 		.ascii	"_cookie\000"
 2030      6B696500 
 2031              	.LASF86:
 2032 00d9 5F5F7367 		.ascii	"__sglue\000"
 2032      6C756500 
 2033              	.LASF9:
 2034 00e1 6C6F6E67 		.ascii	"long int\000"
 2034      20696E74 
 2034      00
 2035              	.LASF50:
 2036 00ea 5F666C61 		.ascii	"_flags\000"
 2036      677300
 2037              	.LASF42:
 2038 00f1 5F69735F 		.ascii	"_is_cxa\000"
ARM GAS  C:\Users\embedded\AppData\Local\Temp\ccjFShSO.s 			page 40


 2038      63786100 
 2039              	.LASF68:
 2040 00f9 5F737464 		.ascii	"_stdin\000"
 2040      696E00
 2041              	.LASF123:
 2042 0100 70636139 		.ascii	"pca9532Present\000"
 2042      35333250 
 2042      72657365 
 2042      6E7400
 2043              	.LASF60:
 2044 010f 5F626C6B 		.ascii	"_blksize\000"
 2044      73697A65 
 2044      00
 2045              	.LASF126:
 2046 0118 74656D70 		.ascii	"temperatureInChar\000"
 2046      65726174 
 2046      75726549 
 2046      6E436861 
 2046      7200
 2047              	.LASF82:
 2048 012a 5F637674 		.ascii	"_cvtbuf\000"
 2048      62756600 
 2049              	.LASF61:
 2050 0132 5F6F6666 		.ascii	"_offset\000"
 2050      73657400 
 2051              	.LASF112:
 2052 013a 5F6D6273 		.ascii	"_mbsrtowcs_state\000"
 2052      72746F77 
 2052      63735F73 
 2052      74617465 
 2052      00
 2053              	.LASF110:
 2054 014b 5F6D6272 		.ascii	"_mbrlen_state\000"
 2054      6C656E5F 
 2054      73746174 
 2054      6500
 2055              	.LASF39:
 2056 0159 5F666E61 		.ascii	"_fnargs\000"
 2056      72677300 
 2057              	.LASF45:
 2058 0161 5F666E73 		.ascii	"_fns\000"
 2058      00
 2059              	.LASF25:
 2060 0166 5F736967 		.ascii	"_sign\000"
 2060      6E00
 2061              	.LASF21:
 2062 016c 5F666C6F 		.ascii	"_flock_t\000"
 2062      636B5F74 
 2062      00
 2063              	.LASF70:
 2064 0175 5F737464 		.ascii	"_stderr\000"
 2064      65727200 
 2065              	.LASF27:
 2066 017d 5F426967 		.ascii	"_Bigint\000"
 2066      696E7400 
 2067              	.LASF101:
 2068 0185 5F67616D 		.ascii	"_gamma_signgam\000"
ARM GAS  C:\Users\embedded\AppData\Local\Temp\ccjFShSO.s 			page 41


 2068      6D615F73 
 2068      69676E67 
 2068      616D00
 2069              	.LASF54:
 2070 0194 5F726561 		.ascii	"_read\000"
 2070      6400
 2071              	.LASF78:
 2072 019a 5F726573 		.ascii	"_result_k\000"
 2072      756C745F 
 2072      6B00
 2073              	.LASF28:
 2074 01a4 5F5F746D 		.ascii	"__tm\000"
 2074      00
 2075              	.LASF2:
 2076 01a9 756E7369 		.ascii	"unsigned int\000"
 2076      676E6564 
 2076      20696E74 
 2076      00
 2077              	.LASF17:
 2078 01b6 5F5F7763 		.ascii	"__wchb\000"
 2078      686200
 2079              	.LASF69:
 2080 01bd 5F737464 		.ascii	"_stdout\000"
 2080      6F757400 
 2081              	.LASF81:
 2082 01c5 5F637674 		.ascii	"_cvtlen\000"
 2082      6C656E00 
 2083              	.LASF10:
 2084 01cd 6C6F6E67 		.ascii	"long unsigned int\000"
 2084      20756E73 
 2084      69676E65 
 2084      6420696E 
 2084      7400
 2085              	.LASF51:
 2086 01df 5F66696C 		.ascii	"_file\000"
 2086      6500
 2087              	.LASF91:
 2088 01e5 5F6E696F 		.ascii	"_niobs\000"
 2088      627300
 2089              	.LASF1:
 2090 01ec 73686F72 		.ascii	"short unsigned int\000"
 2090      7420756E 
 2090      7369676E 
 2090      65642069 
 2090      6E7400
 2091              	.LASF127:
 2092 01ff 74656D70 		.ascii	"temperatureValue\000"
 2092      65726174 
 2092      75726556 
 2092      616C7565 
 2092      00
 2093              	.LASF108:
 2094 0210 5F736967 		.ascii	"_signal_buf\000"
 2094      6E616C5F 
 2094      62756600 
 2095              	.LASF99:
 2096 021c 5F617363 		.ascii	"_asctime_buf\000"
ARM GAS  C:\Users\embedded\AppData\Local\Temp\ccjFShSO.s 			page 42


 2096      74696D65 
 2096      5F627566 
 2096      00
 2097              	.LASF77:
 2098 0229 5F726573 		.ascii	"_result\000"
 2098      756C7400 
 2099              	.LASF16:
 2100 0231 5F5F7763 		.ascii	"__wch\000"
 2100      6800
 2101              	.LASF12:
 2102 0237 5F4C4F43 		.ascii	"_LOCK_T\000"
 2102      4B5F5400 
 2103              	.LASF129:
 2104 023f 6D61696E 		.ascii	"main.c\000"
 2104      2E6300
 2105              	.LASF15:
 2106 0246 77696E74 		.ascii	"wint_t\000"
 2106      5F7400
 2107              	.LASF63:
 2108 024d 5F6C6F63 		.ascii	"_lock\000"
 2108      6B00
 2109              	.LASF65:
 2110 0253 5F666C61 		.ascii	"_flags2\000"
 2110      67733200 
 2111              	.LASF55:
 2112 025b 5F777269 		.ascii	"_write\000"
 2112      746500
 2113              	.LASF34:
 2114 0262 5F5F746D 		.ascii	"__tm_year\000"
 2114      5F796561 
 2114      7200
 2115              	.LASF125:
 2116 026c 72656164 		.ascii	"readTemperature\000"
 2116      54656D70 
 2116      65726174 
 2116      75726500 
 2117              	.LASF11:
 2118 027c 6C6F6E67 		.ascii	"long double\000"
 2118      20646F75 
 2118      626C6500 
 2119              	.LASF116:
 2120 0288 5F6E6578 		.ascii	"_nextf\000"
 2120      746600
 2121              	.LASF33:
 2122 028f 5F5F746D 		.ascii	"__tm_mon\000"
 2122      5F6D6F6E 
 2122      00
 2123              	.LASF43:
 2124 0298 5F617465 		.ascii	"_atexit\000"
 2124      78697400 
 2125              	.LASF75:
 2126 02a0 5F5F7364 		.ascii	"__sdidinit\000"
 2126      6964696E 
 2126      697400
 2127              	.LASF13:
 2128 02ab 5F6F6666 		.ascii	"_off_t\000"
 2128      5F7400
ARM GAS  C:\Users\embedded\AppData\Local\Temp\ccjFShSO.s 			page 43


 2129              	.LASF130:
 2130 02b2 433A5C45 		.ascii	"C:\\Embedded\\2138MiniDemo\\2138\000"
 2130      6D626564 
 2130      6465645C 
 2130      32313338 
 2130      4D696E69 
 2131              	.LASF7:
 2132 02d0 46414C53 		.ascii	"FALSE\000"
 2132      4500
 2133              	.LASF128:
 2134 02d6 474E5520 		.ascii	"GNU C11 7.3.1 20180622 (release) [ARM/embedded-7-br"
 2134      43313120 
 2134      372E332E 
 2134      31203230 
 2134      31383036 
 2135 0309 616E6368 		.ascii	"anch revision 261907] -mcpu=arm7tdmi -mthumb -mthum"
 2135      20726576 
 2135      6973696F 
 2135      6E203236 
 2135      31393037 
 2136 033c 622D696E 		.ascii	"b-interwork -gdwarf-2 -O0\000"
 2136      74657277 
 2136      6F726B20 
 2136      2D676477 
 2136      6172662D 
 2137              	.LASF106:
 2138 0356 5F776374 		.ascii	"_wctomb_state\000"
 2138      6F6D625F 
 2138      73746174 
 2138      6500
 2139              	.LASF104:
 2140 0364 5F6D626C 		.ascii	"_mblen_state\000"
 2140      656E5F73 
 2140      74617465 
 2140      00
 2141              	.LASF0:
 2142 0371 756E7369 		.ascii	"unsigned char\000"
 2142      676E6564 
 2142      20636861 
 2142      7200
 2143              	.LASF83:
 2144 037f 5F6E6577 		.ascii	"_new\000"
 2144      00
 2145              	.LASF115:
 2146 0384 5F685F65 		.ascii	"_h_errno\000"
 2146      72726E6F 
 2146      00
 2147              	.LASF5:
 2148 038d 73686F72 		.ascii	"short int\000"
 2148      7420696E 
 2148      7400
 2149              	.LASF36:
 2150 0397 5F5F746D 		.ascii	"__tm_yday\000"
 2150      5F796461 
 2150      7900
 2151              	.LASF46:
 2152 03a1 5F5F7362 		.ascii	"__sbuf\000"
ARM GAS  C:\Users\embedded\AppData\Local\Temp\ccjFShSO.s 			page 44


 2152      756600
 2153              	.LASF80:
 2154 03a8 5F667265 		.ascii	"_freelist\000"
 2154      656C6973 
 2154      7400
 2155              	.LASF89:
 2156 03b2 5F5F4649 		.ascii	"__FILE\000"
 2156      4C4500
 2157              	.LASF20:
 2158 03b9 5F6D6273 		.ascii	"_mbstate_t\000"
 2158      74617465 
 2158      5F7400
 2159              	.LASF49:
 2160 03c4 5F5F7346 		.ascii	"__sFILE\000"
 2160      494C4500 
 2161              	.LASF64:
 2162 03cc 5F6D6273 		.ascii	"_mbstate\000"
 2162      74617465 
 2162      00
 2163              	.LASF102:
 2164 03d5 5F72616E 		.ascii	"_rand_next\000"
 2164      645F6E65 
 2164      787400
 2165              	.LASF92:
 2166 03e0 5F696F62 		.ascii	"_iobs\000"
 2166      7300
 2167              	.LASF71:
 2168 03e6 5F696E63 		.ascii	"_inc\000"
 2168      00
 2169              	.LASF44:
 2170 03eb 5F696E64 		.ascii	"_ind\000"
 2170      00
 2171              	.LASF74:
 2172 03f0 5F6C6F63 		.ascii	"_locale\000"
 2172      616C6500 
 2173              	.LASF76:
 2174 03f8 5F5F636C 		.ascii	"__cleanup\000"
 2174      65616E75 
 2174      7000
 2175              	.LASF73:
 2176 0402 5F756E73 		.ascii	"_unspecified_locale_info\000"
 2176      70656369 
 2176      66696564 
 2176      5F6C6F63 
 2176      616C655F 
 2177              	.LASF8:
 2178 041b 54525545 		.ascii	"TRUE\000"
 2178      00
 2179              	.LASF66:
 2180 0420 5F726565 		.ascii	"_reent\000"
 2180      6E7400
 2181              	.LASF94:
 2182 0427 5F736565 		.ascii	"_seed\000"
 2182      6400
 2183              	.LASF84:
 2184 042d 5F617465 		.ascii	"_atexit0\000"
 2184      78697430 
ARM GAS  C:\Users\embedded\AppData\Local\Temp\ccjFShSO.s 			page 45


 2184      00
 2185              	.LASF18:
 2186 0436 5F5F636F 		.ascii	"__count\000"
 2186      756E7400 
 2187              	.LASF119:
 2188 043e 5F5F6C6F 		.ascii	"__lock\000"
 2188      636B00
 2189              	.LASF19:
 2190 0445 5F5F7661 		.ascii	"__value\000"
 2190      6C756500 
 2191              	.LASF56:
 2192 044d 5F736565 		.ascii	"_seek\000"
 2192      6B00
 2193              	.LASF121:
 2194 0453 5F696D70 		.ascii	"_impure_ptr\000"
 2194      7572655F 
 2194      70747200 
 2195              	.LASF14:
 2196 045f 5F66706F 		.ascii	"_fpos_t\000"
 2196      735F7400 
 2197              	.LASF67:
 2198 0467 5F657272 		.ascii	"_errno\000"
 2198      6E6F00
 2199              	.LASF88:
 2200 046e 63686172 		.ascii	"char\000"
 2200      00
 2201              	.LASF30:
 2202 0473 5F5F746D 		.ascii	"__tm_min\000"
 2202      5F6D696E 
 2202      00
 2203              	.LASF95:
 2204 047c 5F6D756C 		.ascii	"_mult\000"
 2204      7400
 2205              	.LASF23:
 2206 0482 5F6E6578 		.ascii	"_next\000"
 2206      7400
 2207              	.LASF98:
 2208 0488 5F737472 		.ascii	"_strtok_last\000"
 2208      746F6B5F 
 2208      6C617374 
 2208      00
 2209              	.LASF41:
 2210 0495 5F666E74 		.ascii	"_fntypes\000"
 2210      79706573 
 2210      00
 2211              	.LASF24:
 2212 049e 5F6D6178 		.ascii	"_maxwds\000"
 2212      77647300 
 2213              	.LASF96:
 2214 04a6 5F616464 		.ascii	"_add\000"
 2214      00
 2215              	.LASF22:
 2216 04ab 5F5F554C 		.ascii	"__ULong\000"
 2216      6F6E6700 
 2217              	.LASF109:
 2218 04b3 5F676574 		.ascii	"_getdate_err\000"
 2218      64617465 
ARM GAS  C:\Users\embedded\AppData\Local\Temp\ccjFShSO.s 			page 46


 2218      5F657272 
 2218      00
 2219              	.LASF122:
 2220 04c0 5F676C6F 		.ascii	"_global_impure_ptr\000"
 2220      62616C5F 
 2220      696D7075 
 2220      72655F70 
 2220      747200
 2221              	.LASF97:
 2222 04d3 5F756E75 		.ascii	"_unused_rand\000"
 2222      7365645F 
 2222      72616E64 
 2222      00
 2223              	.LASF26:
 2224 04e0 5F776473 		.ascii	"_wds\000"
 2224      00
 2225              	.LASF35:
 2226 04e5 5F5F746D 		.ascii	"__tm_wday\000"
 2226      5F776461 
 2226      7900
 2227              	.LASF90:
 2228 04ef 5F676C75 		.ascii	"_glue\000"
 2228      6500
 2229              	.LASF124:
 2230 04f5 6C6D3735 		.ascii	"lm75Address\000"
 2230      41646472 
 2230      65737300 
 2231              	.LASF117:
 2232 0501 5F6E6D61 		.ascii	"_nmalloc\000"
 2232      6C6C6F63 
 2232      00
 2233              	.LASF107:
 2234 050a 5F6C3634 		.ascii	"_l64a_buf\000"
 2234      615F6275 
 2234      6600
 2235              	.LASF85:
 2236 0514 5F736967 		.ascii	"_sig_func\000"
 2236      5F66756E 
 2236      6300
 2237              	.LASF59:
 2238 051e 5F6E6275 		.ascii	"_nbuf\000"
 2238      6600
 2239              	.LASF118:
 2240 0524 5F756E75 		.ascii	"_unused\000"
 2240      73656400 
 2241              	.LASF37:
 2242 052c 5F5F746D 		.ascii	"__tm_isdst\000"
 2242      5F697364 
 2242      737400
 2243              	.LASF100:
 2244 0537 5F6C6F63 		.ascii	"_localtime_buf\000"
 2244      616C7469 
 2244      6D655F62 
 2244      756600
 2245              	.LASF57:
 2246 0546 5F636C6F 		.ascii	"_close\000"
 2246      736500
ARM GAS  C:\Users\embedded\AppData\Local\Temp\ccjFShSO.s 			page 47


 2247              	.LASF103:
 2248 054d 5F723438 		.ascii	"_r48\000"
 2248      00
 2249              	.LASF105:
 2250 0552 5F6D6274 		.ascii	"_mbtowc_state\000"
 2250      6F77635F 
 2250      73746174 
 2250      6500
 2251              	.LASF79:
 2252 0560 5F703573 		.ascii	"_p5s\000"
 2252      00
 2253              	.LASF131:
 2254 0565 6D61696E 		.ascii	"main\000"
 2254      00
 2255              	.LASF32:
 2256 056a 5F5F746D 		.ascii	"__tm_mday\000"
 2256      5F6D6461 
 2256      7900
 2257              		.ident	"GCC: (GNU Tools for Arm Embedded Processors 7-2018-q2-update) 7.3.1 20180622 (release) [AR
ARM GAS  C:\Users\embedded\AppData\Local\Temp\ccjFShSO.s 			page 48


DEFINED SYMBOLS
                            *ABS*:00000000 main.c
C:\Users\embedded\AppData\Local\Temp\ccjFShSO.s:16     .rodata:00000000 $d
C:\Users\embedded\AppData\Local\Temp\ccjFShSO.s:27     .text:00000000 main
C:\Users\embedded\AppData\Local\Temp\ccjFShSO.s:35     .text:00000000 $t
C:\Users\embedded\AppData\Local\Temp\ccjFShSO.s:136    .text:000000a4 $d

UNDEFINED SYMBOLS
i2cInit
pca9532Init
printf_init
lcdInit
lcdColor
lcdClrscr
lcdGotoxy
measureTemperature
calculateTemperatureValue
sprintf
lcdPuts
sdelay
