ARM GAS  C:\Users\embedded\AppData\Local\Temp\cca40R3I.s 			page 1


   1              		.cpu arm7tdmi
   2              		.eabi_attribute 20, 1
   3              		.eabi_attribute 21, 1
   4              		.eabi_attribute 23, 3
   5              		.eabi_attribute 24, 1
   6              		.eabi_attribute 25, 1
   7              		.eabi_attribute 26, 1
   8              		.eabi_attribute 30, 6
   9              		.eabi_attribute 34, 0
  10              		.eabi_attribute 18, 4
  11              		.file	"main.c"
  12              		.text
  13              	.Ltext0:
  14              		.cfi_sections	.debug_frame
  15              		.align	1
  16              		.syntax unified
  17              		.code	16
  18              		.thumb_func
  19              		.fpu softvfp
  20              		.type	sdelay, %function
  21              	sdelay:
  22              	.LFB3:
  23              		.file 1 "main.c"
   1:main.c        **** /*************************************************************************************
   2:main.c        ****  *
   3:main.c        ****  * @Description:
   4:main.c        ****  * Program przykładowy - odpowiednik "Hello World" dla systemów wbudowanych
   5:main.c        ****  * Rekomendujemy wkopiowywanie do niniejszego projektu nowych funkcjonalności
   6:main.c        ****  *
   7:main.c        ****  *
   8:main.c        ****  * UWAGA! Po zmianie rozszerzenia na cpp program automatycznie będzie używać
   9:main.c        ****  * kompilatora g++. Oczywiście konieczne jest wprowadzenie odpowiednich zmian w
  10:main.c        ****  * pliku "makefile"
  11:main.c        ****  *
  12:main.c        ****  *
  13:main.c        ****  * Program przykładowy wykorzystuje Timer #0 i Timer #1 do "mrugania" diodami
  14:main.c        ****  * Dioda P1.16 jest zapalona i gaszona, a czas pomiędzy tymi zdarzeniami
  15:main.c        ****  * odmierzany jest przez Timer #0.
  16:main.c        ****  * Program aktywnie oczekuje na upłynięcie odmierzanego czasu (1s)
  17:main.c        ****  *
  18:main.c        ****  * Druga z diod P1.17 jest gaszona i zapalana w takt przerwań generowanych
  19:main.c        ****  * przez timer #1, z okresem 500 ms i wypełnieniem 20%.
  20:main.c        ****  * Procedura obsługi przerwań zdefiniowana jest w innym pliku (irq/irq_handler.c)
  21:main.c        ****  * Sama procedura MUSI być oznaczona dla kompilatora jako procedura obsługi 
  22:main.c        ****  * przerwania odpowiedniego typu. W przykładzie jest to przerwanie wektoryzowane.
  23:main.c        ****  * Odpowiednia deklaracja znajduje się w pliku (irq/irq_handler.h)
  24:main.c        ****  * 
  25:main.c        ****  * Prócz "mrugania" diodami program wypisuje na konsoli powitalny tekst.
  26:main.c        ****  * 
  27:main.c        ****  * @Authors: Michał Morawski,
  28:main.c        ****  *           Daniel Arendt, 
  29:main.c        ****  *           Przemysław Ignaciuk,
  30:main.c        ****  *           Marcin Kwapisz
  31:main.c        ****  *
  32:main.c        ****  * @Change log:
  33:main.c        ****  *           2016.12.01: Wersja oryginalna.
  34:main.c        ****  *
ARM GAS  C:\Users\embedded\AppData\Local\Temp\cca40R3I.s 			page 2


  35:main.c        ****  ******************************************************************************/
  36:main.c        **** 
  37:main.c        **** #include "general.h"
  38:main.c        **** #include <lpc2xxx.h>
  39:main.c        **** #include <printf_P.h>
  40:main.c        **** #include <printf_init.h>
  41:main.c        **** #include <consol.h>
  42:main.c        **** #include <config.h>
  43:main.c        **** #include "irq/irq_handler.h"
  44:main.c        **** #include "timer.h"
  45:main.c        **** #include "VIC.h"
  46:main.c        **** 
  47:main.c        **** #include "Common_Def.h"
  48:main.c        **** #include <stdio.h>
  49:main.c        **** 
  50:main.c        **** 
  51:main.c        **** 
  52:main.c        **** /************************************************************************
  53:main.c        ****  * @Description: opóźnienie wyrażone w liczbie sekund
  54:main.c        ****  * @Parameter:
  55:main.c        ****  *    [in] seconds: liczba sekund opĂłĹşnienia
  56:main.c        ****  * @Returns: Nic
  57:main.c        ****  * @Side effects:
  58:main.c        ****  *    przeprogramowany Timer #0
  59:main.c        ****  *************************************************************************/
  60:main.c        **** static void sdelay (tU32 seconds)
  61:main.c        **** {
  24              		.loc 1 61 0
  25              		.cfi_startproc
  26              		@ Function supports interworking.
  27              		@ args = 0, pretend = 0, frame = 8
  28              		@ frame_needed = 1, uses_anonymous_args = 0
  29 0000 80B5     		push	{r7, lr}
  30              	.LCFI0:
  31              		.cfi_def_cfa_offset 8
  32              		.cfi_offset 7, -8
  33              		.cfi_offset 14, -4
  34 0002 82B0     		sub	sp, sp, #8
  35              	.LCFI1:
  36              		.cfi_def_cfa_offset 16
  37 0004 00AF     		add	r7, sp, #0
  38              	.LCFI2:
  39              		.cfi_def_cfa_register 7
  40 0006 7860     		str	r0, [r7, #4]
  62:main.c        **** 	T0TCR = TIMER_RESET;                    //Zatrzymaj i zresetuj
  41              		.loc 1 62 0
  42 0008 0E4B     		ldr	r3, .L3
  43 000a 0222     		movs	r2, #2
  44 000c 1A60     		str	r2, [r3]
  63:main.c        ****     T0PR  = PERIPHERAL_CLOCK-1;             //jednostka w preskalerze
  45              		.loc 1 63 0
  46 000e 0E4B     		ldr	r3, .L3+4
  47 0010 0E4A     		ldr	r2, .L3+8
  48 0012 1A60     		str	r2, [r3]
  64:main.c        ****     T0MR0 = seconds;
  49              		.loc 1 64 0
  50 0014 0E4B     		ldr	r3, .L3+12
ARM GAS  C:\Users\embedded\AppData\Local\Temp\cca40R3I.s 			page 3


  51 0016 7A68     		ldr	r2, [r7, #4]
  52 0018 1A60     		str	r2, [r3]
  65:main.c        ****     T0IR  = TIMER_ALL_INT;                  //Resetowanie flag przerwaĹ„
  53              		.loc 1 65 0
  54 001a 0E4B     		ldr	r3, .L3+16
  55 001c FF22     		movs	r2, #255
  56 001e 1A60     		str	r2, [r3]
  66:main.c        ****     T0MCR = MR0_S;                          //Licz do wartości w MR0 i zatrzymaj się
  57              		.loc 1 66 0
  58 0020 0D4B     		ldr	r3, .L3+20
  59 0022 0422     		movs	r2, #4
  60 0024 1A60     		str	r2, [r3]
  67:main.c        ****     T0TCR = TIMER_RUN;                      //Uruchom timer
  61              		.loc 1 67 0
  62 0026 074B     		ldr	r3, .L3
  63 0028 0122     		movs	r2, #1
  64 002a 1A60     		str	r2, [r3]
  68:main.c        **** 
  69:main.c        ****     // sprawdź czy timer działa
  70:main.c        ****     // nie ma wpisanego ogranicznika liczby pętli, ze względu na charakter procedury
  71:main.c        ****     while (T0TCR & TIMER_RUN)
  65              		.loc 1 71 0
  66 002c C046     		nop
  67              	.L2:
  68              		.loc 1 71 0 is_stmt 0 discriminator 1
  69 002e 054B     		ldr	r3, .L3
  70 0030 1B68     		ldr	r3, [r3]
  71 0032 0122     		movs	r2, #1
  72 0034 1340     		ands	r3, r2
  73 0036 FAD1     		bne	.L2
  72:main.c        ****     {
  73:main.c        ****     }
  74:main.c        **** }
  74              		.loc 1 74 0 is_stmt 1
  75 0038 C046     		nop
  76 003a BD46     		mov	sp, r7
  77 003c 02B0     		add	sp, sp, #8
  78              		@ sp needed
  79 003e 80BC     		pop	{r7}
  80 0040 01BC     		pop	{r0}
  81 0042 0047     		bx	r0
  82              	.L4:
  83              		.align	2
  84              	.L3:
  85 0044 044000E0 		.word	-536854524
  86 0048 0C4000E0 		.word	-536854516
  87 004c FFFF8303 		.word	58982399
  88 0050 184000E0 		.word	-536854504
  89 0054 004000E0 		.word	-536854528
  90 0058 144000E0 		.word	-536854508
  91              		.cfi_endproc
  92              	.LFE3:
  93              		.size	sdelay, .-sdelay
  94              		.global	__aeabi_uldivmod
  95              		.global	__aeabi_lmul
  96              		.align	1
  97              		.syntax unified
ARM GAS  C:\Users\embedded\AppData\Local\Temp\cca40R3I.s 			page 4


  98              		.code	16
  99              		.thumb_func
 100              		.fpu softvfp
 101              		.type	init_irq, %function
 102              	init_irq:
 103              	.LFB4:
  75:main.c        **** 
  76:main.c        **** /************************************************************************
  77:main.c        ****  * @Description: uruchomienie obsługi przerwań
  78:main.c        ****  * @Parameter:
  79:main.c        ****  *    [in] period    : okres generatora przerwań
  80:main.c        ****  *    [in] duty_cycle: wypełnienie w %
  81:main.c        ****  * @Returns: Nic
  82:main.c        ****  * @Side effects:
  83:main.c        ****  *    przeprogramowany timer #1
  84:main.c        ****  *************************************************************************/
  85:main.c        **** static void init_irq (tU32 period, tU8 duty_cycle)
  86:main.c        **** {
 104              		.loc 1 86 0
 105              		.cfi_startproc
 106              		@ Function supports interworking.
 107              		@ args = 0, pretend = 0, frame = 48
 108              		@ frame_needed = 1, uses_anonymous_args = 0
 109 005c F0B5     		push	{r4, r5, r6, r7, lr}
 110              	.LCFI3:
 111              		.cfi_def_cfa_offset 20
 112              		.cfi_offset 4, -20
 113              		.cfi_offset 5, -16
 114              		.cfi_offset 6, -12
 115              		.cfi_offset 7, -8
 116              		.cfi_offset 14, -4
 117 005e 8DB0     		sub	sp, sp, #52
 118              	.LCFI4:
 119              		.cfi_def_cfa_offset 72
 120 0060 00AF     		add	r7, sp, #0
 121              	.LCFI5:
 122              		.cfi_def_cfa_register 7
 123 0062 F862     		str	r0, [r7, #44]
 124 0064 0B00     		movs	r3, r1
 125 0066 2B22     		movs	r2, #43
 126 0068 BA18     		adds	r2, r7, r2
 127 006a 1370     		strb	r3, [r2]
  87:main.c        **** 	//Zainicjuj VIC dla przerwań od Timera #1
  88:main.c        ****     VICIntSelect &= ~TIMER_1_IRQ;           //Przerwanie od Timera #1 przypisane do IRQ (nie do FIQ
 128              		.loc 1 88 0
 129 006c 3C4B     		ldr	r3, .L6
 130 006e 1968     		ldr	r1, [r3]
 131 0070 3B4A     		ldr	r2, .L6
 132 0072 2023     		movs	r3, #32
 133 0074 9943     		bics	r1, r3
 134 0076 0B00     		movs	r3, r1
 135 0078 1360     		str	r3, [r2]
  89:main.c        ****     VICVectAddr5  = (tU32)IRQ_Test;         //adres procedury przerwania
 136              		.loc 1 89 0
 137 007a 3A4A     		ldr	r2, .L6+4
 138 007c 3A4B     		ldr	r3, .L6+8
 139 007e 1360     		str	r3, [r2]
ARM GAS  C:\Users\embedded\AppData\Local\Temp\cca40R3I.s 			page 5


  90:main.c        ****     VICVectCntl5  = VIC_ENABLE_SLOT | TIMER_1_IRQ_NO;
 140              		.loc 1 90 0
 141 0080 3A4A     		ldr	r2, .L6+12
 142 0082 2523     		movs	r3, #37
 143 0084 1360     		str	r3, [r2]
  91:main.c        ****     VICIntEnable  = TIMER_1_IRQ;            // Przypisanie i odblokowanie slotu w VIC od Timera #1
 144              		.loc 1 91 0
 145 0086 3A4A     		ldr	r2, .L6+16
 146 0088 2023     		movs	r3, #32
 147 008a 1360     		str	r3, [r2]
  92:main.c        ****   
  93:main.c        ****     T1TCR = TIMER_RESET;                    //Zatrzymaj i zresetuj
 148              		.loc 1 93 0
 149 008c 394A     		ldr	r2, .L6+20
 150 008e 0223     		movs	r3, #2
 151 0090 1360     		str	r3, [r2]
  94:main.c        ****     T1PR  = 0;                              //Preskaler nieużywany
 152              		.loc 1 94 0
 153 0092 394A     		ldr	r2, .L6+24
 154 0094 0023     		movs	r3, #0
 155 0096 1360     		str	r3, [r2]
  95:main.c        ****     T1MR0 = ((tU64)period)*((tU64)PERIPHERAL_CLOCK)/1000;
 156              		.loc 1 95 0
 157 0098 FB6A     		ldr	r3, [r7, #44]
 158 009a 3B61     		str	r3, [r7, #16]
 159 009c 0023     		movs	r3, #0
 160 009e 7B61     		str	r3, [r7, #20]
 161 00a0 3B69     		ldr	r3, [r7, #16]
 162 00a2 7C69     		ldr	r4, [r7, #20]
 163 00a4 1A0F     		lsrs	r2, r3, #28
 164 00a6 2101     		lsls	r1, r4, #4
 165 00a8 7962     		str	r1, [r7, #36]
 166 00aa 796A     		ldr	r1, [r7, #36]
 167 00ac 1143     		orrs	r1, r2
 168 00ae 7962     		str	r1, [r7, #36]
 169 00b0 1B01     		lsls	r3, r3, #4
 170 00b2 3B62     		str	r3, [r7, #32]
 171 00b4 3B6A     		ldr	r3, [r7, #32]
 172 00b6 7C6A     		ldr	r4, [r7, #36]
 173 00b8 3869     		ldr	r0, [r7, #16]
 174 00ba 7969     		ldr	r1, [r7, #20]
 175 00bc 1B1A     		subs	r3, r3, r0
 176 00be 8C41     		sbcs	r4, r4, r1
 177 00c0 1A0F     		lsrs	r2, r3, #28
 178 00c2 2601     		lsls	r6, r4, #4
 179 00c4 1643     		orrs	r6, r2
 180 00c6 1D01     		lsls	r5, r3, #4
 181 00c8 ED1A     		subs	r5, r5, r3
 182 00ca A641     		sbcs	r6, r6, r4
 183 00cc AB0B     		lsrs	r3, r5, #14
 184 00ce B204     		lsls	r2, r6, #18
 185 00d0 FA61     		str	r2, [r7, #28]
 186 00d2 FA69     		ldr	r2, [r7, #28]
 187 00d4 1A43     		orrs	r2, r3
 188 00d6 FA61     		str	r2, [r7, #28]
 189 00d8 AB04     		lsls	r3, r5, #18
 190 00da BB61     		str	r3, [r7, #24]
ARM GAS  C:\Users\embedded\AppData\Local\Temp\cca40R3I.s 			page 6


 191 00dc BD69     		ldr	r5, [r7, #24]
 192 00de FE69     		ldr	r6, [r7, #28]
 193 00e0 2800     		movs	r0, r5
 194 00e2 3100     		movs	r1, r6
 195 00e4 FA22     		movs	r2, #250
 196 00e6 9200     		lsls	r2, r2, #2
 197 00e8 0023     		movs	r3, #0
 198 00ea FFF7FEFF 		bl	__aeabi_uldivmod
 199              	.LVL0:
 200 00ee 0300     		movs	r3, r0
 201 00f0 0C00     		movs	r4, r1
 202 00f2 1900     		movs	r1, r3
 203 00f4 2200     		movs	r2, r4
 204 00f6 214B     		ldr	r3, .L6+28
 205 00f8 0A00     		movs	r2, r1
 206 00fa 1A60     		str	r2, [r3]
  96:main.c        ****     T1MR1 = (tU64)T1MR0 * duty_cycle / 100; //Wypełnienie
 207              		.loc 1 96 0
 208 00fc 1F4B     		ldr	r3, .L6+28
 209 00fe 1B68     		ldr	r3, [r3]
 210 0100 BB60     		str	r3, [r7, #8]
 211 0102 0023     		movs	r3, #0
 212 0104 FB60     		str	r3, [r7, #12]
 213 0106 2B23     		movs	r3, #43
 214 0108 FB18     		adds	r3, r7, r3
 215 010a 1B78     		ldrb	r3, [r3]
 216 010c 1B06     		lsls	r3, r3, #24
 217 010e 1B0E     		lsrs	r3, r3, #24
 218 0110 3B60     		str	r3, [r7]
 219 0112 0023     		movs	r3, #0
 220 0114 7B60     		str	r3, [r7, #4]
 221 0116 3A68     		ldr	r2, [r7]
 222 0118 7B68     		ldr	r3, [r7, #4]
 223 011a B868     		ldr	r0, [r7, #8]
 224 011c F968     		ldr	r1, [r7, #12]
 225 011e FFF7FEFF 		bl	__aeabi_lmul
 226              	.LVL1:
 227 0122 0300     		movs	r3, r0
 228 0124 0C00     		movs	r4, r1
 229 0126 1800     		movs	r0, r3
 230 0128 2100     		movs	r1, r4
 231 012a 6422     		movs	r2, #100
 232 012c 0023     		movs	r3, #0
 233 012e FFF7FEFF 		bl	__aeabi_uldivmod
 234              	.LVL2:
 235 0132 0300     		movs	r3, r0
 236 0134 0C00     		movs	r4, r1
 237 0136 1900     		movs	r1, r3
 238 0138 2200     		movs	r2, r4
 239 013a 114B     		ldr	r3, .L6+32
 240 013c 0A00     		movs	r2, r1
 241 013e 1A60     		str	r2, [r3]
  97:main.c        ****     T1IR  = TIMER_ALL_INT;                  //Resetowanie flag przerwań
 242              		.loc 1 97 0
 243 0140 104B     		ldr	r3, .L6+36
 244 0142 FF22     		movs	r2, #255
 245 0144 1A60     		str	r2, [r3]
ARM GAS  C:\Users\embedded\AppData\Local\Temp\cca40R3I.s 			page 7


  98:main.c        ****     T1MCR = MR0_I | MR1_I | MR0_R;          //Generuj okresowe przerwania dla MR0 i dodatkowo dla M
 246              		.loc 1 98 0
 247 0146 104B     		ldr	r3, .L6+40
 248 0148 0B22     		movs	r2, #11
 249 014a 1A60     		str	r2, [r3]
  99:main.c        ****     T1TCR = TIMER_RUN;                      //Uruchom timer
 250              		.loc 1 99 0
 251 014c 094B     		ldr	r3, .L6+20
 252 014e 0122     		movs	r2, #1
 253 0150 1A60     		str	r2, [r3]
 100:main.c        **** }
 254              		.loc 1 100 0
 255 0152 C046     		nop
 256 0154 BD46     		mov	sp, r7
 257 0156 0DB0     		add	sp, sp, #52
 258              		@ sp needed
 259 0158 F0BC     		pop	{r4, r5, r6, r7}
 260 015a 01BC     		pop	{r0}
 261 015c 0047     		bx	r0
 262              	.L7:
 263 015e C046     		.align	2
 264              	.L6:
 265 0160 0CF0FFFF 		.word	-4084
 266 0164 14F1FFFF 		.word	-3820
 267 0168 00000000 		.word	IRQ_Test
 268 016c 14F2FFFF 		.word	-3564
 269 0170 10F0FFFF 		.word	-4080
 270 0174 048000E0 		.word	-536838140
 271 0178 0C8000E0 		.word	-536838132
 272 017c 188000E0 		.word	-536838120
 273 0180 1C8000E0 		.word	-536838116
 274 0184 008000E0 		.word	-536838144
 275 0188 148000E0 		.word	-536838124
 276              		.cfi_endproc
 277              	.LFE4:
 278              		.size	init_irq, .-init_irq
 279              		.section	.rodata
 280              		.align	2
 281              	.LC1:
 282 0000 0A0A0A0A 		.ascii	"\012\012\012\012\000"
 282      00
 283 0005 000000   		.align	2
 284              	.LC3:
 285 0008 0A2A2A2A 		.ascii	"\012***********************************************"
 285      2A2A2A2A 
 285      2A2A2A2A 
 285      2A2A2A2A 
 285      2A2A2A2A 
 286 0038 2A2A2A2A 		.ascii	"**********\000"
 286      2A2A2A2A 
 286      2A2A00
 287 0043 00       		.align	2
 288              	.LC5:
 289 0044 0A2A00   		.ascii	"\012*\000"
 290 0047 00       		.align	2
 291              	.LC7:
 292 0048 0A2A2053 		.ascii	"\012* Systemy Wbudowane\000"
ARM GAS  C:\Users\embedded\AppData\Local\Temp\cca40R3I.s 			page 8


 292      79737465 
 292      6D792057 
 292      6275646F 
 292      77616E65 
 293 005d 000000   		.align	2
 294              	.LC9:
 295 0060 0A2A2057 		.ascii	"\012* Wydzial FTIMS\000"
 295      79647A69 
 295      616C2046 
 295      54494D53 
 295      00
 296 0071 000000   		.align	2
 297              	.LC11:
 298 0074 0A2A204D 		.ascii	"\012* Moj pierwszy program\000"
 298      6F6A2070 
 298      69657277 
 298      737A7920 
 298      70726F67 
 299              		.align	2
 300              	.LC13:
 301 008c 4E696520 		.ascii	"Nie swieci\012\000"
 301      73776965 
 301      63690A00 
 302              		.align	2
 303              	.LC15:
 304 0098 53776965 		.ascii	"Swieci\012\000"
 304      63690A00 
 305              		.text
 306              		.align	1
 307              		.global	main
 308              		.syntax unified
 309              		.code	16
 310              		.thumb_func
 311              		.fpu softvfp
 312              		.type	main, %function
 313              	main:
 314              	.LFB5:
 101:main.c        **** 
 102:main.c        **** int main(void)
 103:main.c        **** {
 315              		.loc 1 103 0
 316              		.cfi_startproc
 317              		@ Function supports interworking.
 318              		@ args = 0, pretend = 0, frame = 8
 319              		@ frame_needed = 1, uses_anonymous_args = 0
 320 018c 80B5     		push	{r7, lr}
 321              	.LCFI6:
 322              		.cfi_def_cfa_offset 8
 323              		.cfi_offset 7, -8
 324              		.cfi_offset 14, -4
 325 018e 82B0     		sub	sp, sp, #8
 326              	.LCFI7:
 327              		.cfi_def_cfa_offset 16
 328 0190 00AF     		add	r7, sp, #0
 329              	.LCFI8:
 330              		.cfi_def_cfa_register 7
 104:main.c        **** 	//uruchomienie 'simple printf'
ARM GAS  C:\Users\embedded\AppData\Local\Temp\cca40R3I.s 			page 9


 105:main.c        ****     printf_init();
 331              		.loc 1 105 0
 332 0192 FFF7FEFF 		bl	printf_init
 106:main.c        **** 
 107:main.c        ****     //powitanie
 108:main.c        ****     simplePrintf("\n\n\n\n");
 333              		.loc 1 108 0
 334 0196 2F4B     		ldr	r3, .L12
 335 0198 1800     		movs	r0, r3
 336 019a FFF7FEFF 		bl	simplePrintf
 109:main.c        ****     simplePrintf("\n*********************************************************");
 337              		.loc 1 109 0
 338 019e 2E4B     		ldr	r3, .L12+4
 339 01a0 1800     		movs	r0, r3
 340 01a2 FFF7FEFF 		bl	simplePrintf
 110:main.c        ****     simplePrintf("\n*");
 341              		.loc 1 110 0
 342 01a6 2D4B     		ldr	r3, .L12+8
 343 01a8 1800     		movs	r0, r3
 344 01aa FFF7FEFF 		bl	simplePrintf
 111:main.c        ****     simplePrintf("\n* Systemy Wbudowane");
 345              		.loc 1 111 0
 346 01ae 2C4B     		ldr	r3, .L12+12
 347 01b0 1800     		movs	r0, r3
 348 01b2 FFF7FEFF 		bl	simplePrintf
 112:main.c        ****     simplePrintf("\n* Wydzial FTIMS");
 349              		.loc 1 112 0
 350 01b6 2B4B     		ldr	r3, .L12+16
 351 01b8 1800     		movs	r0, r3
 352 01ba FFF7FEFF 		bl	simplePrintf
 113:main.c        ****     simplePrintf("\n* Moj pierwszy program");
 353              		.loc 1 113 0
 354 01be 2A4B     		ldr	r3, .L12+20
 355 01c0 1800     		movs	r0, r3
 356 01c2 FFF7FEFF 		bl	simplePrintf
 114:main.c        ****     simplePrintf("\n*");
 357              		.loc 1 114 0
 358 01c6 254B     		ldr	r3, .L12+8
 359 01c8 1800     		movs	r0, r3
 360 01ca FFF7FEFF 		bl	simplePrintf
 115:main.c        ****     simplePrintf("\n*********************************************************");
 361              		.loc 1 115 0
 362 01ce 224B     		ldr	r3, .L12+4
 363 01d0 1800     		movs	r0, r3
 364 01d2 FFF7FEFF 		bl	simplePrintf
 116:main.c        **** 
 117:main.c        ****     /*********************************************************************
 118:main.c        ****      * Ta część inicjuje działanie programy
 119:main.c        ****      *********************************************************************/
 120:main.c        ****     // uruchomienie GPIO na nodze P1.16 i P1.17.
 121:main.c        ****     PINSEL2 &= ~(1 << 3);
 365              		.loc 1 121 0
 366 01d6 254B     		ldr	r3, .L12+24
 367 01d8 1A68     		ldr	r2, [r3]
 368 01da 244B     		ldr	r3, .L12+24
 369 01dc 0821     		movs	r1, #8
 370 01de 8A43     		bics	r2, r1
ARM GAS  C:\Users\embedded\AppData\Local\Temp\cca40R3I.s 			page 10


 371 01e0 1A60     		str	r2, [r3]
 122:main.c        ****     // Kierunek out na nodze P1.16
 123:main.c        ****     IODIR1 |= DIODA_LEWA; //(1 << 16);
 372              		.loc 1 123 0
 373 01e2 234B     		ldr	r3, .L12+28
 374 01e4 1A68     		ldr	r2, [r3]
 375 01e6 224B     		ldr	r3, .L12+28
 376 01e8 8021     		movs	r1, #128
 377 01ea 4902     		lsls	r1, r1, #9
 378 01ec 0A43     		orrs	r2, r1
 379 01ee 1A60     		str	r2, [r3]
 124:main.c        ****     // Kierunek out na nodze P1.17
 125:main.c        ****     IODIR1 |= DIODA_PRAWA; //(1 << 17);
 380              		.loc 1 125 0
 381 01f0 1F4B     		ldr	r3, .L12+28
 382 01f2 1A68     		ldr	r2, [r3]
 383 01f4 1E4B     		ldr	r3, .L12+28
 384 01f6 8021     		movs	r1, #128
 385 01f8 8902     		lsls	r1, r1, #10
 386 01fa 0A43     		orrs	r2, r1
 387 01fc 1A60     		str	r2, [r3]
 126:main.c        ****     // Uruchomienie przerwań co 1/2 s.
 127:main.c        ****     init_irq(500, 20);
 388              		.loc 1 127 0
 389 01fe FA23     		movs	r3, #250
 390 0200 5B00     		lsls	r3, r3, #1
 391 0202 1421     		movs	r1, #20
 392 0204 1800     		movs	r0, r3
 393 0206 FFF729FF 		bl	init_irq
 128:main.c        **** 
 129:main.c        ****     /**********************************************************************
 130:main.c        ****      * Ta część jest nieskończoną pętlą realizującą działania programu
 131:main.c        ****      * Należy jednak pamiętać, że część jego funkcjonalności realizowana
 132:main.c        ****      * jest za pomocą przerwań
 133:main.c        ****      **********************************************************************/
 134:main.c        ****     // Aktywne "mruganie" diodą
 135:main.c        ****     tBool dioda_swieci = FALSE;
 394              		.loc 1 135 0
 395 020a FB1D     		adds	r3, r7, #7
 396 020c 0022     		movs	r2, #0
 397 020e 1A70     		strb	r2, [r3]
 398              	.L11:
 136:main.c        ****     while (TRUE)
 137:main.c        ****     {
 138:main.c        ****     	if (dioda_swieci)
 399              		.loc 1 138 0
 400 0210 FB1D     		adds	r3, r7, #7
 401 0212 1B78     		ldrb	r3, [r3]
 402 0214 002B     		cmp	r3, #0
 403 0216 08D0     		beq	.L9
 139:main.c        ****         {
 140:main.c        ****     		IOSET1 = DIODA_LEWA; // (1 << 16);
 404              		.loc 1 140 0
 405 0218 164B     		ldr	r3, .L12+32
 406 021a 8022     		movs	r2, #128
 407 021c 5202     		lsls	r2, r2, #9
 408 021e 1A60     		str	r2, [r3]
ARM GAS  C:\Users\embedded\AppData\Local\Temp\cca40R3I.s 			page 11


 141:main.c        ****     		simplePrintf("Nie swieci\n");
 409              		.loc 1 141 0
 410 0220 154B     		ldr	r3, .L12+36
 411 0222 1800     		movs	r0, r3
 412 0224 FFF7FEFF 		bl	simplePrintf
 413 0228 07E0     		b	.L10
 414              	.L9:
 142:main.c        ****         }
 143:main.c        ****         else
 144:main.c        ****         {
 145:main.c        ****         	IOCLR1 = DIODA_LEWA; //(1 << 16);
 415              		.loc 1 145 0
 416 022a 144B     		ldr	r3, .L12+40
 417 022c 8022     		movs	r2, #128
 418 022e 5202     		lsls	r2, r2, #9
 419 0230 1A60     		str	r2, [r3]
 146:main.c        ****         	simplePrintf("Swieci\n");
 420              		.loc 1 146 0
 421 0232 134B     		ldr	r3, .L12+44
 422 0234 1800     		movs	r0, r3
 423 0236 FFF7FEFF 		bl	simplePrintf
 424              	.L10:
 147:main.c        ****         }
 148:main.c        ****     	dioda_swieci = !dioda_swieci;
 425              		.loc 1 148 0
 426 023a FB1D     		adds	r3, r7, #7
 427 023c 1B78     		ldrb	r3, [r3]
 428 023e 5A42     		rsbs	r2, r3, #0
 429 0240 5341     		adcs	r3, r3, r2
 430 0242 1B06     		lsls	r3, r3, #24
 431 0244 1A0E     		lsrs	r2, r3, #24
 432 0246 FB1D     		adds	r3, r7, #7
 433 0248 1A70     		strb	r2, [r3]
 149:main.c        ****         sdelay(1);  // czekaj 1 s
 434              		.loc 1 149 0
 435 024a 0120     		movs	r0, #1
 436 024c FFF7D8FE 		bl	sdelay
 138:main.c        ****         {
 437              		.loc 1 138 0
 438 0250 DEE7     		b	.L11
 439              	.L13:
 440 0252 C046     		.align	2
 441              	.L12:
 442 0254 00000000 		.word	.LC1
 443 0258 08000000 		.word	.LC3
 444 025c 44000000 		.word	.LC5
 445 0260 48000000 		.word	.LC7
 446 0264 60000000 		.word	.LC9
 447 0268 74000000 		.word	.LC11
 448 026c 14C002E0 		.word	-536690668
 449 0270 188002E0 		.word	-536707048
 450 0274 148002E0 		.word	-536707052
 451 0278 8C000000 		.word	.LC13
 452 027c 1C8002E0 		.word	-536707044
 453 0280 98000000 		.word	.LC15
 454              		.cfi_endproc
 455              	.LFE5:
ARM GAS  C:\Users\embedded\AppData\Local\Temp\cca40R3I.s 			page 12


 456              		.size	main, .-main
 457              	.Letext0:
 458              		.file 2 "general.h"
 459              		.file 3 "c:\\embedded\\tools\\arm-none-eabi\\include\\sys\\lock.h"
 460              		.file 4 "c:\\embedded\\tools\\arm-none-eabi\\include\\sys\\_types.h"
 461              		.file 5 "c:\\embedded\\tools\\lib\\gcc\\arm-none-eabi\\7.3.1\\include\\stddef.h"
 462              		.file 6 "c:\\embedded\\tools\\arm-none-eabi\\include\\sys\\reent.h"