ARM GAS  C:\Users\embedded\AppData\Local\Temp\ccYAJB2K.s 			page 1


   1              		.cpu arm7tdmi
   2              		.eabi_attribute 20, 1
   3              		.eabi_attribute 21, 1
   4              		.eabi_attribute 23, 3
   5              		.eabi_attribute 24, 1
   6              		.eabi_attribute 25, 1
   7              		.eabi_attribute 26, 1
   8              		.eabi_attribute 30, 6
   9              		.eabi_attribute 34, 0
  10              		.eabi_attribute 18, 4
  11              		.file	"main.c"
  12              		.text
  13              	.Ltext0:
  14              		.cfi_sections	.debug_frame
  15              		.section	.rodata
  16              		.align	2
  17              	.LC0:
  18 0000 416B7475 		.ascii	"Aktualny czas: \000"
  18      616C6E79 
  18      20637A61 
  18      733A2000 
  19              		.align	2
  20              	.LC2:
  21 0010 506F6D69 		.ascii	"Pomiar\012temperatury: \000"
  21      61720A74 
  21      656D7065 
  21      72617475 
  21      72793A20 
  22 0025 000000   		.align	2
  23              	.LC4:
  24 0028 506F6D69 		.ascii	"Pomiar\012wilgotnosci: \000"
  24      61720A77 
  24      696C676F 
  24      746E6F73 
  24      63693A20 
  25 003d 000000   		.align	2
  26              	.LC6:
  27 0040 256400   		.ascii	"%d\000"
  28 0043 00       		.align	2
  29              	.LC8:
  30 0044 506F6D69 		.ascii	"Pomiar\012jasnosci: \000"
  30      61720A6A 
  30      61736E6F 
  30      7363693A 
  30      2000
  31 0056 0000     		.align	2
  32              	.LC10:
  33 0058 506F6D69 		.ascii	"Pomiar\012cisnienia: \000"
  33      61720A63 
  33      69736E69 
  33      656E6961 
  33      3A2000
  34 006b 00       		.align	2
  35              	.LC12:
  36 006c 53746163 		.ascii	"Stacja pogody.\012Wybor funkcji\012przy pomocy\012j"
  36      6A612070 
  36      6F676F64 
ARM GAS  C:\Users\embedded\AppData\Local\Temp\ccYAJB2K.s 			page 2


  36      792E0A57 
  36      79626F72 
  37 0096 6F797374 		.ascii	"oystick'a:\012L - temperatura\012R - jasnosc\012G -"
  37      69636B27 
  37      613A0A4C 
  37      202D2074 
  37      656D7065 
  38 00c0 2077696C 		.ascii	" wilgotnosc\012D - cisnienie\000"
  38      676F746E 
  38      6F73630A 
  38      44202D20 
  38      6369736E 
  39              		.text
  40              		.align	1
  41              		.global	main
  42              		.syntax unified
  43              		.code	16
  44              		.thumb_func
  45              		.fpu softvfp
  46              		.type	main, %function
  47              	main:
  48              	.LFB0:
  49              		.file 1 "main.c"
   1:main.c        **** #include "general.h"
   2:main.c        **** #include <lpc2xxx.h>
   3:main.c        **** #include <printf_P.h>
   4:main.c        **** #include <printf_init.h>
   5:main.c        **** #include <consol.h>
   6:main.c        **** #include <config.h>
   7:main.c        **** #include "irq/irq_handler.h"
   8:main.c        **** #include "timer.h"
   9:main.c        **** #include "VIC.h"
  10:main.c        **** #include "i2c.h"
  11:main.c        **** 
  12:main.c        **** // Include'y do urządzeń peryferyjnych
  13:main.c        **** 
  14:main.c        **** #include "lm75.h"
  15:main.c        **** #include "htu21df.h"
  16:main.c        **** #include "bmp180.h"
  17:main.c        **** #include "tsl2561.h"
  18:main.c        **** 
  19:main.c        **** // End
  20:main.c        **** 
  21:main.c        **** #include "lcd.h"
  22:main.c        **** #include "pca9532.h"
  23:main.c        **** #include "additional.h"
  24:main.c        **** 
  25:main.c        **** #include "Common_Def.h"
  26:main.c        **** 
  27:main.c        **** /************************************************************************
  28:main.c        ****  * @Description: uruchomienie obsługi przerwań
  29:main.c        ****  * @Parameter:
  30:main.c        ****  *    [in] period    : okres generatora przerwań
  31:main.c        ****  *    [in] duty_cycle: wypełnienie w %
  32:main.c        ****  * @Returns: Nic
  33:main.c        ****  * @Side effects:
  34:main.c        ****  *    przeprogramowany timer #1
ARM GAS  C:\Users\embedded\AppData\Local\Temp\ccYAJB2K.s 			page 3


  35:main.c        ****  *************************************************************************/
  36:main.c        **** /*
  37:main.c        **** static void init_irq (tU32 period, tU8 duty_cycle)
  38:main.c        **** {
  39:main.c        **** 	//Zainicjuj VIC dla przerwań od Timera #1
  40:main.c        **** 	VICIntSelect &= ~TIMER_1_IRQ;           //Przerwanie od Timera #1 przypisane do IRQ (nie do FIQ)
  41:main.c        **** 	VICVectAddr5  = (tU32)IRQ_Test;         //adres procedury przerwania
  42:main.c        **** 	VICVectCntl5  = VIC_ENABLE_SLOT | TIMER_1_IRQ_NO;
  43:main.c        **** 	VICIntEnable  = TIMER_1_IRQ;            // Przypisanie i odblokowanie slotu w VIC od Timera #1
  44:main.c        **** 
  45:main.c        **** 	T1TCR = TIMER_RESET;                    //Zatrzymaj i zresetuj
  46:main.c        **** 	T1PR  = 0;                              //Preskaler nieużywany
  47:main.c        **** 	T1MR0 = ((tU64)period)*((tU64)PERIPHERAL_CLOCK)/1000;
  48:main.c        **** 	T1MR1 = (tU64)T1MR0 * duty_cycle / 100; //Wypełnienie
  49:main.c        **** 	T1IR  = TIMER_ALL_INT;                  //Resetowanie flag przerwań
  50:main.c        **** 	T1MCR = MR0_I | MR1_I | MR0_R;          //Generuj okresowe przerwania dla MR0 i dodatkowo dla MR1
  51:main.c        **** 	T1TCR = TIMER_RUN;                      //Uruchom timer
  52:main.c        **** }
  53:main.c        **** */
  54:main.c        **** 
  55:main.c        **** void printCurrentTime(void);
  56:main.c        **** 
  57:main.c        **** int main(void)
  58:main.c        **** {
  50              		.loc 1 58 0
  51              		.cfi_startproc
  52              		@ Function supports interworking.
  53              		@ args = 0, pretend = 0, frame = 40
  54              		@ frame_needed = 1, uses_anonymous_args = 0
  55 0000 B0B5     		push	{r4, r5, r7, lr}
  56              	.LCFI0:
  57              		.cfi_def_cfa_offset 16
  58              		.cfi_offset 4, -16
  59              		.cfi_offset 5, -12
  60              		.cfi_offset 7, -8
  61              		.cfi_offset 14, -4
  62 0002 8AB0     		sub	sp, sp, #40
  63              	.LCFI1:
  64              		.cfi_def_cfa_offset 56
  65 0004 00AF     		add	r7, sp, #0
  66              	.LCFI2:
  67              		.cfi_def_cfa_register 7
  59:main.c        **** 	tU8 pca9532Present = FALSE;
  68              		.loc 1 59 0
  69 0006 2725     		movs	r5, #39
  70 0008 7B19     		adds	r3, r7, r5
  71 000a 0022     		movs	r2, #0
  72 000c 1A70     		strb	r2, [r3]
  60:main.c        **** 	// check if connection with PCA9532
  61:main.c        **** 	i2cInit();
  73              		.loc 1 61 0
  74 000e FFF7FEFF 		bl	i2cInit
  62:main.c        **** 	pca9532Present = pca9532Init();
  75              		.loc 1 62 0
  76 0012 7C19     		adds	r4, r7, r5
  77 0014 FFF7FEFF 		bl	pca9532Init
  78 0018 0300     		movs	r3, r0
ARM GAS  C:\Users\embedded\AppData\Local\Temp\ccYAJB2K.s 			page 4


  79 001a 2370     		strb	r3, [r4]
  63:main.c        **** 	printf_init();
  80              		.loc 1 63 0
  81 001c FFF7FEFF 		bl	printf_init
  64:main.c        **** 	if ((tU8)TRUE == pca9532Present)
  82              		.loc 1 64 0
  83 0020 7B19     		adds	r3, r7, r5
  84 0022 1B78     		ldrb	r3, [r3]
  85 0024 012B     		cmp	r3, #1
  86 0026 00D0     		beq	.LCB32
  87 0028 DDE0     		b	.L2	@long jump
  88              	.LCB32:
  89              	.LBB2:
  65:main.c        **** 	{
  66:main.c        **** 
  67:main.c        **** 		lcdInit();
  90              		.loc 1 67 0
  91 002a FFF7FEFF 		bl	lcdInit
  68:main.c        **** 		lcdColor(0xff, 0x00);
  92              		.loc 1 68 0
  93 002e 0021     		movs	r1, #0
  94 0030 FF20     		movs	r0, #255
  95 0032 FFF7FEFF 		bl	lcdColor
  69:main.c        **** 		lcdClrscr();
  96              		.loc 1 69 0
  97 0036 FFF7FEFF 		bl	lcdClrscr
  70:main.c        **** 
  71:main.c        **** 		/*
  72:main.c        **** 			Inicjalizacja I2C
  73:main.c        **** 		*/
  74:main.c        **** 
  75:main.c        **** 		/*
  76:main.c        **** 			Main loop containg enitre program logic. With every iteration, joystick position is checked
  77:main.c        **** 			and based on that, appropriate measurement value.
  78:main.c        **** 		*/
  79:main.c        **** 		
  80:main.c        **** 		// Address of the LM75 thermometer, when not soldered. 
  81:main.c        **** 		// tU8 lm75Address = 0x9F;
  82:main.c        **** 		// Address of the LM75 thermometer, when soldered.
  83:main.c        **** 		tU8 charArray[10] = {0};
  98              		.loc 1 83 0
  99 003a 3B1D     		adds	r3, r7, #4
 100 003c 1800     		movs	r0, r3
 101 003e 0A23     		movs	r3, #10
 102 0040 1A00     		movs	r2, r3
 103 0042 0021     		movs	r1, #0
 104 0044 FFF7FEFF 		bl	memset
  84:main.c        **** 
  85:main.c        **** 		tU8 helperValue = (tU8)1;
 105              		.loc 1 85 0
 106 0048 2623     		movs	r3, #38
 107 004a FB18     		adds	r3, r7, r3
 108 004c 0122     		movs	r2, #1
 109 004e 1A70     		strb	r2, [r3]
  86:main.c        **** 		while (helperValue == (tU8)TRUE)
 110              		.loc 1 86 0
 111 0050 C3E0     		b	.L3
ARM GAS  C:\Users\embedded\AppData\Local\Temp\ccYAJB2K.s 			page 5


 112              	.L10:
  87:main.c        **** 		{
  88:main.c        **** 
  89:main.c        **** 			// Trzeba będzie napisać jak ustawiony ma być PINSEL.
  90:main.c        **** 
  91:main.c        **** 			// Check if P0.8 center-key is pressed
  92:main.c        **** 			if ((IOPIN & 0x00000100) == 0)
 113              		.loc 1 92 0
 114 0052 684B     		ldr	r3, .L12
 115 0054 1A68     		ldr	r2, [r3]
 116 0056 8023     		movs	r3, #128
 117 0058 5B00     		lsls	r3, r3, #1
 118 005a 1340     		ands	r3, r2
 119 005c 14D1     		bne	.L4
  93:main.c        **** 			{
  94:main.c        **** 				// Key P0.8 center-key is pressed
  95:main.c        **** 				lcdGotoxy(0, 0);
 120              		.loc 1 95 0
 121 005e 0021     		movs	r1, #0
 122 0060 0020     		movs	r0, #0
 123 0062 FFF7FEFF 		bl	lcdGotoxy
  96:main.c        **** 				lcdPuts("Aktualny czas: ");
 124              		.loc 1 96 0
 125 0066 644B     		ldr	r3, .L12+4
 126 0068 1800     		movs	r0, r3
 127 006a FFF7FEFF 		bl	lcdPuts
  97:main.c        **** 				lcdGotoxy(0, 15);
 128              		.loc 1 97 0
 129 006e 0F21     		movs	r1, #15
 130 0070 0020     		movs	r0, #0
 131 0072 FFF7FEFF 		bl	lcdGotoxy
  98:main.c        **** 			 	printCurrentTime();
 132              		.loc 1 98 0
 133 0076 FFF7FEFF 		bl	printCurrentTime
  99:main.c        **** 			 	manageLED(pca9532Present);
 134              		.loc 1 99 0
 135 007a 2723     		movs	r3, #39
 136 007c FB18     		adds	r3, r7, r3
 137 007e 1B78     		ldrb	r3, [r3]
 138 0080 1800     		movs	r0, r3
 139 0082 FFF7FEFF 		bl	manageLED
 140 0086 A3E0     		b	.L5
 141              	.L4:
 100:main.c        **** 			}
 101:main.c        **** 			else if ((IOPIN & 0x00000200) == 0)
 142              		.loc 1 101 0
 143 0088 5A4B     		ldr	r3, .L12
 144 008a 1A68     		ldr	r2, [r3]
 145 008c 8023     		movs	r3, #128
 146 008e 9B00     		lsls	r3, r3, #2
 147 0090 1340     		ands	r3, r2
 148 0092 14D1     		bne	.L6
 102:main.c        **** 			{
 103:main.c        **** 				// Key P0.9 left-key is pressed
 104:main.c        **** 				lcdGotoxy(0, 0);
 149              		.loc 1 104 0
 150 0094 0021     		movs	r1, #0
ARM GAS  C:\Users\embedded\AppData\Local\Temp\ccYAJB2K.s 			page 6


 151 0096 0020     		movs	r0, #0
 152 0098 FFF7FEFF 		bl	lcdGotoxy
 105:main.c        **** 				lcdPuts("Pomiar\ntemperatury: ");
 153              		.loc 1 105 0
 154 009c 574B     		ldr	r3, .L12+8
 155 009e 1800     		movs	r0, r3
 156 00a0 FFF7FEFF 		bl	lcdPuts
 106:main.c        **** 				lcdGotoxy(0, 30);
 157              		.loc 1 106 0
 158 00a4 1E21     		movs	r1, #30
 159 00a6 0020     		movs	r0, #0
 160 00a8 FFF7FEFF 		bl	lcdGotoxy
 107:main.c        **** 				measureTemperature();
 161              		.loc 1 107 0
 162 00ac FFF7FEFF 		bl	measureTemperature
 108:main.c        **** 				manageLED(pca9532Present);
 163              		.loc 1 108 0
 164 00b0 2723     		movs	r3, #39
 165 00b2 FB18     		adds	r3, r7, r3
 166 00b4 1B78     		ldrb	r3, [r3]
 167 00b6 1800     		movs	r0, r3
 168 00b8 FFF7FEFF 		bl	manageLED
 169 00bc 88E0     		b	.L5
 170              	.L6:
 109:main.c        **** 			}
 110:main.c        **** 			else if ((IOPIN & 0x00000400) == 0)
 171              		.loc 1 110 0
 172 00be 4D4B     		ldr	r3, .L12
 173 00c0 1A68     		ldr	r2, [r3]
 174 00c2 8023     		movs	r3, #128
 175 00c4 DB00     		lsls	r3, r3, #3
 176 00c6 1340     		ands	r3, r2
 177 00c8 24D1     		bne	.L7
 178              	.LBB3:
 111:main.c        **** 			{
 112:main.c        **** 				// Key P0.10 up-key is pressed
 113:main.c        **** 				lcdGotoxy(0, 0);
 179              		.loc 1 113 0
 180 00ca 0021     		movs	r1, #0
 181 00cc 0020     		movs	r0, #0
 182 00ce FFF7FEFF 		bl	lcdGotoxy
 114:main.c        **** 				lcdPuts("Pomiar\nwilgotnosci: ");
 183              		.loc 1 114 0
 184 00d2 4B4B     		ldr	r3, .L12+12
 185 00d4 1800     		movs	r0, r3
 186 00d6 FFF7FEFF 		bl	lcdPuts
 115:main.c        **** 				tU16 humidityValue = measureHumidity();
 187              		.loc 1 115 0
 188 00da FFF7FEFF 		bl	measureHumidity
 189 00de 0300     		movs	r3, r0
 190 00e0 1A00     		movs	r2, r3
 191 00e2 0E21     		movs	r1, #14
 192 00e4 7B18     		adds	r3, r7, r1
 193 00e6 1A80     		strh	r2, [r3]
 116:main.c        **** 				sprintf(charArray, "%d", humidityValue);
 194              		.loc 1 116 0
 195 00e8 7B18     		adds	r3, r7, r1
ARM GAS  C:\Users\embedded\AppData\Local\Temp\ccYAJB2K.s 			page 7


 196 00ea 1A88     		ldrh	r2, [r3]
 197 00ec 4549     		ldr	r1, .L12+16
 198 00ee 3B1D     		adds	r3, r7, #4
 199 00f0 1800     		movs	r0, r3
 200 00f2 FFF7FEFF 		bl	sprintf
 117:main.c        **** 				lcdGotoxy(0, 30);
 201              		.loc 1 117 0
 202 00f6 1E21     		movs	r1, #30
 203 00f8 0020     		movs	r0, #0
 204 00fa FFF7FEFF 		bl	lcdGotoxy
 118:main.c        **** 				lcdPuts(charArray);
 205              		.loc 1 118 0
 206 00fe 3B1D     		adds	r3, r7, #4
 207 0100 1800     		movs	r0, r3
 208 0102 FFF7FEFF 		bl	lcdPuts
 119:main.c        **** 				manageLED(pca9532Present);
 209              		.loc 1 119 0
 210 0106 2723     		movs	r3, #39
 211 0108 FB18     		adds	r3, r7, r3
 212 010a 1B78     		ldrb	r3, [r3]
 213 010c 1800     		movs	r0, r3
 214 010e FFF7FEFF 		bl	manageLED
 215              	.LBE3:
 216 0112 5DE0     		b	.L5
 217              	.L7:
 120:main.c        **** 			}
 121:main.c        **** 			else if ((IOPIN & 0x00000800) == 0)
 218              		.loc 1 121 0
 219 0114 374B     		ldr	r3, .L12
 220 0116 1A68     		ldr	r2, [r3]
 221 0118 8023     		movs	r3, #128
 222 011a 1B01     		lsls	r3, r3, #4
 223 011c 1340     		ands	r3, r2
 224 011e 24D1     		bne	.L8
 225              	.LBB4:
 122:main.c        **** 			{
 123:main.c        **** 				// Key P0.11 right-key is pressed
 124:main.c        **** 				lcdGotoxy(0, 0);
 226              		.loc 1 124 0
 227 0120 0021     		movs	r1, #0
 228 0122 0020     		movs	r0, #0
 229 0124 FFF7FEFF 		bl	lcdGotoxy
 125:main.c        **** 				lcdPuts("Pomiar\njasnosci: ");
 230              		.loc 1 125 0
 231 0128 374B     		ldr	r3, .L12+20
 232 012a 1800     		movs	r0, r3
 233 012c FFF7FEFF 		bl	lcdPuts
 126:main.c        **** 				tU64 brightnessValue = measureBrightness();
 234              		.loc 1 126 0
 235 0130 FFF7FEFF 		bl	measureBrightness
 236 0134 0300     		movs	r3, r0
 237 0136 0C00     		movs	r4, r1
 238 0138 3B61     		str	r3, [r7, #16]
 239 013a 7C61     		str	r4, [r7, #20]
 127:main.c        **** 				sprintf(charArray, "%d", brightnessValue);
 240              		.loc 1 127 0
 241 013c 3B69     		ldr	r3, [r7, #16]
ARM GAS  C:\Users\embedded\AppData\Local\Temp\ccYAJB2K.s 			page 8


 242 013e 7C69     		ldr	r4, [r7, #20]
 243 0140 3049     		ldr	r1, .L12+16
 244 0142 381D     		adds	r0, r7, #4
 245 0144 1A00     		movs	r2, r3
 246 0146 2300     		movs	r3, r4
 247 0148 FFF7FEFF 		bl	sprintf
 128:main.c        **** 				lcdGotoxy(0, 30);
 248              		.loc 1 128 0
 249 014c 1E21     		movs	r1, #30
 250 014e 0020     		movs	r0, #0
 251 0150 FFF7FEFF 		bl	lcdGotoxy
 129:main.c        **** 				lcdPuts(charArray);
 252              		.loc 1 129 0
 253 0154 3B1D     		adds	r3, r7, #4
 254 0156 1800     		movs	r0, r3
 255 0158 FFF7FEFF 		bl	lcdPuts
 130:main.c        **** 				manageLED(pca9532Present);
 256              		.loc 1 130 0
 257 015c 2723     		movs	r3, #39
 258 015e FB18     		adds	r3, r7, r3
 259 0160 1B78     		ldrb	r3, [r3]
 260 0162 1800     		movs	r0, r3
 261 0164 FFF7FEFF 		bl	manageLED
 262              	.LBE4:
 263 0168 32E0     		b	.L5
 264              	.L8:
 131:main.c        **** 			}
 132:main.c        **** 			else if ((IOPIN & 0x00001000) == 0)
 265              		.loc 1 132 0
 266 016a 224B     		ldr	r3, .L12
 267 016c 1A68     		ldr	r2, [r3]
 268 016e 8023     		movs	r3, #128
 269 0170 5B01     		lsls	r3, r3, #5
 270 0172 1340     		ands	r3, r2
 271 0174 24D1     		bne	.L9
 272              	.LBB5:
 133:main.c        **** 			{
 134:main.c        **** 				// Key P0.12 down-key is pressed
 135:main.c        **** 				lcdGotoxy(0, 0);
 273              		.loc 1 135 0
 274 0176 0021     		movs	r1, #0
 275 0178 0020     		movs	r0, #0
 276 017a FFF7FEFF 		bl	lcdGotoxy
 136:main.c        **** 				lcdPuts("Pomiar\ncisnienia: ");
 277              		.loc 1 136 0
 278 017e 234B     		ldr	r3, .L12+24
 279 0180 1800     		movs	r0, r3
 280 0182 FFF7FEFF 		bl	lcdPuts
 137:main.c        **** 				tS64 pressureValue = measurePressure();
 281              		.loc 1 137 0
 282 0186 FFF7FEFF 		bl	measurePressure
 283 018a 0300     		movs	r3, r0
 284 018c 0C00     		movs	r4, r1
 285 018e BB61     		str	r3, [r7, #24]
 286 0190 FC61     		str	r4, [r7, #28]
 138:main.c        **** 				sprintf(charArray, "%d", pressureValue);
 287              		.loc 1 138 0
ARM GAS  C:\Users\embedded\AppData\Local\Temp\ccYAJB2K.s 			page 9


 288 0192 BB69     		ldr	r3, [r7, #24]
 289 0194 FC69     		ldr	r4, [r7, #28]
 290 0196 1B49     		ldr	r1, .L12+16
 291 0198 381D     		adds	r0, r7, #4
 292 019a 1A00     		movs	r2, r3
 293 019c 2300     		movs	r3, r4
 294 019e FFF7FEFF 		bl	sprintf
 139:main.c        **** 				lcdGotoxy(0, 30);
 295              		.loc 1 139 0
 296 01a2 1E21     		movs	r1, #30
 297 01a4 0020     		movs	r0, #0
 298 01a6 FFF7FEFF 		bl	lcdGotoxy
 140:main.c        **** 				lcdPuts(charArray);
 299              		.loc 1 140 0
 300 01aa 3B1D     		adds	r3, r7, #4
 301 01ac 1800     		movs	r0, r3
 302 01ae FFF7FEFF 		bl	lcdPuts
 141:main.c        **** 				manageLED(pca9532Present);
 303              		.loc 1 141 0
 304 01b2 2723     		movs	r3, #39
 305 01b4 FB18     		adds	r3, r7, r3
 306 01b6 1B78     		ldrb	r3, [r3]
 307 01b8 1800     		movs	r0, r3
 308 01ba FFF7FEFF 		bl	manageLED
 309              	.LBE5:
 310 01be 07E0     		b	.L5
 311              	.L9:
 142:main.c        **** 			}
 143:main.c        **** 			else
 144:main.c        **** 			{
 145:main.c        **** 				// Joystick is not pressed at all.
 146:main.c        **** 				lcdGotoxy(0, 0);
 312              		.loc 1 146 0
 313 01c0 0021     		movs	r1, #0
 314 01c2 0020     		movs	r0, #0
 315 01c4 FFF7FEFF 		bl	lcdGotoxy
 147:main.c        **** 				lcdPuts("Stacja pogody.\nWybor funkcji\nprzy pomocy\njoystick'a:\nL - temperatura\nR - jasnosc\
 316              		.loc 1 147 0
 317 01c8 114B     		ldr	r3, .L12+28
 318 01ca 1800     		movs	r0, r3
 319 01cc FFF7FEFF 		bl	lcdPuts
 320              	.L5:
 148:main.c        **** 			}
 149:main.c        **** 			sdelay(1);
 321              		.loc 1 149 0
 322 01d0 0120     		movs	r0, #1
 323 01d2 FFF7FEFF 		bl	sdelay
 150:main.c        **** 			lcdClrscr();
 324              		.loc 1 150 0
 325 01d6 FFF7FEFF 		bl	lcdClrscr
 326              	.L3:
  86:main.c        **** 		{
 327              		.loc 1 86 0
 328 01da 2623     		movs	r3, #38
 329 01dc FB18     		adds	r3, r7, r3
 330 01de 1B78     		ldrb	r3, [r3]
 331 01e0 012B     		cmp	r3, #1
ARM GAS  C:\Users\embedded\AppData\Local\Temp\ccYAJB2K.s 			page 10


 332 01e2 00D1     		bne	.LCB245
 333 01e4 35E7     		b	.L10	@long jump
 334              	.LCB245:
 335              	.L2:
 336              	.LBE2:
 337 01e6 0023     		movs	r3, #0
 151:main.c        **** 		}
 152:main.c        **** 	}
 153:main.c        **** }
 338              		.loc 1 153 0
 339 01e8 1800     		movs	r0, r3
 340 01ea BD46     		mov	sp, r7
 341 01ec 0AB0     		add	sp, sp, #40
 342              		@ sp needed
 343 01ee B0BC     		pop	{r4, r5, r7}
 344 01f0 02BC     		pop	{r1}
 345 01f2 0847     		bx	r1
 346              	.L13:
 347              		.align	2
 348              	.L12:
 349 01f4 008002E0 		.word	-536707072
 350 01f8 00000000 		.word	.LC0
 351 01fc 10000000 		.word	.LC2
 352 0200 28000000 		.word	.LC4
 353 0204 40000000 		.word	.LC6
 354 0208 44000000 		.word	.LC8
 355 020c 58000000 		.word	.LC10
 356 0210 6C000000 		.word	.LC12
 357              		.cfi_endproc
 358              	.LFE0:
 359              		.size	main, .-main
 360              		.global	__aeabi_uidiv
 361              		.align	1
 362              		.global	printCurrentTime
 363              		.syntax unified
 364              		.code	16
 365              		.thumb_func
 366              		.fpu softvfp
 367              		.type	printCurrentTime, %function
 368              	printCurrentTime:
 369              	.LFB1:
 154:main.c        **** 
 155:main.c        **** /*
 156:main.c        ****  * @brief   Funkcja printCurrentTime() służy do wyświetlenia aktualnego czasu względem zegara
 157:main.c        ****  * 			czasu rzeczywistego (RTC) w formacie HH:MM:SS (gdzie H - oznacza godzinę, M - minutę,
 158:main.c        ****  *			a S - sekundę).
 159:main.c        ****  *
 160:main.c        ****  * @param   void
 161:main.c        ****  *
 162:main.c        ****  * @returns void
 163:main.c        ****  *
 164:main.c        ****  * @side effects:
 165:main.c        ****  *          Wyświetlany czas jest zależy od wartości inicjalizującej zegar czasu reczywistego (
 166:main.c        ****  * 			gdzie w tym przypadku nie jest on inicjalizowany.
 167:main.c        ****  */
 168:main.c        **** 
 169:main.c        **** void printCurrentTime(void)
ARM GAS  C:\Users\embedded\AppData\Local\Temp\ccYAJB2K.s 			page 11


 170:main.c        **** {
 370              		.loc 1 170 0
 371              		.cfi_startproc
 372              		@ Function supports interworking.
 373              		@ args = 0, pretend = 0, frame = 16
 374              		@ frame_needed = 1, uses_anonymous_args = 0
 375 0214 80B5     		push	{r7, lr}
 376              	.LCFI3:
 377              		.cfi_def_cfa_offset 8
 378              		.cfi_offset 7, -8
 379              		.cfi_offset 14, -4
 380 0216 84B0     		sub	sp, sp, #16
 381              	.LCFI4:
 382              		.cfi_def_cfa_offset 24
 383 0218 00AF     		add	r7, sp, #0
 384              	.LCFI5:
 385              		.cfi_def_cfa_register 7
 171:main.c        **** 	// TODO: Write comments to below code
 172:main.c        **** 	RTC_CCR = 0x00000010;
 386              		.loc 1 172 0
 387 021a 6A4B     		ldr	r3, .L21
 388 021c 1022     		movs	r2, #16
 389 021e 1A60     		str	r2, [r3]
 173:main.c        **** 	RTC_ILR = 0x00000000;
 390              		.loc 1 173 0
 391 0220 694B     		ldr	r3, .L21+4
 392 0222 0022     		movs	r2, #0
 393 0224 1A60     		str	r2, [r3]
 174:main.c        **** 	RTC_CIIR = 0x00000000;
 394              		.loc 1 174 0
 395 0226 694B     		ldr	r3, .L21+8
 396 0228 0022     		movs	r2, #0
 397 022a 1A60     		str	r2, [r3]
 175:main.c        **** 	RTC_AMR = 0x00000000;
 398              		.loc 1 175 0
 399 022c 684B     		ldr	r3, .L21+12
 400 022e 0022     		movs	r2, #0
 401 0230 1A60     		str	r2, [r3]
 176:main.c        **** 	mdelay(100);
 402              		.loc 1 176 0
 403 0232 6420     		movs	r0, #100
 404 0234 FFF7FEFF 		bl	mdelay
 177:main.c        **** 	RTC_CCR = 0x00000011;
 405              		.loc 1 177 0
 406 0238 624B     		ldr	r3, .L21
 407 023a 1122     		movs	r2, #17
 408 023c 1A60     		str	r2, [r3]
 178:main.c        **** 	// Till here
 179:main.c        **** 
 180:main.c        **** 	tU8 fullHourTable[9] = {0};
 409              		.loc 1 180 0
 410 023e 3B1D     		adds	r3, r7, #4
 411 0240 1800     		movs	r0, r3
 412 0242 0923     		movs	r3, #9
 413 0244 1A00     		movs	r2, r3
 414 0246 0021     		movs	r1, #0
 415 0248 FFF7FEFF 		bl	memset
ARM GAS  C:\Users\embedded\AppData\Local\Temp\ccYAJB2K.s 			page 12


 181:main.c        **** 	fullHourTable[2] = ':';
 416              		.loc 1 181 0
 417 024c 3B1D     		adds	r3, r7, #4
 418 024e 3A22     		movs	r2, #58
 419 0250 9A70     		strb	r2, [r3, #2]
 182:main.c        **** 	fullHourTable[5] = ':';
 420              		.loc 1 182 0
 421 0252 3B1D     		adds	r3, r7, #4
 422 0254 3A22     		movs	r2, #58
 423 0256 5A71     		strb	r2, [r3, #5]
 183:main.c        **** 	if (RTC_SEC < 10) {
 424              		.loc 1 183 0
 425 0258 5E4B     		ldr	r3, .L21+16
 426 025a 1B68     		ldr	r3, [r3]
 427 025c 092B     		cmp	r3, #9
 428 025e 0CD8     		bhi	.L15
 184:main.c        **** 		fullHourTable[6] = '0'; 			// Ascii code for '0'.
 429              		.loc 1 184 0
 430 0260 3B1D     		adds	r3, r7, #4
 431 0262 3022     		movs	r2, #48
 432 0264 9A71     		strb	r2, [r3, #6]
 185:main.c        **** 		fullHourTable[7] = RTC_SEC + '0'; 	// Ascii code for '0'.
 433              		.loc 1 185 0
 434 0266 5B4B     		ldr	r3, .L21+16
 435 0268 1B68     		ldr	r3, [r3]
 436 026a 1B06     		lsls	r3, r3, #24
 437 026c 1B0E     		lsrs	r3, r3, #24
 438 026e 3033     		adds	r3, r3, #48
 439 0270 1B06     		lsls	r3, r3, #24
 440 0272 1A0E     		lsrs	r2, r3, #24
 441 0274 3B1D     		adds	r3, r7, #4
 442 0276 DA71     		strb	r2, [r3, #7]
 443 0278 27E0     		b	.L16
 444              	.L15:
 445              	.LBB6:
 186:main.c        **** 	} else {
 187:main.c        **** 		tU8 div = RTC_SEC / 10;
 446              		.loc 1 187 0
 447 027a 564B     		ldr	r3, .L21+16
 448 027c 1B68     		ldr	r3, [r3]
 449 027e 0A21     		movs	r1, #10
 450 0280 1800     		movs	r0, r3
 451 0282 FFF7FEFF 		bl	__aeabi_uidiv
 452              	.LVL0:
 453 0286 0300     		movs	r3, r0
 454 0288 1A00     		movs	r2, r3
 455 028a 0F21     		movs	r1, #15
 456 028c 7B18     		adds	r3, r7, r1
 457 028e 1A70     		strb	r2, [r3]
 188:main.c        **** 		fullHourTable[6] = div + '0';
 458              		.loc 1 188 0
 459 0290 7B18     		adds	r3, r7, r1
 460 0292 1B78     		ldrb	r3, [r3]
 461 0294 3033     		adds	r3, r3, #48
 462 0296 1B06     		lsls	r3, r3, #24
 463 0298 1A0E     		lsrs	r2, r3, #24
 464 029a 3B1D     		adds	r3, r7, #4
ARM GAS  C:\Users\embedded\AppData\Local\Temp\ccYAJB2K.s 			page 13


 465 029c 9A71     		strb	r2, [r3, #6]
 189:main.c        **** 		fullHourTable[7] = ((tU8)RTC_SEC - (div * (tU8)10)) + '0';
 466              		.loc 1 189 0
 467 029e 4D4B     		ldr	r3, .L21+16
 468 02a0 1B68     		ldr	r3, [r3]
 469 02a2 1B06     		lsls	r3, r3, #24
 470 02a4 1A0E     		lsrs	r2, r3, #24
 471 02a6 7B18     		adds	r3, r7, r1
 472 02a8 1B78     		ldrb	r3, [r3]
 473 02aa 191C     		adds	r1, r3, #0
 474 02ac 4901     		lsls	r1, r1, #5
 475 02ae C91A     		subs	r1, r1, r3
 476 02b0 8900     		lsls	r1, r1, #2
 477 02b2 CB1A     		subs	r3, r1, r3
 478 02b4 DB18     		adds	r3, r3, r3
 479 02b6 1B06     		lsls	r3, r3, #24
 480 02b8 1B0E     		lsrs	r3, r3, #24
 481 02ba D318     		adds	r3, r2, r3
 482 02bc 1B06     		lsls	r3, r3, #24
 483 02be 1B0E     		lsrs	r3, r3, #24
 484 02c0 3033     		adds	r3, r3, #48
 485 02c2 1B06     		lsls	r3, r3, #24
 486 02c4 1A0E     		lsrs	r2, r3, #24
 487 02c6 3B1D     		adds	r3, r7, #4
 488 02c8 DA71     		strb	r2, [r3, #7]
 489              	.L16:
 490              	.LBE6:
 190:main.c        **** 	}
 191:main.c        **** 	
 192:main.c        **** 	if (RTC_MIN < 10) {
 491              		.loc 1 192 0
 492 02ca 434B     		ldr	r3, .L21+20
 493 02cc 1B68     		ldr	r3, [r3]
 494 02ce 092B     		cmp	r3, #9
 495 02d0 0CD8     		bhi	.L17
 193:main.c        **** 		fullHourTable[3] = '0';				// Ascii code for '0'.
 496              		.loc 1 193 0
 497 02d2 3B1D     		adds	r3, r7, #4
 498 02d4 3022     		movs	r2, #48
 499 02d6 DA70     		strb	r2, [r3, #3]
 194:main.c        **** 		fullHourTable[4] = RTC_MIN + '0';	// Ascii code for '0'.
 500              		.loc 1 194 0
 501 02d8 3F4B     		ldr	r3, .L21+20
 502 02da 1B68     		ldr	r3, [r3]
 503 02dc 1B06     		lsls	r3, r3, #24
 504 02de 1B0E     		lsrs	r3, r3, #24
 505 02e0 3033     		adds	r3, r3, #48
 506 02e2 1B06     		lsls	r3, r3, #24
 507 02e4 1A0E     		lsrs	r2, r3, #24
 508 02e6 3B1D     		adds	r3, r7, #4
 509 02e8 1A71     		strb	r2, [r3, #4]
 510 02ea 27E0     		b	.L18
 511              	.L17:
 512              	.LBB7:
 195:main.c        **** 	} else {
 196:main.c        **** 		tU8 div = RTC_MIN / 10;
 513              		.loc 1 196 0
ARM GAS  C:\Users\embedded\AppData\Local\Temp\ccYAJB2K.s 			page 14


 514 02ec 3A4B     		ldr	r3, .L21+20
 515 02ee 1B68     		ldr	r3, [r3]
 516 02f0 0A21     		movs	r1, #10
 517 02f2 1800     		movs	r0, r3
 518 02f4 FFF7FEFF 		bl	__aeabi_uidiv
 519              	.LVL1:
 520 02f8 0300     		movs	r3, r0
 521 02fa 1A00     		movs	r2, r3
 522 02fc 0E21     		movs	r1, #14
 523 02fe 7B18     		adds	r3, r7, r1
 524 0300 1A70     		strb	r2, [r3]
 197:main.c        **** 		fullHourTable[3] = div + '0';
 525              		.loc 1 197 0
 526 0302 7B18     		adds	r3, r7, r1
 527 0304 1B78     		ldrb	r3, [r3]
 528 0306 3033     		adds	r3, r3, #48
 529 0308 1B06     		lsls	r3, r3, #24
 530 030a 1A0E     		lsrs	r2, r3, #24
 531 030c 3B1D     		adds	r3, r7, #4
 532 030e DA70     		strb	r2, [r3, #3]
 198:main.c        **** 		fullHourTable[4] = ((tU8)RTC_MIN - (div * (tU8)10)) + '0';
 533              		.loc 1 198 0
 534 0310 314B     		ldr	r3, .L21+20
 535 0312 1B68     		ldr	r3, [r3]
 536 0314 1B06     		lsls	r3, r3, #24
 537 0316 1A0E     		lsrs	r2, r3, #24
 538 0318 7B18     		adds	r3, r7, r1
 539 031a 1B78     		ldrb	r3, [r3]
 540 031c 191C     		adds	r1, r3, #0
 541 031e 4901     		lsls	r1, r1, #5
 542 0320 C91A     		subs	r1, r1, r3
 543 0322 8900     		lsls	r1, r1, #2
 544 0324 CB1A     		subs	r3, r1, r3
 545 0326 DB18     		adds	r3, r3, r3
 546 0328 1B06     		lsls	r3, r3, #24
 547 032a 1B0E     		lsrs	r3, r3, #24
 548 032c D318     		adds	r3, r2, r3
 549 032e 1B06     		lsls	r3, r3, #24
 550 0330 1B0E     		lsrs	r3, r3, #24
 551 0332 3033     		adds	r3, r3, #48
 552 0334 1B06     		lsls	r3, r3, #24
 553 0336 1A0E     		lsrs	r2, r3, #24
 554 0338 3B1D     		adds	r3, r7, #4
 555 033a 1A71     		strb	r2, [r3, #4]
 556              	.L18:
 557              	.LBE7:
 199:main.c        **** 	}
 200:main.c        **** 	
 201:main.c        **** 	if (RTC_HOUR < 10){
 558              		.loc 1 201 0
 559 033c 274B     		ldr	r3, .L21+24
 560 033e 1B68     		ldr	r3, [r3]
 561 0340 092B     		cmp	r3, #9
 562 0342 0CD8     		bhi	.L19
 202:main.c        **** 		fullHourTable[0] = '0';			// Ascii code for '0'.
 563              		.loc 1 202 0
 564 0344 3B1D     		adds	r3, r7, #4
ARM GAS  C:\Users\embedded\AppData\Local\Temp\ccYAJB2K.s 			page 15


 565 0346 3022     		movs	r2, #48
 566 0348 1A70     		strb	r2, [r3]
 203:main.c        **** 		fullHourTable[1] = RTC_HOUR + '0';	// Ascii code for '0'.
 567              		.loc 1 203 0
 568 034a 244B     		ldr	r3, .L21+24
 569 034c 1B68     		ldr	r3, [r3]
 570 034e 1B06     		lsls	r3, r3, #24
 571 0350 1B0E     		lsrs	r3, r3, #24
 572 0352 3033     		adds	r3, r3, #48
 573 0354 1B06     		lsls	r3, r3, #24
 574 0356 1A0E     		lsrs	r2, r3, #24
 575 0358 3B1D     		adds	r3, r7, #4
 576 035a 5A70     		strb	r2, [r3, #1]
 577 035c 27E0     		b	.L20
 578              	.L19:
 579              	.LBB8:
 204:main.c        **** 	} else {
 205:main.c        **** 		tU8 div = RTC_HOUR / 10;
 580              		.loc 1 205 0
 581 035e 1F4B     		ldr	r3, .L21+24
 582 0360 1B68     		ldr	r3, [r3]
 583 0362 0A21     		movs	r1, #10
 584 0364 1800     		movs	r0, r3
 585 0366 FFF7FEFF 		bl	__aeabi_uidiv
 586              	.LVL2:
 587 036a 0300     		movs	r3, r0
 588 036c 1A00     		movs	r2, r3
 589 036e 0D21     		movs	r1, #13
 590 0370 7B18     		adds	r3, r7, r1
 591 0372 1A70     		strb	r2, [r3]
 206:main.c        **** 		fullHourTable[0] = div + '0';
 592              		.loc 1 206 0
 593 0374 7B18     		adds	r3, r7, r1
 594 0376 1B78     		ldrb	r3, [r3]
 595 0378 3033     		adds	r3, r3, #48
 596 037a 1B06     		lsls	r3, r3, #24
 597 037c 1A0E     		lsrs	r2, r3, #24
 598 037e 3B1D     		adds	r3, r7, #4
 599 0380 1A70     		strb	r2, [r3]
 207:main.c        **** 		fullHourTable[1] = ((tU8)RTC_HOUR - (div * (tU8)10)) + '0';
 600              		.loc 1 207 0
 601 0382 164B     		ldr	r3, .L21+24
 602 0384 1B68     		ldr	r3, [r3]
 603 0386 1B06     		lsls	r3, r3, #24
 604 0388 1A0E     		lsrs	r2, r3, #24
 605 038a 7B18     		adds	r3, r7, r1
 606 038c 1B78     		ldrb	r3, [r3]
 607 038e 191C     		adds	r1, r3, #0
 608 0390 4901     		lsls	r1, r1, #5
 609 0392 C91A     		subs	r1, r1, r3
 610 0394 8900     		lsls	r1, r1, #2
 611 0396 CB1A     		subs	r3, r1, r3
 612 0398 DB18     		adds	r3, r3, r3
 613 039a 1B06     		lsls	r3, r3, #24
 614 039c 1B0E     		lsrs	r3, r3, #24
 615 039e D318     		adds	r3, r2, r3
 616 03a0 1B06     		lsls	r3, r3, #24
ARM GAS  C:\Users\embedded\AppData\Local\Temp\ccYAJB2K.s 			page 16


 617 03a2 1B0E     		lsrs	r3, r3, #24
 618 03a4 3033     		adds	r3, r3, #48
 619 03a6 1B06     		lsls	r3, r3, #24
 620 03a8 1A0E     		lsrs	r2, r3, #24
 621 03aa 3B1D     		adds	r3, r7, #4
 622 03ac 5A70     		strb	r2, [r3, #1]
 623              	.L20:
 624              	.LBE8:
 208:main.c        **** 	}
 209:main.c        **** 
 210:main.c        **** 	lcdPuts(fullHourTable);
 625              		.loc 1 210 0
 626 03ae 3B1D     		adds	r3, r7, #4
 627 03b0 1800     		movs	r0, r3
 628 03b2 FFF7FEFF 		bl	lcdPuts
 211:main.c        **** }
 629              		.loc 1 211 0
 630 03b6 C046     		nop
 631 03b8 BD46     		mov	sp, r7
 632 03ba 04B0     		add	sp, sp, #16
 633              		@ sp needed
 634 03bc 80BC     		pop	{r7}
 635 03be 01BC     		pop	{r0}
 636 03c0 0047     		bx	r0
 637              	.L22:
 638 03c2 C046     		.align	2
 639              	.L21:
 640 03c4 084002E0 		.word	-536723448
 641 03c8 004002E0 		.word	-536723456
 642 03cc 0C4002E0 		.word	-536723444
 643 03d0 104002E0 		.word	-536723440
 644 03d4 204002E0 		.word	-536723424
 645 03d8 244002E0 		.word	-536723420
 646 03dc 284002E0 		.word	-536723416
 647              		.cfi_endproc
 648              	.LFE1:
 649              		.size	printCurrentTime, .-printCurrentTime
 650              	.Letext0:
 651              		.file 2 "general.h"
 652              		.file 3 "c:\\embedded\\tools\\arm-none-eabi\\include\\sys\\lock.h"
 653              		.file 4 "c:\\embedded\\tools\\arm-none-eabi\\include\\sys\\_types.h"
 654              		.file 5 "c:\\embedded\\tools\\lib\\gcc\\arm-none-eabi\\7.3.1\\include\\stddef.h"
 655              		.file 6 "c:\\embedded\\tools\\arm-none-eabi\\include\\sys\\reent.h"
 656              		.file 7 "c:\\embedded\\tools\\arm-none-eabi\\include\\math.h"
 657              		.file 8 "<built-in>"
 658              		.section	.debug_info,"",%progbits
 659              	.Ldebug_info0:
 660 0000 840B0000 		.4byte	0xb84
 661 0004 0200     		.2byte	0x2
 662 0006 00000000 		.4byte	.Ldebug_abbrev0
 663 000a 04       		.byte	0x4
 664 000b 01       		.uleb128 0x1
 665 000c 27030000 		.4byte	.LASF141
 666 0010 0C       		.byte	0xc
 667 0011 8C020000 		.4byte	.LASF142
 668 0015 FD020000 		.4byte	.LASF143
 669 0019 00000000 		.4byte	.Ltext0
ARM GAS  C:\Users\embedded\AppData\Local\Temp\ccYAJB2K.s 			page 17


 670 001d E0030000 		.4byte	.Letext0
 671 0021 00000000 		.4byte	.Ldebug_line0
 672 0025 02       		.uleb128 0x2
 673 0026 74553800 		.ascii	"tU8\000"
 674 002a 02       		.byte	0x2
 675 002b 17       		.byte	0x17
 676 002c 30000000 		.4byte	0x30
 677 0030 03       		.uleb128 0x3
 678 0031 01       		.byte	0x1
 679 0032 08       		.byte	0x8
 680 0033 D2030000 		.4byte	.LASF1
 681 0037 04       		.uleb128 0x4
 682 0038 22010000 		.4byte	.LASF0
 683 003c 02       		.byte	0x2
 684 003d 18       		.byte	0x18
 685 003e 42000000 		.4byte	0x42
 686 0042 03       		.uleb128 0x3
 687 0043 02       		.byte	0x2
 688 0044 07       		.byte	0x7
 689 0045 33020000 		.4byte	.LASF2
 690 0049 03       		.uleb128 0x3
 691 004a 04       		.byte	0x4
 692 004b 07       		.byte	0x7
 693 004c F0010000 		.4byte	.LASF3
 694 0050 04       		.uleb128 0x4
 695 0051 42050000 		.4byte	.LASF4
 696 0055 02       		.byte	0x2
 697 0056 1A       		.byte	0x1a
 698 0057 5B000000 		.4byte	0x5b
 699 005b 03       		.uleb128 0x3
 700 005c 08       		.byte	0x8
 701 005d 07       		.byte	0x7
 702 005e 5D000000 		.4byte	.LASF5
 703 0062 03       		.uleb128 0x3
 704 0063 01       		.byte	0x1
 705 0064 06       		.byte	0x6
 706 0065 CC000000 		.4byte	.LASF6
 707 0069 03       		.uleb128 0x3
 708 006a 02       		.byte	0x2
 709 006b 05       		.byte	0x5
 710 006c EE030000 		.4byte	.LASF7
 711 0070 05       		.uleb128 0x5
 712 0071 04       		.byte	0x4
 713 0072 05       		.byte	0x5
 714 0073 696E7400 		.ascii	"int\000"
 715 0077 04       		.uleb128 0x4
 716 0078 30010000 		.4byte	.LASF8
 717 007c 02       		.byte	0x2
 718 007d 1E       		.byte	0x1e
 719 007e 82000000 		.4byte	0x82
 720 0082 03       		.uleb128 0x3
 721 0083 08       		.byte	0x8
 722 0084 05       		.byte	0x5
 723 0085 BE000000 		.4byte	.LASF9
 724 0089 06       		.uleb128 0x6
 725 008a 07       		.byte	0x7
 726 008b 01       		.byte	0x1
ARM GAS  C:\Users\embedded\AppData\Local\Temp\ccYAJB2K.s 			page 18


 727 008c 30000000 		.4byte	0x30
 728 0090 02       		.byte	0x2
 729 0091 1F       		.byte	0x1f
 730 0092 A3000000 		.4byte	0xa3
 731 0096 07       		.uleb128 0x7
 732 0097 21030000 		.4byte	.LASF10
 733 009b 00       		.byte	0
 734 009c 07       		.uleb128 0x7
 735 009d A6040000 		.4byte	.LASF11
 736 00a1 01       		.byte	0x1
 737 00a2 00       		.byte	0
 738 00a3 03       		.uleb128 0x3
 739 00a4 08       		.byte	0x8
 740 00a5 04       		.byte	0x4
 741 00a6 B9020000 		.4byte	.LASF12
 742 00aa 03       		.uleb128 0x3
 743 00ab 04       		.byte	0x4
 744 00ac 05       		.byte	0x5
 745 00ad 27010000 		.4byte	.LASF13
 746 00b1 03       		.uleb128 0x3
 747 00b2 04       		.byte	0x4
 748 00b3 07       		.byte	0x7
 749 00b4 14020000 		.4byte	.LASF14
 750 00b8 04       		.uleb128 0x4
 751 00b9 84020000 		.4byte	.LASF15
 752 00bd 03       		.byte	0x3
 753 00be 22       		.byte	0x22
 754 00bf C3000000 		.4byte	0xc3
 755 00c3 08       		.uleb128 0x8
 756 00c4 04       		.byte	0x4
 757 00c5 C9000000 		.4byte	0xc9
 758 00c9 09       		.uleb128 0x9
 759 00ca C0040000 		.4byte	.LASF122
 760 00ce 01       		.byte	0x1
 761 00cf 04       		.uleb128 0x4
 762 00d0 E8020000 		.4byte	.LASF16
 763 00d4 04       		.byte	0x4
 764 00d5 2C       		.byte	0x2c
 765 00d6 AA000000 		.4byte	0xaa
 766 00da 04       		.uleb128 0x4
 767 00db E1040000 		.4byte	.LASF17
 768 00df 04       		.byte	0x4
 769 00e0 72       		.byte	0x72
 770 00e1 AA000000 		.4byte	0xaa
 771 00e5 0A       		.uleb128 0xa
 772 00e6 93020000 		.4byte	.LASF18
 773 00ea 05       		.byte	0x5
 774 00eb 6501     		.2byte	0x165
 775 00ed 49000000 		.4byte	0x49
 776 00f1 0B       		.uleb128 0xb
 777 00f2 04       		.byte	0x4
 778 00f3 04       		.byte	0x4
 779 00f4 A6       		.byte	0xa6
 780 00f5 10010000 		.4byte	0x110
 781 00f9 0C       		.uleb128 0xc
 782 00fa 7E020000 		.4byte	.LASF19
 783 00fe 04       		.byte	0x4
ARM GAS  C:\Users\embedded\AppData\Local\Temp\ccYAJB2K.s 			page 19


 784 00ff A8       		.byte	0xa8
 785 0100 E5000000 		.4byte	0xe5
 786 0104 0C       		.uleb128 0xc
 787 0105 FD010000 		.4byte	.LASF20
 788 0109 04       		.byte	0x4
 789 010a A9       		.byte	0xa9
 790 010b 10010000 		.4byte	0x110
 791 010f 00       		.byte	0
 792 0110 0D       		.uleb128 0xd
 793 0111 30000000 		.4byte	0x30
 794 0115 20010000 		.4byte	0x120
 795 0119 0E       		.uleb128 0xe
 796 011a 49000000 		.4byte	0x49
 797 011e 03       		.byte	0x3
 798 011f 00       		.byte	0
 799 0120 0F       		.uleb128 0xf
 800 0121 08       		.byte	0x8
 801 0122 04       		.byte	0x4
 802 0123 A3       		.byte	0xa3
 803 0124 45010000 		.4byte	0x145
 804 0128 10       		.uleb128 0x10
 805 0129 B8040000 		.4byte	.LASF21
 806 012d 04       		.byte	0x4
 807 012e A5       		.byte	0xa5
 808 012f 70000000 		.4byte	0x70
 809 0133 02       		.byte	0x2
 810 0134 23       		.byte	0x23
 811 0135 00       		.uleb128 0
 812 0136 10       		.uleb128 0x10
 813 0137 C7040000 		.4byte	.LASF22
 814 013b 04       		.byte	0x4
 815 013c AA       		.byte	0xaa
 816 013d F1000000 		.4byte	0xf1
 817 0141 02       		.byte	0x2
 818 0142 23       		.byte	0x23
 819 0143 04       		.uleb128 0x4
 820 0144 00       		.byte	0
 821 0145 04       		.uleb128 0x4
 822 0146 2A040000 		.4byte	.LASF23
 823 014a 04       		.byte	0x4
 824 014b AB       		.byte	0xab
 825 014c 20010000 		.4byte	0x120
 826 0150 04       		.uleb128 0x4
 827 0151 B3010000 		.4byte	.LASF24
 828 0155 04       		.byte	0x4
 829 0156 AF       		.byte	0xaf
 830 0157 B8000000 		.4byte	0xb8
 831 015b 11       		.uleb128 0x11
 832 015c 04       		.byte	0x4
 833 015d 08       		.uleb128 0x8
 834 015e 04       		.byte	0x4
 835 015f 63010000 		.4byte	0x163
 836 0163 03       		.uleb128 0x3
 837 0164 01       		.byte	0x1
 838 0165 08       		.byte	0x8
 839 0166 F0040000 		.4byte	.LASF25
 840 016a 12       		.uleb128 0x12
ARM GAS  C:\Users\embedded\AppData\Local\Temp\ccYAJB2K.s 			page 20


 841 016b 63010000 		.4byte	0x163
 842 016f 04       		.uleb128 0x4
 843 0170 2D050000 		.4byte	.LASF26
 844 0174 06       		.byte	0x6
 845 0175 16       		.byte	0x16
 846 0176 B1000000 		.4byte	0xb1
 847 017a 13       		.uleb128 0x13
 848 017b C4010000 		.4byte	.LASF31
 849 017f 18       		.byte	0x18
 850 0180 06       		.byte	0x6
 851 0181 2F       		.byte	0x2f
 852 0182 D9010000 		.4byte	0x1d9
 853 0186 10       		.uleb128 0x10
 854 0187 04050000 		.4byte	.LASF27
 855 018b 06       		.byte	0x6
 856 018c 31       		.byte	0x31
 857 018d D9010000 		.4byte	0x1d9
 858 0191 02       		.byte	0x2
 859 0192 23       		.byte	0x23
 860 0193 00       		.uleb128 0
 861 0194 14       		.uleb128 0x14
 862 0195 5F6B00   		.ascii	"_k\000"
 863 0198 06       		.byte	0x6
 864 0199 32       		.byte	0x32
 865 019a 70000000 		.4byte	0x70
 866 019e 02       		.byte	0x2
 867 019f 23       		.byte	0x23
 868 01a0 04       		.uleb128 0x4
 869 01a1 10       		.uleb128 0x10
 870 01a2 20050000 		.4byte	.LASF28
 871 01a6 06       		.byte	0x6
 872 01a7 32       		.byte	0x32
 873 01a8 70000000 		.4byte	0x70
 874 01ac 02       		.byte	0x2
 875 01ad 23       		.byte	0x23
 876 01ae 08       		.uleb128 0x8
 877 01af 10       		.uleb128 0x10
 878 01b0 AD010000 		.4byte	.LASF29
 879 01b4 06       		.byte	0x6
 880 01b5 32       		.byte	0x32
 881 01b6 70000000 		.4byte	0x70
 882 01ba 02       		.byte	0x2
 883 01bb 23       		.byte	0x23
 884 01bc 0C       		.uleb128 0xc
 885 01bd 10       		.uleb128 0x10
 886 01be 86050000 		.4byte	.LASF30
 887 01c2 06       		.byte	0x6
 888 01c3 32       		.byte	0x32
 889 01c4 70000000 		.4byte	0x70
 890 01c8 02       		.byte	0x2
 891 01c9 23       		.byte	0x23
 892 01ca 10       		.uleb128 0x10
 893 01cb 14       		.uleb128 0x14
 894 01cc 5F7800   		.ascii	"_x\000"
 895 01cf 06       		.byte	0x6
 896 01d0 33       		.byte	0x33
 897 01d1 DF010000 		.4byte	0x1df
ARM GAS  C:\Users\embedded\AppData\Local\Temp\ccYAJB2K.s 			page 21


 898 01d5 02       		.byte	0x2
 899 01d6 23       		.byte	0x23
 900 01d7 14       		.uleb128 0x14
 901 01d8 00       		.byte	0
 902 01d9 08       		.uleb128 0x8
 903 01da 04       		.byte	0x4
 904 01db 7A010000 		.4byte	0x17a
 905 01df 0D       		.uleb128 0xd
 906 01e0 6F010000 		.4byte	0x16f
 907 01e4 EF010000 		.4byte	0x1ef
 908 01e8 0E       		.uleb128 0xe
 909 01e9 49000000 		.4byte	0x49
 910 01ed 00       		.byte	0
 911 01ee 00       		.byte	0
 912 01ef 13       		.uleb128 0x13
 913 01f0 EB010000 		.4byte	.LASF32
 914 01f4 24       		.byte	0x24
 915 01f5 06       		.byte	0x6
 916 01f6 37       		.byte	0x37
 917 01f7 7A020000 		.4byte	0x27a
 918 01fb 10       		.uleb128 0x10
 919 01fc B5000000 		.4byte	.LASF33
 920 0200 06       		.byte	0x6
 921 0201 39       		.byte	0x39
 922 0202 70000000 		.4byte	0x70
 923 0206 02       		.byte	0x2
 924 0207 23       		.byte	0x23
 925 0208 00       		.uleb128 0
 926 0209 10       		.uleb128 0x10
 927 020a F5040000 		.4byte	.LASF34
 928 020e 06       		.byte	0x6
 929 020f 3A       		.byte	0x3a
 930 0210 70000000 		.4byte	0x70
 931 0214 02       		.byte	0x2
 932 0215 23       		.byte	0x23
 933 0216 04       		.uleb128 0x4
 934 0217 10       		.uleb128 0x10
 935 0218 F5000000 		.4byte	.LASF35
 936 021c 06       		.byte	0x6
 937 021d 3B       		.byte	0x3b
 938 021e 70000000 		.4byte	0x70
 939 0222 02       		.byte	0x2
 940 0223 23       		.byte	0x23
 941 0224 08       		.uleb128 0x8
 942 0225 10       		.uleb128 0x10
 943 0226 0B060000 		.4byte	.LASF36
 944 022a 06       		.byte	0x6
 945 022b 3C       		.byte	0x3c
 946 022c 70000000 		.4byte	0x70
 947 0230 02       		.byte	0x2
 948 0231 23       		.byte	0x23
 949 0232 0C       		.uleb128 0xc
 950 0233 10       		.uleb128 0x10
 951 0234 CC020000 		.4byte	.LASF37
 952 0238 06       		.byte	0x6
 953 0239 3D       		.byte	0x3d
 954 023a 70000000 		.4byte	0x70
ARM GAS  C:\Users\embedded\AppData\Local\Temp\ccYAJB2K.s 			page 22


 955 023e 02       		.byte	0x2
 956 023f 23       		.byte	0x23
 957 0240 10       		.uleb128 0x10
 958 0241 10       		.uleb128 0x10
 959 0242 AF020000 		.4byte	.LASF38
 960 0246 06       		.byte	0x6
 961 0247 3E       		.byte	0x3e
 962 0248 70000000 		.4byte	0x70
 963 024c 02       		.byte	0x2
 964 024d 23       		.byte	0x23
 965 024e 14       		.uleb128 0x14
 966 024f 10       		.uleb128 0x10
 967 0250 8B050000 		.4byte	.LASF39
 968 0254 06       		.byte	0x6
 969 0255 3F       		.byte	0x3f
 970 0256 70000000 		.4byte	0x70
 971 025a 02       		.byte	0x2
 972 025b 23       		.byte	0x23
 973 025c 18       		.uleb128 0x18
 974 025d 10       		.uleb128 0x10
 975 025e F8030000 		.4byte	.LASF40
 976 0262 06       		.byte	0x6
 977 0263 40       		.byte	0x40
 978 0264 70000000 		.4byte	0x70
 979 0268 02       		.byte	0x2
 980 0269 23       		.byte	0x23
 981 026a 1C       		.uleb128 0x1c
 982 026b 10       		.uleb128 0x10
 983 026c CD050000 		.4byte	.LASF41
 984 0270 06       		.byte	0x6
 985 0271 41       		.byte	0x41
 986 0272 70000000 		.4byte	0x70
 987 0276 02       		.byte	0x2
 988 0277 23       		.byte	0x23
 989 0278 20       		.uleb128 0x20
 990 0279 00       		.byte	0
 991 027a 15       		.uleb128 0x15
 992 027b 04010000 		.4byte	.LASF42
 993 027f 0801     		.2byte	0x108
 994 0281 06       		.byte	0x6
 995 0282 4A       		.byte	0x4a
 996 0283 C3020000 		.4byte	0x2c3
 997 0287 10       		.uleb128 0x10
 998 0288 A0010000 		.4byte	.LASF43
 999 028c 06       		.byte	0x6
 1000 028d 4B       		.byte	0x4b
 1001 028e C3020000 		.4byte	0x2c3
 1002 0292 02       		.byte	0x2
 1003 0293 23       		.byte	0x23
 1004 0294 00       		.uleb128 0
 1005 0295 10       		.uleb128 0x10
 1006 0296 00000000 		.4byte	.LASF44
 1007 029a 06       		.byte	0x6
 1008 029b 4C       		.byte	0x4c
 1009 029c C3020000 		.4byte	0x2c3
 1010 02a0 03       		.byte	0x3
 1011 02a1 23       		.byte	0x23
ARM GAS  C:\Users\embedded\AppData\Local\Temp\ccYAJB2K.s 			page 23


 1012 02a2 8001     		.uleb128 0x80
 1013 02a4 10       		.uleb128 0x10
 1014 02a5 17050000 		.4byte	.LASF45
 1015 02a9 06       		.byte	0x6
 1016 02aa 4E       		.byte	0x4e
 1017 02ab 6F010000 		.4byte	0x16f
 1018 02af 03       		.byte	0x3
 1019 02b0 23       		.byte	0x23
 1020 02b1 8002     		.uleb128 0x100
 1021 02b3 10       		.uleb128 0x10
 1022 02b4 35010000 		.4byte	.LASF46
 1023 02b8 06       		.byte	0x6
 1024 02b9 51       		.byte	0x51
 1025 02ba 6F010000 		.4byte	0x16f
 1026 02be 03       		.byte	0x3
 1027 02bf 23       		.byte	0x23
 1028 02c0 8402     		.uleb128 0x104
 1029 02c2 00       		.byte	0
 1030 02c3 0D       		.uleb128 0xd
 1031 02c4 5B010000 		.4byte	0x15b
 1032 02c8 D3020000 		.4byte	0x2d3
 1033 02cc 0E       		.uleb128 0xe
 1034 02cd 49000000 		.4byte	0x49
 1035 02d1 1F       		.byte	0x1f
 1036 02d2 00       		.byte	0
 1037 02d3 15       		.uleb128 0x15
 1038 02d4 D5020000 		.4byte	.LASF47
 1039 02d8 9001     		.2byte	0x190
 1040 02da 06       		.byte	0x6
 1041 02db 5D       		.byte	0x5d
 1042 02dc 1A030000 		.4byte	0x31a
 1043 02e0 10       		.uleb128 0x10
 1044 02e1 04050000 		.4byte	.LASF27
 1045 02e5 06       		.byte	0x6
 1046 02e6 5E       		.byte	0x5e
 1047 02e7 1A030000 		.4byte	0x31a
 1048 02eb 02       		.byte	0x2
 1049 02ec 23       		.byte	0x23
 1050 02ed 00       		.uleb128 0
 1051 02ee 10       		.uleb128 0x10
 1052 02ef 6A040000 		.4byte	.LASF48
 1053 02f3 06       		.byte	0x6
 1054 02f4 5F       		.byte	0x5f
 1055 02f5 70000000 		.4byte	0x70
 1056 02f9 02       		.byte	0x2
 1057 02fa 23       		.byte	0x23
 1058 02fb 04       		.uleb128 0x4
 1059 02fc 10       		.uleb128 0x10
 1060 02fd A8010000 		.4byte	.LASF49
 1061 0301 06       		.byte	0x6
 1062 0302 61       		.byte	0x61
 1063 0303 20030000 		.4byte	0x320
 1064 0307 02       		.byte	0x2
 1065 0308 23       		.byte	0x23
 1066 0309 08       		.uleb128 0x8
 1067 030a 10       		.uleb128 0x10
 1068 030b 04010000 		.4byte	.LASF42
ARM GAS  C:\Users\embedded\AppData\Local\Temp\ccYAJB2K.s 			page 24


 1069 030f 06       		.byte	0x6
 1070 0310 62       		.byte	0x62
 1071 0311 7A020000 		.4byte	0x27a
 1072 0315 03       		.byte	0x3
 1073 0316 23       		.byte	0x23
 1074 0317 8801     		.uleb128 0x88
 1075 0319 00       		.byte	0
 1076 031a 08       		.uleb128 0x8
 1077 031b 04       		.byte	0x4
 1078 031c D3020000 		.4byte	0x2d3
 1079 0320 0D       		.uleb128 0xd
 1080 0321 30030000 		.4byte	0x330
 1081 0325 30030000 		.4byte	0x330
 1082 0329 0E       		.uleb128 0xe
 1083 032a 49000000 		.4byte	0x49
 1084 032e 1F       		.byte	0x1f
 1085 032f 00       		.byte	0
 1086 0330 08       		.uleb128 0x8
 1087 0331 04       		.byte	0x4
 1088 0332 36030000 		.4byte	0x336
 1089 0336 16       		.uleb128 0x16
 1090 0337 01       		.byte	0x1
 1091 0338 13       		.uleb128 0x13
 1092 0339 02040000 		.4byte	.LASF50
 1093 033d 08       		.byte	0x8
 1094 033e 06       		.byte	0x6
 1095 033f 75       		.byte	0x75
 1096 0340 61030000 		.4byte	0x361
 1097 0344 10       		.uleb128 0x10
 1098 0345 EF000000 		.4byte	.LASF51
 1099 0349 06       		.byte	0x6
 1100 034a 76       		.byte	0x76
 1101 034b 61030000 		.4byte	0x361
 1102 034f 02       		.byte	0x2
 1103 0350 23       		.byte	0x23
 1104 0351 00       		.uleb128 0
 1105 0352 10       		.uleb128 0x10
 1106 0353 0C000000 		.4byte	.LASF52
 1107 0357 06       		.byte	0x6
 1108 0358 77       		.byte	0x77
 1109 0359 70000000 		.4byte	0x70
 1110 035d 02       		.byte	0x2
 1111 035e 23       		.byte	0x23
 1112 035f 04       		.uleb128 0x4
 1113 0360 00       		.byte	0
 1114 0361 08       		.uleb128 0x8
 1115 0362 04       		.byte	0x4
 1116 0363 30000000 		.4byte	0x30
 1117 0367 13       		.uleb128 0x13
 1118 0368 35040000 		.4byte	.LASF53
 1119 036c 68       		.byte	0x68
 1120 036d 06       		.byte	0x6
 1121 036e B5       		.byte	0xb5
 1122 036f C1040000 		.4byte	0x4c1
 1123 0373 14       		.uleb128 0x14
 1124 0374 5F7000   		.ascii	"_p\000"
 1125 0377 06       		.byte	0x6
ARM GAS  C:\Users\embedded\AppData\Local\Temp\ccYAJB2K.s 			page 25


 1126 0378 B6       		.byte	0xb6
 1127 0379 61030000 		.4byte	0x361
 1128 037d 02       		.byte	0x2
 1129 037e 23       		.byte	0x23
 1130 037f 00       		.uleb128 0
 1131 0380 14       		.uleb128 0x14
 1132 0381 5F7200   		.ascii	"_r\000"
 1133 0384 06       		.byte	0x6
 1134 0385 B7       		.byte	0xb7
 1135 0386 70000000 		.4byte	0x70
 1136 038a 02       		.byte	0x2
 1137 038b 23       		.byte	0x23
 1138 038c 04       		.uleb128 0x4
 1139 038d 14       		.uleb128 0x14
 1140 038e 5F7700   		.ascii	"_w\000"
 1141 0391 06       		.byte	0x6
 1142 0392 B8       		.byte	0xb8
 1143 0393 70000000 		.4byte	0x70
 1144 0397 02       		.byte	0x2
 1145 0398 23       		.byte	0x23
 1146 0399 08       		.uleb128 0x8
 1147 039a 10       		.uleb128 0x10
 1148 039b 9B050000 		.4byte	.LASF54
 1149 039f 06       		.byte	0x6
 1150 03a0 B9       		.byte	0xb9
 1151 03a1 69000000 		.4byte	0x69
 1152 03a5 02       		.byte	0x2
 1153 03a6 23       		.byte	0x23
 1154 03a7 0C       		.uleb128 0xc
 1155 03a8 10       		.uleb128 0x10
 1156 03a9 26020000 		.4byte	.LASF55
 1157 03ad 06       		.byte	0x6
 1158 03ae BA       		.byte	0xba
 1159 03af 69000000 		.4byte	0x69
 1160 03b3 02       		.byte	0x2
 1161 03b4 23       		.byte	0x23
 1162 03b5 0E       		.uleb128 0xe
 1163 03b6 14       		.uleb128 0x14
 1164 03b7 5F626600 		.ascii	"_bf\000"
 1165 03bb 06       		.byte	0x6
 1166 03bc BB       		.byte	0xbb
 1167 03bd 38030000 		.4byte	0x338
 1168 03c1 02       		.byte	0x2
 1169 03c2 23       		.byte	0x23
 1170 03c3 10       		.uleb128 0x10
 1171 03c4 10       		.uleb128 0x10
 1172 03c5 83000000 		.4byte	.LASF56
 1173 03c9 06       		.byte	0x6
 1174 03ca BC       		.byte	0xbc
 1175 03cb 70000000 		.4byte	0x70
 1176 03cf 02       		.byte	0x2
 1177 03d0 23       		.byte	0x23
 1178 03d1 18       		.uleb128 0x18
 1179 03d2 10       		.uleb128 0x10
 1180 03d3 12010000 		.4byte	.LASF57
 1181 03d7 06       		.byte	0x6
 1182 03d8 C3       		.byte	0xc3
ARM GAS  C:\Users\embedded\AppData\Local\Temp\ccYAJB2K.s 			page 26


 1183 03d9 5B010000 		.4byte	0x15b
 1184 03dd 02       		.byte	0x2
 1185 03de 23       		.byte	0x23
 1186 03df 1C       		.uleb128 0x1c
 1187 03e0 10       		.uleb128 0x10
 1188 03e1 DB010000 		.4byte	.LASF58
 1189 03e5 06       		.byte	0x6
 1190 03e6 C5       		.byte	0xc5
 1191 03e7 49060000 		.4byte	0x649
 1192 03eb 02       		.byte	0x2
 1193 03ec 23       		.byte	0x23
 1194 03ed 20       		.uleb128 0x20
 1195 03ee 10       		.uleb128 0x10
 1196 03ef A8020000 		.4byte	.LASF59
 1197 03f3 06       		.byte	0x6
 1198 03f4 C7       		.byte	0xc7
 1199 03f5 74060000 		.4byte	0x674
 1200 03f9 02       		.byte	0x2
 1201 03fa 23       		.byte	0x23
 1202 03fb 24       		.uleb128 0x24
 1203 03fc 10       		.uleb128 0x10
 1204 03fd CF040000 		.4byte	.LASF60
 1205 0401 06       		.byte	0x6
 1206 0402 CA       		.byte	0xca
 1207 0403 99060000 		.4byte	0x699
 1208 0407 02       		.byte	0x2
 1209 0408 23       		.byte	0x23
 1210 0409 28       		.uleb128 0x28
 1211 040a 10       		.uleb128 0x10
 1212 040b E7050000 		.4byte	.LASF61
 1213 040f 06       		.byte	0x6
 1214 0410 CB       		.byte	0xcb
 1215 0411 B4060000 		.4byte	0x6b4
 1216 0415 02       		.byte	0x2
 1217 0416 23       		.byte	0x23
 1218 0417 2C       		.uleb128 0x2c
 1219 0418 14       		.uleb128 0x14
 1220 0419 5F756200 		.ascii	"_ub\000"
 1221 041d 06       		.byte	0x6
 1222 041e CE       		.byte	0xce
 1223 041f 38030000 		.4byte	0x338
 1224 0423 02       		.byte	0x2
 1225 0424 23       		.byte	0x23
 1226 0425 30       		.uleb128 0x30
 1227 0426 14       		.uleb128 0x14
 1228 0427 5F757000 		.ascii	"_up\000"
 1229 042b 06       		.byte	0x6
 1230 042c CF       		.byte	0xcf
 1231 042d 61030000 		.4byte	0x361
 1232 0431 02       		.byte	0x2
 1233 0432 23       		.byte	0x23
 1234 0433 38       		.uleb128 0x38
 1235 0434 14       		.uleb128 0x14
 1236 0435 5F757200 		.ascii	"_ur\000"
 1237 0439 06       		.byte	0x6
 1238 043a D0       		.byte	0xd0
 1239 043b 70000000 		.4byte	0x70
ARM GAS  C:\Users\embedded\AppData\Local\Temp\ccYAJB2K.s 			page 27


 1240 043f 02       		.byte	0x2
 1241 0440 23       		.byte	0x23
 1242 0441 3C       		.uleb128 0x3c
 1243 0442 10       		.uleb128 0x10
 1244 0443 E9000000 		.4byte	.LASF62
 1245 0447 06       		.byte	0x6
 1246 0448 D3       		.byte	0xd3
 1247 0449 BA060000 		.4byte	0x6ba
 1248 044d 02       		.byte	0x2
 1249 044e 23       		.byte	0x23
 1250 044f 40       		.uleb128 0x40
 1251 0450 10       		.uleb128 0x10
 1252 0451 BF050000 		.4byte	.LASF63
 1253 0455 06       		.byte	0x6
 1254 0456 D4       		.byte	0xd4
 1255 0457 CA060000 		.4byte	0x6ca
 1256 045b 02       		.byte	0x2
 1257 045c 23       		.byte	0x23
 1258 045d 43       		.uleb128 0x43
 1259 045e 14       		.uleb128 0x14
 1260 045f 5F6C6200 		.ascii	"_lb\000"
 1261 0463 06       		.byte	0x6
 1262 0464 D7       		.byte	0xd7
 1263 0465 38030000 		.4byte	0x338
 1264 0469 02       		.byte	0x2
 1265 046a 23       		.byte	0x23
 1266 046b 44       		.uleb128 0x44
 1267 046c 10       		.uleb128 0x10
 1268 046d 61010000 		.4byte	.LASF64
 1269 0471 06       		.byte	0x6
 1270 0472 DA       		.byte	0xda
 1271 0473 70000000 		.4byte	0x70
 1272 0477 02       		.byte	0x2
 1273 0478 23       		.byte	0x23
 1274 0479 4C       		.uleb128 0x4c
 1275 047a 10       		.uleb128 0x10
 1276 047b 79010000 		.4byte	.LASF65
 1277 047f 06       		.byte	0x6
 1278 0480 DB       		.byte	0xdb
 1279 0481 CF000000 		.4byte	0xcf
 1280 0485 02       		.byte	0x2
 1281 0486 23       		.byte	0x23
 1282 0487 50       		.uleb128 0x50
 1283 0488 10       		.uleb128 0x10
 1284 0489 37000000 		.4byte	.LASF66
 1285 048d 06       		.byte	0x6
 1286 048e DE       		.byte	0xde
 1287 048f E0040000 		.4byte	0x4e0
 1288 0493 02       		.byte	0x2
 1289 0494 23       		.byte	0x23
 1290 0495 54       		.uleb128 0x54
 1291 0496 10       		.uleb128 0x10
 1292 0497 9A020000 		.4byte	.LASF67
 1293 049b 06       		.byte	0x6
 1294 049c E2       		.byte	0xe2
 1295 049d 50010000 		.4byte	0x150
 1296 04a1 02       		.byte	0x2
ARM GAS  C:\Users\embedded\AppData\Local\Temp\ccYAJB2K.s 			page 28


 1297 04a2 23       		.byte	0x23
 1298 04a3 58       		.uleb128 0x58
 1299 04a4 10       		.uleb128 0x10
 1300 04a5 3D040000 		.4byte	.LASF68
 1301 04a9 06       		.byte	0x6
 1302 04aa E4       		.byte	0xe4
 1303 04ab 45010000 		.4byte	0x145
 1304 04af 02       		.byte	0x2
 1305 04b0 23       		.byte	0x23
 1306 04b1 5C       		.uleb128 0x5c
 1307 04b2 10       		.uleb128 0x10
 1308 04b3 A0020000 		.4byte	.LASF69
 1309 04b7 06       		.byte	0x6
 1310 04b8 E5       		.byte	0xe5
 1311 04b9 70000000 		.4byte	0x70
 1312 04bd 02       		.byte	0x2
 1313 04be 23       		.byte	0x23
 1314 04bf 64       		.uleb128 0x64
 1315 04c0 00       		.byte	0
 1316 04c1 17       		.uleb128 0x17
 1317 04c2 01       		.byte	0x1
 1318 04c3 70000000 		.4byte	0x70
 1319 04c7 E0040000 		.4byte	0x4e0
 1320 04cb 18       		.uleb128 0x18
 1321 04cc E0040000 		.4byte	0x4e0
 1322 04d0 18       		.uleb128 0x18
 1323 04d1 5B010000 		.4byte	0x15b
 1324 04d5 18       		.uleb128 0x18
 1325 04d6 5D010000 		.4byte	0x15d
 1326 04da 18       		.uleb128 0x18
 1327 04db 70000000 		.4byte	0x70
 1328 04df 00       		.byte	0
 1329 04e0 08       		.uleb128 0x8
 1330 04e1 04       		.byte	0x4
 1331 04e2 EB040000 		.4byte	0x4eb
 1332 04e6 12       		.uleb128 0x12
 1333 04e7 E0040000 		.4byte	0x4e0
 1334 04eb 19       		.uleb128 0x19
 1335 04ec AB040000 		.4byte	.LASF70
 1336 04f0 2804     		.2byte	0x428
 1337 04f2 06       		.byte	0x6
 1338 04f3 6002     		.2byte	0x260
 1339 04f5 49060000 		.4byte	0x649
 1340 04f9 1A       		.uleb128 0x1a
 1341 04fa E9040000 		.4byte	.LASF71
 1342 04fe 06       		.byte	0x6
 1343 04ff 6202     		.2byte	0x262
 1344 0501 70000000 		.4byte	0x70
 1345 0505 02       		.byte	0x2
 1346 0506 23       		.byte	0x23
 1347 0507 00       		.uleb128 0
 1348 0508 1A       		.uleb128 0x1a
 1349 0509 3D010000 		.4byte	.LASF72
 1350 050d 06       		.byte	0x6
 1351 050e 6702     		.2byte	0x267
 1352 0510 27070000 		.4byte	0x727
 1353 0514 02       		.byte	0x2
ARM GAS  C:\Users\embedded\AppData\Local\Temp\ccYAJB2K.s 			page 29


 1354 0515 23       		.byte	0x23
 1355 0516 04       		.uleb128 0x4
 1356 0517 1A       		.uleb128 0x1a
 1357 0518 04020000 		.4byte	.LASF73
 1358 051c 06       		.byte	0x6
 1359 051d 6702     		.2byte	0x267
 1360 051f 27070000 		.4byte	0x727
 1361 0523 02       		.byte	0x2
 1362 0524 23       		.byte	0x23
 1363 0525 08       		.uleb128 0x8
 1364 0526 1A       		.uleb128 0x1a
 1365 0527 BC010000 		.4byte	.LASF74
 1366 052b 06       		.byte	0x6
 1367 052c 6702     		.2byte	0x267
 1368 052e 27070000 		.4byte	0x727
 1369 0532 02       		.byte	0x2
 1370 0533 23       		.byte	0x23
 1371 0534 0C       		.uleb128 0xc
 1372 0535 1A       		.uleb128 0x1a
 1373 0536 65040000 		.4byte	.LASF75
 1374 053a 06       		.byte	0x6
 1375 053b 6902     		.2byte	0x269
 1376 053d 70000000 		.4byte	0x70
 1377 0541 02       		.byte	0x2
 1378 0542 23       		.byte	0x23
 1379 0543 10       		.uleb128 0x10
 1380 0544 1A       		.uleb128 0x1a
 1381 0545 22000000 		.4byte	.LASF76
 1382 0549 06       		.byte	0x6
 1383 054a 6A02     		.2byte	0x26a
 1384 054c 42090000 		.4byte	0x942
 1385 0550 02       		.byte	0x2
 1386 0551 23       		.byte	0x23
 1387 0552 14       		.uleb128 0x14
 1388 0553 1A       		.uleb128 0x1a
 1389 0554 8D040000 		.4byte	.LASF77
 1390 0558 06       		.byte	0x6
 1391 0559 6D02     		.2byte	0x26d
 1392 055b 70000000 		.4byte	0x70
 1393 055f 02       		.byte	0x2
 1394 0560 23       		.byte	0x23
 1395 0561 30       		.uleb128 0x30
 1396 0562 1A       		.uleb128 0x1a
 1397 0563 7B040000 		.4byte	.LASF78
 1398 0567 06       		.byte	0x6
 1399 0568 6E02     		.2byte	0x26e
 1400 056a 58090000 		.4byte	0x958
 1401 056e 02       		.byte	0x2
 1402 056f 23       		.byte	0x23
 1403 0570 34       		.uleb128 0x34
 1404 0571 1A       		.uleb128 0x1a
 1405 0572 DD020000 		.4byte	.LASF79
 1406 0576 06       		.byte	0x6
 1407 0577 7002     		.2byte	0x270
 1408 0579 70000000 		.4byte	0x70
 1409 057d 02       		.byte	0x2
 1410 057e 23       		.byte	0x23
ARM GAS  C:\Users\embedded\AppData\Local\Temp\ccYAJB2K.s 			page 30


 1411 057f 38       		.uleb128 0x38
 1412 0580 1A       		.uleb128 0x1a
 1413 0581 83040000 		.4byte	.LASF80
 1414 0585 06       		.byte	0x6
 1415 0586 7202     		.2byte	0x272
 1416 0588 6A090000 		.4byte	0x96a
 1417 058c 02       		.byte	0x2
 1418 058d 23       		.byte	0x23
 1419 058e 3C       		.uleb128 0x3c
 1420 058f 1A       		.uleb128 0x1a
 1421 0590 76020000 		.4byte	.LASF81
 1422 0594 06       		.byte	0x6
 1423 0595 7502     		.2byte	0x275
 1424 0597 D9010000 		.4byte	0x1d9
 1425 059b 02       		.byte	0x2
 1426 059c 23       		.byte	0x23
 1427 059d 40       		.uleb128 0x40
 1428 059e 1A       		.uleb128 0x1a
 1429 059f E1010000 		.4byte	.LASF82
 1430 05a3 06       		.byte	0x6
 1431 05a4 7602     		.2byte	0x276
 1432 05a6 70000000 		.4byte	0x70
 1433 05aa 02       		.byte	0x2
 1434 05ab 23       		.byte	0x23
 1435 05ac 44       		.uleb128 0x44
 1436 05ad 1A       		.uleb128 0x1a
 1437 05ae 01060000 		.4byte	.LASF83
 1438 05b2 06       		.byte	0x6
 1439 05b3 7702     		.2byte	0x277
 1440 05b5 D9010000 		.4byte	0x1d9
 1441 05b9 02       		.byte	0x2
 1442 05ba 23       		.byte	0x23
 1443 05bb 48       		.uleb128 0x48
 1444 05bc 1A       		.uleb128 0x1a
 1445 05bd 19040000 		.4byte	.LASF84
 1446 05c1 06       		.byte	0x6
 1447 05c2 7802     		.2byte	0x278
 1448 05c4 70090000 		.4byte	0x970
 1449 05c8 02       		.byte	0x2
 1450 05c9 23       		.byte	0x23
 1451 05ca 4C       		.uleb128 0x4c
 1452 05cb 1A       		.uleb128 0x1a
 1453 05cc 0C020000 		.4byte	.LASF85
 1454 05d0 06       		.byte	0x6
 1455 05d1 7B02     		.2byte	0x27b
 1456 05d3 70000000 		.4byte	0x70
 1457 05d7 02       		.byte	0x2
 1458 05d8 23       		.byte	0x23
 1459 05d9 50       		.uleb128 0x50
 1460 05da 1A       		.uleb128 0x1a
 1461 05db 71010000 		.4byte	.LASF86
 1462 05df 06       		.byte	0x6
 1463 05e0 7C02     		.2byte	0x27c
 1464 05e2 5D010000 		.4byte	0x15d
 1465 05e6 02       		.byte	0x2
 1466 05e7 23       		.byte	0x23
 1467 05e8 54       		.uleb128 0x54
ARM GAS  C:\Users\embedded\AppData\Local\Temp\ccYAJB2K.s 			page 31


 1468 05e9 1A       		.uleb128 0x1a
 1469 05ea E0030000 		.4byte	.LASF87
 1470 05ee 06       		.byte	0x6
 1471 05ef 9F02     		.2byte	0x29f
 1472 05f1 20090000 		.4byte	0x920
 1473 05f5 02       		.byte	0x2
 1474 05f6 23       		.byte	0x23
 1475 05f7 58       		.uleb128 0x58
 1476 05f8 1A       		.uleb128 0x1a
 1477 05f9 D5020000 		.4byte	.LASF47
 1478 05fd 06       		.byte	0x6
 1479 05fe A302     		.2byte	0x2a3
 1480 0600 1A030000 		.4byte	0x31a
 1481 0604 03       		.byte	0x3
 1482 0605 23       		.byte	0x23
 1483 0606 C802     		.uleb128 0x148
 1484 0608 1A       		.uleb128 0x1a
 1485 0609 46020000 		.4byte	.LASF88
 1486 060d 06       		.byte	0x6
 1487 060e A402     		.2byte	0x2a4
 1488 0610 D3020000 		.4byte	0x2d3
 1489 0614 03       		.byte	0x3
 1490 0615 23       		.byte	0x23
 1491 0616 CC02     		.uleb128 0x14c
 1492 0618 1A       		.uleb128 0x1a
 1493 0619 B5050000 		.4byte	.LASF89
 1494 061d 06       		.byte	0x6
 1495 061e A802     		.2byte	0x2a8
 1496 0620 82090000 		.4byte	0x982
 1497 0624 03       		.byte	0x3
 1498 0625 23       		.byte	0x23
 1499 0626 DC05     		.uleb128 0x2dc
 1500 0628 1A       		.uleb128 0x1a
 1501 0629 1A010000 		.4byte	.LASF90
 1502 062d 06       		.byte	0x6
 1503 062e AD02     		.2byte	0x2ad
 1504 0630 E6060000 		.4byte	0x6e6
 1505 0634 03       		.byte	0x3
 1506 0635 23       		.byte	0x23
 1507 0636 E005     		.uleb128 0x2e0
 1508 0638 1A       		.uleb128 0x1a
 1509 0639 FF000000 		.4byte	.LASF91
 1510 063d 06       		.byte	0x6
 1511 063e AF02     		.2byte	0x2af
 1512 0640 8E090000 		.4byte	0x98e
 1513 0644 03       		.byte	0x3
 1514 0645 23       		.byte	0x23
 1515 0646 EC05     		.uleb128 0x2ec
 1516 0648 00       		.byte	0
 1517 0649 08       		.uleb128 0x8
 1518 064a 04       		.byte	0x4
 1519 064b C1040000 		.4byte	0x4c1
 1520 064f 17       		.uleb128 0x17
 1521 0650 01       		.byte	0x1
 1522 0651 70000000 		.4byte	0x70
 1523 0655 6E060000 		.4byte	0x66e
 1524 0659 18       		.uleb128 0x18
ARM GAS  C:\Users\embedded\AppData\Local\Temp\ccYAJB2K.s 			page 32


 1525 065a E0040000 		.4byte	0x4e0
 1526 065e 18       		.uleb128 0x18
 1527 065f 5B010000 		.4byte	0x15b
 1528 0663 18       		.uleb128 0x18
 1529 0664 6E060000 		.4byte	0x66e
 1530 0668 18       		.uleb128 0x18
 1531 0669 70000000 		.4byte	0x70
 1532 066d 00       		.byte	0
 1533 066e 08       		.uleb128 0x8
 1534 066f 04       		.byte	0x4
 1535 0670 6A010000 		.4byte	0x16a
 1536 0674 08       		.uleb128 0x8
 1537 0675 04       		.byte	0x4
 1538 0676 4F060000 		.4byte	0x64f
 1539 067a 17       		.uleb128 0x17
 1540 067b 01       		.byte	0x1
 1541 067c DA000000 		.4byte	0xda
 1542 0680 99060000 		.4byte	0x699
 1543 0684 18       		.uleb128 0x18
 1544 0685 E0040000 		.4byte	0x4e0
 1545 0689 18       		.uleb128 0x18
 1546 068a 5B010000 		.4byte	0x15b
 1547 068e 18       		.uleb128 0x18
 1548 068f DA000000 		.4byte	0xda
 1549 0693 18       		.uleb128 0x18
 1550 0694 70000000 		.4byte	0x70
 1551 0698 00       		.byte	0
 1552 0699 08       		.uleb128 0x8
 1553 069a 04       		.byte	0x4
 1554 069b 7A060000 		.4byte	0x67a
 1555 069f 17       		.uleb128 0x17
 1556 06a0 01       		.byte	0x1
 1557 06a1 70000000 		.4byte	0x70
 1558 06a5 B4060000 		.4byte	0x6b4
 1559 06a9 18       		.uleb128 0x18
 1560 06aa E0040000 		.4byte	0x4e0
 1561 06ae 18       		.uleb128 0x18
 1562 06af 5B010000 		.4byte	0x15b
 1563 06b3 00       		.byte	0
 1564 06b4 08       		.uleb128 0x8
 1565 06b5 04       		.byte	0x4
 1566 06b6 9F060000 		.4byte	0x69f
 1567 06ba 0D       		.uleb128 0xd
 1568 06bb 30000000 		.4byte	0x30
 1569 06bf CA060000 		.4byte	0x6ca
 1570 06c3 0E       		.uleb128 0xe
 1571 06c4 49000000 		.4byte	0x49
 1572 06c8 02       		.byte	0x2
 1573 06c9 00       		.byte	0
 1574 06ca 0D       		.uleb128 0xd
 1575 06cb 30000000 		.4byte	0x30
 1576 06cf DA060000 		.4byte	0x6da
 1577 06d3 0E       		.uleb128 0xe
 1578 06d4 49000000 		.4byte	0x49
 1579 06d8 00       		.byte	0
 1580 06d9 00       		.byte	0
 1581 06da 0A       		.uleb128 0xa
ARM GAS  C:\Users\embedded\AppData\Local\Temp\ccYAJB2K.s 			page 33


 1582 06db 23040000 		.4byte	.LASF92
 1583 06df 06       		.byte	0x6
 1584 06e0 1F01     		.2byte	0x11f
 1585 06e2 67030000 		.4byte	0x367
 1586 06e6 1B       		.uleb128 0x1b
 1587 06e7 95050000 		.4byte	.LASF93
 1588 06eb 0C       		.byte	0xc
 1589 06ec 06       		.byte	0x6
 1590 06ed 2301     		.2byte	0x123
 1591 06ef 21070000 		.4byte	0x721
 1592 06f3 1A       		.uleb128 0x1a
 1593 06f4 04050000 		.4byte	.LASF27
 1594 06f8 06       		.byte	0x6
 1595 06f9 2501     		.2byte	0x125
 1596 06fb 21070000 		.4byte	0x721
 1597 06ff 02       		.byte	0x2
 1598 0700 23       		.byte	0x23
 1599 0701 00       		.uleb128 0
 1600 0702 1A       		.uleb128 0x1a
 1601 0703 2C020000 		.4byte	.LASF94
 1602 0707 06       		.byte	0x6
 1603 0708 2601     		.2byte	0x126
 1604 070a 70000000 		.4byte	0x70
 1605 070e 02       		.byte	0x2
 1606 070f 23       		.byte	0x23
 1607 0710 04       		.uleb128 0x4
 1608 0711 1A       		.uleb128 0x1a
 1609 0712 5F040000 		.4byte	.LASF95
 1610 0716 06       		.byte	0x6
 1611 0717 2701     		.2byte	0x127
 1612 0719 27070000 		.4byte	0x727
 1613 071d 02       		.byte	0x2
 1614 071e 23       		.byte	0x23
 1615 071f 08       		.uleb128 0x8
 1616 0720 00       		.byte	0
 1617 0721 08       		.uleb128 0x8
 1618 0722 04       		.byte	0x4
 1619 0723 E6060000 		.4byte	0x6e6
 1620 0727 08       		.uleb128 0x8
 1621 0728 04       		.byte	0x4
 1622 0729 DA060000 		.4byte	0x6da
 1623 072d 1B       		.uleb128 0x1b
 1624 072e 1A000000 		.4byte	.LASF96
 1625 0732 0E       		.byte	0xe
 1626 0733 06       		.byte	0x6
 1627 0734 3F01     		.2byte	0x13f
 1628 0736 68070000 		.4byte	0x768
 1629 073a 1A       		.uleb128 0x1a
 1630 073b B2040000 		.4byte	.LASF97
 1631 073f 06       		.byte	0x6
 1632 0740 4001     		.2byte	0x140
 1633 0742 68070000 		.4byte	0x768
 1634 0746 02       		.byte	0x2
 1635 0747 23       		.byte	0x23
 1636 0748 00       		.uleb128 0
 1637 0749 1A       		.uleb128 0x1a
 1638 074a FE040000 		.4byte	.LASF98
ARM GAS  C:\Users\embedded\AppData\Local\Temp\ccYAJB2K.s 			page 34


 1639 074e 06       		.byte	0x6
 1640 074f 4101     		.2byte	0x141
 1641 0751 68070000 		.4byte	0x768
 1642 0755 02       		.byte	0x2
 1643 0756 23       		.byte	0x23
 1644 0757 06       		.uleb128 0x6
 1645 0758 1A       		.uleb128 0x1a
 1646 0759 28050000 		.4byte	.LASF99
 1647 075d 06       		.byte	0x6
 1648 075e 4201     		.2byte	0x142
 1649 0760 42000000 		.4byte	0x42
 1650 0764 02       		.byte	0x2
 1651 0765 23       		.byte	0x23
 1652 0766 0C       		.uleb128 0xc
 1653 0767 00       		.byte	0
 1654 0768 0D       		.uleb128 0xd
 1655 0769 42000000 		.4byte	0x42
 1656 076d 78070000 		.4byte	0x778
 1657 0771 0E       		.uleb128 0xe
 1658 0772 49000000 		.4byte	0x49
 1659 0776 02       		.byte	0x2
 1660 0777 00       		.byte	0
 1661 0778 1C       		.uleb128 0x1c
 1662 0779 D0       		.byte	0xd0
 1663 077a 06       		.byte	0x6
 1664 077b 8002     		.2byte	0x280
 1665 077d A8080000 		.4byte	0x8a8
 1666 0781 1A       		.uleb128 0x1a
 1667 0782 79050000 		.4byte	.LASF100
 1668 0786 06       		.byte	0x6
 1669 0787 8202     		.2byte	0x282
 1670 0789 49000000 		.4byte	0x49
 1671 078d 02       		.byte	0x2
 1672 078e 23       		.byte	0x23
 1673 078f 00       		.uleb128 0
 1674 0790 1A       		.uleb128 0x1a
 1675 0791 0A050000 		.4byte	.LASF101
 1676 0795 06       		.byte	0x6
 1677 0796 8302     		.2byte	0x283
 1678 0798 5D010000 		.4byte	0x15d
 1679 079c 02       		.byte	0x2
 1680 079d 23       		.byte	0x23
 1681 079e 04       		.uleb128 0x4
 1682 079f 1A       		.uleb128 0x1a
 1683 07a0 5B020000 		.4byte	.LASF102
 1684 07a4 06       		.byte	0x6
 1685 07a5 8402     		.2byte	0x284
 1686 07a7 A8080000 		.4byte	0x8a8
 1687 07ab 02       		.byte	0x2
 1688 07ac 23       		.byte	0x23
 1689 07ad 08       		.uleb128 0x8
 1690 07ae 1A       		.uleb128 0x1a
 1691 07af D8050000 		.4byte	.LASF103
 1692 07b3 06       		.byte	0x6
 1693 07b4 8502     		.2byte	0x285
 1694 07b6 EF010000 		.4byte	0x1ef
 1695 07ba 02       		.byte	0x2
ARM GAS  C:\Users\embedded\AppData\Local\Temp\ccYAJB2K.s 			page 35


 1696 07bb 23       		.byte	0x23
 1697 07bc 24       		.uleb128 0x24
 1698 07bd 1A       		.uleb128 0x1a
 1699 07be CC010000 		.4byte	.LASF104
 1700 07c2 06       		.byte	0x6
 1701 07c3 8602     		.2byte	0x286
 1702 07c5 70000000 		.4byte	0x70
 1703 07c9 02       		.byte	0x2
 1704 07ca 23       		.byte	0x23
 1705 07cb 48       		.uleb128 0x48
 1706 07cc 1A       		.uleb128 0x1a
 1707 07cd 46040000 		.4byte	.LASF105
 1708 07d1 06       		.byte	0x6
 1709 07d2 8702     		.2byte	0x287
 1710 07d4 5B000000 		.4byte	0x5b
 1711 07d8 02       		.byte	0x2
 1712 07d9 23       		.byte	0x23
 1713 07da 50       		.uleb128 0x50
 1714 07db 1A       		.uleb128 0x1a
 1715 07dc EE050000 		.4byte	.LASF106
 1716 07e0 06       		.byte	0x6
 1717 07e1 8802     		.2byte	0x288
 1718 07e3 2D070000 		.4byte	0x72d
 1719 07e7 02       		.byte	0x2
 1720 07e8 23       		.byte	0x23
 1721 07e9 58       		.uleb128 0x58
 1722 07ea 1A       		.uleb128 0x1a
 1723 07eb B5030000 		.4byte	.LASF107
 1724 07ef 06       		.byte	0x6
 1725 07f0 8902     		.2byte	0x289
 1726 07f2 45010000 		.4byte	0x145
 1727 07f6 02       		.byte	0x2
 1728 07f7 23       		.byte	0x23
 1729 07f8 68       		.uleb128 0x68
 1730 07f9 1A       		.uleb128 0x1a
 1731 07fa F3050000 		.4byte	.LASF108
 1732 07fe 06       		.byte	0x6
 1733 07ff 8A02     		.2byte	0x28a
 1734 0801 45010000 		.4byte	0x145
 1735 0805 02       		.byte	0x2
 1736 0806 23       		.byte	0x23
 1737 0807 70       		.uleb128 0x70
 1738 0808 1A       		.uleb128 0x1a
 1739 0809 A7030000 		.4byte	.LASF109
 1740 080d 06       		.byte	0x6
 1741 080e 8B02     		.2byte	0x28b
 1742 0810 45010000 		.4byte	0x145
 1743 0814 02       		.byte	0x2
 1744 0815 23       		.byte	0x23
 1745 0816 78       		.uleb128 0x78
 1746 0817 1A       		.uleb128 0x1a
 1747 0818 AB050000 		.4byte	.LASF110
 1748 081c 06       		.byte	0x6
 1749 081d 8C02     		.2byte	0x28c
 1750 081f B8080000 		.4byte	0x8b8
 1751 0823 03       		.byte	0x3
 1752 0824 23       		.byte	0x23
ARM GAS  C:\Users\embedded\AppData\Local\Temp\ccYAJB2K.s 			page 36


 1753 0825 8001     		.uleb128 0x80
 1754 0827 1A       		.uleb128 0x1a
 1755 0828 4F020000 		.4byte	.LASF111
 1756 082c 06       		.byte	0x6
 1757 082d 8D02     		.2byte	0x28d
 1758 082f C8080000 		.4byte	0x8c8
 1759 0833 03       		.byte	0x3
 1760 0834 23       		.byte	0x23
 1761 0835 8801     		.uleb128 0x88
 1762 0837 1A       		.uleb128 0x1a
 1763 0838 35050000 		.4byte	.LASF112
 1764 083c 06       		.byte	0x6
 1765 083d 8E02     		.2byte	0x28e
 1766 083f 70000000 		.4byte	0x70
 1767 0843 03       		.byte	0x3
 1768 0844 23       		.byte	0x23
 1769 0845 A001     		.uleb128 0xa0
 1770 0847 1A       		.uleb128 0x1a
 1771 0848 92010000 		.4byte	.LASF113
 1772 084c 06       		.byte	0x6
 1773 084d 8F02     		.2byte	0x28f
 1774 084f 45010000 		.4byte	0x145
 1775 0853 03       		.byte	0x3
 1776 0854 23       		.byte	0x23
 1777 0855 A401     		.uleb128 0xa4
 1778 0857 1A       		.uleb128 0x1a
 1779 0858 A6000000 		.4byte	.LASF114
 1780 085c 06       		.byte	0x6
 1781 085d 9002     		.2byte	0x290
 1782 085f 45010000 		.4byte	0x145
 1783 0863 03       		.byte	0x3
 1784 0864 23       		.byte	0x23
 1785 0865 AC01     		.uleb128 0xac
 1786 0867 1A       		.uleb128 0x1a
 1787 0868 81010000 		.4byte	.LASF115
 1788 086c 06       		.byte	0x6
 1789 086d 9102     		.2byte	0x291
 1790 086f 45010000 		.4byte	0x145
 1791 0873 03       		.byte	0x3
 1792 0874 23       		.byte	0x23
 1793 0875 B401     		.uleb128 0xb4
 1794 0877 1A       		.uleb128 0x1a
 1795 0878 3D000000 		.4byte	.LASF116
 1796 087c 06       		.byte	0x6
 1797 087d 9202     		.2byte	0x292
 1798 087f 45010000 		.4byte	0x145
 1799 0883 03       		.byte	0x3
 1800 0884 23       		.byte	0x23
 1801 0885 BC01     		.uleb128 0xbc
 1802 0887 1A       		.uleb128 0x1a
 1803 0888 4C000000 		.4byte	.LASF117
 1804 088c 06       		.byte	0x6
 1805 088d 9302     		.2byte	0x293
 1806 088f 45010000 		.4byte	0x145
 1807 0893 03       		.byte	0x3
 1808 0894 23       		.byte	0x23
 1809 0895 C401     		.uleb128 0xc4
ARM GAS  C:\Users\embedded\AppData\Local\Temp\ccYAJB2K.s 			page 37


 1810 0897 1A       		.uleb128 0x1a
 1811 0898 E5030000 		.4byte	.LASF118
 1812 089c 06       		.byte	0x6
 1813 089d 9402     		.2byte	0x294
 1814 089f 70000000 		.4byte	0x70
 1815 08a3 03       		.byte	0x3
 1816 08a4 23       		.byte	0x23
 1817 08a5 CC01     		.uleb128 0xcc
 1818 08a7 00       		.byte	0
 1819 08a8 0D       		.uleb128 0xd
 1820 08a9 63010000 		.4byte	0x163
 1821 08ad B8080000 		.4byte	0x8b8
 1822 08b1 0E       		.uleb128 0xe
 1823 08b2 49000000 		.4byte	0x49
 1824 08b6 19       		.byte	0x19
 1825 08b7 00       		.byte	0
 1826 08b8 0D       		.uleb128 0xd
 1827 08b9 63010000 		.4byte	0x163
 1828 08bd C8080000 		.4byte	0x8c8
 1829 08c1 0E       		.uleb128 0xe
 1830 08c2 49000000 		.4byte	0x49
 1831 08c6 07       		.byte	0x7
 1832 08c7 00       		.byte	0
 1833 08c8 0D       		.uleb128 0xd
 1834 08c9 63010000 		.4byte	0x163
 1835 08cd D8080000 		.4byte	0x8d8
 1836 08d1 0E       		.uleb128 0xe
 1837 08d2 49000000 		.4byte	0x49
 1838 08d6 17       		.byte	0x17
 1839 08d7 00       		.byte	0
 1840 08d8 1C       		.uleb128 0x1c
 1841 08d9 F0       		.byte	0xf0
 1842 08da 06       		.byte	0x6
 1843 08db 9902     		.2byte	0x299
 1844 08dd 00090000 		.4byte	0x900
 1845 08e1 1A       		.uleb128 0x1a
 1846 08e2 C5020000 		.4byte	.LASF119
 1847 08e6 06       		.byte	0x6
 1848 08e7 9C02     		.2byte	0x29c
 1849 08e9 00090000 		.4byte	0x900
 1850 08ed 02       		.byte	0x2
 1851 08ee 23       		.byte	0x23
 1852 08ef 00       		.uleb128 0
 1853 08f0 1A       		.uleb128 0x1a
 1854 08f1 A2050000 		.4byte	.LASF120
 1855 08f5 06       		.byte	0x6
 1856 08f6 9D02     		.2byte	0x29d
 1857 08f8 10090000 		.4byte	0x910
 1858 08fc 02       		.byte	0x2
 1859 08fd 23       		.byte	0x23
 1860 08fe 78       		.uleb128 0x78
 1861 08ff 00       		.byte	0
 1862 0900 0D       		.uleb128 0xd
 1863 0901 61030000 		.4byte	0x361
 1864 0905 10090000 		.4byte	0x910
 1865 0909 0E       		.uleb128 0xe
 1866 090a 49000000 		.4byte	0x49
ARM GAS  C:\Users\embedded\AppData\Local\Temp\ccYAJB2K.s 			page 38


 1867 090e 1D       		.byte	0x1d
 1868 090f 00       		.byte	0
 1869 0910 0D       		.uleb128 0xd
 1870 0911 49000000 		.4byte	0x49
 1871 0915 20090000 		.4byte	0x920
 1872 0919 0E       		.uleb128 0xe
 1873 091a 49000000 		.4byte	0x49
 1874 091e 1D       		.byte	0x1d
 1875 091f 00       		.byte	0
 1876 0920 1D       		.uleb128 0x1d
 1877 0921 F0       		.byte	0xf0
 1878 0922 06       		.byte	0x6
 1879 0923 7E02     		.2byte	0x27e
 1880 0925 42090000 		.4byte	0x942
 1881 0929 1E       		.uleb128 0x1e
 1882 092a AB040000 		.4byte	.LASF70
 1883 092e 06       		.byte	0x6
 1884 092f 9502     		.2byte	0x295
 1885 0931 78070000 		.4byte	0x778
 1886 0935 1E       		.uleb128 0x1e
 1887 0936 C5050000 		.4byte	.LASF121
 1888 093a 06       		.byte	0x6
 1889 093b 9E02     		.2byte	0x29e
 1890 093d D8080000 		.4byte	0x8d8
 1891 0941 00       		.byte	0
 1892 0942 0D       		.uleb128 0xd
 1893 0943 63010000 		.4byte	0x163
 1894 0947 52090000 		.4byte	0x952
 1895 094b 0E       		.uleb128 0xe
 1896 094c 49000000 		.4byte	0x49
 1897 0950 18       		.byte	0x18
 1898 0951 00       		.byte	0
 1899 0952 09       		.uleb128 0x9
 1900 0953 8C000000 		.4byte	.LASF123
 1901 0957 01       		.byte	0x1
 1902 0958 08       		.uleb128 0x8
 1903 0959 04       		.byte	0x4
 1904 095a 52090000 		.4byte	0x952
 1905 095e 1F       		.uleb128 0x1f
 1906 095f 01       		.byte	0x1
 1907 0960 6A090000 		.4byte	0x96a
 1908 0964 18       		.uleb128 0x18
 1909 0965 E0040000 		.4byte	0x4e0
 1910 0969 00       		.byte	0
 1911 096a 08       		.uleb128 0x8
 1912 096b 04       		.byte	0x4
 1913 096c 5E090000 		.4byte	0x95e
 1914 0970 08       		.uleb128 0x8
 1915 0971 04       		.byte	0x4
 1916 0972 D9010000 		.4byte	0x1d9
 1917 0976 1F       		.uleb128 0x1f
 1918 0977 01       		.byte	0x1
 1919 0978 82090000 		.4byte	0x982
 1920 097c 18       		.uleb128 0x18
 1921 097d 70000000 		.4byte	0x70
 1922 0981 00       		.byte	0
 1923 0982 08       		.uleb128 0x8
ARM GAS  C:\Users\embedded\AppData\Local\Temp\ccYAJB2K.s 			page 39


 1924 0983 04       		.byte	0x4
 1925 0984 88090000 		.4byte	0x988
 1926 0988 08       		.uleb128 0x8
 1927 0989 04       		.byte	0x4
 1928 098a 76090000 		.4byte	0x976
 1929 098e 0D       		.uleb128 0xd
 1930 098f DA060000 		.4byte	0x6da
 1931 0993 9E090000 		.4byte	0x99e
 1932 0997 0E       		.uleb128 0xe
 1933 0998 49000000 		.4byte	0x49
 1934 099c 02       		.byte	0x2
 1935 099d 00       		.byte	0
 1936 099e 20       		.uleb128 0x20
 1937 099f D5040000 		.4byte	.LASF124
 1938 09a3 06       		.byte	0x6
 1939 09a4 2E03     		.2byte	0x32e
 1940 09a6 E0040000 		.4byte	0x4e0
 1941 09aa 01       		.byte	0x1
 1942 09ab 01       		.byte	0x1
 1943 09ac 20       		.uleb128 0x20
 1944 09ad 58050000 		.4byte	.LASF125
 1945 09b1 06       		.byte	0x6
 1946 09b2 2F03     		.2byte	0x32f
 1947 09b4 E6040000 		.4byte	0x4e6
 1948 09b8 01       		.byte	0x1
 1949 09b9 01       		.byte	0x1
 1950 09ba 03       		.uleb128 0x3
 1951 09bb 04       		.byte	0x4
 1952 09bc 04       		.byte	0x4
 1953 09bd 1B030000 		.4byte	.LASF126
 1954 09c1 03       		.uleb128 0x3
 1955 09c2 08       		.byte	0x8
 1956 09c3 04       		.byte	0x4
 1957 09c4 6A010000 		.4byte	.LASF127
 1958 09c8 21       		.uleb128 0x21
 1959 09c9 47050000 		.4byte	.LASF144
 1960 09cd 05       		.byte	0x5
 1961 09ce 01       		.byte	0x1
 1962 09cf 62000000 		.4byte	0x62
 1963 09d3 07       		.byte	0x7
 1964 09d4 8202     		.2byte	0x282
 1965 09d6 F3090000 		.4byte	0x9f3
 1966 09da 22       		.uleb128 0x22
 1967 09db 6B050000 		.4byte	.LASF128
 1968 09df 7F       		.sleb128 -1
 1969 09e0 07       		.uleb128 0x7
 1970 09e1 44010000 		.4byte	.LASF129
 1971 09e5 00       		.byte	0
 1972 09e6 07       		.uleb128 0x7
 1973 09e7 97000000 		.4byte	.LASF130
 1974 09eb 01       		.byte	0x1
 1975 09ec 07       		.uleb128 0x7
 1976 09ed 74000000 		.4byte	.LASF131
 1977 09f1 02       		.byte	0x2
 1978 09f2 00       		.byte	0
 1979 09f3 20       		.uleb128 0x20
 1980 09f4 09040000 		.4byte	.LASF132
ARM GAS  C:\Users\embedded\AppData\Local\Temp\ccYAJB2K.s 			page 40


 1981 09f8 07       		.byte	0x7
 1982 09f9 8D02     		.2byte	0x28d
 1983 09fb C8090000 		.4byte	0x9c8
 1984 09ff 01       		.byte	0x1
 1985 0a00 01       		.byte	0x1
 1986 0a01 23       		.uleb128 0x23
 1987 0a02 01       		.byte	0x1
 1988 0a03 D8000000 		.4byte	.LASF145
 1989 0a07 01       		.byte	0x1
 1990 0a08 A9       		.byte	0xa9
 1991 0a09 01       		.byte	0x1
 1992 0a0a 14020000 		.4byte	.LFB1
 1993 0a0e E0030000 		.4byte	.LFE1
 1994 0a12 00000000 		.4byte	.LLST1
 1995 0a16 01       		.byte	0x1
 1996 0a17 7A0A0000 		.4byte	0xa7a
 1997 0a1b 24       		.uleb128 0x24
 1998 0a1c EF020000 		.4byte	.LASF133
 1999 0a20 01       		.byte	0x1
 2000 0a21 B4       		.byte	0xb4
 2001 0a22 7A0A0000 		.4byte	0xa7a
 2002 0a26 02       		.byte	0x2
 2003 0a27 91       		.byte	0x91
 2004 0a28 6C       		.sleb128 -20
 2005 0a29 25       		.uleb128 0x25
 2006 0a2a 7A020000 		.4byte	.LBB6
 2007 0a2e CA020000 		.4byte	.LBE6
 2008 0a32 450A0000 		.4byte	0xa45
 2009 0a36 26       		.uleb128 0x26
 2010 0a37 64697600 		.ascii	"div\000"
 2011 0a3b 01       		.byte	0x1
 2012 0a3c BB       		.byte	0xbb
 2013 0a3d 25000000 		.4byte	0x25
 2014 0a41 02       		.byte	0x2
 2015 0a42 91       		.byte	0x91
 2016 0a43 77       		.sleb128 -9
 2017 0a44 00       		.byte	0
 2018 0a45 25       		.uleb128 0x25
 2019 0a46 EC020000 		.4byte	.LBB7
 2020 0a4a 3C030000 		.4byte	.LBE7
 2021 0a4e 610A0000 		.4byte	0xa61
 2022 0a52 26       		.uleb128 0x26
 2023 0a53 64697600 		.ascii	"div\000"
 2024 0a57 01       		.byte	0x1
 2025 0a58 C4       		.byte	0xc4
 2026 0a59 25000000 		.4byte	0x25
 2027 0a5d 02       		.byte	0x2
 2028 0a5e 91       		.byte	0x91
 2029 0a5f 76       		.sleb128 -10
 2030 0a60 00       		.byte	0
 2031 0a61 27       		.uleb128 0x27
 2032 0a62 5E030000 		.4byte	.LBB8
 2033 0a66 AE030000 		.4byte	.LBE8
 2034 0a6a 26       		.uleb128 0x26
 2035 0a6b 64697600 		.ascii	"div\000"
 2036 0a6f 01       		.byte	0x1
 2037 0a70 CD       		.byte	0xcd
ARM GAS  C:\Users\embedded\AppData\Local\Temp\ccYAJB2K.s 			page 41


 2038 0a71 25000000 		.4byte	0x25
 2039 0a75 02       		.byte	0x2
 2040 0a76 91       		.byte	0x91
 2041 0a77 75       		.sleb128 -11
 2042 0a78 00       		.byte	0
 2043 0a79 00       		.byte	0
 2044 0a7a 0D       		.uleb128 0xd
 2045 0a7b 25000000 		.4byte	0x25
 2046 0a7f 8A0A0000 		.4byte	0xa8a
 2047 0a83 0E       		.uleb128 0xe
 2048 0a84 49000000 		.4byte	0x49
 2049 0a88 08       		.byte	0x8
 2050 0a89 00       		.byte	0
 2051 0a8a 28       		.uleb128 0x28
 2052 0a8b 01       		.byte	0x1
 2053 0a8c 06060000 		.4byte	.LASF146
 2054 0a90 01       		.byte	0x1
 2055 0a91 39       		.byte	0x39
 2056 0a92 01       		.byte	0x1
 2057 0a93 70000000 		.4byte	0x70
 2058 0a97 00000000 		.4byte	.LFB0
 2059 0a9b 14020000 		.4byte	.LFE0
 2060 0a9f 38000000 		.4byte	.LLST0
 2061 0aa3 01       		.byte	0x1
 2062 0aa4 7B0B0000 		.4byte	0xb7b
 2063 0aa8 24       		.uleb128 0x24
 2064 0aa9 52010000 		.4byte	.LASF134
 2065 0aad 01       		.byte	0x1
 2066 0aae 3B       		.byte	0x3b
 2067 0aaf 25000000 		.4byte	0x25
 2068 0ab3 02       		.byte	0x2
 2069 0ab4 91       		.byte	0x91
 2070 0ab5 6F       		.sleb128 -17
 2071 0ab6 27       		.uleb128 0x27
 2072 0ab7 2A000000 		.4byte	.LBB2
 2073 0abb E6010000 		.4byte	.LBE2
 2074 0abf 24       		.uleb128 0x24
 2075 0ac0 2D000000 		.4byte	.LASF135
 2076 0ac4 01       		.byte	0x1
 2077 0ac5 53       		.byte	0x53
 2078 0ac6 7B0B0000 		.4byte	0xb7b
 2079 0aca 02       		.byte	0x2
 2080 0acb 91       		.byte	0x91
 2081 0acc 4C       		.sleb128 -52
 2082 0acd 24       		.uleb128 0x24
 2083 0ace 6F040000 		.4byte	.LASF136
 2084 0ad2 01       		.byte	0x1
 2085 0ad3 55       		.byte	0x55
 2086 0ad4 25000000 		.4byte	0x25
 2087 0ad8 02       		.byte	0x2
 2088 0ad9 91       		.byte	0x91
 2089 0ada 6E       		.sleb128 -18
 2090 0adb 25       		.uleb128 0x25
 2091 0adc CA000000 		.4byte	.LBB3
 2092 0ae0 12010000 		.4byte	.LBE3
 2093 0ae4 110B0000 		.4byte	0xb11
 2094 0ae8 24       		.uleb128 0x24
ARM GAS  C:\Users\embedded\AppData\Local\Temp\ccYAJB2K.s 			page 42


 2095 0ae9 51040000 		.4byte	.LASF137
 2096 0aed 01       		.byte	0x1
 2097 0aee 73       		.byte	0x73
 2098 0aef 37000000 		.4byte	0x37
 2099 0af3 02       		.byte	0x2
 2100 0af4 91       		.byte	0x91
 2101 0af5 56       		.sleb128 -42
 2102 0af6 29       		.uleb128 0x29
 2103 0af7 01       		.byte	0x1
 2104 0af8 12000000 		.4byte	.LASF139
 2105 0afc 08       		.byte	0x8
 2106 0afd 00       		.byte	0
 2107 0afe 01       		.byte	0x1
 2108 0aff 70000000 		.4byte	0x70
 2109 0b03 01       		.byte	0x1
 2110 0b04 18       		.uleb128 0x18
 2111 0b05 5D010000 		.4byte	0x15d
 2112 0b09 18       		.uleb128 0x18
 2113 0b0a 6E060000 		.4byte	0x66e
 2114 0b0e 2A       		.uleb128 0x2a
 2115 0b0f 00       		.byte	0
 2116 0b10 00       		.byte	0
 2117 0b11 25       		.uleb128 0x25
 2118 0b12 20010000 		.4byte	.LBB4
 2119 0b16 68010000 		.4byte	.LBE4
 2120 0b1a 470B0000 		.4byte	0xb47
 2121 0b1e 24       		.uleb128 0x24
 2122 0b1f C2030000 		.4byte	.LASF138
 2123 0b23 01       		.byte	0x1
 2124 0b24 7E       		.byte	0x7e
 2125 0b25 50000000 		.4byte	0x50
 2126 0b29 02       		.byte	0x2
 2127 0b2a 91       		.byte	0x91
 2128 0b2b 58       		.sleb128 -40
 2129 0b2c 29       		.uleb128 0x29
 2130 0b2d 01       		.byte	0x1
 2131 0b2e 12000000 		.4byte	.LASF139
 2132 0b32 08       		.byte	0x8
 2133 0b33 00       		.byte	0
 2134 0b34 01       		.byte	0x1
 2135 0b35 70000000 		.4byte	0x70
 2136 0b39 01       		.byte	0x1
 2137 0b3a 18       		.uleb128 0x18
 2138 0b3b 5D010000 		.4byte	0x15d
 2139 0b3f 18       		.uleb128 0x18
 2140 0b40 6E060000 		.4byte	0x66e
 2141 0b44 2A       		.uleb128 0x2a
 2142 0b45 00       		.byte	0
 2143 0b46 00       		.byte	0
 2144 0b47 27       		.uleb128 0x27
 2145 0b48 76010000 		.4byte	.LBB5
 2146 0b4c BE010000 		.4byte	.LBE5
 2147 0b50 24       		.uleb128 0x24
 2148 0b51 68020000 		.4byte	.LASF140
 2149 0b55 01       		.byte	0x1
 2150 0b56 89       		.byte	0x89
 2151 0b57 77000000 		.4byte	0x77
ARM GAS  C:\Users\embedded\AppData\Local\Temp\ccYAJB2K.s 			page 43


 2152 0b5b 02       		.byte	0x2
 2153 0b5c 91       		.byte	0x91
 2154 0b5d 60       		.sleb128 -32
 2155 0b5e 29       		.uleb128 0x29
 2156 0b5f 01       		.byte	0x1
 2157 0b60 12000000 		.4byte	.LASF139
 2158 0b64 08       		.byte	0x8
 2159 0b65 00       		.byte	0
 2160 0b66 01       		.byte	0x1
 2161 0b67 70000000 		.4byte	0x70
 2162 0b6b 01       		.byte	0x1
 2163 0b6c 18       		.uleb128 0x18
 2164 0b6d 5D010000 		.4byte	0x15d
 2165 0b71 18       		.uleb128 0x18
 2166 0b72 6E060000 		.4byte	0x66e
 2167 0b76 2A       		.uleb128 0x2a
 2168 0b77 00       		.byte	0
 2169 0b78 00       		.byte	0
 2170 0b79 00       		.byte	0
 2171 0b7a 00       		.byte	0
 2172 0b7b 2B       		.uleb128 0x2b
 2173 0b7c 25000000 		.4byte	0x25
 2174 0b80 0E       		.uleb128 0xe
 2175 0b81 49000000 		.4byte	0x49
 2176 0b85 09       		.byte	0x9
 2177 0b86 00       		.byte	0
 2178 0b87 00       		.byte	0
 2179              		.section	.debug_abbrev,"",%progbits
 2180              	.Ldebug_abbrev0:
 2181 0000 01       		.uleb128 0x1
 2182 0001 11       		.uleb128 0x11
 2183 0002 01       		.byte	0x1
 2184 0003 25       		.uleb128 0x25
 2185 0004 0E       		.uleb128 0xe
 2186 0005 13       		.uleb128 0x13
 2187 0006 0B       		.uleb128 0xb
 2188 0007 03       		.uleb128 0x3
 2189 0008 0E       		.uleb128 0xe
 2190 0009 1B       		.uleb128 0x1b
 2191 000a 0E       		.uleb128 0xe
 2192 000b 11       		.uleb128 0x11
 2193 000c 01       		.uleb128 0x1
 2194 000d 12       		.uleb128 0x12
 2195 000e 01       		.uleb128 0x1
 2196 000f 10       		.uleb128 0x10
 2197 0010 06       		.uleb128 0x6
 2198 0011 00       		.byte	0
 2199 0012 00       		.byte	0
 2200 0013 02       		.uleb128 0x2
 2201 0014 16       		.uleb128 0x16
 2202 0015 00       		.byte	0
 2203 0016 03       		.uleb128 0x3
 2204 0017 08       		.uleb128 0x8
 2205 0018 3A       		.uleb128 0x3a
 2206 0019 0B       		.uleb128 0xb
 2207 001a 3B       		.uleb128 0x3b
 2208 001b 0B       		.uleb128 0xb
ARM GAS  C:\Users\embedded\AppData\Local\Temp\ccYAJB2K.s 			page 44


 2209 001c 49       		.uleb128 0x49
 2210 001d 13       		.uleb128 0x13
 2211 001e 00       		.byte	0
 2212 001f 00       		.byte	0
 2213 0020 03       		.uleb128 0x3
 2214 0021 24       		.uleb128 0x24
 2215 0022 00       		.byte	0
 2216 0023 0B       		.uleb128 0xb
 2217 0024 0B       		.uleb128 0xb
 2218 0025 3E       		.uleb128 0x3e
 2219 0026 0B       		.uleb128 0xb
 2220 0027 03       		.uleb128 0x3
 2221 0028 0E       		.uleb128 0xe
 2222 0029 00       		.byte	0
 2223 002a 00       		.byte	0
 2224 002b 04       		.uleb128 0x4
 2225 002c 16       		.uleb128 0x16
 2226 002d 00       		.byte	0
 2227 002e 03       		.uleb128 0x3
 2228 002f 0E       		.uleb128 0xe
 2229 0030 3A       		.uleb128 0x3a
 2230 0031 0B       		.uleb128 0xb
 2231 0032 3B       		.uleb128 0x3b
 2232 0033 0B       		.uleb128 0xb
 2233 0034 49       		.uleb128 0x49
 2234 0035 13       		.uleb128 0x13
 2235 0036 00       		.byte	0
 2236 0037 00       		.byte	0
 2237 0038 05       		.uleb128 0x5
 2238 0039 24       		.uleb128 0x24
 2239 003a 00       		.byte	0
 2240 003b 0B       		.uleb128 0xb
 2241 003c 0B       		.uleb128 0xb
 2242 003d 3E       		.uleb128 0x3e
 2243 003e 0B       		.uleb128 0xb
 2244 003f 03       		.uleb128 0x3
 2245 0040 08       		.uleb128 0x8
 2246 0041 00       		.byte	0
 2247 0042 00       		.byte	0
 2248 0043 06       		.uleb128 0x6
 2249 0044 04       		.uleb128 0x4
 2250 0045 01       		.byte	0x1
 2251 0046 3E       		.uleb128 0x3e
 2252 0047 0B       		.uleb128 0xb
 2253 0048 0B       		.uleb128 0xb
 2254 0049 0B       		.uleb128 0xb
 2255 004a 49       		.uleb128 0x49
 2256 004b 13       		.uleb128 0x13
 2257 004c 3A       		.uleb128 0x3a
 2258 004d 0B       		.uleb128 0xb
 2259 004e 3B       		.uleb128 0x3b
 2260 004f 0B       		.uleb128 0xb
 2261 0050 01       		.uleb128 0x1
 2262 0051 13       		.uleb128 0x13
 2263 0052 00       		.byte	0
 2264 0053 00       		.byte	0
 2265 0054 07       		.uleb128 0x7
ARM GAS  C:\Users\embedded\AppData\Local\Temp\ccYAJB2K.s 			page 45


 2266 0055 28       		.uleb128 0x28
 2267 0056 00       		.byte	0
 2268 0057 03       		.uleb128 0x3
 2269 0058 0E       		.uleb128 0xe
 2270 0059 1C       		.uleb128 0x1c
 2271 005a 0B       		.uleb128 0xb
 2272 005b 00       		.byte	0
 2273 005c 00       		.byte	0
 2274 005d 08       		.uleb128 0x8
 2275 005e 0F       		.uleb128 0xf
 2276 005f 00       		.byte	0
 2277 0060 0B       		.uleb128 0xb
 2278 0061 0B       		.uleb128 0xb
 2279 0062 49       		.uleb128 0x49
 2280 0063 13       		.uleb128 0x13
 2281 0064 00       		.byte	0
 2282 0065 00       		.byte	0
 2283 0066 09       		.uleb128 0x9
 2284 0067 13       		.uleb128 0x13
 2285 0068 00       		.byte	0
 2286 0069 03       		.uleb128 0x3
 2287 006a 0E       		.uleb128 0xe
 2288 006b 3C       		.uleb128 0x3c
 2289 006c 0C       		.uleb128 0xc
 2290 006d 00       		.byte	0
 2291 006e 00       		.byte	0
 2292 006f 0A       		.uleb128 0xa
 2293 0070 16       		.uleb128 0x16
 2294 0071 00       		.byte	0
 2295 0072 03       		.uleb128 0x3
 2296 0073 0E       		.uleb128 0xe
 2297 0074 3A       		.uleb128 0x3a
 2298 0075 0B       		.uleb128 0xb
 2299 0076 3B       		.uleb128 0x3b
 2300 0077 05       		.uleb128 0x5
 2301 0078 49       		.uleb128 0x49
 2302 0079 13       		.uleb128 0x13
 2303 007a 00       		.byte	0
 2304 007b 00       		.byte	0
 2305 007c 0B       		.uleb128 0xb
 2306 007d 17       		.uleb128 0x17
 2307 007e 01       		.byte	0x1
 2308 007f 0B       		.uleb128 0xb
 2309 0080 0B       		.uleb128 0xb
 2310 0081 3A       		.uleb128 0x3a
 2311 0082 0B       		.uleb128 0xb
 2312 0083 3B       		.uleb128 0x3b
 2313 0084 0B       		.uleb128 0xb
 2314 0085 01       		.uleb128 0x1
 2315 0086 13       		.uleb128 0x13
 2316 0087 00       		.byte	0
 2317 0088 00       		.byte	0
 2318 0089 0C       		.uleb128 0xc
 2319 008a 0D       		.uleb128 0xd
 2320 008b 00       		.byte	0
 2321 008c 03       		.uleb128 0x3
 2322 008d 0E       		.uleb128 0xe
ARM GAS  C:\Users\embedded\AppData\Local\Temp\ccYAJB2K.s 			page 46


 2323 008e 3A       		.uleb128 0x3a
 2324 008f 0B       		.uleb128 0xb
 2325 0090 3B       		.uleb128 0x3b
 2326 0091 0B       		.uleb128 0xb
 2327 0092 49       		.uleb128 0x49
 2328 0093 13       		.uleb128 0x13
 2329 0094 00       		.byte	0
 2330 0095 00       		.byte	0
 2331 0096 0D       		.uleb128 0xd
 2332 0097 01       		.uleb128 0x1
 2333 0098 01       		.byte	0x1
 2334 0099 49       		.uleb128 0x49
 2335 009a 13       		.uleb128 0x13
 2336 009b 01       		.uleb128 0x1
 2337 009c 13       		.uleb128 0x13
 2338 009d 00       		.byte	0
 2339 009e 00       		.byte	0
 2340 009f 0E       		.uleb128 0xe
 2341 00a0 21       		.uleb128 0x21
 2342 00a1 00       		.byte	0
 2343 00a2 49       		.uleb128 0x49
 2344 00a3 13       		.uleb128 0x13
 2345 00a4 2F       		.uleb128 0x2f
 2346 00a5 0B       		.uleb128 0xb
 2347 00a6 00       		.byte	0
 2348 00a7 00       		.byte	0
 2349 00a8 0F       		.uleb128 0xf
 2350 00a9 13       		.uleb128 0x13
 2351 00aa 01       		.byte	0x1
 2352 00ab 0B       		.uleb128 0xb
 2353 00ac 0B       		.uleb128 0xb
 2354 00ad 3A       		.uleb128 0x3a
 2355 00ae 0B       		.uleb128 0xb
 2356 00af 3B       		.uleb128 0x3b
 2357 00b0 0B       		.uleb128 0xb
 2358 00b1 01       		.uleb128 0x1
 2359 00b2 13       		.uleb128 0x13
 2360 00b3 00       		.byte	0
 2361 00b4 00       		.byte	0
 2362 00b5 10       		.uleb128 0x10
 2363 00b6 0D       		.uleb128 0xd
 2364 00b7 00       		.byte	0
 2365 00b8 03       		.uleb128 0x3
 2366 00b9 0E       		.uleb128 0xe
 2367 00ba 3A       		.uleb128 0x3a
 2368 00bb 0B       		.uleb128 0xb
 2369 00bc 3B       		.uleb128 0x3b
 2370 00bd 0B       		.uleb128 0xb
 2371 00be 49       		.uleb128 0x49
 2372 00bf 13       		.uleb128 0x13
 2373 00c0 38       		.uleb128 0x38
 2374 00c1 0A       		.uleb128 0xa
 2375 00c2 00       		.byte	0
 2376 00c3 00       		.byte	0
 2377 00c4 11       		.uleb128 0x11
 2378 00c5 0F       		.uleb128 0xf
 2379 00c6 00       		.byte	0
ARM GAS  C:\Users\embedded\AppData\Local\Temp\ccYAJB2K.s 			page 47


 2380 00c7 0B       		.uleb128 0xb
 2381 00c8 0B       		.uleb128 0xb
 2382 00c9 00       		.byte	0
 2383 00ca 00       		.byte	0
 2384 00cb 12       		.uleb128 0x12
 2385 00cc 26       		.uleb128 0x26
 2386 00cd 00       		.byte	0
 2387 00ce 49       		.uleb128 0x49
 2388 00cf 13       		.uleb128 0x13
 2389 00d0 00       		.byte	0
 2390 00d1 00       		.byte	0
 2391 00d2 13       		.uleb128 0x13
 2392 00d3 13       		.uleb128 0x13
 2393 00d4 01       		.byte	0x1
 2394 00d5 03       		.uleb128 0x3
 2395 00d6 0E       		.uleb128 0xe
 2396 00d7 0B       		.uleb128 0xb
 2397 00d8 0B       		.uleb128 0xb
 2398 00d9 3A       		.uleb128 0x3a
 2399 00da 0B       		.uleb128 0xb
 2400 00db 3B       		.uleb128 0x3b
 2401 00dc 0B       		.uleb128 0xb
 2402 00dd 01       		.uleb128 0x1
 2403 00de 13       		.uleb128 0x13
 2404 00df 00       		.byte	0
 2405 00e0 00       		.byte	0
 2406 00e1 14       		.uleb128 0x14
 2407 00e2 0D       		.uleb128 0xd
 2408 00e3 00       		.byte	0
 2409 00e4 03       		.uleb128 0x3
 2410 00e5 08       		.uleb128 0x8
 2411 00e6 3A       		.uleb128 0x3a
 2412 00e7 0B       		.uleb128 0xb
 2413 00e8 3B       		.uleb128 0x3b
 2414 00e9 0B       		.uleb128 0xb
 2415 00ea 49       		.uleb128 0x49
 2416 00eb 13       		.uleb128 0x13
 2417 00ec 38       		.uleb128 0x38
 2418 00ed 0A       		.uleb128 0xa
 2419 00ee 00       		.byte	0
 2420 00ef 00       		.byte	0
 2421 00f0 15       		.uleb128 0x15
 2422 00f1 13       		.uleb128 0x13
 2423 00f2 01       		.byte	0x1
 2424 00f3 03       		.uleb128 0x3
 2425 00f4 0E       		.uleb128 0xe
 2426 00f5 0B       		.uleb128 0xb
 2427 00f6 05       		.uleb128 0x5
 2428 00f7 3A       		.uleb128 0x3a
 2429 00f8 0B       		.uleb128 0xb
 2430 00f9 3B       		.uleb128 0x3b
 2431 00fa 0B       		.uleb128 0xb
 2432 00fb 01       		.uleb128 0x1
 2433 00fc 13       		.uleb128 0x13
 2434 00fd 00       		.byte	0
 2435 00fe 00       		.byte	0
 2436 00ff 16       		.uleb128 0x16
ARM GAS  C:\Users\embedded\AppData\Local\Temp\ccYAJB2K.s 			page 48


 2437 0100 15       		.uleb128 0x15
 2438 0101 00       		.byte	0
 2439 0102 27       		.uleb128 0x27
 2440 0103 0C       		.uleb128 0xc
 2441 0104 00       		.byte	0
 2442 0105 00       		.byte	0
 2443 0106 17       		.uleb128 0x17
 2444 0107 15       		.uleb128 0x15
 2445 0108 01       		.byte	0x1
 2446 0109 27       		.uleb128 0x27
 2447 010a 0C       		.uleb128 0xc
 2448 010b 49       		.uleb128 0x49
 2449 010c 13       		.uleb128 0x13
 2450 010d 01       		.uleb128 0x1
 2451 010e 13       		.uleb128 0x13
 2452 010f 00       		.byte	0
 2453 0110 00       		.byte	0
 2454 0111 18       		.uleb128 0x18
 2455 0112 05       		.uleb128 0x5
 2456 0113 00       		.byte	0
 2457 0114 49       		.uleb128 0x49
 2458 0115 13       		.uleb128 0x13
 2459 0116 00       		.byte	0
 2460 0117 00       		.byte	0
 2461 0118 19       		.uleb128 0x19
 2462 0119 13       		.uleb128 0x13
 2463 011a 01       		.byte	0x1
 2464 011b 03       		.uleb128 0x3
 2465 011c 0E       		.uleb128 0xe
 2466 011d 0B       		.uleb128 0xb
 2467 011e 05       		.uleb128 0x5
 2468 011f 3A       		.uleb128 0x3a
 2469 0120 0B       		.uleb128 0xb
 2470 0121 3B       		.uleb128 0x3b
 2471 0122 05       		.uleb128 0x5
 2472 0123 01       		.uleb128 0x1
 2473 0124 13       		.uleb128 0x13
 2474 0125 00       		.byte	0
 2475 0126 00       		.byte	0
 2476 0127 1A       		.uleb128 0x1a
 2477 0128 0D       		.uleb128 0xd
 2478 0129 00       		.byte	0
 2479 012a 03       		.uleb128 0x3
 2480 012b 0E       		.uleb128 0xe
 2481 012c 3A       		.uleb128 0x3a
 2482 012d 0B       		.uleb128 0xb
 2483 012e 3B       		.uleb128 0x3b
 2484 012f 05       		.uleb128 0x5
 2485 0130 49       		.uleb128 0x49
 2486 0131 13       		.uleb128 0x13
 2487 0132 38       		.uleb128 0x38
 2488 0133 0A       		.uleb128 0xa
 2489 0134 00       		.byte	0
 2490 0135 00       		.byte	0
 2491 0136 1B       		.uleb128 0x1b
 2492 0137 13       		.uleb128 0x13
 2493 0138 01       		.byte	0x1
ARM GAS  C:\Users\embedded\AppData\Local\Temp\ccYAJB2K.s 			page 49


 2494 0139 03       		.uleb128 0x3
 2495 013a 0E       		.uleb128 0xe
 2496 013b 0B       		.uleb128 0xb
 2497 013c 0B       		.uleb128 0xb
 2498 013d 3A       		.uleb128 0x3a
 2499 013e 0B       		.uleb128 0xb
 2500 013f 3B       		.uleb128 0x3b
 2501 0140 05       		.uleb128 0x5
 2502 0141 01       		.uleb128 0x1
 2503 0142 13       		.uleb128 0x13
 2504 0143 00       		.byte	0
 2505 0144 00       		.byte	0
 2506 0145 1C       		.uleb128 0x1c
 2507 0146 13       		.uleb128 0x13
 2508 0147 01       		.byte	0x1
 2509 0148 0B       		.uleb128 0xb
 2510 0149 0B       		.uleb128 0xb
 2511 014a 3A       		.uleb128 0x3a
 2512 014b 0B       		.uleb128 0xb
 2513 014c 3B       		.uleb128 0x3b
 2514 014d 05       		.uleb128 0x5
 2515 014e 01       		.uleb128 0x1
 2516 014f 13       		.uleb128 0x13
 2517 0150 00       		.byte	0
 2518 0151 00       		.byte	0
 2519 0152 1D       		.uleb128 0x1d
 2520 0153 17       		.uleb128 0x17
 2521 0154 01       		.byte	0x1
 2522 0155 0B       		.uleb128 0xb
 2523 0156 0B       		.uleb128 0xb
 2524 0157 3A       		.uleb128 0x3a
 2525 0158 0B       		.uleb128 0xb
 2526 0159 3B       		.uleb128 0x3b
 2527 015a 05       		.uleb128 0x5
 2528 015b 01       		.uleb128 0x1
 2529 015c 13       		.uleb128 0x13
 2530 015d 00       		.byte	0
 2531 015e 00       		.byte	0
 2532 015f 1E       		.uleb128 0x1e
 2533 0160 0D       		.uleb128 0xd
 2534 0161 00       		.byte	0
 2535 0162 03       		.uleb128 0x3
 2536 0163 0E       		.uleb128 0xe
 2537 0164 3A       		.uleb128 0x3a
 2538 0165 0B       		.uleb128 0xb
 2539 0166 3B       		.uleb128 0x3b
 2540 0167 05       		.uleb128 0x5
 2541 0168 49       		.uleb128 0x49
 2542 0169 13       		.uleb128 0x13
 2543 016a 00       		.byte	0
 2544 016b 00       		.byte	0
 2545 016c 1F       		.uleb128 0x1f
 2546 016d 15       		.uleb128 0x15
 2547 016e 01       		.byte	0x1
 2548 016f 27       		.uleb128 0x27
 2549 0170 0C       		.uleb128 0xc
 2550 0171 01       		.uleb128 0x1
ARM GAS  C:\Users\embedded\AppData\Local\Temp\ccYAJB2K.s 			page 50


 2551 0172 13       		.uleb128 0x13
 2552 0173 00       		.byte	0
 2553 0174 00       		.byte	0
 2554 0175 20       		.uleb128 0x20
 2555 0176 34       		.uleb128 0x34
 2556 0177 00       		.byte	0
 2557 0178 03       		.uleb128 0x3
 2558 0179 0E       		.uleb128 0xe
 2559 017a 3A       		.uleb128 0x3a
 2560 017b 0B       		.uleb128 0xb
 2561 017c 3B       		.uleb128 0x3b
 2562 017d 05       		.uleb128 0x5
 2563 017e 49       		.uleb128 0x49
 2564 017f 13       		.uleb128 0x13
 2565 0180 3F       		.uleb128 0x3f
 2566 0181 0C       		.uleb128 0xc
 2567 0182 3C       		.uleb128 0x3c
 2568 0183 0C       		.uleb128 0xc
 2569 0184 00       		.byte	0
 2570 0185 00       		.byte	0
 2571 0186 21       		.uleb128 0x21
 2572 0187 04       		.uleb128 0x4
 2573 0188 01       		.byte	0x1
 2574 0189 03       		.uleb128 0x3
 2575 018a 0E       		.uleb128 0xe
 2576 018b 3E       		.uleb128 0x3e
 2577 018c 0B       		.uleb128 0xb
 2578 018d 0B       		.uleb128 0xb
 2579 018e 0B       		.uleb128 0xb
 2580 018f 49       		.uleb128 0x49
 2581 0190 13       		.uleb128 0x13
 2582 0191 3A       		.uleb128 0x3a
 2583 0192 0B       		.uleb128 0xb
 2584 0193 3B       		.uleb128 0x3b
 2585 0194 05       		.uleb128 0x5
 2586 0195 01       		.uleb128 0x1
 2587 0196 13       		.uleb128 0x13
 2588 0197 00       		.byte	0
 2589 0198 00       		.byte	0
 2590 0199 22       		.uleb128 0x22
 2591 019a 28       		.uleb128 0x28
 2592 019b 00       		.byte	0
 2593 019c 03       		.uleb128 0x3
 2594 019d 0E       		.uleb128 0xe
 2595 019e 1C       		.uleb128 0x1c
 2596 019f 0D       		.uleb128 0xd
 2597 01a0 00       		.byte	0
 2598 01a1 00       		.byte	0
 2599 01a2 23       		.uleb128 0x23
 2600 01a3 2E       		.uleb128 0x2e
 2601 01a4 01       		.byte	0x1
 2602 01a5 3F       		.uleb128 0x3f
 2603 01a6 0C       		.uleb128 0xc
 2604 01a7 03       		.uleb128 0x3
 2605 01a8 0E       		.uleb128 0xe
 2606 01a9 3A       		.uleb128 0x3a
 2607 01aa 0B       		.uleb128 0xb
ARM GAS  C:\Users\embedded\AppData\Local\Temp\ccYAJB2K.s 			page 51


 2608 01ab 3B       		.uleb128 0x3b
 2609 01ac 0B       		.uleb128 0xb
 2610 01ad 27       		.uleb128 0x27
 2611 01ae 0C       		.uleb128 0xc
 2612 01af 11       		.uleb128 0x11
 2613 01b0 01       		.uleb128 0x1
 2614 01b1 12       		.uleb128 0x12
 2615 01b2 01       		.uleb128 0x1
 2616 01b3 40       		.uleb128 0x40
 2617 01b4 06       		.uleb128 0x6
 2618 01b5 9642     		.uleb128 0x2116
 2619 01b7 0C       		.uleb128 0xc
 2620 01b8 01       		.uleb128 0x1
 2621 01b9 13       		.uleb128 0x13
 2622 01ba 00       		.byte	0
 2623 01bb 00       		.byte	0
 2624 01bc 24       		.uleb128 0x24
 2625 01bd 34       		.uleb128 0x34
 2626 01be 00       		.byte	0
 2627 01bf 03       		.uleb128 0x3
 2628 01c0 0E       		.uleb128 0xe
 2629 01c1 3A       		.uleb128 0x3a
 2630 01c2 0B       		.uleb128 0xb
 2631 01c3 3B       		.uleb128 0x3b
 2632 01c4 0B       		.uleb128 0xb
 2633 01c5 49       		.uleb128 0x49
 2634 01c6 13       		.uleb128 0x13
 2635 01c7 02       		.uleb128 0x2
 2636 01c8 0A       		.uleb128 0xa
 2637 01c9 00       		.byte	0
 2638 01ca 00       		.byte	0
 2639 01cb 25       		.uleb128 0x25
 2640 01cc 0B       		.uleb128 0xb
 2641 01cd 01       		.byte	0x1
 2642 01ce 11       		.uleb128 0x11
 2643 01cf 01       		.uleb128 0x1
 2644 01d0 12       		.uleb128 0x12
 2645 01d1 01       		.uleb128 0x1
 2646 01d2 01       		.uleb128 0x1
 2647 01d3 13       		.uleb128 0x13
 2648 01d4 00       		.byte	0
 2649 01d5 00       		.byte	0
 2650 01d6 26       		.uleb128 0x26
 2651 01d7 34       		.uleb128 0x34
 2652 01d8 00       		.byte	0
 2653 01d9 03       		.uleb128 0x3
 2654 01da 08       		.uleb128 0x8
 2655 01db 3A       		.uleb128 0x3a
 2656 01dc 0B       		.uleb128 0xb
 2657 01dd 3B       		.uleb128 0x3b
 2658 01de 0B       		.uleb128 0xb
 2659 01df 49       		.uleb128 0x49
 2660 01e0 13       		.uleb128 0x13
 2661 01e1 02       		.uleb128 0x2
 2662 01e2 0A       		.uleb128 0xa
 2663 01e3 00       		.byte	0
 2664 01e4 00       		.byte	0
ARM GAS  C:\Users\embedded\AppData\Local\Temp\ccYAJB2K.s 			page 52


 2665 01e5 27       		.uleb128 0x27
 2666 01e6 0B       		.uleb128 0xb
 2667 01e7 01       		.byte	0x1
 2668 01e8 11       		.uleb128 0x11
 2669 01e9 01       		.uleb128 0x1
 2670 01ea 12       		.uleb128 0x12
 2671 01eb 01       		.uleb128 0x1
 2672 01ec 00       		.byte	0
 2673 01ed 00       		.byte	0
 2674 01ee 28       		.uleb128 0x28
 2675 01ef 2E       		.uleb128 0x2e
 2676 01f0 01       		.byte	0x1
 2677 01f1 3F       		.uleb128 0x3f
 2678 01f2 0C       		.uleb128 0xc
 2679 01f3 03       		.uleb128 0x3
 2680 01f4 0E       		.uleb128 0xe
 2681 01f5 3A       		.uleb128 0x3a
 2682 01f6 0B       		.uleb128 0xb
 2683 01f7 3B       		.uleb128 0x3b
 2684 01f8 0B       		.uleb128 0xb
 2685 01f9 27       		.uleb128 0x27
 2686 01fa 0C       		.uleb128 0xc
 2687 01fb 49       		.uleb128 0x49
 2688 01fc 13       		.uleb128 0x13
 2689 01fd 11       		.uleb128 0x11
 2690 01fe 01       		.uleb128 0x1
 2691 01ff 12       		.uleb128 0x12
 2692 0200 01       		.uleb128 0x1
 2693 0201 40       		.uleb128 0x40
 2694 0202 06       		.uleb128 0x6
 2695 0203 9642     		.uleb128 0x2116
 2696 0205 0C       		.uleb128 0xc
 2697 0206 01       		.uleb128 0x1
 2698 0207 13       		.uleb128 0x13
 2699 0208 00       		.byte	0
 2700 0209 00       		.byte	0
 2701 020a 29       		.uleb128 0x29
 2702 020b 2E       		.uleb128 0x2e
 2703 020c 01       		.byte	0x1
 2704 020d 3F       		.uleb128 0x3f
 2705 020e 0C       		.uleb128 0xc
 2706 020f 03       		.uleb128 0x3
 2707 0210 0E       		.uleb128 0xe
 2708 0211 3A       		.uleb128 0x3a
 2709 0212 0B       		.uleb128 0xb
 2710 0213 3B       		.uleb128 0x3b
 2711 0214 0B       		.uleb128 0xb
 2712 0215 27       		.uleb128 0x27
 2713 0216 0C       		.uleb128 0xc
 2714 0217 49       		.uleb128 0x49
 2715 0218 13       		.uleb128 0x13
 2716 0219 3C       		.uleb128 0x3c
 2717 021a 0C       		.uleb128 0xc
 2718 021b 00       		.byte	0
 2719 021c 00       		.byte	0
 2720 021d 2A       		.uleb128 0x2a
 2721 021e 18       		.uleb128 0x18
ARM GAS  C:\Users\embedded\AppData\Local\Temp\ccYAJB2K.s 			page 53


 2722 021f 00       		.byte	0
 2723 0220 00       		.byte	0
 2724 0221 00       		.byte	0
 2725 0222 2B       		.uleb128 0x2b
 2726 0223 01       		.uleb128 0x1
 2727 0224 01       		.byte	0x1
 2728 0225 49       		.uleb128 0x49
 2729 0226 13       		.uleb128 0x13
 2730 0227 00       		.byte	0
 2731 0228 00       		.byte	0
 2732 0229 00       		.byte	0
 2733              		.section	.debug_loc,"",%progbits
 2734              	.Ldebug_loc0:
 2735              	.LLST1:
 2736 0000 14020000 		.4byte	.LFB1-.Ltext0
 2737 0004 16020000 		.4byte	.LCFI3-.Ltext0
 2738 0008 0200     		.2byte	0x2
 2739 000a 7D       		.byte	0x7d
 2740 000b 00       		.sleb128 0
 2741 000c 16020000 		.4byte	.LCFI3-.Ltext0
 2742 0010 18020000 		.4byte	.LCFI4-.Ltext0
 2743 0014 0200     		.2byte	0x2
 2744 0016 7D       		.byte	0x7d
 2745 0017 08       		.sleb128 8
 2746 0018 18020000 		.4byte	.LCFI4-.Ltext0
 2747 001c 1A020000 		.4byte	.LCFI5-.Ltext0
 2748 0020 0200     		.2byte	0x2
 2749 0022 7D       		.byte	0x7d
 2750 0023 18       		.sleb128 24
 2751 0024 1A020000 		.4byte	.LCFI5-.Ltext0
 2752 0028 E0030000 		.4byte	.LFE1-.Ltext0
 2753 002c 0200     		.2byte	0x2
 2754 002e 77       		.byte	0x77
 2755 002f 18       		.sleb128 24
 2756 0030 00000000 		.4byte	0
 2757 0034 00000000 		.4byte	0
 2758              	.LLST0:
 2759 0038 00000000 		.4byte	.LFB0-.Ltext0
 2760 003c 02000000 		.4byte	.LCFI0-.Ltext0
 2761 0040 0200     		.2byte	0x2
 2762 0042 7D       		.byte	0x7d
 2763 0043 00       		.sleb128 0
 2764 0044 02000000 		.4byte	.LCFI0-.Ltext0
 2765 0048 04000000 		.4byte	.LCFI1-.Ltext0
 2766 004c 0200     		.2byte	0x2
 2767 004e 7D       		.byte	0x7d
 2768 004f 10       		.sleb128 16
 2769 0050 04000000 		.4byte	.LCFI1-.Ltext0
 2770 0054 06000000 		.4byte	.LCFI2-.Ltext0
 2771 0058 0200     		.2byte	0x2
 2772 005a 7D       		.byte	0x7d
 2773 005b 38       		.sleb128 56
 2774 005c 06000000 		.4byte	.LCFI2-.Ltext0
 2775 0060 14020000 		.4byte	.LFE0-.Ltext0
 2776 0064 0200     		.2byte	0x2
 2777 0066 77       		.byte	0x77
 2778 0067 38       		.sleb128 56
ARM GAS  C:\Users\embedded\AppData\Local\Temp\ccYAJB2K.s 			page 54


 2779 0068 00000000 		.4byte	0
 2780 006c 00000000 		.4byte	0
 2781              		.section	.debug_aranges,"",%progbits
 2782 0000 1C000000 		.4byte	0x1c
 2783 0004 0200     		.2byte	0x2
 2784 0006 00000000 		.4byte	.Ldebug_info0
 2785 000a 04       		.byte	0x4
 2786 000b 00       		.byte	0
 2787 000c 0000     		.2byte	0
 2788 000e 0000     		.2byte	0
 2789 0010 00000000 		.4byte	.Ltext0
 2790 0014 E0030000 		.4byte	.Letext0-.Ltext0
 2791 0018 00000000 		.4byte	0
 2792 001c 00000000 		.4byte	0
 2793              		.section	.debug_line,"",%progbits
 2794              	.Ldebug_line0:
 2795 0000 6E010000 		.section	.debug_str,"MS",%progbits,1
 2795      0200F900 
 2795      00000201 
 2795      FB0E0D00 
 2795      01010101 
 2796              	.LASF44:
 2797 0000 5F64736F 		.ascii	"_dso_handle\000"
 2797      5F68616E 
 2797      646C6500 
 2798              	.LASF52:
 2799 000c 5F73697A 		.ascii	"_size\000"
 2799      6500
 2800              	.LASF139:
 2801 0012 73707269 		.ascii	"sprintf\000"
 2801      6E746600 
 2802              	.LASF96:
 2803 001a 5F72616E 		.ascii	"_rand48\000"
 2803      64343800 
 2804              	.LASF76:
 2805 0022 5F656D65 		.ascii	"_emergency\000"
 2805      7267656E 
 2805      637900
 2806              	.LASF135:
 2807 002d 63686172 		.ascii	"charArray\000"
 2807      41727261 
 2807      7900
 2808              	.LASF66:
 2809 0037 5F646174 		.ascii	"_data\000"
 2809      6100
 2810              	.LASF116:
 2811 003d 5F776372 		.ascii	"_wcrtomb_state\000"
 2811      746F6D62 
 2811      5F737461 
 2811      746500
 2812              	.LASF117:
 2813 004c 5F776373 		.ascii	"_wcsrtombs_state\000"
 2813      72746F6D 
 2813      62735F73 
 2813      74617465 
 2813      00
 2814              	.LASF5:
ARM GAS  C:\Users\embedded\AppData\Local\Temp\ccYAJB2K.s 			page 55


 2815 005d 6C6F6E67 		.ascii	"long long unsigned int\000"
 2815      206C6F6E 
 2815      6720756E 
 2815      7369676E 
 2815      65642069 
 2816              	.LASF131:
 2817 0074 5F5F6664 		.ascii	"__fdlibm_posix\000"
 2817      6C69626D 
 2817      5F706F73 
 2817      697800
 2818              	.LASF56:
 2819 0083 5F6C6266 		.ascii	"_lbfsize\000"
 2819      73697A65 
 2819      00
 2820              	.LASF123:
 2821 008c 5F5F6C6F 		.ascii	"__locale_t\000"
 2821      63616C65 
 2821      5F7400
 2822              	.LASF130:
 2823 0097 5F5F6664 		.ascii	"__fdlibm_xopen\000"
 2823      6C69626D 
 2823      5F786F70 
 2823      656E00
 2824              	.LASF114:
 2825 00a6 5F6D6272 		.ascii	"_mbrtowc_state\000"
 2825      746F7763 
 2825      5F737461 
 2825      746500
 2826              	.LASF33:
 2827 00b5 5F5F746D 		.ascii	"__tm_sec\000"
 2827      5F736563 
 2827      00
 2828              	.LASF9:
 2829 00be 6C6F6E67 		.ascii	"long long int\000"
 2829      206C6F6E 
 2829      6720696E 
 2829      7400
 2830              	.LASF6:
 2831 00cc 7369676E 		.ascii	"signed char\000"
 2831      65642063 
 2831      68617200 
 2832              	.LASF145:
 2833 00d8 7072696E 		.ascii	"printCurrentTime\000"
 2833      74437572 
 2833      72656E74 
 2833      54696D65 
 2833      00
 2834              	.LASF62:
 2835 00e9 5F756275 		.ascii	"_ubuf\000"
 2835      6600
 2836              	.LASF51:
 2837 00ef 5F626173 		.ascii	"_base\000"
 2837      6500
 2838              	.LASF35:
 2839 00f5 5F5F746D 		.ascii	"__tm_hour\000"
 2839      5F686F75 
 2839      7200
ARM GAS  C:\Users\embedded\AppData\Local\Temp\ccYAJB2K.s 			page 56


 2840              	.LASF91:
 2841 00ff 5F5F7366 		.ascii	"__sf\000"
 2841      00
 2842              	.LASF42:
 2843 0104 5F6F6E5F 		.ascii	"_on_exit_args\000"
 2843      65786974 
 2843      5F617267 
 2843      7300
 2844              	.LASF57:
 2845 0112 5F636F6F 		.ascii	"_cookie\000"
 2845      6B696500 
 2846              	.LASF90:
 2847 011a 5F5F7367 		.ascii	"__sglue\000"
 2847      6C756500 
 2848              	.LASF0:
 2849 0122 74553136 		.ascii	"tU16\000"
 2849      00
 2850              	.LASF13:
 2851 0127 6C6F6E67 		.ascii	"long int\000"
 2851      20696E74 
 2851      00
 2852              	.LASF8:
 2853 0130 74533634 		.ascii	"tS64\000"
 2853      00
 2854              	.LASF46:
 2855 0135 5F69735F 		.ascii	"_is_cxa\000"
 2855      63786100 
 2856              	.LASF72:
 2857 013d 5F737464 		.ascii	"_stdin\000"
 2857      696E00
 2858              	.LASF129:
 2859 0144 5F5F6664 		.ascii	"__fdlibm_svid\000"
 2859      6C69626D 
 2859      5F737669 
 2859      6400
 2860              	.LASF134:
 2861 0152 70636139 		.ascii	"pca9532Present\000"
 2861      35333250 
 2861      72657365 
 2861      6E7400
 2862              	.LASF64:
 2863 0161 5F626C6B 		.ascii	"_blksize\000"
 2863      73697A65 
 2863      00
 2864              	.LASF127:
 2865 016a 646F7562 		.ascii	"double\000"
 2865      6C6500
 2866              	.LASF86:
 2867 0171 5F637674 		.ascii	"_cvtbuf\000"
 2867      62756600 
 2868              	.LASF65:
 2869 0179 5F6F6666 		.ascii	"_offset\000"
 2869      73657400 
 2870              	.LASF115:
 2871 0181 5F6D6273 		.ascii	"_mbsrtowcs_state\000"
 2871      72746F77 
 2871      63735F73 
ARM GAS  C:\Users\embedded\AppData\Local\Temp\ccYAJB2K.s 			page 57


 2871      74617465 
 2871      00
 2872              	.LASF113:
 2873 0192 5F6D6272 		.ascii	"_mbrlen_state\000"
 2873      6C656E5F 
 2873      73746174 
 2873      6500
 2874              	.LASF43:
 2875 01a0 5F666E61 		.ascii	"_fnargs\000"
 2875      72677300 
 2876              	.LASF49:
 2877 01a8 5F666E73 		.ascii	"_fns\000"
 2877      00
 2878              	.LASF29:
 2879 01ad 5F736967 		.ascii	"_sign\000"
 2879      6E00
 2880              	.LASF24:
 2881 01b3 5F666C6F 		.ascii	"_flock_t\000"
 2881      636B5F74 
 2881      00
 2882              	.LASF74:
 2883 01bc 5F737464 		.ascii	"_stderr\000"
 2883      65727200 
 2884              	.LASF31:
 2885 01c4 5F426967 		.ascii	"_Bigint\000"
 2885      696E7400 
 2886              	.LASF104:
 2887 01cc 5F67616D 		.ascii	"_gamma_signgam\000"
 2887      6D615F73 
 2887      69676E67 
 2887      616D00
 2888              	.LASF58:
 2889 01db 5F726561 		.ascii	"_read\000"
 2889      6400
 2890              	.LASF82:
 2891 01e1 5F726573 		.ascii	"_result_k\000"
 2891      756C745F 
 2891      6B00
 2892              	.LASF32:
 2893 01eb 5F5F746D 		.ascii	"__tm\000"
 2893      00
 2894              	.LASF3:
 2895 01f0 756E7369 		.ascii	"unsigned int\000"
 2895      676E6564 
 2895      20696E74 
 2895      00
 2896              	.LASF20:
 2897 01fd 5F5F7763 		.ascii	"__wchb\000"
 2897      686200
 2898              	.LASF73:
 2899 0204 5F737464 		.ascii	"_stdout\000"
 2899      6F757400 
 2900              	.LASF85:
 2901 020c 5F637674 		.ascii	"_cvtlen\000"
 2901      6C656E00 
 2902              	.LASF14:
 2903 0214 6C6F6E67 		.ascii	"long unsigned int\000"
ARM GAS  C:\Users\embedded\AppData\Local\Temp\ccYAJB2K.s 			page 58


 2903      20756E73 
 2903      69676E65 
 2903      6420696E 
 2903      7400
 2904              	.LASF55:
 2905 0226 5F66696C 		.ascii	"_file\000"
 2905      6500
 2906              	.LASF94:
 2907 022c 5F6E696F 		.ascii	"_niobs\000"
 2907      627300
 2908              	.LASF2:
 2909 0233 73686F72 		.ascii	"short unsigned int\000"
 2909      7420756E 
 2909      7369676E 
 2909      65642069 
 2909      6E7400
 2910              	.LASF88:
 2911 0246 5F617465 		.ascii	"_atexit0\000"
 2911      78697430 
 2911      00
 2912              	.LASF111:
 2913 024f 5F736967 		.ascii	"_signal_buf\000"
 2913      6E616C5F 
 2913      62756600 
 2914              	.LASF102:
 2915 025b 5F617363 		.ascii	"_asctime_buf\000"
 2915      74696D65 
 2915      5F627566 
 2915      00
 2916              	.LASF140:
 2917 0268 70726573 		.ascii	"pressureValue\000"
 2917      73757265 
 2917      56616C75 
 2917      6500
 2918              	.LASF81:
 2919 0276 5F726573 		.ascii	"_result\000"
 2919      756C7400 
 2920              	.LASF19:
 2921 027e 5F5F7763 		.ascii	"__wch\000"
 2921      6800
 2922              	.LASF15:
 2923 0284 5F4C4F43 		.ascii	"_LOCK_T\000"
 2923      4B5F5400 
 2924              	.LASF142:
 2925 028c 6D61696E 		.ascii	"main.c\000"
 2925      2E6300
 2926              	.LASF18:
 2927 0293 77696E74 		.ascii	"wint_t\000"
 2927      5F7400
 2928              	.LASF67:
 2929 029a 5F6C6F63 		.ascii	"_lock\000"
 2929      6B00
 2930              	.LASF69:
 2931 02a0 5F666C61 		.ascii	"_flags2\000"
 2931      67733200 
 2932              	.LASF59:
 2933 02a8 5F777269 		.ascii	"_write\000"
ARM GAS  C:\Users\embedded\AppData\Local\Temp\ccYAJB2K.s 			page 59


 2933      746500
 2934              	.LASF38:
 2935 02af 5F5F746D 		.ascii	"__tm_year\000"
 2935      5F796561 
 2935      7200
 2936              	.LASF12:
 2937 02b9 6C6F6E67 		.ascii	"long double\000"
 2937      20646F75 
 2937      626C6500 
 2938              	.LASF119:
 2939 02c5 5F6E6578 		.ascii	"_nextf\000"
 2939      746600
 2940              	.LASF37:
 2941 02cc 5F5F746D 		.ascii	"__tm_mon\000"
 2941      5F6D6F6E 
 2941      00
 2942              	.LASF47:
 2943 02d5 5F617465 		.ascii	"_atexit\000"
 2943      78697400 
 2944              	.LASF79:
 2945 02dd 5F5F7364 		.ascii	"__sdidinit\000"
 2945      6964696E 
 2945      697400
 2946              	.LASF16:
 2947 02e8 5F6F6666 		.ascii	"_off_t\000"
 2947      5F7400
 2948              	.LASF133:
 2949 02ef 66756C6C 		.ascii	"fullHourTable\000"
 2949      486F7572 
 2949      5461626C 
 2949      6500
 2950              	.LASF143:
 2951 02fd 433A5C45 		.ascii	"C:\\Embedded\\2138MiniDemo\\2138\000"
 2951      6D626564 
 2951      6465645C 
 2951      32313338 
 2951      4D696E69 
 2952              	.LASF126:
 2953 031b 666C6F61 		.ascii	"float\000"
 2953      7400
 2954              	.LASF10:
 2955 0321 46414C53 		.ascii	"FALSE\000"
 2955      4500
 2956              	.LASF141:
 2957 0327 474E5520 		.ascii	"GNU C11 7.3.1 20180622 (release) [ARM/embedded-7-br"
 2957      43313120 
 2957      372E332E 
 2957      31203230 
 2957      31383036 
 2958 035a 616E6368 		.ascii	"anch revision 261907] -mcpu=arm7tdmi -mthumb -mthum"
 2958      20726576 
 2958      6973696F 
 2958      6E203236 
 2958      31393037 
 2959 038d 622D696E 		.ascii	"b-interwork -gdwarf-2 -O0\000"
 2959      74657277 
 2959      6F726B20 
ARM GAS  C:\Users\embedded\AppData\Local\Temp\ccYAJB2K.s 			page 60


 2959      2D676477 
 2959      6172662D 
 2960              	.LASF109:
 2961 03a7 5F776374 		.ascii	"_wctomb_state\000"
 2961      6F6D625F 
 2961      73746174 
 2961      6500
 2962              	.LASF107:
 2963 03b5 5F6D626C 		.ascii	"_mblen_state\000"
 2963      656E5F73 
 2963      74617465 
 2963      00
 2964              	.LASF138:
 2965 03c2 62726967 		.ascii	"brightnessValue\000"
 2965      68746E65 
 2965      73735661 
 2965      6C756500 
 2966              	.LASF1:
 2967 03d2 756E7369 		.ascii	"unsigned char\000"
 2967      676E6564 
 2967      20636861 
 2967      7200
 2968              	.LASF87:
 2969 03e0 5F6E6577 		.ascii	"_new\000"
 2969      00
 2970              	.LASF118:
 2971 03e5 5F685F65 		.ascii	"_h_errno\000"
 2971      72726E6F 
 2971      00
 2972              	.LASF7:
 2973 03ee 73686F72 		.ascii	"short int\000"
 2973      7420696E 
 2973      7400
 2974              	.LASF40:
 2975 03f8 5F5F746D 		.ascii	"__tm_yday\000"
 2975      5F796461 
 2975      7900
 2976              	.LASF50:
 2977 0402 5F5F7362 		.ascii	"__sbuf\000"
 2977      756600
 2978              	.LASF132:
 2979 0409 5F5F6664 		.ascii	"__fdlib_version\000"
 2979      6C69625F 
 2979      76657273 
 2979      696F6E00 
 2980              	.LASF84:
 2981 0419 5F667265 		.ascii	"_freelist\000"
 2981      656C6973 
 2981      7400
 2982              	.LASF92:
 2983 0423 5F5F4649 		.ascii	"__FILE\000"
 2983      4C4500
 2984              	.LASF23:
 2985 042a 5F6D6273 		.ascii	"_mbstate_t\000"
 2985      74617465 
 2985      5F7400
 2986              	.LASF53:
ARM GAS  C:\Users\embedded\AppData\Local\Temp\ccYAJB2K.s 			page 61


 2987 0435 5F5F7346 		.ascii	"__sFILE\000"
 2987      494C4500 
 2988              	.LASF68:
 2989 043d 5F6D6273 		.ascii	"_mbstate\000"
 2989      74617465 
 2989      00
 2990              	.LASF105:
 2991 0446 5F72616E 		.ascii	"_rand_next\000"
 2991      645F6E65 
 2991      787400
 2992              	.LASF137:
 2993 0451 68756D69 		.ascii	"humidityValue\000"
 2993      64697479 
 2993      56616C75 
 2993      6500
 2994              	.LASF95:
 2995 045f 5F696F62 		.ascii	"_iobs\000"
 2995      7300
 2996              	.LASF75:
 2997 0465 5F696E63 		.ascii	"_inc\000"
 2997      00
 2998              	.LASF48:
 2999 046a 5F696E64 		.ascii	"_ind\000"
 2999      00
 3000              	.LASF136:
 3001 046f 68656C70 		.ascii	"helperValue\000"
 3001      65725661 
 3001      6C756500 
 3002              	.LASF78:
 3003 047b 5F6C6F63 		.ascii	"_locale\000"
 3003      616C6500 
 3004              	.LASF80:
 3005 0483 5F5F636C 		.ascii	"__cleanup\000"
 3005      65616E75 
 3005      7000
 3006              	.LASF77:
 3007 048d 5F756E73 		.ascii	"_unspecified_locale_info\000"
 3007      70656369 
 3007      66696564 
 3007      5F6C6F63 
 3007      616C655F 
 3008              	.LASF11:
 3009 04a6 54525545 		.ascii	"TRUE\000"
 3009      00
 3010              	.LASF70:
 3011 04ab 5F726565 		.ascii	"_reent\000"
 3011      6E7400
 3012              	.LASF97:
 3013 04b2 5F736565 		.ascii	"_seed\000"
 3013      6400
 3014              	.LASF21:
 3015 04b8 5F5F636F 		.ascii	"__count\000"
 3015      756E7400 
 3016              	.LASF122:
 3017 04c0 5F5F6C6F 		.ascii	"__lock\000"
 3017      636B00
 3018              	.LASF22:
ARM GAS  C:\Users\embedded\AppData\Local\Temp\ccYAJB2K.s 			page 62


 3019 04c7 5F5F7661 		.ascii	"__value\000"
 3019      6C756500 
 3020              	.LASF60:
 3021 04cf 5F736565 		.ascii	"_seek\000"
 3021      6B00
 3022              	.LASF124:
 3023 04d5 5F696D70 		.ascii	"_impure_ptr\000"
 3023      7572655F 
 3023      70747200 
 3024              	.LASF17:
 3025 04e1 5F66706F 		.ascii	"_fpos_t\000"
 3025      735F7400 
 3026              	.LASF71:
 3027 04e9 5F657272 		.ascii	"_errno\000"
 3027      6E6F00
 3028              	.LASF25:
 3029 04f0 63686172 		.ascii	"char\000"
 3029      00
 3030              	.LASF34:
 3031 04f5 5F5F746D 		.ascii	"__tm_min\000"
 3031      5F6D696E 
 3031      00
 3032              	.LASF98:
 3033 04fe 5F6D756C 		.ascii	"_mult\000"
 3033      7400
 3034              	.LASF27:
 3035 0504 5F6E6578 		.ascii	"_next\000"
 3035      7400
 3036              	.LASF101:
 3037 050a 5F737472 		.ascii	"_strtok_last\000"
 3037      746F6B5F 
 3037      6C617374 
 3037      00
 3038              	.LASF45:
 3039 0517 5F666E74 		.ascii	"_fntypes\000"
 3039      79706573 
 3039      00
 3040              	.LASF28:
 3041 0520 5F6D6178 		.ascii	"_maxwds\000"
 3041      77647300 
 3042              	.LASF99:
 3043 0528 5F616464 		.ascii	"_add\000"
 3043      00
 3044              	.LASF26:
 3045 052d 5F5F554C 		.ascii	"__ULong\000"
 3045      6F6E6700 
 3046              	.LASF112:
 3047 0535 5F676574 		.ascii	"_getdate_err\000"
 3047      64617465 
 3047      5F657272 
 3047      00
 3048              	.LASF4:
 3049 0542 74553634 		.ascii	"tU64\000"
 3049      00
 3050              	.LASF144:
 3051 0547 5F5F6664 		.ascii	"__fdlibm_version\000"
 3051      6C69626D 
ARM GAS  C:\Users\embedded\AppData\Local\Temp\ccYAJB2K.s 			page 63


 3051      5F766572 
 3051      73696F6E 
 3051      00
 3052              	.LASF125:
 3053 0558 5F676C6F 		.ascii	"_global_impure_ptr\000"
 3053      62616C5F 
 3053      696D7075 
 3053      72655F70 
 3053      747200
 3054              	.LASF128:
 3055 056b 5F5F6664 		.ascii	"__fdlibm_ieee\000"
 3055      6C69626D 
 3055      5F696565 
 3055      6500
 3056              	.LASF100:
 3057 0579 5F756E75 		.ascii	"_unused_rand\000"
 3057      7365645F 
 3057      72616E64 
 3057      00
 3058              	.LASF30:
 3059 0586 5F776473 		.ascii	"_wds\000"
 3059      00
 3060              	.LASF39:
 3061 058b 5F5F746D 		.ascii	"__tm_wday\000"
 3061      5F776461 
 3061      7900
 3062              	.LASF93:
 3063 0595 5F676C75 		.ascii	"_glue\000"
 3063      6500
 3064              	.LASF54:
 3065 059b 5F666C61 		.ascii	"_flags\000"
 3065      677300
 3066              	.LASF120:
 3067 05a2 5F6E6D61 		.ascii	"_nmalloc\000"
 3067      6C6C6F63 
 3067      00
 3068              	.LASF110:
 3069 05ab 5F6C3634 		.ascii	"_l64a_buf\000"
 3069      615F6275 
 3069      6600
 3070              	.LASF89:
 3071 05b5 5F736967 		.ascii	"_sig_func\000"
 3071      5F66756E 
 3071      6300
 3072              	.LASF63:
 3073 05bf 5F6E6275 		.ascii	"_nbuf\000"
 3073      6600
 3074              	.LASF121:
 3075 05c5 5F756E75 		.ascii	"_unused\000"
 3075      73656400 
 3076              	.LASF41:
 3077 05cd 5F5F746D 		.ascii	"__tm_isdst\000"
 3077      5F697364 
 3077      737400
 3078              	.LASF103:
 3079 05d8 5F6C6F63 		.ascii	"_localtime_buf\000"
 3079      616C7469 
ARM GAS  C:\Users\embedded\AppData\Local\Temp\ccYAJB2K.s 			page 64


 3079      6D655F62 
 3079      756600
 3080              	.LASF61:
 3081 05e7 5F636C6F 		.ascii	"_close\000"
 3081      736500
 3082              	.LASF106:
 3083 05ee 5F723438 		.ascii	"_r48\000"
 3083      00
 3084              	.LASF108:
 3085 05f3 5F6D6274 		.ascii	"_mbtowc_state\000"
 3085      6F77635F 
 3085      73746174 
 3085      6500
 3086              	.LASF83:
 3087 0601 5F703573 		.ascii	"_p5s\000"
 3087      00
 3088              	.LASF146:
 3089 0606 6D61696E 		.ascii	"main\000"
 3089      00
 3090              	.LASF36:
 3091 060b 5F5F746D 		.ascii	"__tm_mday\000"
 3091      5F6D6461 
 3091      7900
 3092              		.ident	"GCC: (GNU Tools for Arm Embedded Processors 7-2018-q2-update) 7.3.1 20180622 (release) [AR
ARM GAS  C:\Users\embedded\AppData\Local\Temp\ccYAJB2K.s 			page 65


DEFINED SYMBOLS
                            *ABS*:00000000 main.c
C:\Users\embedded\AppData\Local\Temp\ccYAJB2K.s:16     .rodata:00000000 $d
C:\Users\embedded\AppData\Local\Temp\ccYAJB2K.s:47     .text:00000000 main
C:\Users\embedded\AppData\Local\Temp\ccYAJB2K.s:55     .text:00000000 $t
C:\Users\embedded\AppData\Local\Temp\ccYAJB2K.s:368    .text:00000214 printCurrentTime
C:\Users\embedded\AppData\Local\Temp\ccYAJB2K.s:349    .text:000001f4 $d
C:\Users\embedded\AppData\Local\Temp\ccYAJB2K.s:361    .text:00000214 $t
C:\Users\embedded\AppData\Local\Temp\ccYAJB2K.s:640    .text:000003c4 $d

UNDEFINED SYMBOLS
i2cInit
pca9532Init
printf_init
lcdInit
lcdColor
lcdClrscr
memset
lcdGotoxy
lcdPuts
manageLED
measureTemperature
measureHumidity
sprintf
measureBrightness
measurePressure
sdelay
__aeabi_uidiv
mdelay
