ARM GAS  C:\Users\embedded\AppData\Local\Temp\ccGo4yFk.s 			page 1


   1              		.cpu arm7tdmi
   2              		.eabi_attribute 20, 1
   3              		.eabi_attribute 21, 1
   4              		.eabi_attribute 23, 3
   5              		.eabi_attribute 24, 1
   6              		.eabi_attribute 25, 1
   7              		.eabi_attribute 26, 1
   8              		.eabi_attribute 30, 6
   9              		.eabi_attribute 34, 0
  10              		.eabi_attribute 18, 4
  11              		.file	"pca9532.c"
  12              		.text
  13              	.Ltext0:
  14              		.cfi_sections	.debug_frame
  15              		.section	.rodata
  16              		.align	2
  17              	.LC0:
  18 0000 12       		.byte	18
  19 0001 97       		.byte	-105
  20 0002 80       		.byte	-128
  21 0003 00       		.byte	0
  22 0004 40       		.byte	64
  23 0005 00       		.byte	0
  24 0006 00       		.byte	0
  25 0007 00       		.byte	0
  26 0008 00       		.byte	0
  27              		.text
  28              		.align	1
  29              		.global	pca9532Init
  30              		.syntax unified
  31              		.code	16
  32              		.thumb_func
  33              		.fpu softvfp
  34              		.type	pca9532Init, %function
  35              	pca9532Init:
  36              	.LFB0:
  37              		.file 1 "pca9532.c"
   1:pca9532.c     **** /******************************************************************************
   2:pca9532.c     ****  *
   3:pca9532.c     ****  * Copyright:
   4:pca9532.c     ****  *    (C) 2006 Embedded Artists AB
   5:pca9532.c     ****  *
   6:pca9532.c     ****  * File:
   7:pca9532.c     ****  *    pca9532.c
   8:pca9532.c     ****  *
   9:pca9532.c     ****  * Description:
  10:pca9532.c     ****  *    Implements hardware specific routines
  11:pca9532.c     ****  *
  12:pca9532.c     ****  *****************************************************************************/
  13:pca9532.c     **** 
  14:pca9532.c     **** /******************************************************************************
  15:pca9532.c     ****  * Includes
  16:pca9532.c     ****  *****************************************************************************/
  17:pca9532.c     **** #include "general.h"
  18:pca9532.c     **** #include <lpc2xxx.h>
  19:pca9532.c     **** #include <printf_P.h>
  20:pca9532.c     **** #include "i2c.h"
ARM GAS  C:\Users\embedded\AppData\Local\Temp\ccGo4yFk.s 			page 2


  21:pca9532.c     **** #include "pca9532.h"
  22:pca9532.c     **** #include "eeprom.h"
  23:pca9532.c     **** 
  24:pca9532.c     **** /******************************************************************************
  25:pca9532.c     ****  * Typedefs and defines
  26:pca9532.c     ****  *****************************************************************************/
  27:pca9532.c     **** 
  28:pca9532.c     **** 
  29:pca9532.c     **** /*****************************************************************************
  30:pca9532.c     ****  * Global variables
  31:pca9532.c     ****  ****************************************************************************/
  32:pca9532.c     **** 
  33:pca9532.c     **** /*****************************************************************************
  34:pca9532.c     ****  * Local variables
  35:pca9532.c     ****  ****************************************************************************/
  36:pca9532.c     **** 
  37:pca9532.c     **** /*****************************************************************************
  38:pca9532.c     ****  * Local prototypes
  39:pca9532.c     ****  ****************************************************************************/
  40:pca9532.c     **** 
  41:pca9532.c     **** 
  42:pca9532.c     **** /*****************************************************************************
  43:pca9532.c     ****  *
  44:pca9532.c     ****  * Description:
  45:pca9532.c     ****  *    Initialize the io-pins and find out if HW is ver 1.0 or ver 1.1
  46:pca9532.c     ****  *
  47:pca9532.c     ****  ****************************************************************************/
  48:pca9532.c     **** tBool
  49:pca9532.c     **** pca9532Init(void)
  50:pca9532.c     **** {
  38              		.loc 1 50 0
  39              		.cfi_startproc
  40              		@ Function supports interworking.
  41              		@ args = 0, pretend = 0, frame = 16
  42              		@ frame_needed = 1, uses_anonymous_args = 0
  43 0000 80B5     		push	{r7, lr}
  44              	.LCFI0:
  45              		.cfi_def_cfa_offset 8
  46              		.cfi_offset 7, -8
  47              		.cfi_offset 14, -4
  48 0002 84B0     		sub	sp, sp, #16
  49              	.LCFI1:
  50              		.cfi_def_cfa_offset 24
  51 0004 00AF     		add	r7, sp, #0
  52              	.LCFI2:
  53              		.cfi_def_cfa_register 7
  51:pca9532.c     ****   tU8 initCommand[] = {0x12, 0x97, 0x80, 0x00, 0x40, 0x00, 0x00, 0x00, 0x00};
  54              		.loc 1 51 0
  55 0006 3B1D     		adds	r3, r7, #4
  56 0008 0B4A     		ldr	r2, .L5
  57 000a 03CA     		ldmia	r2!, {r0, r1}
  58 000c 03C3     		stmia	r3!, {r0, r1}
  59 000e 1278     		ldrb	r2, [r2]
  60 0010 1A70     		strb	r2, [r3]
  52:pca9532.c     ****   //                                                         04 = LCD_RST# low
  53:pca9532.c     ****   //                                                         10 = BT_RST# low
  54:pca9532.c     **** 
ARM GAS  C:\Users\embedded\AppData\Local\Temp\ccGo4yFk.s 			page 3


  55:pca9532.c     ****   //initialize PCA9532
  56:pca9532.c     ****   if (I2C_CODE_OK == pca9532(initCommand, sizeof(initCommand), NULL, 0))
  61              		.loc 1 56 0
  62 0012 381D     		adds	r0, r7, #4
  63 0014 0023     		movs	r3, #0
  64 0016 0022     		movs	r2, #0
  65 0018 0921     		movs	r1, #9
  66 001a FFF7FEFF 		bl	pca9532
  67 001e 0300     		movs	r3, r0
  68 0020 012B     		cmp	r3, #1
  69 0022 01D1     		bne	.L2
  57:pca9532.c     ****     return TRUE;
  70              		.loc 1 57 0
  71 0024 0123     		movs	r3, #1
  72 0026 00E0     		b	.L4
  73              	.L2:
  58:pca9532.c     ****   else
  59:pca9532.c     ****     return FALSE;
  74              		.loc 1 59 0
  75 0028 0023     		movs	r3, #0
  76              	.L4:
  60:pca9532.c     **** }
  77              		.loc 1 60 0 discriminator 1
  78 002a 1800     		movs	r0, r3
  79 002c BD46     		mov	sp, r7
  80 002e 04B0     		add	sp, sp, #16
  81              		@ sp needed
  82 0030 80BC     		pop	{r7}
  83 0032 02BC     		pop	{r1}
  84 0034 0847     		bx	r1
  85              	.L6:
  86 0036 C046     		.align	2
  87              	.L5:
  88 0038 00000000 		.word	.LC0
  89              		.cfi_endproc
  90              	.LFE0:
  91              		.size	pca9532Init, .-pca9532Init
  92              		.align	1
  93              		.global	setPca9532Pin
  94              		.syntax unified
  95              		.code	16
  96              		.thumb_func
  97              		.fpu softvfp
  98              		.type	setPca9532Pin, %function
  99              	setPca9532Pin:
 100              	.LFB1:
  61:pca9532.c     **** 
  62:pca9532.c     **** 
  63:pca9532.c     **** /*****************************************************************************
  64:pca9532.c     ****  *
  65:pca9532.c     ****  * Description:
  66:pca9532.c     ****  *
  67:pca9532.c     ****  ****************************************************************************/
  68:pca9532.c     **** void
  69:pca9532.c     **** setPca9532Pin(tU8 pinNum, tU8 value)
  70:pca9532.c     **** {
 101              		.loc 1 70 0
ARM GAS  C:\Users\embedded\AppData\Local\Temp\ccGo4yFk.s 			page 4


 102              		.cfi_startproc
 103              		@ Function supports interworking.
 104              		@ args = 0, pretend = 0, frame = 16
 105              		@ frame_needed = 1, uses_anonymous_args = 0
 106 003c 90B5     		push	{r4, r7, lr}
 107              	.LCFI3:
 108              		.cfi_def_cfa_offset 12
 109              		.cfi_offset 4, -12
 110              		.cfi_offset 7, -8
 111              		.cfi_offset 14, -4
 112 003e 85B0     		sub	sp, sp, #20
 113              	.LCFI4:
 114              		.cfi_def_cfa_offset 32
 115 0040 00AF     		add	r7, sp, #0
 116              	.LCFI5:
 117              		.cfi_def_cfa_register 7
 118 0042 0200     		movs	r2, r0
 119 0044 FB1D     		adds	r3, r7, #7
 120 0046 1A70     		strb	r2, [r3]
 121 0048 BB1D     		adds	r3, r7, #6
 122 004a 0A1C     		adds	r2, r1, #0
 123 004c 1A70     		strb	r2, [r3]
  71:pca9532.c     ****   tU8 command[] = {0x00, 0x00};
 124              		.loc 1 71 0
 125 004e 0C21     		movs	r1, #12
 126 0050 7B18     		adds	r3, r7, r1
 127 0052 0022     		movs	r2, #0
 128 0054 1A70     		strb	r2, [r3]
 129 0056 7B18     		adds	r3, r7, r1
 130 0058 0022     		movs	r2, #0
 131 005a 5A70     		strb	r2, [r3, #1]
  72:pca9532.c     ****   tU8 regValue;
  73:pca9532.c     ****   tU8 mask;
  74:pca9532.c     ****   
  75:pca9532.c     ****   if (pinNum < 4)
 132              		.loc 1 75 0
 133 005c FB1D     		adds	r3, r7, #7
 134 005e 1B78     		ldrb	r3, [r3]
 135 0060 032B     		cmp	r3, #3
 136 0062 04D8     		bhi	.L8
  76:pca9532.c     ****     command[0] = 0x06;
 137              		.loc 1 76 0
 138 0064 0C23     		movs	r3, #12
 139 0066 FB18     		adds	r3, r7, r3
 140 0068 0622     		movs	r2, #6
 141 006a 1A70     		strb	r2, [r3]
 142 006c 15E0     		b	.L9
 143              	.L8:
  77:pca9532.c     ****   else if (pinNum < 8)
 144              		.loc 1 77 0
 145 006e FB1D     		adds	r3, r7, #7
 146 0070 1B78     		ldrb	r3, [r3]
 147 0072 072B     		cmp	r3, #7
 148 0074 04D8     		bhi	.L10
  78:pca9532.c     ****     command[0] = 0x07;
 149              		.loc 1 78 0
 150 0076 0C23     		movs	r3, #12
ARM GAS  C:\Users\embedded\AppData\Local\Temp\ccGo4yFk.s 			page 5


 151 0078 FB18     		adds	r3, r7, r3
 152 007a 0722     		movs	r2, #7
 153 007c 1A70     		strb	r2, [r3]
 154 007e 0CE0     		b	.L9
 155              	.L10:
  79:pca9532.c     ****   else if (pinNum < 12)
 156              		.loc 1 79 0
 157 0080 FB1D     		adds	r3, r7, #7
 158 0082 1B78     		ldrb	r3, [r3]
 159 0084 0B2B     		cmp	r3, #11
 160 0086 04D8     		bhi	.L11
  80:pca9532.c     ****     command[0] = 0x08;
 161              		.loc 1 80 0
 162 0088 0C23     		movs	r3, #12
 163 008a FB18     		adds	r3, r7, r3
 164 008c 0822     		movs	r2, #8
 165 008e 1A70     		strb	r2, [r3]
 166 0090 03E0     		b	.L9
 167              	.L11:
  81:pca9532.c     ****   else
  82:pca9532.c     ****     command[0] = 0x09;
 168              		.loc 1 82 0
 169 0092 0C23     		movs	r3, #12
 170 0094 FB18     		adds	r3, r7, r3
 171 0096 0922     		movs	r2, #9
 172 0098 1A70     		strb	r2, [r3]
 173              	.L9:
  83:pca9532.c     ****     
  84:pca9532.c     ****   pca9532(command, 1, &regValue, 1);
 174              		.loc 1 84 0
 175 009a 0B24     		movs	r4, #11
 176 009c 3A19     		adds	r2, r7, r4
 177 009e 0C23     		movs	r3, #12
 178 00a0 F818     		adds	r0, r7, r3
 179 00a2 0123     		movs	r3, #1
 180 00a4 0121     		movs	r1, #1
 181 00a6 FFF7FEFF 		bl	pca9532
  85:pca9532.c     ****   
  86:pca9532.c     ****   mask = (3 << 2*(pinNum % 4));
 182              		.loc 1 86 0
 183 00aa FB1D     		adds	r3, r7, #7
 184 00ac 1B78     		ldrb	r3, [r3]
 185 00ae 0322     		movs	r2, #3
 186 00b0 1340     		ands	r3, r2
 187 00b2 5B00     		lsls	r3, r3, #1
 188 00b4 0322     		movs	r2, #3
 189 00b6 9A40     		lsls	r2, r2, r3
 190 00b8 0F21     		movs	r1, #15
 191 00ba 7B18     		adds	r3, r7, r1
 192 00bc 1A70     		strb	r2, [r3]
  87:pca9532.c     ****   
  88:pca9532.c     ****   regValue &= ~mask;
 193              		.loc 1 88 0
 194 00be 7B18     		adds	r3, r7, r1
 195 00c0 1B78     		ldrb	r3, [r3]
 196 00c2 1B06     		lsls	r3, r3, #24
 197 00c4 1B16     		asrs	r3, r3, #24
ARM GAS  C:\Users\embedded\AppData\Local\Temp\ccGo4yFk.s 			page 6


 198 00c6 DB43     		mvns	r3, r3
 199 00c8 1B06     		lsls	r3, r3, #24
 200 00ca 1B16     		asrs	r3, r3, #24
 201 00cc 3A19     		adds	r2, r7, r4
 202 00ce 1278     		ldrb	r2, [r2]
 203 00d0 1206     		lsls	r2, r2, #24
 204 00d2 1216     		asrs	r2, r2, #24
 205 00d4 1340     		ands	r3, r2
 206 00d6 1B06     		lsls	r3, r3, #24
 207 00d8 1B16     		asrs	r3, r3, #24
 208 00da 1B06     		lsls	r3, r3, #24
 209 00dc 1A0E     		lsrs	r2, r3, #24
 210 00de 3B19     		adds	r3, r7, r4
 211 00e0 1A70     		strb	r2, [r3]
  89:pca9532.c     ****   
  90:pca9532.c     ****   if (value == 0)
 212              		.loc 1 90 0
 213 00e2 BB1D     		adds	r3, r7, #6
 214 00e4 1B78     		ldrb	r3, [r3]
 215 00e6 002B     		cmp	r3, #0
 216 00e8 04D1     		bne	.L12
  91:pca9532.c     ****     command[1] = 0x01;
 217              		.loc 1 91 0
 218 00ea 0C23     		movs	r3, #12
 219 00ec FB18     		adds	r3, r7, r3
 220 00ee 0122     		movs	r2, #1
 221 00f0 5A70     		strb	r2, [r3, #1]
 222 00f2 03E0     		b	.L13
 223              	.L12:
  92:pca9532.c     ****   else
  93:pca9532.c     ****     command[1] = 0x00;
 224              		.loc 1 93 0
 225 00f4 0C23     		movs	r3, #12
 226 00f6 FB18     		adds	r3, r7, r3
 227 00f8 0022     		movs	r2, #0
 228 00fa 5A70     		strb	r2, [r3, #1]
 229              	.L13:
  94:pca9532.c     ****     
  95:pca9532.c     ****   command[1] <<= 2*(pinNum % 4);
 230              		.loc 1 95 0
 231 00fc 0C20     		movs	r0, #12
 232 00fe 3B18     		adds	r3, r7, r0
 233 0100 5B78     		ldrb	r3, [r3, #1]
 234 0102 1900     		movs	r1, r3
 235 0104 FB1D     		adds	r3, r7, #7
 236 0106 1B78     		ldrb	r3, [r3]
 237 0108 0322     		movs	r2, #3
 238 010a 1340     		ands	r3, r2
 239 010c 5B00     		lsls	r3, r3, #1
 240 010e 9940     		lsls	r1, r1, r3
 241 0110 0B00     		movs	r3, r1
 242 0112 1B06     		lsls	r3, r3, #24
 243 0114 1A0E     		lsrs	r2, r3, #24
 244 0116 3B18     		adds	r3, r7, r0
 245 0118 5A70     		strb	r2, [r3, #1]
  96:pca9532.c     ****   
  97:pca9532.c     ****   command[1] |= regValue;
ARM GAS  C:\Users\embedded\AppData\Local\Temp\ccGo4yFk.s 			page 7


 246              		.loc 1 97 0
 247 011a 3B18     		adds	r3, r7, r0
 248 011c 5A78     		ldrb	r2, [r3, #1]
 249 011e 0B23     		movs	r3, #11
 250 0120 FB18     		adds	r3, r7, r3
 251 0122 1B78     		ldrb	r3, [r3]
 252 0124 1343     		orrs	r3, r2
 253 0126 1B06     		lsls	r3, r3, #24
 254 0128 1A0E     		lsrs	r2, r3, #24
 255 012a 3B18     		adds	r3, r7, r0
 256 012c 5A70     		strb	r2, [r3, #1]
  98:pca9532.c     **** 
  99:pca9532.c     ****   pca9532(command, sizeof(command), NULL, 0);
 257              		.loc 1 99 0
 258 012e 3818     		adds	r0, r7, r0
 259 0130 0023     		movs	r3, #0
 260 0132 0022     		movs	r2, #0
 261 0134 0221     		movs	r1, #2
 262 0136 FFF7FEFF 		bl	pca9532
 100:pca9532.c     **** }
 263              		.loc 1 100 0
 264 013a C046     		nop
 265 013c BD46     		mov	sp, r7
 266 013e 05B0     		add	sp, sp, #20
 267              		@ sp needed
 268 0140 90BC     		pop	{r4, r7}
 269 0142 01BC     		pop	{r0}
 270 0144 0047     		bx	r0
 271              		.cfi_endproc
 272              	.LFE1:
 273              		.size	setPca9532Pin, .-setPca9532Pin
 274              		.align	1
 275              		.global	getPca9532Pin
 276              		.syntax unified
 277              		.code	16
 278              		.thumb_func
 279              		.fpu softvfp
 280              		.type	getPca9532Pin, %function
 281              	getPca9532Pin:
 282              	.LFB2:
 101:pca9532.c     **** 
 102:pca9532.c     **** 
 103:pca9532.c     **** /*****************************************************************************
 104:pca9532.c     ****  *
 105:pca9532.c     ****  * Description:
 106:pca9532.c     ****  *
 107:pca9532.c     ****  ****************************************************************************/
 108:pca9532.c     **** tU16
 109:pca9532.c     **** getPca9532Pin(void)
 110:pca9532.c     **** {
 283              		.loc 1 110 0
 284              		.cfi_startproc
 285              		@ Function supports interworking.
 286              		@ args = 0, pretend = 0, frame = 8
 287              		@ frame_needed = 1, uses_anonymous_args = 0
 288 0146 80B5     		push	{r7, lr}
 289              	.LCFI6:
ARM GAS  C:\Users\embedded\AppData\Local\Temp\ccGo4yFk.s 			page 8


 290              		.cfi_def_cfa_offset 8
 291              		.cfi_offset 7, -8
 292              		.cfi_offset 14, -4
 293 0148 82B0     		sub	sp, sp, #8
 294              	.LCFI7:
 295              		.cfi_def_cfa_offset 16
 296 014a 00AF     		add	r7, sp, #0
 297              	.LCFI8:
 298              		.cfi_def_cfa_register 7
 111:pca9532.c     ****   tU8 command[] = {0x19};
 299              		.loc 1 111 0
 300 014c 3B1D     		adds	r3, r7, #4
 301 014e 1922     		movs	r2, #25
 302 0150 1A70     		strb	r2, [r3]
 112:pca9532.c     ****   tU8 regValue[3];
 113:pca9532.c     ****   
 114:pca9532.c     ****   pca9532(command, 1, regValue, 3);
 303              		.loc 1 114 0
 304 0152 3A00     		movs	r2, r7
 305 0154 381D     		adds	r0, r7, #4
 306 0156 0323     		movs	r3, #3
 307 0158 0121     		movs	r1, #1
 308 015a FFF7FEFF 		bl	pca9532
 115:pca9532.c     ****   
 116:pca9532.c     ****   return (tU16)regValue[1] | ((tU16)regValue[2] << 8);
 309              		.loc 1 116 0
 310 015e 3B00     		movs	r3, r7
 311 0160 5B78     		ldrb	r3, [r3, #1]
 312 0162 1A04     		lsls	r2, r3, #16
 313 0164 1214     		asrs	r2, r2, #16
 314 0166 3B00     		movs	r3, r7
 315 0168 9B78     		ldrb	r3, [r3, #2]
 316 016a 1B02     		lsls	r3, r3, #8
 317 016c 1B04     		lsls	r3, r3, #16
 318 016e 1B14     		asrs	r3, r3, #16
 319 0170 1343     		orrs	r3, r2
 320 0172 1B04     		lsls	r3, r3, #16
 321 0174 1B14     		asrs	r3, r3, #16
 322 0176 1B04     		lsls	r3, r3, #16
 323 0178 1B0C     		lsrs	r3, r3, #16
 117:pca9532.c     **** }
 324              		.loc 1 117 0
 325 017a 1800     		movs	r0, r3
 326 017c BD46     		mov	sp, r7
 327 017e 02B0     		add	sp, sp, #8
 328              		@ sp needed
 329 0180 80BC     		pop	{r7}
 330 0182 02BC     		pop	{r1}
 331 0184 0847     		bx	r1
 332              		.cfi_endproc
 333              	.LFE2:
 334              		.size	getPca9532Pin, .-getPca9532Pin
 335              	.Letext0:
 336              		.file 2 "general.h"