ARM GAS  C:\Users\embedded\AppData\Local\Temp\cccVPpSy.s 			page 1


   1              		.cpu arm7tdmi
   2              		.eabi_attribute 20, 1
   3              		.eabi_attribute 21, 1
   4              		.eabi_attribute 23, 3
   5              		.eabi_attribute 24, 1
   6              		.eabi_attribute 25, 1
   7              		.eabi_attribute 26, 1
   8              		.eabi_attribute 30, 6
   9              		.eabi_attribute 34, 0
  10              		.eabi_attribute 18, 4
  11              		.file	"tsl2561.c"
  12              		.text
  13              	.Ltext0:
  14              		.cfi_sections	.debug_frame
  15              		.global	__aeabi_ui2f
  16              		.global	__aeabi_i2f
  17              		.global	__aeabi_fdiv
  18              		.global	__aeabi_fcmpgt
  19              		.global	__aeabi_f2d
  20              		.global	__aeabi_dcmple
  21              		.global	__aeabi_i2d
  22              		.global	__aeabi_dmul
  23              		.global	__aeabi_dsub
  24              		.global	__aeabi_d2ulz
  25              		.global	__aeabi_dcmpgt
  26              		.align	1
  27              		.global	calculateBrightness
  28              		.syntax unified
  29              		.code	16
  30              		.thumb_func
  31              		.fpu softvfp
  32              		.type	calculateBrightness, %function
  33              	calculateBrightness:
  34              	.LFB0:
  35              		.file 1 "tsl2561.c"
   1:tsl2561.c     **** /*
   2:tsl2561.c     ****     Plik z kodem źródłowym funkcji, przeznaczonych do obsługi
   3:tsl2561.c     ****     czujnika oświetlenia TLS2561.
   4:tsl2561.c     **** */
   5:tsl2561.c     **** 
   6:tsl2561.c     **** #include "tsl2561.h"
   7:tsl2561.c     **** 
   8:tsl2561.c     **** // General constants
   9:tsl2561.c     **** 
  10:tsl2561.c     **** #define LUX_SCALE       14 // scale by 2 ^ 14
  11:tsl2561.c     **** #define RATIO_SCALE     9  // scale ratio by 2 ^ 9
  12:tsl2561.c     **** #define CH_SCALE        10 // scale channel values by 2 ^ 10
  13:tsl2561.c     **** 
  14:tsl2561.c     **** #define tsl2561AddressGND          0x29 // 0x29 = 0b 0010 1001
  15:tsl2561.c     **** #define tsl2561ReadAddressGND      0x53 // 0x53 = 0b 0101 0011
  16:tsl2561.c     **** #define tsl2561WriteAddressGND     0x52 // 0x52 = 0b 0101 0010
  17:tsl2561.c     **** 
  18:tsl2561.c     **** #define tsl2561AddressFloat          0x39 // 0x39 = 0b 0011 1001
  19:tsl2561.c     **** #define tsl2561ReadAddressFloat      0x79 // 0x79 = 0b 0111 1001
  20:tsl2561.c     **** #define tsl2561WriteAddressFloat     0x78 // 0x78 = 0b 0111 1000
  21:tsl2561.c     **** 
  22:tsl2561.c     **** #define tsl2561AddressVDD          0x49 // 0x39 = 0b 0100 1001
ARM GAS  C:\Users\embedded\AppData\Local\Temp\cccVPpSy.s 			page 2


  23:tsl2561.c     **** #define tsl2561ReadAddressVDD      0x93 // 0x79 = 0b 1001 0011
  24:tsl2561.c     **** #define tsl2561WriteAddressVDD     0x92 // 0x78 = 0b 1001 0010
  25:tsl2561.c     **** 
  26:tsl2561.c     **** // Constants for T, FN and CL package
  27:tsl2561.c     **** 
  28:tsl2561.c     **** #define K1T 0x0040 // 0.1250 * 2 ^ RATIO_SCALE
  29:tsl2561.c     **** #define B1T 0x01f2 // 0.0304 * 2 ^ LUX_SCALE
  30:tsl2561.c     **** #define M1T 0x01be // 0.0272 * 2 ^ LUX_SCALE
  31:tsl2561.c     **** 
  32:tsl2561.c     **** #define K2T 0x0080 // 0.2500 * 2 ^ RATIO_SCALE
  33:tsl2561.c     **** #define B2T 0x0214 // 0.0325 * 2 ^ LUX_SCALE
  34:tsl2561.c     **** #define M2T 0x02d1 // 0.0440 * 2 ^ LUX_SCALE
  35:tsl2561.c     **** 
  36:tsl2561.c     **** #define K3T 0x00c0 // 0.3750 * 2 ^ RATIO_SCALE
  37:tsl2561.c     **** #define B3T 0x023f // 0.0351 * 2 ^ LUX_SCALE
  38:tsl2561.c     **** #define M3T 0x037b // 0.0544 * 2 ^ LUX_SCALE
  39:tsl2561.c     **** 
  40:tsl2561.c     **** #define K4T 0x0100 // 0.5000 * 2 ^ RATIO_SCALE
  41:tsl2561.c     **** #define B4T 0x0270 // 0.0381 * 2 ^ LUX_SCALE
  42:tsl2561.c     **** #define M4T 0x03fe // 0.0624 * 2 ^ LUX_SCALE
  43:tsl2561.c     **** 
  44:tsl2561.c     **** #define K5T 0x0138 // 0.6100 * 2 ^ RATIO_SCALE
  45:tsl2561.c     **** #define B5T 0x016f // 0.0224 * 2 ^ LUX_SCALE
  46:tsl2561.c     **** #define M5T 0x01fc // 0.0310 * 2 ^ LUX_SCALE
  47:tsl2561.c     **** 
  48:tsl2561.c     **** #define K6T 0x019a // 0.8000 * 2 ^ RATIO_SCALE
  49:tsl2561.c     **** #define B6T 0x00d2 // 0.0128 * 2 ^ LUX_SCALE
  50:tsl2561.c     **** #define M6T 0x00fb // 0.0153 * 2 ^ LUX_SCALE
  51:tsl2561.c     **** 
  52:tsl2561.c     **** #define K7T 0x029a // 1.30000 * 2 ^ RATIO_SCALE
  53:tsl2561.c     **** #define B7T 0x0018 // 0.00146 * 2 ^ LUX_SCALE
  54:tsl2561.c     **** #define M7T 0x0012 // 0.00112 * 2 ^ LUX_SCALE
  55:tsl2561.c     **** 
  56:tsl2561.c     **** #define K8T 0x029a // 1.300 * 2 ^ RATIO_SCALE
  57:tsl2561.c     **** #define B8T 0x0000 // 0.000 * 2 ^ LUX_SCALE
  58:tsl2561.c     **** #define M8T 0x0000 // 0.000 * 2 ^ LUX_SCALE
  59:tsl2561.c     **** 
  60:tsl2561.c     **** // Constants for CS package
  61:tsl2561.c     **** 
  62:tsl2561.c     **** #define K1C 0x0043 // 0.1300 * 2 ^ RATIO_SCALE
  63:tsl2561.c     **** #define B1C 0x0204 // 0.0315 * 2 ^ LUX_SCALE
  64:tsl2561.c     **** #define M1C 0x01ad // 0.0262 * 2 ^ LUX_SCALE
  65:tsl2561.c     **** 
  66:tsl2561.c     **** #define K2C 0x0085 // 0.2600 * 2 ^ RATIO_SCALE
  67:tsl2561.c     **** #define B2C 0x0228 // 0.0337 * 2 ^ LUX_SCALE
  68:tsl2561.c     **** #define M2C 0x02c1 // 0.0430 * 2 ^ LUX_SCALE
  69:tsl2561.c     **** 
  70:tsl2561.c     **** #define K3C 0x00c8 // 0.3900 * 2 ^ RATIO_SCALE
  71:tsl2561.c     **** #define B3C 0x0253 // 0.0363 * 2 ^ LUX_SCALE
  72:tsl2561.c     **** #define M3C 0x0363 // 0.0529 * 2 ^ LUX_SCALE
  73:tsl2561.c     **** 
  74:tsl2561.c     **** #define K4C 0x010a // 0.5200 * 2 ^ RATIO_SCALE
  75:tsl2561.c     **** #define B4C 0x0282 // 0.0392 * 2 ^ LUX_SCALE
  76:tsl2561.c     **** #define M4C 0x03df // 0.0605 * 2 ^ LUX_SCALE
  77:tsl2561.c     **** 
  78:tsl2561.c     **** #define K5C 0x014d // 0.6500 * 2 ^ RATIO_SCALE
  79:tsl2561.c     **** #define B5C 0x0177 // 0.0229 * 2 ^ LUX_SCALE
ARM GAS  C:\Users\embedded\AppData\Local\Temp\cccVPpSy.s 			page 3


  80:tsl2561.c     **** #define M5C 0x01dd // 0.0291 * 2 ^ LUX_SCALE
  81:tsl2561.c     **** 
  82:tsl2561.c     **** #define K6C 0x019a // 0.8000 * 2 ^ RATIO_SCALE
  83:tsl2561.c     **** #define B6C 0x0101 // 0.0157 * 2 ^ LUX_SCALE
  84:tsl2561.c     **** #define M6C 0x0127 // 0.0180 * 2 ^ LUX_SCALE
  85:tsl2561.c     **** 
  86:tsl2561.c     **** #define K7C 0x029a // 1.30000 * 2 ^ RATIO_SCALE
  87:tsl2561.c     **** #define B7C 0x0037 // 0.00338 * 2 ^ LUX_SCALE
  88:tsl2561.c     **** #define M7C 0x002b // 0.00260 * 2 ^ LUX_SCALE
  89:tsl2561.c     **** 
  90:tsl2561.c     **** #define K8C 0x029a // 1.3000 * 2 ^ RATIO_SCALE
  91:tsl2561.c     **** #define B8C 0x0000 // 0.0000 * 2 ^ LUX_SCALE
  92:tsl2561.c     **** #define M8C 0x0000 // 0.0000 * 2 ^ LUX_SCALE
  93:tsl2561.c     **** 
  94:tsl2561.c     **** tU64 calculateBrightness(tU16 channel0, tU16 channel1) {
  36              		.loc 1 94 0
  37              		.cfi_startproc
  38              		@ Function supports interworking.
  39              		@ args = 0, pretend = 0, frame = 32
  40              		@ frame_needed = 1, uses_anonymous_args = 0
  41 0000 F0B5     		push	{r4, r5, r6, r7, lr}
  42              	.LCFI0:
  43              		.cfi_def_cfa_offset 20
  44              		.cfi_offset 4, -20
  45              		.cfi_offset 5, -16
  46              		.cfi_offset 6, -12
  47              		.cfi_offset 7, -8
  48              		.cfi_offset 14, -4
  49 0002 89B0     		sub	sp, sp, #36
  50              	.LCFI1:
  51              		.cfi_def_cfa_offset 56
  52 0004 00AF     		add	r7, sp, #0
  53              	.LCFI2:
  54              		.cfi_def_cfa_register 7
  55 0006 0200     		movs	r2, r0
  56 0008 0E25     		movs	r5, #14
  57 000a 7B19     		adds	r3, r7, r5
  58 000c 1A80     		strh	r2, [r3]
  59 000e 0C20     		movs	r0, #12
  60 0010 3B18     		adds	r3, r7, r0
  61 0012 0A1C     		adds	r2, r1, #0
  62 0014 1A80     		strh	r2, [r3]
  95:tsl2561.c     ****     tU64 finalResult = 0;
  63              		.loc 1 95 0
  64 0016 0023     		movs	r3, #0
  65 0018 0024     		movs	r4, #0
  66 001a BB61     		str	r3, [r7, #24]
  67 001c FC61     		str	r4, [r7, #28]
  96:tsl2561.c     ****     float result = ((float)channel1 / channel0);
  68              		.loc 1 96 0
  69 001e 3B18     		adds	r3, r7, r0
  70 0020 1B88     		ldrh	r3, [r3]
  71 0022 1800     		movs	r0, r3
  72 0024 FFF7FEFF 		bl	__aeabi_ui2f
  73              	.LVL0:
  74 0028 041C     		adds	r4, r0, #0
  75 002a 7B19     		adds	r3, r7, r5
ARM GAS  C:\Users\embedded\AppData\Local\Temp\cccVPpSy.s 			page 4


  76 002c 1B88     		ldrh	r3, [r3]
  77 002e 1800     		movs	r0, r3
  78 0030 FFF7FEFF 		bl	__aeabi_i2f
  79              	.LVL1:
  80 0034 031C     		adds	r3, r0, #0
  81 0036 191C     		adds	r1, r3, #0
  82 0038 201C     		adds	r0, r4, #0
  83 003a FFF7FEFF 		bl	__aeabi_fdiv
  84              	.LVL2:
  85 003e 031C     		adds	r3, r0, #0
  86 0040 7B61     		str	r3, [r7, #20]
  97:tsl2561.c     ****     if ((0 < result) && (result <= 0.52)) {
  87              		.loc 1 97 0
  88 0042 0021     		movs	r1, #0
  89 0044 7869     		ldr	r0, [r7, #20]
  90 0046 FFF7FEFF 		bl	__aeabi_fcmpgt
  91              	.LVL3:
  92 004a 031E     		subs	r3, r0, #0
  93 004c 48D0     		beq	.L2
  94              		.loc 1 97 0 is_stmt 0 discriminator 1
  95 004e 7869     		ldr	r0, [r7, #20]
  96 0050 FFF7FEFF 		bl	__aeabi_f2d
  97              	.LVL4:
  98 0054 814A     		ldr	r2, .L24
  99 0056 824B     		ldr	r3, .L24+4
 100 0058 FFF7FEFF 		bl	__aeabi_dcmple
 101              	.LVL5:
 102 005c 031E     		subs	r3, r0, #0
 103 005e 3FD0     		beq	.L2
  98:tsl2561.c     ****         finalResult = 0.0315 * channel0 - 0.0593 * channel0 * pow(result, 1.4);
 104              		.loc 1 98 0 is_stmt 1
 105 0060 0E23     		movs	r3, #14
 106 0062 FB18     		adds	r3, r7, r3
 107 0064 1B88     		ldrh	r3, [r3]
 108 0066 1800     		movs	r0, r3
 109 0068 FFF7FEFF 		bl	__aeabi_i2d
 110              	.LVL6:
 111 006c 7D4A     		ldr	r2, .L24+8
 112 006e 7E4B     		ldr	r3, .L24+12
 113 0070 FFF7FEFF 		bl	__aeabi_dmul
 114              	.LVL7:
 115 0074 0300     		movs	r3, r0
 116 0076 0C00     		movs	r4, r1
 117 0078 1D00     		movs	r5, r3
 118 007a 2600     		movs	r6, r4
 119 007c 0E23     		movs	r3, #14
 120 007e FB18     		adds	r3, r7, r3
 121 0080 1B88     		ldrh	r3, [r3]
 122 0082 1800     		movs	r0, r3
 123 0084 FFF7FEFF 		bl	__aeabi_i2d
 124              	.LVL8:
 125 0088 784A     		ldr	r2, .L24+16
 126 008a 794B     		ldr	r3, .L24+20
 127 008c FFF7FEFF 		bl	__aeabi_dmul
 128              	.LVL9:
 129 0090 0300     		movs	r3, r0
 130 0092 0C00     		movs	r4, r1
ARM GAS  C:\Users\embedded\AppData\Local\Temp\cccVPpSy.s 			page 5


 131 0094 3B60     		str	r3, [r7]
 132 0096 7C60     		str	r4, [r7, #4]
 133 0098 7869     		ldr	r0, [r7, #20]
 134 009a FFF7FEFF 		bl	__aeabi_f2d
 135              	.LVL10:
 136 009e 754B     		ldr	r3, .L24+24
 137 00a0 754C     		ldr	r4, .L24+28
 138 00a2 1A00     		movs	r2, r3
 139 00a4 2300     		movs	r3, r4
 140 00a6 FFF7FEFF 		bl	pow
 141 00aa 0300     		movs	r3, r0
 142 00ac 0C00     		movs	r4, r1
 143 00ae 1A00     		movs	r2, r3
 144 00b0 2300     		movs	r3, r4
 145 00b2 3868     		ldr	r0, [r7]
 146 00b4 7968     		ldr	r1, [r7, #4]
 147 00b6 FFF7FEFF 		bl	__aeabi_dmul
 148              	.LVL11:
 149 00ba 0300     		movs	r3, r0
 150 00bc 0C00     		movs	r4, r1
 151 00be 1A00     		movs	r2, r3
 152 00c0 2300     		movs	r3, r4
 153 00c2 2800     		movs	r0, r5
 154 00c4 3100     		movs	r1, r6
 155 00c6 FFF7FEFF 		bl	__aeabi_dsub
 156              	.LVL12:
 157 00ca 0300     		movs	r3, r0
 158 00cc 0C00     		movs	r4, r1
 159 00ce 1800     		movs	r0, r3
 160 00d0 2100     		movs	r1, r4
 161 00d2 FFF7FEFF 		bl	__aeabi_d2ulz
 162              	.LVL13:
 163 00d6 0300     		movs	r3, r0
 164 00d8 0C00     		movs	r4, r1
 165 00da BB61     		str	r3, [r7, #24]
 166 00dc FC61     		str	r4, [r7, #28]
 167 00de B4E0     		b	.L5
 168              	.L2:
  99:tsl2561.c     ****     }
 100:tsl2561.c     ****     else if ((0.52 < result) && (result <= 0.65)) {
 169              		.loc 1 100 0
 170 00e0 7869     		ldr	r0, [r7, #20]
 171 00e2 FFF7FEFF 		bl	__aeabi_f2d
 172              	.LVL14:
 173 00e6 5D4A     		ldr	r2, .L24
 174 00e8 5D4B     		ldr	r3, .L24+4
 175 00ea FFF7FEFF 		bl	__aeabi_dcmpgt
 176              	.LVL15:
 177 00ee 031E     		subs	r3, r0, #0
 178 00f0 31D0     		beq	.L6
 179              		.loc 1 100 0 is_stmt 0 discriminator 1
 180 00f2 7869     		ldr	r0, [r7, #20]
 181 00f4 FFF7FEFF 		bl	__aeabi_f2d
 182              	.LVL16:
 183 00f8 604A     		ldr	r2, .L24+32
 184 00fa 614B     		ldr	r3, .L24+36
 185 00fc FFF7FEFF 		bl	__aeabi_dcmple
ARM GAS  C:\Users\embedded\AppData\Local\Temp\cccVPpSy.s 			page 6


 186              	.LVL17:
 187 0100 031E     		subs	r3, r0, #0
 188 0102 28D0     		beq	.L6
 101:tsl2561.c     ****         finalResult = 0.0229 * channel0 - 0.0291 * channel1;
 189              		.loc 1 101 0 is_stmt 1
 190 0104 0E23     		movs	r3, #14
 191 0106 FB18     		adds	r3, r7, r3
 192 0108 1B88     		ldrh	r3, [r3]
 193 010a 1800     		movs	r0, r3
 194 010c FFF7FEFF 		bl	__aeabi_i2d
 195              	.LVL18:
 196 0110 5C4A     		ldr	r2, .L24+40
 197 0112 5D4B     		ldr	r3, .L24+44
 198 0114 FFF7FEFF 		bl	__aeabi_dmul
 199              	.LVL19:
 200 0118 0300     		movs	r3, r0
 201 011a 0C00     		movs	r4, r1
 202 011c 2500     		movs	r5, r4
 203 011e 1C00     		movs	r4, r3
 204 0120 0C23     		movs	r3, #12
 205 0122 FB18     		adds	r3, r7, r3
 206 0124 1B88     		ldrh	r3, [r3]
 207 0126 1800     		movs	r0, r3
 208 0128 FFF7FEFF 		bl	__aeabi_i2d
 209              	.LVL20:
 210 012c 574A     		ldr	r2, .L24+48
 211 012e 584B     		ldr	r3, .L24+52
 212 0130 FFF7FEFF 		bl	__aeabi_dmul
 213              	.LVL21:
 214 0134 0200     		movs	r2, r0
 215 0136 0B00     		movs	r3, r1
 216 0138 2000     		movs	r0, r4
 217 013a 2900     		movs	r1, r5
 218 013c FFF7FEFF 		bl	__aeabi_dsub
 219              	.LVL22:
 220 0140 0300     		movs	r3, r0
 221 0142 0C00     		movs	r4, r1
 222 0144 1800     		movs	r0, r3
 223 0146 2100     		movs	r1, r4
 224 0148 FFF7FEFF 		bl	__aeabi_d2ulz
 225              	.LVL23:
 226 014c 0300     		movs	r3, r0
 227 014e 0C00     		movs	r4, r1
 228 0150 BB61     		str	r3, [r7, #24]
 229 0152 FC61     		str	r4, [r7, #28]
 230 0154 79E0     		b	.L5
 231              	.L6:
 102:tsl2561.c     ****     }
 103:tsl2561.c     ****     else if ((0.65 < result)  && (result <= 0.80)) {
 232              		.loc 1 103 0
 233 0156 7869     		ldr	r0, [r7, #20]
 234 0158 FFF7FEFF 		bl	__aeabi_f2d
 235              	.LVL24:
 236 015c 474A     		ldr	r2, .L24+32
 237 015e 484B     		ldr	r3, .L24+36
 238 0160 FFF7FEFF 		bl	__aeabi_dcmpgt
 239              	.LVL25:
ARM GAS  C:\Users\embedded\AppData\Local\Temp\cccVPpSy.s 			page 7


 240 0164 031E     		subs	r3, r0, #0
 241 0166 31D0     		beq	.L9
 242              		.loc 1 103 0 is_stmt 0 discriminator 1
 243 0168 7869     		ldr	r0, [r7, #20]
 244 016a FFF7FEFF 		bl	__aeabi_f2d
 245              	.LVL26:
 246 016e 494A     		ldr	r2, .L24+56
 247 0170 494B     		ldr	r3, .L24+60
 248 0172 FFF7FEFF 		bl	__aeabi_dcmple
 249              	.LVL27:
 250 0176 031E     		subs	r3, r0, #0
 251 0178 28D0     		beq	.L9
 104:tsl2561.c     ****         finalResult = 0.0157 * channel0 - 0.0180 * channel1;
 252              		.loc 1 104 0 is_stmt 1
 253 017a 0E23     		movs	r3, #14
 254 017c FB18     		adds	r3, r7, r3
 255 017e 1B88     		ldrh	r3, [r3]
 256 0180 1800     		movs	r0, r3
 257 0182 FFF7FEFF 		bl	__aeabi_i2d
 258              	.LVL28:
 259 0186 454A     		ldr	r2, .L24+64
 260 0188 454B     		ldr	r3, .L24+68
 261 018a FFF7FEFF 		bl	__aeabi_dmul
 262              	.LVL29:
 263 018e 0300     		movs	r3, r0
 264 0190 0C00     		movs	r4, r1
 265 0192 2500     		movs	r5, r4
 266 0194 1C00     		movs	r4, r3
 267 0196 0C23     		movs	r3, #12
 268 0198 FB18     		adds	r3, r7, r3
 269 019a 1B88     		ldrh	r3, [r3]
 270 019c 1800     		movs	r0, r3
 271 019e FFF7FEFF 		bl	__aeabi_i2d
 272              	.LVL30:
 273 01a2 404A     		ldr	r2, .L24+72
 274 01a4 404B     		ldr	r3, .L24+76
 275 01a6 FFF7FEFF 		bl	__aeabi_dmul
 276              	.LVL31:
 277 01aa 0200     		movs	r2, r0
 278 01ac 0B00     		movs	r3, r1
 279 01ae 2000     		movs	r0, r4
 280 01b0 2900     		movs	r1, r5
 281 01b2 FFF7FEFF 		bl	__aeabi_dsub
 282              	.LVL32:
 283 01b6 0300     		movs	r3, r0
 284 01b8 0C00     		movs	r4, r1
 285 01ba 1800     		movs	r0, r3
 286 01bc 2100     		movs	r1, r4
 287 01be FFF7FEFF 		bl	__aeabi_d2ulz
 288              	.LVL33:
 289 01c2 0300     		movs	r3, r0
 290 01c4 0C00     		movs	r4, r1
 291 01c6 BB61     		str	r3, [r7, #24]
 292 01c8 FC61     		str	r4, [r7, #28]
 293 01ca 3EE0     		b	.L5
 294              	.L9:
 105:tsl2561.c     ****     }
ARM GAS  C:\Users\embedded\AppData\Local\Temp\cccVPpSy.s 			page 8


 106:tsl2561.c     ****     else if ((0.80 < result) && (result <= 1.30)) {
 295              		.loc 1 106 0
 296 01cc 7869     		ldr	r0, [r7, #20]
 297 01ce FFF7FEFF 		bl	__aeabi_f2d
 298              	.LVL34:
 299 01d2 304A     		ldr	r2, .L24+56
 300 01d4 304B     		ldr	r3, .L24+60
 301 01d6 FFF7FEFF 		bl	__aeabi_dcmpgt
 302              	.LVL35:
 303 01da 031E     		subs	r3, r0, #0
 304 01dc 31D0     		beq	.L12
 305              		.loc 1 106 0 is_stmt 0 discriminator 1
 306 01de 7869     		ldr	r0, [r7, #20]
 307 01e0 FFF7FEFF 		bl	__aeabi_f2d
 308              	.LVL36:
 309 01e4 254A     		ldr	r2, .L24+32
 310 01e6 314B     		ldr	r3, .L24+80
 311 01e8 FFF7FEFF 		bl	__aeabi_dcmple
 312              	.LVL37:
 313 01ec 031E     		subs	r3, r0, #0
 314 01ee 28D0     		beq	.L12
 107:tsl2561.c     ****         finalResult = 0.00338 * channel0 - 0.00260 * channel1;
 315              		.loc 1 107 0 is_stmt 1
 316 01f0 0E23     		movs	r3, #14
 317 01f2 FB18     		adds	r3, r7, r3
 318 01f4 1B88     		ldrh	r3, [r3]
 319 01f6 1800     		movs	r0, r3
 320 01f8 FFF7FEFF 		bl	__aeabi_i2d
 321              	.LVL38:
 322 01fc 2C4A     		ldr	r2, .L24+84
 323 01fe 2D4B     		ldr	r3, .L24+88
 324 0200 FFF7FEFF 		bl	__aeabi_dmul
 325              	.LVL39:
 326 0204 0300     		movs	r3, r0
 327 0206 0C00     		movs	r4, r1
 328 0208 2500     		movs	r5, r4
 329 020a 1C00     		movs	r4, r3
 330 020c 0C23     		movs	r3, #12
 331 020e FB18     		adds	r3, r7, r3
 332 0210 1B88     		ldrh	r3, [r3]
 333 0212 1800     		movs	r0, r3
 334 0214 FFF7FEFF 		bl	__aeabi_i2d
 335              	.LVL40:
 336 0218 274A     		ldr	r2, .L24+92
 337 021a 284B     		ldr	r3, .L24+96
 338 021c FFF7FEFF 		bl	__aeabi_dmul
 339              	.LVL41:
 340 0220 0200     		movs	r2, r0
 341 0222 0B00     		movs	r3, r1
 342 0224 2000     		movs	r0, r4
 343 0226 2900     		movs	r1, r5
 344 0228 FFF7FEFF 		bl	__aeabi_dsub
 345              	.LVL42:
 346 022c 0300     		movs	r3, r0
 347 022e 0C00     		movs	r4, r1
 348 0230 1800     		movs	r0, r3
 349 0232 2100     		movs	r1, r4
ARM GAS  C:\Users\embedded\AppData\Local\Temp\cccVPpSy.s 			page 9


 350 0234 FFF7FEFF 		bl	__aeabi_d2ulz
 351              	.LVL43:
 352 0238 0300     		movs	r3, r0
 353 023a 0C00     		movs	r4, r1
 354 023c BB61     		str	r3, [r7, #24]
 355 023e FC61     		str	r4, [r7, #28]
 356 0240 03E0     		b	.L5
 357              	.L12:
 108:tsl2561.c     ****     }
 109:tsl2561.c     ****     else {
 110:tsl2561.c     ****         finalResult = 0;
 358              		.loc 1 110 0
 359 0242 0023     		movs	r3, #0
 360 0244 0024     		movs	r4, #0
 361 0246 BB61     		str	r3, [r7, #24]
 362 0248 FC61     		str	r4, [r7, #28]
 363              	.L5:
 111:tsl2561.c     ****     }
 112:tsl2561.c     ****     return finalResult;
 364              		.loc 1 112 0
 365 024a BB69     		ldr	r3, [r7, #24]
 366 024c FC69     		ldr	r4, [r7, #28]
 113:tsl2561.c     **** }
 367              		.loc 1 113 0
 368 024e 1800     		movs	r0, r3
 369 0250 2100     		movs	r1, r4
 370 0252 BD46     		mov	sp, r7
 371 0254 09B0     		add	sp, sp, #36
 372              		@ sp needed
 373 0256 F0BC     		pop	{r4, r5, r6, r7}
 374 0258 04BC     		pop	{r2}
 375 025a 1047     		bx	r2
 376              	.L25:
 377              		.align	2
 378              	.L24:
 379 025c A4703D0A 		.word	171798692
 380 0260 D7A3E03F 		.word	1071686615
 381 0264 54E3A59B 		.word	-1683627180
 382 0268 C420A03F 		.word	1067458756
 383 026c CD3B4ED1 		.word	-783402035
 384 0270 915CAE3F 		.word	1068391569
 385 0274 66666666 		.word	1717986918
 386 0278 6666F63F 		.word	1073112678
 387 027c CDCCCCCC 		.word	-858993459
 388 0280 CCCCE43F 		.word	1071959244
 389 0284 174850FC 		.word	-61847529
 390 0288 1873973F 		.word	1066890008
 391 028c 5C2041F1 		.word	-247390116
 392 0290 63CC9D3F 		.word	1067306083
 393 0294 9A999999 		.word	-1717986918
 394 0298 9999E93F 		.word	1072273817
 395 029c 3255302A 		.word	707810610
 396 02a0 A913903F 		.word	1066406825
 397 02a4 3BDF4F8D 		.word	-1924145349
 398 02a8 976E923F 		.word	1066561175
 399 02ac CCCCF43F 		.word	1073007820
 400 02b0 8E40BCAE 		.word	-1363394418
ARM GAS  C:\Users\embedded\AppData\Local\Temp\cccVPpSy.s 			page 10


 401 02b4 5FB06B3F 		.word	1064022111
 402 02b8 94F6065F 		.word	1594291860
 403 02bc 984C653F 		.word	1063603352
 404              		.cfi_endproc
 405              	.LFE0:
 406              		.size	calculateBrightness, .-calculateBrightness
 407              		.align	1
 408              		.global	measureBrightness
 409              		.syntax unified
 410              		.code	16
 411              		.thumb_func
 412              		.fpu softvfp
 413              		.type	measureBrightness, %function
 414              	measureBrightness:
 415              	.LFB1:
 114:tsl2561.c     **** /*
 115:tsl2561.c     **** tU64 calculateBrightness(tU16 channel0, tU16 channel1)
 116:tsl2561.c     **** {
 117:tsl2561.c     ****     tU64 chScale = ((tU64)1 << CH_SCALE); // Assume no scaling
 118:tsl2561.c     ****     // Scale the channel values
 119:tsl2561.c     ****     tU64 ch0 = ((tU64)channel0 * chScale) >> CH_SCALE;
 120:tsl2561.c     ****     tU64 ch1 = ((tU64)channel1 * chScale) >> CH_SCALE;
 121:tsl2561.c     ****     // Find the ratio of the channel values (ch1 / ch0)
 122:tsl2561.c     ****     // Protect against divide by zero
 123:tsl2561.c     ****     tU64 channelsRatio = 0;
 124:tsl2561.c     ****     if (channel0 != (tU16)0) {
 125:tsl2561.c     ****         channelsRatio = (ch1 << ((tU64)RATIO_SCALE + (tU64)1)) / ch0;
 126:tsl2561.c     ****     }
 127:tsl2561.c     ****     // Round the ratio value
 128:tsl2561.c     ****     tU64 roundedRatio = (channelsRatio + (tU64)1) >> 1;
 129:tsl2561.c     ****     tU32 bValue = 0;
 130:tsl2561.c     ****     tU32 mValue = 0;
 131:tsl2561.c     **** 
 132:tsl2561.c     ****      Case for T, FN and CL package.
 133:tsl2561.c     ****         if ((roundedRatio >= (tU64)0) && (roundedRatio <= (tU64)K1T)) {
 134:tsl2561.c     ****             bValue = B1T; 
 135:tsl2561.c     ****             mValue = M1T;
 136:tsl2561.c     ****         } else if (roundedRatio <= (tU64)K2T) {
 137:tsl2561.c     ****             bValue = B2T; 
 138:tsl2561.c     ****             mValue = M2T;
 139:tsl2561.c     ****         } else if (roundedRatio <= (tU64)K3T) {
 140:tsl2561.c     ****             bValue = B3T; 
 141:tsl2561.c     ****             mValue = M3T;
 142:tsl2561.c     ****         } else if (roundedRatio <= (tU64)K4T) {
 143:tsl2561.c     ****             bValue = B4T; 
 144:tsl2561.c     ****             mValue = M4T;
 145:tsl2561.c     ****         } else if (roundedRatio <= (tU64)K5T) {
 146:tsl2561.c     ****             bValue = B5T; 
 147:tsl2561.c     ****             mValue = M5T;
 148:tsl2561.c     ****         } else if (roundedRatio <= (tU64)K6T) {
 149:tsl2561.c     ****             bValue = B6T; 
 150:tsl2561.c     ****             mValue = M6T;
 151:tsl2561.c     ****         } else if (roundedRatio <= (tU64)K7T) {
 152:tsl2561.c     ****             bValue = B7T; 
 153:tsl2561.c     ****             mValue = M7T;
 154:tsl2561.c     ****         } else if (roundedRatio > (tU64)K8T) {
 155:tsl2561.c     ****             bValue = B8T; 
ARM GAS  C:\Users\embedded\AppData\Local\Temp\cccVPpSy.s 			page 11


 156:tsl2561.c     ****             mValue = M8T;
 157:tsl2561.c     ****         } else {
 158:tsl2561.c     ****             ;
 159:tsl2561.c     ****         }
 160:tsl2561.c     **** 
 161:tsl2561.c     ****     // Case for CS package
 162:tsl2561.c     ****     if ((roundedRatio >= (tU64)0) && (roundedRatio <= (tU64)K1C)) {
 163:tsl2561.c     ****         bValue = B1C; 
 164:tsl2561.c     ****         mValue = M1C;
 165:tsl2561.c     ****     } else if (roundedRatio <= (tU64)K2C) {
 166:tsl2561.c     ****         bValue = B2C;
 167:tsl2561.c     ****         mValue = M2C;
 168:tsl2561.c     ****     } else if (roundedRatio <= (tU64)K3C) {
 169:tsl2561.c     ****         bValue = B3C; 
 170:tsl2561.c     ****         mValue = M3C;
 171:tsl2561.c     ****     } else if (roundedRatio <= (tU64)K4C) {
 172:tsl2561.c     ****         bValue = B4C; 
 173:tsl2561.c     ****         mValue = M4C;
 174:tsl2561.c     ****     } else if (roundedRatio <= (tU64)K5C) {
 175:tsl2561.c     ****         bValue = B5C; 
 176:tsl2561.c     ****         mValue = M5C;
 177:tsl2561.c     ****     } else if (roundedRatio <= (tU64)K6C) {
 178:tsl2561.c     ****         bValue = B6C; 
 179:tsl2561.c     ****         mValue = M6C;
 180:tsl2561.c     ****     } else if (roundedRatio <= (tU64)K7C) {
 181:tsl2561.c     ****         bValue = B7C;
 182:tsl2561.c     ****         mValue = M7C;
 183:tsl2561.c     ****     } else {
 184:tsl2561.c     ****         ;
 185:tsl2561.c     ****     }
 186:tsl2561.c     **** 
 187:tsl2561.c     ****     tU64 temporary;
 188:tsl2561.c     ****     temporary = ((ch0 * (tU64)bValue) - (ch1 * (tU64)mValue));
 189:tsl2561.c     ****     // Do not allow negative lux value
 190:tsl2561.c     ****     if (temporary < (tU64)0) {
 191:tsl2561.c     ****         temporary = 0;
 192:tsl2561.c     ****     }
 193:tsl2561.c     ****     // Round LSB (2 ^ (LUX_SCALE − 1))
 194:tsl2561.c     ****     temporary = temporary + ((tU64)1 << ((tU64)LUX_SCALE - (tU64)1));
 195:tsl2561.c     ****     // Strip off fractional portion
 196:tsl2561.c     ****     tU64 resultInLux = temporary >> LUX_SCALE;
 197:tsl2561.c     ****     return resultInLux;
 198:tsl2561.c     **** }
 199:tsl2561.c     **** */
 200:tsl2561.c     **** tU64 measureBrightness(void)
 201:tsl2561.c     **** {
 416              		.loc 1 201 0
 417              		.cfi_startproc
 418              		@ Function supports interworking.
 419              		@ args = 0, pretend = 0, frame = 24
 420              		@ frame_needed = 1, uses_anonymous_args = 0
 421 02c0 F0B5     		push	{r4, r5, r6, r7, lr}
 422              	.LCFI3:
 423              		.cfi_def_cfa_offset 20
 424              		.cfi_offset 4, -20
 425              		.cfi_offset 5, -16
 426              		.cfi_offset 6, -12
ARM GAS  C:\Users\embedded\AppData\Local\Temp\cccVPpSy.s 			page 12


 427              		.cfi_offset 7, -8
 428              		.cfi_offset 14, -4
 429 02c2 87B0     		sub	sp, sp, #28
 430              	.LCFI4:
 431              		.cfi_def_cfa_offset 48
 432 02c4 00AF     		add	r7, sp, #0
 433              	.LCFI5:
 434              		.cfi_def_cfa_register 7
 202:tsl2561.c     ****     // Return code value for I2C operations.
 203:tsl2561.c     ****     tS8 retCode = 0;
 435              		.loc 1 203 0
 436 02c6 1721     		movs	r1, #23
 437 02c8 7B18     		adds	r3, r7, r1
 438 02ca 0022     		movs	r2, #0
 439 02cc 1A70     		strb	r2, [r3]
 204:tsl2561.c     ****     tU8 command[2] = {0};
 440              		.loc 1 204 0
 441 02ce 3B1D     		adds	r3, r7, #4
 442 02d0 0022     		movs	r2, #0
 443 02d2 1A80     		strh	r2, [r3]
 205:tsl2561.c     ****     tU8 readValue[1] = {0};
 444              		.loc 1 205 0
 445 02d4 3B00     		movs	r3, r7
 446 02d6 0022     		movs	r2, #0
 447 02d8 1A70     		strb	r2, [r3]
 206:tsl2561.c     **** 
 207:tsl2561.c     ****     // Write address for TLS2561
 208:tsl2561.c     ****     tU8 tslWriteAddress = tsl2561WriteAddressFloat;
 448              		.loc 1 208 0
 449 02da 1626     		movs	r6, #22
 450 02dc BB19     		adds	r3, r7, r6
 451 02de 7822     		movs	r2, #120
 452 02e0 1A70     		strb	r2, [r3]
 209:tsl2561.c     ****     // Read address for TLS2561
 210:tsl2561.c     ****     tU8 tslReadAddress = tsl2561ReadAddressFloat;
 453              		.loc 1 210 0
 454 02e2 1523     		movs	r3, #21
 455 02e4 FB18     		adds	r3, r7, r3
 456 02e6 7922     		movs	r2, #121
 457 02e8 1A70     		strb	r2, [r3]
 211:tsl2561.c     **** 
 212:tsl2561.c     ****     // Variables for each channel value.
 213:tsl2561.c     ****     tU16 channel0 = 0;
 458              		.loc 1 213 0
 459 02ea 1222     		movs	r2, #18
 460 02ec BB18     		adds	r3, r7, r2
 461 02ee 0022     		movs	r2, #0
 462 02f0 1A80     		strh	r2, [r3]
 214:tsl2561.c     ****     tU16 channel1 = 0;
 463              		.loc 1 214 0
 464 02f2 1020     		movs	r0, #16
 465 02f4 3B18     		adds	r3, r7, r0
 466 02f6 0022     		movs	r2, #0
 467 02f8 1A80     		strh	r2, [r3]
 215:tsl2561.c     **** 
 216:tsl2561.c     ****     // Sending a command to the device to power it up.
 217:tsl2561.c     ****     command[0] = (((tU8)0x08 << 4) | (tU8)0x00);  	// Change target register to control register
ARM GAS  C:\Users\embedded\AppData\Local\Temp\cccVPpSy.s 			page 13


 468              		.loc 1 217 0
 469 02fa 3B1D     		adds	r3, r7, #4
 470 02fc 8022     		movs	r2, #128
 471 02fe 1A70     		strb	r2, [r3]
 218:tsl2561.c     ****     command[1] = 0x03;  							// Write 0x03 (so power up) the device
 472              		.loc 1 218 0
 473 0300 3B1D     		adds	r3, r7, #4
 474 0302 0322     		movs	r2, #3
 475 0304 5A70     		strb	r2, [r3, #1]
 219:tsl2561.c     ****     retCode = i2cWrite(tslWriteAddress, command, 2);
 476              		.loc 1 219 0
 477 0306 0D00     		movs	r5, r1
 478 0308 7C19     		adds	r4, r7, r5
 479 030a 391D     		adds	r1, r7, #4
 480 030c BB19     		adds	r3, r7, r6
 481 030e 1B78     		ldrb	r3, [r3]
 482 0310 0222     		movs	r2, #2
 483 0312 1800     		movs	r0, r3
 484 0314 FFF7FEFF 		bl	i2cWrite
 485 0318 0300     		movs	r3, r0
 486 031a 2370     		strb	r3, [r4]
 220:tsl2561.c     ****     retCode = i2cRead(tslReadAddress, readValue, 1);
 487              		.loc 1 220 0
 488 031c 7C19     		adds	r4, r7, r5
 489 031e 3900     		movs	r1, r7
 490 0320 1523     		movs	r3, #21
 491 0322 FB18     		adds	r3, r7, r3
 492 0324 1B78     		ldrb	r3, [r3]
 493 0326 0122     		movs	r2, #1
 494 0328 1800     		movs	r0, r3
 495 032a FFF7FEFF 		bl	i2cRead
 496 032e 0300     		movs	r3, r0
 497 0330 2370     		strb	r3, [r4]
 221:tsl2561.c     **** 
 222:tsl2561.c     ****     // Debug:
 223:tsl2561.c     ****     // retCode = i2cRead(tslReadAddress, readValue, 1);
 224:tsl2561.c     ****     // if (readValue[0] == 0x03) {
 225:tsl2561.c     ****     //    lcdPuts("OK.");
 226:tsl2561.c     ****     // } else {
 227:tsl2561.c     ****     //    lcdPuts("Not OK.");
 228:tsl2561.c     ****     // }
 229:tsl2561.c     **** 	  sdelay(1);
 498              		.loc 1 229 0
 499 0332 0120     		movs	r0, #1
 500 0334 FFF7FEFF 		bl	sdelay
 230:tsl2561.c     **** //    mdelay(403); // Waiting for 403 ms, since it takes 402 ms for both channels to integrate
 231:tsl2561.c     **** 
 232:tsl2561.c     ****     // Command for reading low byte of 16 bit channel 0
 233:tsl2561.c     ****     command[0] = (((tU8)0x09 << 4) | (tU8)0x0C);
 501              		.loc 1 233 0
 502 0338 3B1D     		adds	r3, r7, #4
 503 033a 9C22     		movs	r2, #156
 504 033c 1A70     		strb	r2, [r3]
 234:tsl2561.c     ****     retCode = i2cWrite(tslWriteAddress, command, 1);
 505              		.loc 1 234 0
 506 033e 7C19     		adds	r4, r7, r5
 507 0340 391D     		adds	r1, r7, #4
ARM GAS  C:\Users\embedded\AppData\Local\Temp\cccVPpSy.s 			page 14


 508 0342 BB19     		adds	r3, r7, r6
 509 0344 1B78     		ldrb	r3, [r3]
 510 0346 0122     		movs	r2, #1
 511 0348 1800     		movs	r0, r3
 512 034a FFF7FEFF 		bl	i2cWrite
 513 034e 0300     		movs	r3, r0
 514 0350 2370     		strb	r3, [r4]
 235:tsl2561.c     ****     retCode = i2cRead(tslReadAddress, readValue, 1);
 515              		.loc 1 235 0
 516 0352 7C19     		adds	r4, r7, r5
 517 0354 3900     		movs	r1, r7
 518 0356 1523     		movs	r3, #21
 519 0358 FB18     		adds	r3, r7, r3
 520 035a 1B78     		ldrb	r3, [r3]
 521 035c 0122     		movs	r2, #1
 522 035e 1800     		movs	r0, r3
 523 0360 FFF7FEFF 		bl	i2cRead
 524 0364 0300     		movs	r3, r0
 525 0366 2370     		strb	r3, [r4]
 236:tsl2561.c     ****     channel0 = channel0 + (tU16)readValue[0];
 526              		.loc 1 236 0
 527 0368 3B00     		movs	r3, r7
 528 036a 1B78     		ldrb	r3, [r3]
 529 036c 1B04     		lsls	r3, r3, #16
 530 036e 190C     		lsrs	r1, r3, #16
 531 0370 1222     		movs	r2, #18
 532 0372 BB18     		adds	r3, r7, r2
 533 0374 BA18     		adds	r2, r7, r2
 534 0376 1288     		ldrh	r2, [r2]
 535 0378 8A18     		adds	r2, r1, r2
 536 037a 1A80     		strh	r2, [r3]
 237:tsl2561.c     **** 
 238:tsl2561.c     ****     // Command for reading high byte of 16 bit channel 0
 239:tsl2561.c     ****     command[0] = (((tU8)0x09 << 4) | (tU8)0x0D);
 537              		.loc 1 239 0
 538 037c 3B1D     		adds	r3, r7, #4
 539 037e 9D22     		movs	r2, #157
 540 0380 1A70     		strb	r2, [r3]
 240:tsl2561.c     ****     retCode = i2cWrite(tslWriteAddress, command, 1);
 541              		.loc 1 240 0
 542 0382 7C19     		adds	r4, r7, r5
 543 0384 391D     		adds	r1, r7, #4
 544 0386 BB19     		adds	r3, r7, r6
 545 0388 1B78     		ldrb	r3, [r3]
 546 038a 0122     		movs	r2, #1
 547 038c 1800     		movs	r0, r3
 548 038e FFF7FEFF 		bl	i2cWrite
 549 0392 0300     		movs	r3, r0
 550 0394 2370     		strb	r3, [r4]
 241:tsl2561.c     ****     retCode = i2cRead(tslReadAddress, readValue, 1);
 551              		.loc 1 241 0
 552 0396 7C19     		adds	r4, r7, r5
 553 0398 3900     		movs	r1, r7
 554 039a 1523     		movs	r3, #21
 555 039c FB18     		adds	r3, r7, r3
 556 039e 1B78     		ldrb	r3, [r3]
 557 03a0 0122     		movs	r2, #1
ARM GAS  C:\Users\embedded\AppData\Local\Temp\cccVPpSy.s 			page 15


 558 03a2 1800     		movs	r0, r3
 559 03a4 FFF7FEFF 		bl	i2cRead
 560 03a8 0300     		movs	r3, r0
 561 03aa 2370     		strb	r3, [r4]
 242:tsl2561.c     ****     channel0 = channel0 + ((tU16)256 * (tU16)readValue[0]);
 562              		.loc 1 242 0
 563 03ac 3B00     		movs	r3, r7
 564 03ae 1B78     		ldrb	r3, [r3]
 565 03b0 1B04     		lsls	r3, r3, #16
 566 03b2 1B0C     		lsrs	r3, r3, #16
 567 03b4 1B02     		lsls	r3, r3, #8
 568 03b6 1B04     		lsls	r3, r3, #16
 569 03b8 190C     		lsrs	r1, r3, #16
 570 03ba 1222     		movs	r2, #18
 571 03bc BB18     		adds	r3, r7, r2
 572 03be BA18     		adds	r2, r7, r2
 573 03c0 1288     		ldrh	r2, [r2]
 574 03c2 8A18     		adds	r2, r1, r2
 575 03c4 1A80     		strh	r2, [r3]
 243:tsl2561.c     **** 
 244:tsl2561.c     ****     // Command for reading low byte of 16 bit channel 1
 245:tsl2561.c     ****     command[0] = (((tU8)0x09 << 4) | (tU8)0x0E);
 576              		.loc 1 245 0
 577 03c6 3B1D     		adds	r3, r7, #4
 578 03c8 9E22     		movs	r2, #158
 579 03ca 1A70     		strb	r2, [r3]
 246:tsl2561.c     ****     retCode = i2cWrite(tslWriteAddress, command, 1);
 580              		.loc 1 246 0
 581 03cc 7C19     		adds	r4, r7, r5
 582 03ce 391D     		adds	r1, r7, #4
 583 03d0 BB19     		adds	r3, r7, r6
 584 03d2 1B78     		ldrb	r3, [r3]
 585 03d4 0122     		movs	r2, #1
 586 03d6 1800     		movs	r0, r3
 587 03d8 FFF7FEFF 		bl	i2cWrite
 588 03dc 0300     		movs	r3, r0
 589 03de 2370     		strb	r3, [r4]
 247:tsl2561.c     ****     retCode = i2cRead(tslReadAddress, readValue, 1);
 590              		.loc 1 247 0
 591 03e0 7C19     		adds	r4, r7, r5
 592 03e2 3900     		movs	r1, r7
 593 03e4 1523     		movs	r3, #21
 594 03e6 FB18     		adds	r3, r7, r3
 595 03e8 1B78     		ldrb	r3, [r3]
 596 03ea 0122     		movs	r2, #1
 597 03ec 1800     		movs	r0, r3
 598 03ee FFF7FEFF 		bl	i2cRead
 599 03f2 0300     		movs	r3, r0
 600 03f4 2370     		strb	r3, [r4]
 248:tsl2561.c     ****     channel1 = channel1 + (tU16)readValue[0];
 601              		.loc 1 248 0
 602 03f6 3B00     		movs	r3, r7
 603 03f8 1B78     		ldrb	r3, [r3]
 604 03fa 1B04     		lsls	r3, r3, #16
 605 03fc 190C     		lsrs	r1, r3, #16
 606 03fe 1020     		movs	r0, #16
 607 0400 3B18     		adds	r3, r7, r0
ARM GAS  C:\Users\embedded\AppData\Local\Temp\cccVPpSy.s 			page 16


 608 0402 3A18     		adds	r2, r7, r0
 609 0404 1288     		ldrh	r2, [r2]
 610 0406 8A18     		adds	r2, r1, r2
 611 0408 1A80     		strh	r2, [r3]
 249:tsl2561.c     **** 
 250:tsl2561.c     ****     // Command for reading high byte of 16 bit channel 1
 251:tsl2561.c     ****     command[0] = (((tU8)0x09 << 4) | (tU8)0x0F);
 612              		.loc 1 251 0
 613 040a 3B1D     		adds	r3, r7, #4
 614 040c 9F22     		movs	r2, #159
 615 040e 1A70     		strb	r2, [r3]
 252:tsl2561.c     ****     retCode = i2cWrite(tslWriteAddress, command, 1);
 616              		.loc 1 252 0
 617 0410 7C19     		adds	r4, r7, r5
 618 0412 391D     		adds	r1, r7, #4
 619 0414 BB19     		adds	r3, r7, r6
 620 0416 1B78     		ldrb	r3, [r3]
 621 0418 0122     		movs	r2, #1
 622 041a 1800     		movs	r0, r3
 623 041c FFF7FEFF 		bl	i2cWrite
 624 0420 0300     		movs	r3, r0
 625 0422 2370     		strb	r3, [r4]
 253:tsl2561.c     ****     retCode = i2cRead(tslReadAddress, readValue, 1);
 626              		.loc 1 253 0
 627 0424 7C19     		adds	r4, r7, r5
 628 0426 3900     		movs	r1, r7
 629 0428 1523     		movs	r3, #21
 630 042a FB18     		adds	r3, r7, r3
 631 042c 1B78     		ldrb	r3, [r3]
 632 042e 0122     		movs	r2, #1
 633 0430 1800     		movs	r0, r3
 634 0432 FFF7FEFF 		bl	i2cRead
 635 0436 0300     		movs	r3, r0
 636 0438 2370     		strb	r3, [r4]
 254:tsl2561.c     ****     channel1 = channel1 + ((tU16)256 * (tU16)readValue[0]);
 637              		.loc 1 254 0
 638 043a 3B00     		movs	r3, r7
 639 043c 1B78     		ldrb	r3, [r3]
 640 043e 1B04     		lsls	r3, r3, #16
 641 0440 1B0C     		lsrs	r3, r3, #16
 642 0442 1B02     		lsls	r3, r3, #8
 643 0444 1B04     		lsls	r3, r3, #16
 644 0446 190C     		lsrs	r1, r3, #16
 645 0448 1020     		movs	r0, #16
 646 044a 3B18     		adds	r3, r7, r0
 647 044c 3A18     		adds	r2, r7, r0
 648 044e 1288     		ldrh	r2, [r2]
 649 0450 8A18     		adds	r2, r1, r2
 650 0452 1A80     		strh	r2, [r3]
 255:tsl2561.c     **** 
 256:tsl2561.c     ****     // Sending a command to the device to power it down.
 257:tsl2561.c     ****     command[0] = (((tU8)0x09 << 4) | (tU8)0x00);  // Change target register to control register
 651              		.loc 1 257 0
 652 0454 3B1D     		adds	r3, r7, #4
 653 0456 9022     		movs	r2, #144
 654 0458 1A70     		strb	r2, [r3]
 258:tsl2561.c     ****     command[1] = (0x00);  // Write 0x00 (so power down) the device
ARM GAS  C:\Users\embedded\AppData\Local\Temp\cccVPpSy.s 			page 17


 655              		.loc 1 258 0
 656 045a 3B1D     		adds	r3, r7, #4
 657 045c 0022     		movs	r2, #0
 658 045e 5A70     		strb	r2, [r3, #1]
 259:tsl2561.c     ****     retCode = i2cWrite(tslWriteAddress, command, 2);
 659              		.loc 1 259 0
 660 0460 7C19     		adds	r4, r7, r5
 661 0462 391D     		adds	r1, r7, #4
 662 0464 BB19     		adds	r3, r7, r6
 663 0466 1B78     		ldrb	r3, [r3]
 664 0468 0222     		movs	r2, #2
 665 046a 1800     		movs	r0, r3
 666 046c FFF7FEFF 		bl	i2cWrite
 667 0470 0300     		movs	r3, r0
 668 0472 2370     		strb	r3, [r4]
 260:tsl2561.c     **** 
 261:tsl2561.c     ****     // tU64 brightnessValue = calculateBrightnessFloat(channel0, channel1);
 262:tsl2561.c     ****     tU64 brightnessValue = calculateBrightness(channel0, channel1);
 669              		.loc 1 262 0
 670 0474 1020     		movs	r0, #16
 671 0476 3B18     		adds	r3, r7, r0
 672 0478 1A88     		ldrh	r2, [r3]
 673 047a 1223     		movs	r3, #18
 674 047c FB18     		adds	r3, r7, r3
 675 047e 1B88     		ldrh	r3, [r3]
 676 0480 1100     		movs	r1, r2
 677 0482 1800     		movs	r0, r3
 678 0484 FFF7FEFF 		bl	calculateBrightness
 679 0488 0300     		movs	r3, r0
 680 048a 0C00     		movs	r4, r1
 681 048c BB60     		str	r3, [r7, #8]
 682 048e FC60     		str	r4, [r7, #12]
 263:tsl2561.c     **** 
 264:tsl2561.c     ****     return brightnessValue;
 683              		.loc 1 264 0
 684 0490 BB68     		ldr	r3, [r7, #8]
 685 0492 FC68     		ldr	r4, [r7, #12]
 265:tsl2561.c     **** }
 686              		.loc 1 265 0
 687 0494 1800     		movs	r0, r3
 688 0496 2100     		movs	r1, r4
 689 0498 BD46     		mov	sp, r7
 690 049a 07B0     		add	sp, sp, #28
 691              		@ sp needed
 692 049c F0BC     		pop	{r4, r5, r6, r7}
 693 049e 04BC     		pop	{r2}
 694 04a0 1047     		bx	r2
 695              		.cfi_endproc
 696              	.LFE1:
 697              		.size	measureBrightness, .-measureBrightness
 698              	.Letext0:
 699              		.file 2 "general.h"
 700              		.file 3 "c:\\embedded\\tools\\arm-none-eabi\\include\\sys\\lock.h"
 701              		.file 4 "c:\\embedded\\tools\\arm-none-eabi\\include\\sys\\_types.h"
 702              		.file 5 "c:\\embedded\\tools\\lib\\gcc\\arm-none-eabi\\7.3.1\\include\\stddef.h"
 703              		.file 6 "c:\\embedded\\tools\\arm-none-eabi\\include\\sys\\reent.h"
 704              		.file 7 "c:\\embedded\\tools\\arm-none-eabi\\include\\math.h"
ARM GAS  C:\Users\embedded\AppData\Local\Temp\cccVPpSy.s 			page 18


 705 04a2 C046     		.section	.debug_info,"",%progbits
 706              	.Ldebug_info0:
 707 0000 FA0A0000 		.4byte	0xafa
 708 0004 0200     		.2byte	0x2
 709 0006 00000000 		.4byte	.Ldebug_abbrev0
 710 000a 04       		.byte	0x4
 711 000b 01       		.uleb128 0x1
 712 000c 1A030000 		.4byte	.LASF140
 713 0010 0C       		.byte	0xc
 714 0011 95040000 		.4byte	.LASF141
 715 0015 F6020000 		.4byte	.LASF142
 716 0019 00000000 		.4byte	.Ltext0
 717 001d A2040000 		.4byte	.Letext0
 718 0021 00000000 		.4byte	.Ldebug_line0
 719 0025 02       		.uleb128 0x2
 720 0026 74553800 		.ascii	"tU8\000"
 721 002a 02       		.byte	0x2
 722 002b 17       		.byte	0x17
 723 002c 30000000 		.4byte	0x30
 724 0030 03       		.uleb128 0x3
 725 0031 01       		.byte	0x1
 726 0032 08       		.byte	0x8
 727 0033 C5030000 		.4byte	.LASF1
 728 0037 04       		.uleb128 0x4
 729 0038 2B010000 		.4byte	.LASF0
 730 003c 02       		.byte	0x2
 731 003d 18       		.byte	0x18
 732 003e 42000000 		.4byte	0x42
 733 0042 03       		.uleb128 0x3
 734 0043 02       		.byte	0x2
 735 0044 07       		.byte	0x7
 736 0045 3D020000 		.4byte	.LASF2
 737 0049 03       		.uleb128 0x3
 738 004a 04       		.byte	0x4
 739 004b 07       		.byte	0x7
 740 004c FA010000 		.4byte	.LASF3
 741 0050 04       		.uleb128 0x4
 742 0051 2E050000 		.4byte	.LASF4
 743 0055 02       		.byte	0x2
 744 0056 1A       		.byte	0x1a
 745 0057 5B000000 		.4byte	0x5b
 746 005b 03       		.uleb128 0x3
 747 005c 08       		.byte	0x8
 748 005d 07       		.byte	0x7
 749 005e 67000000 		.4byte	.LASF5
 750 0062 02       		.uleb128 0x2
 751 0063 74533800 		.ascii	"tS8\000"
 752 0067 02       		.byte	0x2
 753 0068 1B       		.byte	0x1b
 754 0069 6D000000 		.4byte	0x6d
 755 006d 03       		.uleb128 0x3
 756 006e 01       		.byte	0x1
 757 006f 06       		.byte	0x6
 758 0070 E6000000 		.4byte	.LASF6
 759 0074 03       		.uleb128 0x3
 760 0075 02       		.byte	0x2
 761 0076 05       		.byte	0x5
ARM GAS  C:\Users\embedded\AppData\Local\Temp\cccVPpSy.s 			page 19


 762 0077 E1030000 		.4byte	.LASF7
 763 007b 05       		.uleb128 0x5
 764 007c 04       		.byte	0x4
 765 007d 05       		.byte	0x5
 766 007e 696E7400 		.ascii	"int\000"
 767 0082 03       		.uleb128 0x3
 768 0083 08       		.byte	0x8
 769 0084 05       		.byte	0x5
 770 0085 D8000000 		.4byte	.LASF8
 771 0089 03       		.uleb128 0x3
 772 008a 08       		.byte	0x8
 773 008b 04       		.byte	0x4
 774 008c B1020000 		.4byte	.LASF9
 775 0090 03       		.uleb128 0x3
 776 0091 04       		.byte	0x4
 777 0092 05       		.byte	0x5
 778 0093 30010000 		.4byte	.LASF10
 779 0097 03       		.uleb128 0x3
 780 0098 04       		.byte	0x4
 781 0099 07       		.byte	0x7
 782 009a 1E020000 		.4byte	.LASF11
 783 009e 04       		.uleb128 0x4
 784 009f 83020000 		.4byte	.LASF12
 785 00a3 03       		.byte	0x3
 786 00a4 22       		.byte	0x22
 787 00a5 A9000000 		.4byte	0xa9
 788 00a9 06       		.uleb128 0x6
 789 00aa 04       		.byte	0x4
 790 00ab AF000000 		.4byte	0xaf
 791 00af 07       		.uleb128 0x7
 792 00b0 6D010000 		.4byte	.LASF119
 793 00b4 01       		.byte	0x1
 794 00b5 04       		.uleb128 0x4
 795 00b6 EF020000 		.4byte	.LASF13
 796 00ba 04       		.byte	0x4
 797 00bb 2C       		.byte	0x2c
 798 00bc 90000000 		.4byte	0x90
 799 00c0 04       		.uleb128 0x4
 800 00c1 CD040000 		.4byte	.LASF14
 801 00c5 04       		.byte	0x4
 802 00c6 72       		.byte	0x72
 803 00c7 90000000 		.4byte	0x90
 804 00cb 08       		.uleb128 0x8
 805 00cc 8B020000 		.4byte	.LASF15
 806 00d0 05       		.byte	0x5
 807 00d1 6501     		.2byte	0x165
 808 00d3 49000000 		.4byte	0x49
 809 00d7 09       		.uleb128 0x9
 810 00d8 04       		.byte	0x4
 811 00d9 04       		.byte	0x4
 812 00da A6       		.byte	0xa6
 813 00db F6000000 		.4byte	0xf6
 814 00df 0A       		.uleb128 0xa
 815 00e0 7D020000 		.4byte	.LASF16
 816 00e4 04       		.byte	0x4
 817 00e5 A8       		.byte	0xa8
 818 00e6 CB000000 		.4byte	0xcb
ARM GAS  C:\Users\embedded\AppData\Local\Temp\cccVPpSy.s 			page 20


 819 00ea 0A       		.uleb128 0xa
 820 00eb 07020000 		.4byte	.LASF17
 821 00ef 04       		.byte	0x4
 822 00f0 A9       		.byte	0xa9
 823 00f1 F6000000 		.4byte	0xf6
 824 00f5 00       		.byte	0
 825 00f6 0B       		.uleb128 0xb
 826 00f7 30000000 		.4byte	0x30
 827 00fb 06010000 		.4byte	0x106
 828 00ff 0C       		.uleb128 0xc
 829 0100 49000000 		.4byte	0x49
 830 0104 03       		.byte	0x3
 831 0105 00       		.byte	0
 832 0106 0D       		.uleb128 0xd
 833 0107 08       		.byte	0x8
 834 0108 04       		.byte	0x4
 835 0109 A3       		.byte	0xa3
 836 010a 2B010000 		.4byte	0x12b
 837 010e 0E       		.uleb128 0xe
 838 010f 8D040000 		.4byte	.LASF18
 839 0113 04       		.byte	0x4
 840 0114 A5       		.byte	0xa5
 841 0115 7B000000 		.4byte	0x7b
 842 0119 02       		.byte	0x2
 843 011a 23       		.byte	0x23
 844 011b 00       		.uleb128 0
 845 011c 0E       		.uleb128 0xe
 846 011d 9F040000 		.4byte	.LASF19
 847 0121 04       		.byte	0x4
 848 0122 AA       		.byte	0xaa
 849 0123 D7000000 		.4byte	0xd7
 850 0127 02       		.byte	0x2
 851 0128 23       		.byte	0x23
 852 0129 04       		.uleb128 0x4
 853 012a 00       		.byte	0
 854 012b 04       		.uleb128 0x4
 855 012c 0D040000 		.4byte	.LASF20
 856 0130 04       		.byte	0x4
 857 0131 AB       		.byte	0xab
 858 0132 06010000 		.4byte	0x106
 859 0136 04       		.uleb128 0x4
 860 0137 BD010000 		.4byte	.LASF21
 861 013b 04       		.byte	0x4
 862 013c AF       		.byte	0xaf
 863 013d 9E000000 		.4byte	0x9e
 864 0141 0F       		.uleb128 0xf
 865 0142 04       		.byte	0x4
 866 0143 06       		.uleb128 0x6
 867 0144 04       		.byte	0x4
 868 0145 49010000 		.4byte	0x149
 869 0149 03       		.uleb128 0x3
 870 014a 01       		.byte	0x1
 871 014b 08       		.byte	0x8
 872 014c DC040000 		.4byte	.LASF22
 873 0150 10       		.uleb128 0x10
 874 0151 49010000 		.4byte	0x149
 875 0155 04       		.uleb128 0x4
ARM GAS  C:\Users\embedded\AppData\Local\Temp\cccVPpSy.s 			page 21


 876 0156 19050000 		.4byte	.LASF23
 877 015a 06       		.byte	0x6
 878 015b 16       		.byte	0x16
 879 015c 97000000 		.4byte	0x97
 880 0160 11       		.uleb128 0x11
 881 0161 CE010000 		.4byte	.LASF28
 882 0165 18       		.byte	0x18
 883 0166 06       		.byte	0x6
 884 0167 2F       		.byte	0x2f
 885 0168 BF010000 		.4byte	0x1bf
 886 016c 0E       		.uleb128 0xe
 887 016d F8040000 		.4byte	.LASF24
 888 0171 06       		.byte	0x6
 889 0172 31       		.byte	0x31
 890 0173 BF010000 		.4byte	0x1bf
 891 0177 02       		.byte	0x2
 892 0178 23       		.byte	0x23
 893 0179 00       		.uleb128 0
 894 017a 12       		.uleb128 0x12
 895 017b 5F6B00   		.ascii	"_k\000"
 896 017e 06       		.byte	0x6
 897 017f 32       		.byte	0x32
 898 0180 7B000000 		.4byte	0x7b
 899 0184 02       		.byte	0x2
 900 0185 23       		.byte	0x23
 901 0186 04       		.uleb128 0x4
 902 0187 0E       		.uleb128 0xe
 903 0188 6F040000 		.4byte	.LASF25
 904 018c 06       		.byte	0x6
 905 018d 32       		.byte	0x32
 906 018e 7B000000 		.4byte	0x7b
 907 0192 02       		.byte	0x2
 908 0193 23       		.byte	0x23
 909 0194 08       		.uleb128 0x8
 910 0195 0E       		.uleb128 0xe
 911 0196 B7010000 		.4byte	.LASF26
 912 019a 06       		.byte	0x6
 913 019b 32       		.byte	0x32
 914 019c 7B000000 		.4byte	0x7b
 915 01a0 02       		.byte	0x2
 916 01a1 23       		.byte	0x23
 917 01a2 0C       		.uleb128 0xc
 918 01a3 0E       		.uleb128 0xe
 919 01a4 72050000 		.4byte	.LASF27
 920 01a8 06       		.byte	0x6
 921 01a9 32       		.byte	0x32
 922 01aa 7B000000 		.4byte	0x7b
 923 01ae 02       		.byte	0x2
 924 01af 23       		.byte	0x23
 925 01b0 10       		.uleb128 0x10
 926 01b1 12       		.uleb128 0x12
 927 01b2 5F7800   		.ascii	"_x\000"
 928 01b5 06       		.byte	0x6
 929 01b6 33       		.byte	0x33
 930 01b7 C5010000 		.4byte	0x1c5
 931 01bb 02       		.byte	0x2
 932 01bc 23       		.byte	0x23
ARM GAS  C:\Users\embedded\AppData\Local\Temp\cccVPpSy.s 			page 22


 933 01bd 14       		.uleb128 0x14
 934 01be 00       		.byte	0
 935 01bf 06       		.uleb128 0x6
 936 01c0 04       		.byte	0x4
 937 01c1 60010000 		.4byte	0x160
 938 01c5 0B       		.uleb128 0xb
 939 01c6 55010000 		.4byte	0x155
 940 01ca D5010000 		.4byte	0x1d5
 941 01ce 0C       		.uleb128 0xc
 942 01cf 49000000 		.4byte	0x49
 943 01d3 00       		.byte	0
 944 01d4 00       		.byte	0
 945 01d5 11       		.uleb128 0x11
 946 01d6 F5010000 		.4byte	.LASF29
 947 01da 24       		.byte	0x24
 948 01db 06       		.byte	0x6
 949 01dc 37       		.byte	0x37
 950 01dd 60020000 		.4byte	0x260
 951 01e1 0E       		.uleb128 0xe
 952 01e2 CF000000 		.4byte	.LASF30
 953 01e6 06       		.byte	0x6
 954 01e7 39       		.byte	0x39
 955 01e8 7B000000 		.4byte	0x7b
 956 01ec 02       		.byte	0x2
 957 01ed 23       		.byte	0x23
 958 01ee 00       		.uleb128 0
 959 01ef 0E       		.uleb128 0xe
 960 01f0 E1040000 		.4byte	.LASF31
 961 01f4 06       		.byte	0x6
 962 01f5 3A       		.byte	0x3a
 963 01f6 7B000000 		.4byte	0x7b
 964 01fa 02       		.byte	0x2
 965 01fb 23       		.byte	0x23
 966 01fc 04       		.uleb128 0x4
 967 01fd 0E       		.uleb128 0xe
 968 01fe FE000000 		.4byte	.LASF32
 969 0202 06       		.byte	0x6
 970 0203 3B       		.byte	0x3b
 971 0204 7B000000 		.4byte	0x7b
 972 0208 02       		.byte	0x2
 973 0209 23       		.byte	0x23
 974 020a 08       		.uleb128 0x8
 975 020b 0E       		.uleb128 0xe
 976 020c 14060000 		.4byte	.LASF33
 977 0210 06       		.byte	0x6
 978 0211 3C       		.byte	0x3c
 979 0212 7B000000 		.4byte	0x7b
 980 0216 02       		.byte	0x2
 981 0217 23       		.byte	0x23
 982 0218 0C       		.uleb128 0xc
 983 0219 0E       		.uleb128 0xe
 984 021a D3020000 		.4byte	.LASF34
 985 021e 06       		.byte	0x6
 986 021f 3D       		.byte	0x3d
 987 0220 7B000000 		.4byte	0x7b
 988 0224 02       		.byte	0x2
 989 0225 23       		.byte	0x23
ARM GAS  C:\Users\embedded\AppData\Local\Temp\cccVPpSy.s 			page 23


 990 0226 10       		.uleb128 0x10
 991 0227 0E       		.uleb128 0xe
 992 0228 A7020000 		.4byte	.LASF35
 993 022c 06       		.byte	0x6
 994 022d 3E       		.byte	0x3e
 995 022e 7B000000 		.4byte	0x7b
 996 0232 02       		.byte	0x2
 997 0233 23       		.byte	0x23
 998 0234 14       		.uleb128 0x14
 999 0235 0E       		.uleb128 0xe
 1000 0236 77050000 		.4byte	.LASF36
 1001 023a 06       		.byte	0x6
 1002 023b 3F       		.byte	0x3f
 1003 023c 7B000000 		.4byte	0x7b
 1004 0240 02       		.byte	0x2
 1005 0241 23       		.byte	0x23
 1006 0242 18       		.uleb128 0x18
 1007 0243 0E       		.uleb128 0xe
 1008 0244 EB030000 		.4byte	.LASF37
 1009 0248 06       		.byte	0x6
 1010 0249 40       		.byte	0x40
 1011 024a 7B000000 		.4byte	0x7b
 1012 024e 02       		.byte	0x2
 1013 024f 23       		.byte	0x23
 1014 0250 1C       		.uleb128 0x1c
 1015 0251 0E       		.uleb128 0xe
 1016 0252 D4050000 		.4byte	.LASF38
 1017 0256 06       		.byte	0x6
 1018 0257 41       		.byte	0x41
 1019 0258 7B000000 		.4byte	0x7b
 1020 025c 02       		.byte	0x2
 1021 025d 23       		.byte	0x23
 1022 025e 20       		.uleb128 0x20
 1023 025f 00       		.byte	0
 1024 0260 13       		.uleb128 0x13
 1025 0261 0D010000 		.4byte	.LASF39
 1026 0265 0801     		.2byte	0x108
 1027 0267 06       		.byte	0x6
 1028 0268 4A       		.byte	0x4a
 1029 0269 A9020000 		.4byte	0x2a9
 1030 026d 0E       		.uleb128 0xe
 1031 026e AA010000 		.4byte	.LASF40
 1032 0272 06       		.byte	0x6
 1033 0273 4B       		.byte	0x4b
 1034 0274 A9020000 		.4byte	0x2a9
 1035 0278 02       		.byte	0x2
 1036 0279 23       		.byte	0x23
 1037 027a 00       		.uleb128 0
 1038 027b 0E       		.uleb128 0xe
 1039 027c 00000000 		.4byte	.LASF41
 1040 0280 06       		.byte	0x6
 1041 0281 4C       		.byte	0x4c
 1042 0282 A9020000 		.4byte	0x2a9
 1043 0286 03       		.byte	0x3
 1044 0287 23       		.byte	0x23
 1045 0288 8001     		.uleb128 0x80
 1046 028a 0E       		.uleb128 0xe
ARM GAS  C:\Users\embedded\AppData\Local\Temp\cccVPpSy.s 			page 24


 1047 028b 0B050000 		.4byte	.LASF42
 1048 028f 06       		.byte	0x6
 1049 0290 4E       		.byte	0x4e
 1050 0291 55010000 		.4byte	0x155
 1051 0295 03       		.byte	0x3
 1052 0296 23       		.byte	0x23
 1053 0297 8002     		.uleb128 0x100
 1054 0299 0E       		.uleb128 0xe
 1055 029a 47010000 		.4byte	.LASF43
 1056 029e 06       		.byte	0x6
 1057 029f 51       		.byte	0x51
 1058 02a0 55010000 		.4byte	0x155
 1059 02a4 03       		.byte	0x3
 1060 02a5 23       		.byte	0x23
 1061 02a6 8402     		.uleb128 0x104
 1062 02a8 00       		.byte	0
 1063 02a9 0B       		.uleb128 0xb
 1064 02aa 41010000 		.4byte	0x141
 1065 02ae B9020000 		.4byte	0x2b9
 1066 02b2 0C       		.uleb128 0xc
 1067 02b3 49000000 		.4byte	0x49
 1068 02b7 1F       		.byte	0x1f
 1069 02b8 00       		.byte	0
 1070 02b9 13       		.uleb128 0x13
 1071 02ba DC020000 		.4byte	.LASF44
 1072 02be 9001     		.2byte	0x190
 1073 02c0 06       		.byte	0x6
 1074 02c1 5D       		.byte	0x5d
 1075 02c2 00030000 		.4byte	0x300
 1076 02c6 0E       		.uleb128 0xe
 1077 02c7 F8040000 		.4byte	.LASF24
 1078 02cb 06       		.byte	0x6
 1079 02cc 5E       		.byte	0x5e
 1080 02cd 00030000 		.4byte	0x300
 1081 02d1 02       		.byte	0x2
 1082 02d2 23       		.byte	0x23
 1083 02d3 00       		.uleb128 0
 1084 02d4 0E       		.uleb128 0xe
 1085 02d5 3F040000 		.4byte	.LASF45
 1086 02d9 06       		.byte	0x6
 1087 02da 5F       		.byte	0x5f
 1088 02db 7B000000 		.4byte	0x7b
 1089 02df 02       		.byte	0x2
 1090 02e0 23       		.byte	0x23
 1091 02e1 04       		.uleb128 0x4
 1092 02e2 0E       		.uleb128 0xe
 1093 02e3 B2010000 		.4byte	.LASF46
 1094 02e7 06       		.byte	0x6
 1095 02e8 61       		.byte	0x61
 1096 02e9 06030000 		.4byte	0x306
 1097 02ed 02       		.byte	0x2
 1098 02ee 23       		.byte	0x23
 1099 02ef 08       		.uleb128 0x8
 1100 02f0 0E       		.uleb128 0xe
 1101 02f1 0D010000 		.4byte	.LASF39
 1102 02f5 06       		.byte	0x6
 1103 02f6 62       		.byte	0x62
ARM GAS  C:\Users\embedded\AppData\Local\Temp\cccVPpSy.s 			page 25


 1104 02f7 60020000 		.4byte	0x260
 1105 02fb 03       		.byte	0x3
 1106 02fc 23       		.byte	0x23
 1107 02fd 8801     		.uleb128 0x88
 1108 02ff 00       		.byte	0
 1109 0300 06       		.uleb128 0x6
 1110 0301 04       		.byte	0x4
 1111 0302 B9020000 		.4byte	0x2b9
 1112 0306 0B       		.uleb128 0xb
 1113 0307 16030000 		.4byte	0x316
 1114 030b 16030000 		.4byte	0x316
 1115 030f 0C       		.uleb128 0xc
 1116 0310 49000000 		.4byte	0x49
 1117 0314 1F       		.byte	0x1f
 1118 0315 00       		.byte	0
 1119 0316 06       		.uleb128 0x6
 1120 0317 04       		.byte	0x4
 1121 0318 1C030000 		.4byte	0x31c
 1122 031c 14       		.uleb128 0x14
 1123 031d 01       		.byte	0x1
 1124 031e 11       		.uleb128 0x11
 1125 031f F5030000 		.4byte	.LASF47
 1126 0323 08       		.byte	0x8
 1127 0324 06       		.byte	0x6
 1128 0325 75       		.byte	0x75
 1129 0326 47030000 		.4byte	0x347
 1130 032a 0E       		.uleb128 0xe
 1131 032b F8000000 		.4byte	.LASF48
 1132 032f 06       		.byte	0x6
 1133 0330 76       		.byte	0x76
 1134 0331 47030000 		.4byte	0x347
 1135 0335 02       		.byte	0x2
 1136 0336 23       		.byte	0x23
 1137 0337 00       		.uleb128 0
 1138 0338 0E       		.uleb128 0xe
 1139 0339 0C000000 		.4byte	.LASF49
 1140 033d 06       		.byte	0x6
 1141 033e 77       		.byte	0x77
 1142 033f 7B000000 		.4byte	0x7b
 1143 0343 02       		.byte	0x2
 1144 0344 23       		.byte	0x23
 1145 0345 04       		.uleb128 0x4
 1146 0346 00       		.byte	0
 1147 0347 06       		.uleb128 0x6
 1148 0348 04       		.byte	0x4
 1149 0349 30000000 		.4byte	0x30
 1150 034d 11       		.uleb128 0x11
 1151 034e 18040000 		.4byte	.LASF50
 1152 0352 68       		.byte	0x68
 1153 0353 06       		.byte	0x6
 1154 0354 B5       		.byte	0xb5
 1155 0355 A7040000 		.4byte	0x4a7
 1156 0359 12       		.uleb128 0x12
 1157 035a 5F7000   		.ascii	"_p\000"
 1158 035d 06       		.byte	0x6
 1159 035e B6       		.byte	0xb6
 1160 035f 47030000 		.4byte	0x347
ARM GAS  C:\Users\embedded\AppData\Local\Temp\cccVPpSy.s 			page 26


 1161 0363 02       		.byte	0x2
 1162 0364 23       		.byte	0x23
 1163 0365 00       		.uleb128 0
 1164 0366 12       		.uleb128 0x12
 1165 0367 5F7200   		.ascii	"_r\000"
 1166 036a 06       		.byte	0x6
 1167 036b B7       		.byte	0xb7
 1168 036c 7B000000 		.4byte	0x7b
 1169 0370 02       		.byte	0x2
 1170 0371 23       		.byte	0x23
 1171 0372 04       		.uleb128 0x4
 1172 0373 12       		.uleb128 0x12
 1173 0374 5F7700   		.ascii	"_w\000"
 1174 0377 06       		.byte	0x6
 1175 0378 B8       		.byte	0xb8
 1176 0379 7B000000 		.4byte	0x7b
 1177 037d 02       		.byte	0x2
 1178 037e 23       		.byte	0x23
 1179 037f 08       		.uleb128 0x8
 1180 0380 0E       		.uleb128 0xe
 1181 0381 40010000 		.4byte	.LASF51
 1182 0385 06       		.byte	0x6
 1183 0386 B9       		.byte	0xb9
 1184 0387 74000000 		.4byte	0x74
 1185 038b 02       		.byte	0x2
 1186 038c 23       		.byte	0x23
 1187 038d 0C       		.uleb128 0xc
 1188 038e 0E       		.uleb128 0xe
 1189 038f 30020000 		.4byte	.LASF52
 1190 0393 06       		.byte	0x6
 1191 0394 BA       		.byte	0xba
 1192 0395 74000000 		.4byte	0x74
 1193 0399 02       		.byte	0x2
 1194 039a 23       		.byte	0x23
 1195 039b 0E       		.uleb128 0xe
 1196 039c 12       		.uleb128 0x12
 1197 039d 5F626600 		.ascii	"_bf\000"
 1198 03a1 06       		.byte	0x6
 1199 03a2 BB       		.byte	0xbb
 1200 03a3 1E030000 		.4byte	0x31e
 1201 03a7 02       		.byte	0x2
 1202 03a8 23       		.byte	0x23
 1203 03a9 10       		.uleb128 0x10
 1204 03aa 0E       		.uleb128 0xe
 1205 03ab 8D000000 		.4byte	.LASF53
 1206 03af 06       		.byte	0x6
 1207 03b0 BC       		.byte	0xbc
 1208 03b1 7B000000 		.4byte	0x7b
 1209 03b5 02       		.byte	0x2
 1210 03b6 23       		.byte	0x23
 1211 03b7 18       		.uleb128 0x18
 1212 03b8 0E       		.uleb128 0xe
 1213 03b9 1B010000 		.4byte	.LASF54
 1214 03bd 06       		.byte	0x6
 1215 03be C3       		.byte	0xc3
 1216 03bf 41010000 		.4byte	0x141
 1217 03c3 02       		.byte	0x2
ARM GAS  C:\Users\embedded\AppData\Local\Temp\cccVPpSy.s 			page 27


 1218 03c4 23       		.byte	0x23
 1219 03c5 1C       		.uleb128 0x1c
 1220 03c6 0E       		.uleb128 0xe
 1221 03c7 E5010000 		.4byte	.LASF55
 1222 03cb 06       		.byte	0x6
 1223 03cc C5       		.byte	0xc5
 1224 03cd 2F060000 		.4byte	0x62f
 1225 03d1 02       		.byte	0x2
 1226 03d2 23       		.byte	0x23
 1227 03d3 20       		.uleb128 0x20
 1228 03d4 0E       		.uleb128 0xe
 1229 03d5 A0020000 		.4byte	.LASF56
 1230 03d9 06       		.byte	0x6
 1231 03da C7       		.byte	0xc7
 1232 03db 5A060000 		.4byte	0x65a
 1233 03df 02       		.byte	0x2
 1234 03e0 23       		.byte	0x23
 1235 03e1 24       		.uleb128 0x24
 1236 03e2 0E       		.uleb128 0xe
 1237 03e3 BB040000 		.4byte	.LASF57
 1238 03e7 06       		.byte	0x6
 1239 03e8 CA       		.byte	0xca
 1240 03e9 7F060000 		.4byte	0x67f
 1241 03ed 02       		.byte	0x2
 1242 03ee 23       		.byte	0x23
 1243 03ef 28       		.uleb128 0x28
 1244 03f0 0E       		.uleb128 0xe
 1245 03f1 EE050000 		.4byte	.LASF58
 1246 03f5 06       		.byte	0x6
 1247 03f6 CB       		.byte	0xcb
 1248 03f7 9A060000 		.4byte	0x69a
 1249 03fb 02       		.byte	0x2
 1250 03fc 23       		.byte	0x23
 1251 03fd 2C       		.uleb128 0x2c
 1252 03fe 12       		.uleb128 0x12
 1253 03ff 5F756200 		.ascii	"_ub\000"
 1254 0403 06       		.byte	0x6
 1255 0404 CE       		.byte	0xce
 1256 0405 1E030000 		.4byte	0x31e
 1257 0409 02       		.byte	0x2
 1258 040a 23       		.byte	0x23
 1259 040b 30       		.uleb128 0x30
 1260 040c 12       		.uleb128 0x12
 1261 040d 5F757000 		.ascii	"_up\000"
 1262 0411 06       		.byte	0x6
 1263 0412 CF       		.byte	0xcf
 1264 0413 47030000 		.4byte	0x347
 1265 0417 02       		.byte	0x2
 1266 0418 23       		.byte	0x23
 1267 0419 38       		.uleb128 0x38
 1268 041a 12       		.uleb128 0x12
 1269 041b 5F757200 		.ascii	"_ur\000"
 1270 041f 06       		.byte	0x6
 1271 0420 D0       		.byte	0xd0
 1272 0421 7B000000 		.4byte	0x7b
 1273 0425 02       		.byte	0x2
 1274 0426 23       		.byte	0x23
ARM GAS  C:\Users\embedded\AppData\Local\Temp\cccVPpSy.s 			page 28


 1275 0427 3C       		.uleb128 0x3c
 1276 0428 0E       		.uleb128 0xe
 1277 0429 F2000000 		.4byte	.LASF59
 1278 042d 06       		.byte	0x6
 1279 042e D3       		.byte	0xd3
 1280 042f A0060000 		.4byte	0x6a0
 1281 0433 02       		.byte	0x2
 1282 0434 23       		.byte	0x23
 1283 0435 40       		.uleb128 0x40
 1284 0436 0E       		.uleb128 0xe
 1285 0437 C6050000 		.4byte	.LASF60
 1286 043b 06       		.byte	0x6
 1287 043c D4       		.byte	0xd4
 1288 043d B0060000 		.4byte	0x6b0
 1289 0441 02       		.byte	0x2
 1290 0442 23       		.byte	0x23
 1291 0443 43       		.uleb128 0x43
 1292 0444 12       		.uleb128 0x12
 1293 0445 5F6C6200 		.ascii	"_lb\000"
 1294 0449 06       		.byte	0x6
 1295 044a D7       		.byte	0xd7
 1296 044b 1E030000 		.4byte	0x31e
 1297 044f 02       		.byte	0x2
 1298 0450 23       		.byte	0x23
 1299 0451 44       		.uleb128 0x44
 1300 0452 0E       		.uleb128 0xe
 1301 0453 64010000 		.4byte	.LASF61
 1302 0457 06       		.byte	0x6
 1303 0458 DA       		.byte	0xda
 1304 0459 7B000000 		.4byte	0x7b
 1305 045d 02       		.byte	0x2
 1306 045e 23       		.byte	0x23
 1307 045f 4C       		.uleb128 0x4c
 1308 0460 0E       		.uleb128 0xe
 1309 0461 83010000 		.4byte	.LASF62
 1310 0465 06       		.byte	0x6
 1311 0466 DB       		.byte	0xdb
 1312 0467 B5000000 		.4byte	0xb5
 1313 046b 02       		.byte	0x2
 1314 046c 23       		.byte	0x23
 1315 046d 50       		.uleb128 0x50
 1316 046e 0E       		.uleb128 0xe
 1317 046f 41000000 		.4byte	.LASF63
 1318 0473 06       		.byte	0x6
 1319 0474 DE       		.byte	0xde
 1320 0475 C6040000 		.4byte	0x4c6
 1321 0479 02       		.byte	0x2
 1322 047a 23       		.byte	0x23
 1323 047b 54       		.uleb128 0x54
 1324 047c 0E       		.uleb128 0xe
 1325 047d 92020000 		.4byte	.LASF64
 1326 0481 06       		.byte	0x6
 1327 0482 E2       		.byte	0xe2
 1328 0483 36010000 		.4byte	0x136
 1329 0487 02       		.byte	0x2
 1330 0488 23       		.byte	0x23
 1331 0489 58       		.uleb128 0x58
ARM GAS  C:\Users\embedded\AppData\Local\Temp\cccVPpSy.s 			page 29


 1332 048a 0E       		.uleb128 0xe
 1333 048b 20040000 		.4byte	.LASF65
 1334 048f 06       		.byte	0x6
 1335 0490 E4       		.byte	0xe4
 1336 0491 2B010000 		.4byte	0x12b
 1337 0495 02       		.byte	0x2
 1338 0496 23       		.byte	0x23
 1339 0497 5C       		.uleb128 0x5c
 1340 0498 0E       		.uleb128 0xe
 1341 0499 98020000 		.4byte	.LASF66
 1342 049d 06       		.byte	0x6
 1343 049e E5       		.byte	0xe5
 1344 049f 7B000000 		.4byte	0x7b
 1345 04a3 02       		.byte	0x2
 1346 04a4 23       		.byte	0x23
 1347 04a5 64       		.uleb128 0x64
 1348 04a6 00       		.byte	0
 1349 04a7 15       		.uleb128 0x15
 1350 04a8 01       		.byte	0x1
 1351 04a9 7B000000 		.4byte	0x7b
 1352 04ad C6040000 		.4byte	0x4c6
 1353 04b1 16       		.uleb128 0x16
 1354 04b2 C6040000 		.4byte	0x4c6
 1355 04b6 16       		.uleb128 0x16
 1356 04b7 41010000 		.4byte	0x141
 1357 04bb 16       		.uleb128 0x16
 1358 04bc 43010000 		.4byte	0x143
 1359 04c0 16       		.uleb128 0x16
 1360 04c1 7B000000 		.4byte	0x7b
 1361 04c5 00       		.byte	0
 1362 04c6 06       		.uleb128 0x6
 1363 04c7 04       		.byte	0x4
 1364 04c8 D1040000 		.4byte	0x4d1
 1365 04cc 10       		.uleb128 0x10
 1366 04cd C6040000 		.4byte	0x4c6
 1367 04d1 17       		.uleb128 0x17
 1368 04d2 77040000 		.4byte	.LASF67
 1369 04d6 2804     		.2byte	0x428
 1370 04d8 06       		.byte	0x6
 1371 04d9 6002     		.2byte	0x260
 1372 04db 2F060000 		.4byte	0x62f
 1373 04df 18       		.uleb128 0x18
 1374 04e0 D5040000 		.4byte	.LASF68
 1375 04e4 06       		.byte	0x6
 1376 04e5 6202     		.2byte	0x262
 1377 04e7 7B000000 		.4byte	0x7b
 1378 04eb 02       		.byte	0x2
 1379 04ec 23       		.byte	0x23
 1380 04ed 00       		.uleb128 0
 1381 04ee 18       		.uleb128 0x18
 1382 04ef 4F010000 		.4byte	.LASF69
 1383 04f3 06       		.byte	0x6
 1384 04f4 6702     		.2byte	0x267
 1385 04f6 0D070000 		.4byte	0x70d
 1386 04fa 02       		.byte	0x2
 1387 04fb 23       		.byte	0x23
 1388 04fc 04       		.uleb128 0x4
ARM GAS  C:\Users\embedded\AppData\Local\Temp\cccVPpSy.s 			page 30


 1389 04fd 18       		.uleb128 0x18
 1390 04fe 0E020000 		.4byte	.LASF70
 1391 0502 06       		.byte	0x6
 1392 0503 6702     		.2byte	0x267
 1393 0505 0D070000 		.4byte	0x70d
 1394 0509 02       		.byte	0x2
 1395 050a 23       		.byte	0x23
 1396 050b 08       		.uleb128 0x8
 1397 050c 18       		.uleb128 0x18
 1398 050d C6010000 		.4byte	.LASF71
 1399 0511 06       		.byte	0x6
 1400 0512 6702     		.2byte	0x267
 1401 0514 0D070000 		.4byte	0x70d
 1402 0518 02       		.byte	0x2
 1403 0519 23       		.byte	0x23
 1404 051a 0C       		.uleb128 0xc
 1405 051b 18       		.uleb128 0x18
 1406 051c 3A040000 		.4byte	.LASF72
 1407 0520 06       		.byte	0x6
 1408 0521 6902     		.2byte	0x269
 1409 0523 7B000000 		.4byte	0x7b
 1410 0527 02       		.byte	0x2
 1411 0528 23       		.byte	0x23
 1412 0529 10       		.uleb128 0x10
 1413 052a 18       		.uleb128 0x18
 1414 052b 24000000 		.4byte	.LASF73
 1415 052f 06       		.byte	0x6
 1416 0530 6A02     		.2byte	0x26a
 1417 0532 28090000 		.4byte	0x928
 1418 0536 02       		.byte	0x2
 1419 0537 23       		.byte	0x23
 1420 0538 14       		.uleb128 0x14
 1421 0539 18       		.uleb128 0x18
 1422 053a 56040000 		.4byte	.LASF74
 1423 053e 06       		.byte	0x6
 1424 053f 6D02     		.2byte	0x26d
 1425 0541 7B000000 		.4byte	0x7b
 1426 0545 02       		.byte	0x2
 1427 0546 23       		.byte	0x23
 1428 0547 30       		.uleb128 0x30
 1429 0548 18       		.uleb128 0x18
 1430 0549 44040000 		.4byte	.LASF75
 1431 054d 06       		.byte	0x6
 1432 054e 6E02     		.2byte	0x26e
 1433 0550 3E090000 		.4byte	0x93e
 1434 0554 02       		.byte	0x2
 1435 0555 23       		.byte	0x23
 1436 0556 34       		.uleb128 0x34
 1437 0557 18       		.uleb128 0x18
 1438 0558 E4020000 		.4byte	.LASF76
 1439 055c 06       		.byte	0x6
 1440 055d 7002     		.2byte	0x270
 1441 055f 7B000000 		.4byte	0x7b
 1442 0563 02       		.byte	0x2
 1443 0564 23       		.byte	0x23
 1444 0565 38       		.uleb128 0x38
 1445 0566 18       		.uleb128 0x18
ARM GAS  C:\Users\embedded\AppData\Local\Temp\cccVPpSy.s 			page 31


 1446 0567 4C040000 		.4byte	.LASF77
 1447 056b 06       		.byte	0x6
 1448 056c 7202     		.2byte	0x272
 1449 056e 50090000 		.4byte	0x950
 1450 0572 02       		.byte	0x2
 1451 0573 23       		.byte	0x23
 1452 0574 3C       		.uleb128 0x3c
 1453 0575 18       		.uleb128 0x18
 1454 0576 75020000 		.4byte	.LASF78
 1455 057a 06       		.byte	0x6
 1456 057b 7502     		.2byte	0x275
 1457 057d BF010000 		.4byte	0x1bf
 1458 0581 02       		.byte	0x2
 1459 0582 23       		.byte	0x23
 1460 0583 40       		.uleb128 0x40
 1461 0584 18       		.uleb128 0x18
 1462 0585 EB010000 		.4byte	.LASF79
 1463 0589 06       		.byte	0x6
 1464 058a 7602     		.2byte	0x276
 1465 058c 7B000000 		.4byte	0x7b
 1466 0590 02       		.byte	0x2
 1467 0591 23       		.byte	0x23
 1468 0592 44       		.uleb128 0x44
 1469 0593 18       		.uleb128 0x18
 1470 0594 08060000 		.4byte	.LASF80
 1471 0598 06       		.byte	0x6
 1472 0599 7702     		.2byte	0x277
 1473 059b BF010000 		.4byte	0x1bf
 1474 059f 02       		.byte	0x2
 1475 05a0 23       		.byte	0x23
 1476 05a1 48       		.uleb128 0x48
 1477 05a2 18       		.uleb128 0x18
 1478 05a3 FC030000 		.4byte	.LASF81
 1479 05a7 06       		.byte	0x6
 1480 05a8 7802     		.2byte	0x278
 1481 05aa 56090000 		.4byte	0x956
 1482 05ae 02       		.byte	0x2
 1483 05af 23       		.byte	0x23
 1484 05b0 4C       		.uleb128 0x4c
 1485 05b1 18       		.uleb128 0x18
 1486 05b2 16020000 		.4byte	.LASF82
 1487 05b6 06       		.byte	0x6
 1488 05b7 7B02     		.2byte	0x27b
 1489 05b9 7B000000 		.4byte	0x7b
 1490 05bd 02       		.byte	0x2
 1491 05be 23       		.byte	0x23
 1492 05bf 50       		.uleb128 0x50
 1493 05c0 18       		.uleb128 0x18
 1494 05c1 7B010000 		.4byte	.LASF83
 1495 05c5 06       		.byte	0x6
 1496 05c6 7C02     		.2byte	0x27c
 1497 05c8 43010000 		.4byte	0x143
 1498 05cc 02       		.byte	0x2
 1499 05cd 23       		.byte	0x23
 1500 05ce 54       		.uleb128 0x54
 1501 05cf 18       		.uleb128 0x18
 1502 05d0 D3030000 		.4byte	.LASF84
ARM GAS  C:\Users\embedded\AppData\Local\Temp\cccVPpSy.s 			page 32


 1503 05d4 06       		.byte	0x6
 1504 05d5 9F02     		.2byte	0x29f
 1505 05d7 06090000 		.4byte	0x906
 1506 05db 02       		.byte	0x2
 1507 05dc 23       		.byte	0x23
 1508 05dd 58       		.uleb128 0x58
 1509 05de 18       		.uleb128 0x18
 1510 05df DC020000 		.4byte	.LASF44
 1511 05e3 06       		.byte	0x6
 1512 05e4 A302     		.2byte	0x2a3
 1513 05e6 00030000 		.4byte	0x300
 1514 05ea 03       		.byte	0x3
 1515 05eb 23       		.byte	0x23
 1516 05ec C802     		.uleb128 0x148
 1517 05ee 18       		.uleb128 0x18
 1518 05ef 84040000 		.4byte	.LASF85
 1519 05f3 06       		.byte	0x6
 1520 05f4 A402     		.2byte	0x2a4
 1521 05f6 B9020000 		.4byte	0x2b9
 1522 05fa 03       		.byte	0x3
 1523 05fb 23       		.byte	0x23
 1524 05fc CC02     		.uleb128 0x14c
 1525 05fe 18       		.uleb128 0x18
 1526 05ff BC050000 		.4byte	.LASF86
 1527 0603 06       		.byte	0x6
 1528 0604 A802     		.2byte	0x2a8
 1529 0606 68090000 		.4byte	0x968
 1530 060a 03       		.byte	0x3
 1531 060b 23       		.byte	0x23
 1532 060c DC05     		.uleb128 0x2dc
 1533 060e 18       		.uleb128 0x18
 1534 060f 23010000 		.4byte	.LASF87
 1535 0613 06       		.byte	0x6
 1536 0614 AD02     		.2byte	0x2ad
 1537 0616 CC060000 		.4byte	0x6cc
 1538 061a 03       		.byte	0x3
 1539 061b 23       		.byte	0x23
 1540 061c E005     		.uleb128 0x2e0
 1541 061e 18       		.uleb128 0x18
 1542 061f 08010000 		.4byte	.LASF88
 1543 0623 06       		.byte	0x6
 1544 0624 AF02     		.2byte	0x2af
 1545 0626 74090000 		.4byte	0x974
 1546 062a 03       		.byte	0x3
 1547 062b 23       		.byte	0x23
 1548 062c EC05     		.uleb128 0x2ec
 1549 062e 00       		.byte	0
 1550 062f 06       		.uleb128 0x6
 1551 0630 04       		.byte	0x4
 1552 0631 A7040000 		.4byte	0x4a7
 1553 0635 15       		.uleb128 0x15
 1554 0636 01       		.byte	0x1
 1555 0637 7B000000 		.4byte	0x7b
 1556 063b 54060000 		.4byte	0x654
 1557 063f 16       		.uleb128 0x16
 1558 0640 C6040000 		.4byte	0x4c6
 1559 0644 16       		.uleb128 0x16
ARM GAS  C:\Users\embedded\AppData\Local\Temp\cccVPpSy.s 			page 33


 1560 0645 41010000 		.4byte	0x141
 1561 0649 16       		.uleb128 0x16
 1562 064a 54060000 		.4byte	0x654
 1563 064e 16       		.uleb128 0x16
 1564 064f 7B000000 		.4byte	0x7b
 1565 0653 00       		.byte	0
 1566 0654 06       		.uleb128 0x6
 1567 0655 04       		.byte	0x4
 1568 0656 50010000 		.4byte	0x150
 1569 065a 06       		.uleb128 0x6
 1570 065b 04       		.byte	0x4
 1571 065c 35060000 		.4byte	0x635
 1572 0660 15       		.uleb128 0x15
 1573 0661 01       		.byte	0x1
 1574 0662 C0000000 		.4byte	0xc0
 1575 0666 7F060000 		.4byte	0x67f
 1576 066a 16       		.uleb128 0x16
 1577 066b C6040000 		.4byte	0x4c6
 1578 066f 16       		.uleb128 0x16
 1579 0670 41010000 		.4byte	0x141
 1580 0674 16       		.uleb128 0x16
 1581 0675 C0000000 		.4byte	0xc0
 1582 0679 16       		.uleb128 0x16
 1583 067a 7B000000 		.4byte	0x7b
 1584 067e 00       		.byte	0
 1585 067f 06       		.uleb128 0x6
 1586 0680 04       		.byte	0x4
 1587 0681 60060000 		.4byte	0x660
 1588 0685 15       		.uleb128 0x15
 1589 0686 01       		.byte	0x1
 1590 0687 7B000000 		.4byte	0x7b
 1591 068b 9A060000 		.4byte	0x69a
 1592 068f 16       		.uleb128 0x16
 1593 0690 C6040000 		.4byte	0x4c6
 1594 0694 16       		.uleb128 0x16
 1595 0695 41010000 		.4byte	0x141
 1596 0699 00       		.byte	0
 1597 069a 06       		.uleb128 0x6
 1598 069b 04       		.byte	0x4
 1599 069c 85060000 		.4byte	0x685
 1600 06a0 0B       		.uleb128 0xb
 1601 06a1 30000000 		.4byte	0x30
 1602 06a5 B0060000 		.4byte	0x6b0
 1603 06a9 0C       		.uleb128 0xc
 1604 06aa 49000000 		.4byte	0x49
 1605 06ae 02       		.byte	0x2
 1606 06af 00       		.byte	0
 1607 06b0 0B       		.uleb128 0xb
 1608 06b1 30000000 		.4byte	0x30
 1609 06b5 C0060000 		.4byte	0x6c0
 1610 06b9 0C       		.uleb128 0xc
 1611 06ba 49000000 		.4byte	0x49
 1612 06be 00       		.byte	0
 1613 06bf 00       		.byte	0
 1614 06c0 08       		.uleb128 0x8
 1615 06c1 06040000 		.4byte	.LASF89
 1616 06c5 06       		.byte	0x6
ARM GAS  C:\Users\embedded\AppData\Local\Temp\cccVPpSy.s 			page 34


 1617 06c6 1F01     		.2byte	0x11f
 1618 06c8 4D030000 		.4byte	0x34d
 1619 06cc 19       		.uleb128 0x19
 1620 06cd 81050000 		.4byte	.LASF90
 1621 06d1 0C       		.byte	0xc
 1622 06d2 06       		.byte	0x6
 1623 06d3 2301     		.2byte	0x123
 1624 06d5 07070000 		.4byte	0x707
 1625 06d9 18       		.uleb128 0x18
 1626 06da F8040000 		.4byte	.LASF24
 1627 06de 06       		.byte	0x6
 1628 06df 2501     		.2byte	0x125
 1629 06e1 07070000 		.4byte	0x707
 1630 06e5 02       		.byte	0x2
 1631 06e6 23       		.byte	0x23
 1632 06e7 00       		.uleb128 0
 1633 06e8 18       		.uleb128 0x18
 1634 06e9 36020000 		.4byte	.LASF91
 1635 06ed 06       		.byte	0x6
 1636 06ee 2601     		.2byte	0x126
 1637 06f0 7B000000 		.4byte	0x7b
 1638 06f4 02       		.byte	0x2
 1639 06f5 23       		.byte	0x23
 1640 06f6 04       		.uleb128 0x4
 1641 06f7 18       		.uleb128 0x18
 1642 06f8 34040000 		.4byte	.LASF92
 1643 06fc 06       		.byte	0x6
 1644 06fd 2701     		.2byte	0x127
 1645 06ff 0D070000 		.4byte	0x70d
 1646 0703 02       		.byte	0x2
 1647 0704 23       		.byte	0x23
 1648 0705 08       		.uleb128 0x8
 1649 0706 00       		.byte	0
 1650 0707 06       		.uleb128 0x6
 1651 0708 04       		.byte	0x4
 1652 0709 CC060000 		.4byte	0x6cc
 1653 070d 06       		.uleb128 0x6
 1654 070e 04       		.byte	0x4
 1655 070f C0060000 		.4byte	0x6c0
 1656 0713 19       		.uleb128 0x19
 1657 0714 12000000 		.4byte	.LASF93
 1658 0718 0E       		.byte	0xe
 1659 0719 06       		.byte	0x6
 1660 071a 3F01     		.2byte	0x13f
 1661 071c 4E070000 		.4byte	0x74e
 1662 0720 18       		.uleb128 0x18
 1663 0721 7E040000 		.4byte	.LASF94
 1664 0725 06       		.byte	0x6
 1665 0726 4001     		.2byte	0x140
 1666 0728 4E070000 		.4byte	0x74e
 1667 072c 02       		.byte	0x2
 1668 072d 23       		.byte	0x23
 1669 072e 00       		.uleb128 0
 1670 072f 18       		.uleb128 0x18
 1671 0730 F2040000 		.4byte	.LASF95
 1672 0734 06       		.byte	0x6
 1673 0735 4101     		.2byte	0x141
ARM GAS  C:\Users\embedded\AppData\Local\Temp\cccVPpSy.s 			page 35


 1674 0737 4E070000 		.4byte	0x74e
 1675 073b 02       		.byte	0x2
 1676 073c 23       		.byte	0x23
 1677 073d 06       		.uleb128 0x6
 1678 073e 18       		.uleb128 0x18
 1679 073f 14050000 		.4byte	.LASF96
 1680 0743 06       		.byte	0x6
 1681 0744 4201     		.2byte	0x142
 1682 0746 42000000 		.4byte	0x42
 1683 074a 02       		.byte	0x2
 1684 074b 23       		.byte	0x23
 1685 074c 0C       		.uleb128 0xc
 1686 074d 00       		.byte	0
 1687 074e 0B       		.uleb128 0xb
 1688 074f 42000000 		.4byte	0x42
 1689 0753 5E070000 		.4byte	0x75e
 1690 0757 0C       		.uleb128 0xc
 1691 0758 49000000 		.4byte	0x49
 1692 075c 02       		.byte	0x2
 1693 075d 00       		.byte	0
 1694 075e 1A       		.uleb128 0x1a
 1695 075f D0       		.byte	0xd0
 1696 0760 06       		.byte	0x6
 1697 0761 8002     		.2byte	0x280
 1698 0763 8E080000 		.4byte	0x88e
 1699 0767 18       		.uleb128 0x18
 1700 0768 65050000 		.4byte	.LASF97
 1701 076c 06       		.byte	0x6
 1702 076d 8202     		.2byte	0x282
 1703 076f 49000000 		.4byte	0x49
 1704 0773 02       		.byte	0x2
 1705 0774 23       		.byte	0x23
 1706 0775 00       		.uleb128 0
 1707 0776 18       		.uleb128 0x18
 1708 0777 FE040000 		.4byte	.LASF98
 1709 077b 06       		.byte	0x6
 1710 077c 8302     		.2byte	0x283
 1711 077e 43010000 		.4byte	0x143
 1712 0782 02       		.byte	0x2
 1713 0783 23       		.byte	0x23
 1714 0784 04       		.uleb128 0x4
 1715 0785 18       		.uleb128 0x18
 1716 0786 5C020000 		.4byte	.LASF99
 1717 078a 06       		.byte	0x6
 1718 078b 8402     		.2byte	0x284
 1719 078d 8E080000 		.4byte	0x88e
 1720 0791 02       		.byte	0x2
 1721 0792 23       		.byte	0x23
 1722 0793 08       		.uleb128 0x8
 1723 0794 18       		.uleb128 0x18
 1724 0795 DF050000 		.4byte	.LASF100
 1725 0799 06       		.byte	0x6
 1726 079a 8502     		.2byte	0x285
 1727 079c D5010000 		.4byte	0x1d5
 1728 07a0 02       		.byte	0x2
 1729 07a1 23       		.byte	0x23
 1730 07a2 24       		.uleb128 0x24
ARM GAS  C:\Users\embedded\AppData\Local\Temp\cccVPpSy.s 			page 36


 1731 07a3 18       		.uleb128 0x18
 1732 07a4 D6010000 		.4byte	.LASF101
 1733 07a8 06       		.byte	0x6
 1734 07a9 8602     		.2byte	0x286
 1735 07ab 7B000000 		.4byte	0x7b
 1736 07af 02       		.byte	0x2
 1737 07b0 23       		.byte	0x23
 1738 07b1 48       		.uleb128 0x48
 1739 07b2 18       		.uleb128 0x18
 1740 07b3 29040000 		.4byte	.LASF102
 1741 07b7 06       		.byte	0x6
 1742 07b8 8702     		.2byte	0x287
 1743 07ba 5B000000 		.4byte	0x5b
 1744 07be 02       		.byte	0x2
 1745 07bf 23       		.byte	0x23
 1746 07c0 50       		.uleb128 0x50
 1747 07c1 18       		.uleb128 0x18
 1748 07c2 F5050000 		.4byte	.LASF103
 1749 07c6 06       		.byte	0x6
 1750 07c7 8802     		.2byte	0x288
 1751 07c9 13070000 		.4byte	0x713
 1752 07cd 02       		.byte	0x2
 1753 07ce 23       		.byte	0x23
 1754 07cf 58       		.uleb128 0x58
 1755 07d0 18       		.uleb128 0x18
 1756 07d1 A8030000 		.4byte	.LASF104
 1757 07d5 06       		.byte	0x6
 1758 07d6 8902     		.2byte	0x289
 1759 07d8 2B010000 		.4byte	0x12b
 1760 07dc 02       		.byte	0x2
 1761 07dd 23       		.byte	0x23
 1762 07de 68       		.uleb128 0x68
 1763 07df 18       		.uleb128 0x18
 1764 07e0 FA050000 		.4byte	.LASF105
 1765 07e4 06       		.byte	0x6
 1766 07e5 8A02     		.2byte	0x28a
 1767 07e7 2B010000 		.4byte	0x12b
 1768 07eb 02       		.byte	0x2
 1769 07ec 23       		.byte	0x23
 1770 07ed 70       		.uleb128 0x70
 1771 07ee 18       		.uleb128 0x18
 1772 07ef 9A030000 		.4byte	.LASF106
 1773 07f3 06       		.byte	0x6
 1774 07f4 8B02     		.2byte	0x28b
 1775 07f6 2B010000 		.4byte	0x12b
 1776 07fa 02       		.byte	0x2
 1777 07fb 23       		.byte	0x23
 1778 07fc 78       		.uleb128 0x78
 1779 07fd 18       		.uleb128 0x18
 1780 07fe B2050000 		.4byte	.LASF107
 1781 0802 06       		.byte	0x6
 1782 0803 8C02     		.2byte	0x28c
 1783 0805 9E080000 		.4byte	0x89e
 1784 0809 03       		.byte	0x3
 1785 080a 23       		.byte	0x23
 1786 080b 8001     		.uleb128 0x80
 1787 080d 18       		.uleb128 0x18
ARM GAS  C:\Users\embedded\AppData\Local\Temp\cccVPpSy.s 			page 37


 1788 080e 50020000 		.4byte	.LASF108
 1789 0812 06       		.byte	0x6
 1790 0813 8D02     		.2byte	0x28d
 1791 0815 AE080000 		.4byte	0x8ae
 1792 0819 03       		.byte	0x3
 1793 081a 23       		.byte	0x23
 1794 081b 8801     		.uleb128 0x88
 1795 081d 18       		.uleb128 0x18
 1796 081e 21050000 		.4byte	.LASF109
 1797 0822 06       		.byte	0x6
 1798 0823 8E02     		.2byte	0x28e
 1799 0825 7B000000 		.4byte	0x7b
 1800 0829 03       		.byte	0x3
 1801 082a 23       		.byte	0x23
 1802 082b A001     		.uleb128 0xa0
 1803 082d 18       		.uleb128 0x18
 1804 082e 9C010000 		.4byte	.LASF110
 1805 0832 06       		.byte	0x6
 1806 0833 8F02     		.2byte	0x28f
 1807 0835 2B010000 		.4byte	0x12b
 1808 0839 03       		.byte	0x3
 1809 083a 23       		.byte	0x23
 1810 083b A401     		.uleb128 0xa4
 1811 083d 18       		.uleb128 0x18
 1812 083e C0000000 		.4byte	.LASF111
 1813 0842 06       		.byte	0x6
 1814 0843 9002     		.2byte	0x290
 1815 0845 2B010000 		.4byte	0x12b
 1816 0849 03       		.byte	0x3
 1817 084a 23       		.byte	0x23
 1818 084b AC01     		.uleb128 0xac
 1819 084d 18       		.uleb128 0x18
 1820 084e 8B010000 		.4byte	.LASF112
 1821 0852 06       		.byte	0x6
 1822 0853 9102     		.2byte	0x291
 1823 0855 2B010000 		.4byte	0x12b
 1824 0859 03       		.byte	0x3
 1825 085a 23       		.byte	0x23
 1826 085b B401     		.uleb128 0xb4
 1827 085d 18       		.uleb128 0x18
 1828 085e 47000000 		.4byte	.LASF113
 1829 0862 06       		.byte	0x6
 1830 0863 9202     		.2byte	0x292
 1831 0865 2B010000 		.4byte	0x12b
 1832 0869 03       		.byte	0x3
 1833 086a 23       		.byte	0x23
 1834 086b BC01     		.uleb128 0xbc
 1835 086d 18       		.uleb128 0x18
 1836 086e 56000000 		.4byte	.LASF114
 1837 0872 06       		.byte	0x6
 1838 0873 9302     		.2byte	0x293
 1839 0875 2B010000 		.4byte	0x12b
 1840 0879 03       		.byte	0x3
 1841 087a 23       		.byte	0x23
 1842 087b C401     		.uleb128 0xc4
 1843 087d 18       		.uleb128 0x18
 1844 087e D8030000 		.4byte	.LASF115
ARM GAS  C:\Users\embedded\AppData\Local\Temp\cccVPpSy.s 			page 38


 1845 0882 06       		.byte	0x6
 1846 0883 9402     		.2byte	0x294
 1847 0885 7B000000 		.4byte	0x7b
 1848 0889 03       		.byte	0x3
 1849 088a 23       		.byte	0x23
 1850 088b CC01     		.uleb128 0xcc
 1851 088d 00       		.byte	0
 1852 088e 0B       		.uleb128 0xb
 1853 088f 49010000 		.4byte	0x149
 1854 0893 9E080000 		.4byte	0x89e
 1855 0897 0C       		.uleb128 0xc
 1856 0898 49000000 		.4byte	0x49
 1857 089c 19       		.byte	0x19
 1858 089d 00       		.byte	0
 1859 089e 0B       		.uleb128 0xb
 1860 089f 49010000 		.4byte	0x149
 1861 08a3 AE080000 		.4byte	0x8ae
 1862 08a7 0C       		.uleb128 0xc
 1863 08a8 49000000 		.4byte	0x49
 1864 08ac 07       		.byte	0x7
 1865 08ad 00       		.byte	0
 1866 08ae 0B       		.uleb128 0xb
 1867 08af 49010000 		.4byte	0x149
 1868 08b3 BE080000 		.4byte	0x8be
 1869 08b7 0C       		.uleb128 0xc
 1870 08b8 49000000 		.4byte	0x49
 1871 08bc 17       		.byte	0x17
 1872 08bd 00       		.byte	0
 1873 08be 1A       		.uleb128 0x1a
 1874 08bf F0       		.byte	0xf0
 1875 08c0 06       		.byte	0x6
 1876 08c1 9902     		.2byte	0x299
 1877 08c3 E6080000 		.4byte	0x8e6
 1878 08c7 18       		.uleb128 0x18
 1879 08c8 BD020000 		.4byte	.LASF116
 1880 08cc 06       		.byte	0x6
 1881 08cd 9C02     		.2byte	0x29c
 1882 08cf E6080000 		.4byte	0x8e6
 1883 08d3 02       		.byte	0x2
 1884 08d4 23       		.byte	0x23
 1885 08d5 00       		.uleb128 0
 1886 08d6 18       		.uleb128 0x18
 1887 08d7 A9050000 		.4byte	.LASF117
 1888 08db 06       		.byte	0x6
 1889 08dc 9D02     		.2byte	0x29d
 1890 08de F6080000 		.4byte	0x8f6
 1891 08e2 02       		.byte	0x2
 1892 08e3 23       		.byte	0x23
 1893 08e4 78       		.uleb128 0x78
 1894 08e5 00       		.byte	0
 1895 08e6 0B       		.uleb128 0xb
 1896 08e7 47030000 		.4byte	0x347
 1897 08eb F6080000 		.4byte	0x8f6
 1898 08ef 0C       		.uleb128 0xc
 1899 08f0 49000000 		.4byte	0x49
 1900 08f4 1D       		.byte	0x1d
 1901 08f5 00       		.byte	0
ARM GAS  C:\Users\embedded\AppData\Local\Temp\cccVPpSy.s 			page 39


 1902 08f6 0B       		.uleb128 0xb
 1903 08f7 49000000 		.4byte	0x49
 1904 08fb 06090000 		.4byte	0x906
 1905 08ff 0C       		.uleb128 0xc
 1906 0900 49000000 		.4byte	0x49
 1907 0904 1D       		.byte	0x1d
 1908 0905 00       		.byte	0
 1909 0906 1B       		.uleb128 0x1b
 1910 0907 F0       		.byte	0xf0
 1911 0908 06       		.byte	0x6
 1912 0909 7E02     		.2byte	0x27e
 1913 090b 28090000 		.4byte	0x928
 1914 090f 1C       		.uleb128 0x1c
 1915 0910 77040000 		.4byte	.LASF67
 1916 0914 06       		.byte	0x6
 1917 0915 9502     		.2byte	0x295
 1918 0917 5E070000 		.4byte	0x75e
 1919 091b 1C       		.uleb128 0x1c
 1920 091c CC050000 		.4byte	.LASF118
 1921 0920 06       		.byte	0x6
 1922 0921 9E02     		.2byte	0x29e
 1923 0923 BE080000 		.4byte	0x8be
 1924 0927 00       		.byte	0
 1925 0928 0B       		.uleb128 0xb
 1926 0929 49010000 		.4byte	0x149
 1927 092d 38090000 		.4byte	0x938
 1928 0931 0C       		.uleb128 0xc
 1929 0932 49000000 		.4byte	0x49
 1930 0936 18       		.byte	0x18
 1931 0937 00       		.byte	0
 1932 0938 07       		.uleb128 0x7
 1933 0939 96000000 		.4byte	.LASF120
 1934 093d 01       		.byte	0x1
 1935 093e 06       		.uleb128 0x6
 1936 093f 04       		.byte	0x4
 1937 0940 38090000 		.4byte	0x938
 1938 0944 1D       		.uleb128 0x1d
 1939 0945 01       		.byte	0x1
 1940 0946 50090000 		.4byte	0x950
 1941 094a 16       		.uleb128 0x16
 1942 094b C6040000 		.4byte	0x4c6
 1943 094f 00       		.byte	0
 1944 0950 06       		.uleb128 0x6
 1945 0951 04       		.byte	0x4
 1946 0952 44090000 		.4byte	0x944
 1947 0956 06       		.uleb128 0x6
 1948 0957 04       		.byte	0x4
 1949 0958 BF010000 		.4byte	0x1bf
 1950 095c 1D       		.uleb128 0x1d
 1951 095d 01       		.byte	0x1
 1952 095e 68090000 		.4byte	0x968
 1953 0962 16       		.uleb128 0x16
 1954 0963 7B000000 		.4byte	0x7b
 1955 0967 00       		.byte	0
 1956 0968 06       		.uleb128 0x6
 1957 0969 04       		.byte	0x4
 1958 096a 6E090000 		.4byte	0x96e
ARM GAS  C:\Users\embedded\AppData\Local\Temp\cccVPpSy.s 			page 40


 1959 096e 06       		.uleb128 0x6
 1960 096f 04       		.byte	0x4
 1961 0970 5C090000 		.4byte	0x95c
 1962 0974 0B       		.uleb128 0xb
 1963 0975 C0060000 		.4byte	0x6c0
 1964 0979 84090000 		.4byte	0x984
 1965 097d 0C       		.uleb128 0xc
 1966 097e 49000000 		.4byte	0x49
 1967 0982 02       		.byte	0x2
 1968 0983 00       		.byte	0
 1969 0984 1E       		.uleb128 0x1e
 1970 0985 C1040000 		.4byte	.LASF121
 1971 0989 06       		.byte	0x6
 1972 098a 2E03     		.2byte	0x32e
 1973 098c C6040000 		.4byte	0x4c6
 1974 0990 01       		.byte	0x1
 1975 0991 01       		.byte	0x1
 1976 0992 1E       		.uleb128 0x1e
 1977 0993 44050000 		.4byte	.LASF122
 1978 0997 06       		.byte	0x6
 1979 0998 2F03     		.2byte	0x32f
 1980 099a CC040000 		.4byte	0x4cc
 1981 099e 01       		.byte	0x1
 1982 099f 01       		.byte	0x1
 1983 09a0 03       		.uleb128 0x3
 1984 09a1 04       		.byte	0x4
 1985 09a2 04       		.byte	0x4
 1986 09a3 14030000 		.4byte	.LASF123
 1987 09a7 03       		.uleb128 0x3
 1988 09a8 08       		.byte	0x8
 1989 09a9 04       		.byte	0x4
 1990 09aa 74010000 		.4byte	.LASF124
 1991 09ae 1F       		.uleb128 0x1f
 1992 09af 33050000 		.4byte	.LASF143
 1993 09b3 05       		.byte	0x5
 1994 09b4 01       		.byte	0x1
 1995 09b5 6D000000 		.4byte	0x6d
 1996 09b9 07       		.byte	0x7
 1997 09ba 8202     		.2byte	0x282
 1998 09bc D9090000 		.4byte	0x9d9
 1999 09c0 20       		.uleb128 0x20
 2000 09c1 57050000 		.4byte	.LASF125
 2001 09c5 7F       		.sleb128 -1
 2002 09c6 21       		.uleb128 0x21
 2003 09c7 56010000 		.4byte	.LASF126
 2004 09cb 00       		.byte	0
 2005 09cc 21       		.uleb128 0x21
 2006 09cd B1000000 		.4byte	.LASF127
 2007 09d1 01       		.byte	0x1
 2008 09d2 21       		.uleb128 0x21
 2009 09d3 7E000000 		.4byte	.LASF128
 2010 09d7 02       		.byte	0x2
 2011 09d8 00       		.byte	0
 2012 09d9 1E       		.uleb128 0x1e
 2013 09da 99050000 		.4byte	.LASF129
 2014 09de 07       		.byte	0x7
 2015 09df 8D02     		.2byte	0x28d
ARM GAS  C:\Users\embedded\AppData\Local\Temp\cccVPpSy.s 			page 41


 2016 09e1 AE090000 		.4byte	0x9ae
 2017 09e5 01       		.byte	0x1
 2018 09e6 01       		.byte	0x1
 2019 09e7 22       		.uleb128 0x22
 2020 09e8 01       		.byte	0x1
 2021 09e9 87050000 		.4byte	.LASF144
 2022 09ed 01       		.byte	0x1
 2023 09ee C8       		.byte	0xc8
 2024 09ef 01       		.byte	0x1
 2025 09f0 50000000 		.4byte	0x50
 2026 09f4 C0020000 		.4byte	.LFB1
 2027 09f8 A2040000 		.4byte	.LFE1
 2028 09fc 00000000 		.4byte	.LLST1
 2029 0a00 01       		.byte	0x1
 2030 0a01 8A0A0000 		.4byte	0xa8a
 2031 0a05 23       		.uleb128 0x23
 2032 0a06 1E060000 		.4byte	.LASF130
 2033 0a0a 01       		.byte	0x1
 2034 0a0b CB       		.byte	0xcb
 2035 0a0c 62000000 		.4byte	0x62
 2036 0a10 02       		.byte	0x2
 2037 0a11 91       		.byte	0x91
 2038 0a12 67       		.sleb128 -25
 2039 0a13 23       		.uleb128 0x23
 2040 0a14 EA040000 		.4byte	.LASF131
 2041 0a18 01       		.byte	0x1
 2042 0a19 CC       		.byte	0xcc
 2043 0a1a 8A0A0000 		.4byte	0xa8a
 2044 0a1e 02       		.byte	0x2
 2045 0a1f 91       		.byte	0x91
 2046 0a20 54       		.sleb128 -44
 2047 0a21 23       		.uleb128 0x23
 2048 0a22 1A000000 		.4byte	.LASF132
 2049 0a26 01       		.byte	0x1
 2050 0a27 CD       		.byte	0xcd
 2051 0a28 9A0A0000 		.4byte	0xa9a
 2052 0a2c 02       		.byte	0x2
 2053 0a2d 91       		.byte	0x91
 2054 0a2e 50       		.sleb128 -48
 2055 0a2f 23       		.uleb128 0x23
 2056 0a30 A1000000 		.4byte	.LASF133
 2057 0a34 01       		.byte	0x1
 2058 0a35 D0       		.byte	0xd0
 2059 0a36 25000000 		.4byte	0x25
 2060 0a3a 02       		.byte	0x2
 2061 0a3b 91       		.byte	0x91
 2062 0a3c 66       		.sleb128 -26
 2063 0a3d 23       		.uleb128 0x23
 2064 0a3e C4020000 		.4byte	.LASF134
 2065 0a42 01       		.byte	0x1
 2066 0a43 D2       		.byte	0xd2
 2067 0a44 25000000 		.4byte	0x25
 2068 0a48 02       		.byte	0x2
 2069 0a49 91       		.byte	0x91
 2070 0a4a 65       		.sleb128 -27
 2071 0a4b 23       		.uleb128 0x23
 2072 0a4c 2F000000 		.4byte	.LASF135
ARM GAS  C:\Users\embedded\AppData\Local\Temp\cccVPpSy.s 			page 42


 2073 0a50 01       		.byte	0x1
 2074 0a51 D5       		.byte	0xd5
 2075 0a52 37000000 		.4byte	0x37
 2076 0a56 02       		.byte	0x2
 2077 0a57 91       		.byte	0x91
 2078 0a58 62       		.sleb128 -30
 2079 0a59 23       		.uleb128 0x23
 2080 0a5a 38000000 		.4byte	.LASF136
 2081 0a5e 01       		.byte	0x1
 2082 0a5f D6       		.byte	0xd6
 2083 0a60 37000000 		.4byte	0x37
 2084 0a64 02       		.byte	0x2
 2085 0a65 91       		.byte	0x91
 2086 0a66 60       		.sleb128 -32
 2087 0a67 24       		.uleb128 0x24
 2088 0a68 01       		.byte	0x1
 2089 0a69 39010000 		.4byte	.LASF145
 2090 0a6d 01       		.byte	0x1
 2091 0a6e E5       		.byte	0xe5
 2092 0a6f 7B000000 		.4byte	0x7b
 2093 0a73 01       		.byte	0x1
 2094 0a74 7A0A0000 		.4byte	0xa7a
 2095 0a78 25       		.uleb128 0x25
 2096 0a79 00       		.byte	0
 2097 0a7a 26       		.uleb128 0x26
 2098 0a7b B5030000 		.4byte	.LASF137
 2099 0a7f 01       		.byte	0x1
 2100 0a80 0601     		.2byte	0x106
 2101 0a82 50000000 		.4byte	0x50
 2102 0a86 02       		.byte	0x2
 2103 0a87 91       		.byte	0x91
 2104 0a88 58       		.sleb128 -40
 2105 0a89 00       		.byte	0
 2106 0a8a 0B       		.uleb128 0xb
 2107 0a8b 25000000 		.4byte	0x25
 2108 0a8f 9A0A0000 		.4byte	0xa9a
 2109 0a93 0C       		.uleb128 0xc
 2110 0a94 49000000 		.4byte	0x49
 2111 0a98 01       		.byte	0x1
 2112 0a99 00       		.byte	0
 2113 0a9a 0B       		.uleb128 0xb
 2114 0a9b 25000000 		.4byte	0x25
 2115 0a9f AA0A0000 		.4byte	0xaaa
 2116 0aa3 0C       		.uleb128 0xc
 2117 0aa4 49000000 		.4byte	0x49
 2118 0aa8 00       		.byte	0
 2119 0aa9 00       		.byte	0
 2120 0aaa 27       		.uleb128 0x27
 2121 0aab 01       		.byte	0x1
 2122 0aac A7040000 		.4byte	.LASF146
 2123 0ab0 01       		.byte	0x1
 2124 0ab1 5E       		.byte	0x5e
 2125 0ab2 01       		.byte	0x1
 2126 0ab3 50000000 		.4byte	0x50
 2127 0ab7 00000000 		.4byte	.LFB0
 2128 0abb C0020000 		.4byte	.LFE0
 2129 0abf 38000000 		.4byte	.LLST0
ARM GAS  C:\Users\embedded\AppData\Local\Temp\cccVPpSy.s 			page 43


 2130 0ac3 01       		.byte	0x1
 2131 0ac4 28       		.uleb128 0x28
 2132 0ac5 2F000000 		.4byte	.LASF135
 2133 0ac9 01       		.byte	0x1
 2134 0aca 5E       		.byte	0x5e
 2135 0acb 37000000 		.4byte	0x37
 2136 0acf 02       		.byte	0x2
 2137 0ad0 91       		.byte	0x91
 2138 0ad1 56       		.sleb128 -42
 2139 0ad2 28       		.uleb128 0x28
 2140 0ad3 38000000 		.4byte	.LASF136
 2141 0ad7 01       		.byte	0x1
 2142 0ad8 5E       		.byte	0x5e
 2143 0ad9 37000000 		.4byte	0x37
 2144 0add 02       		.byte	0x2
 2145 0ade 91       		.byte	0x91
 2146 0adf 54       		.sleb128 -44
 2147 0ae0 23       		.uleb128 0x23
 2148 0ae1 69020000 		.4byte	.LASF138
 2149 0ae5 01       		.byte	0x1
 2150 0ae6 5F       		.byte	0x5f
 2151 0ae7 50000000 		.4byte	0x50
 2152 0aeb 02       		.byte	0x2
 2153 0aec 91       		.byte	0x91
 2154 0aed 60       		.sleb128 -32
 2155 0aee 23       		.uleb128 0x23
 2156 0aef 0D060000 		.4byte	.LASF139
 2157 0af3 01       		.byte	0x1
 2158 0af4 60       		.byte	0x60
 2159 0af5 A0090000 		.4byte	0x9a0
 2160 0af9 02       		.byte	0x2
 2161 0afa 91       		.byte	0x91
 2162 0afb 5C       		.sleb128 -36
 2163 0afc 00       		.byte	0
 2164 0afd 00       		.byte	0
 2165              		.section	.debug_abbrev,"",%progbits
 2166              	.Ldebug_abbrev0:
 2167 0000 01       		.uleb128 0x1
 2168 0001 11       		.uleb128 0x11
 2169 0002 01       		.byte	0x1
 2170 0003 25       		.uleb128 0x25
 2171 0004 0E       		.uleb128 0xe
 2172 0005 13       		.uleb128 0x13
 2173 0006 0B       		.uleb128 0xb
 2174 0007 03       		.uleb128 0x3
 2175 0008 0E       		.uleb128 0xe
 2176 0009 1B       		.uleb128 0x1b
 2177 000a 0E       		.uleb128 0xe
 2178 000b 11       		.uleb128 0x11
 2179 000c 01       		.uleb128 0x1
 2180 000d 12       		.uleb128 0x12
 2181 000e 01       		.uleb128 0x1
 2182 000f 10       		.uleb128 0x10
 2183 0010 06       		.uleb128 0x6
 2184 0011 00       		.byte	0
 2185 0012 00       		.byte	0
 2186 0013 02       		.uleb128 0x2
ARM GAS  C:\Users\embedded\AppData\Local\Temp\cccVPpSy.s 			page 44


 2187 0014 16       		.uleb128 0x16
 2188 0015 00       		.byte	0
 2189 0016 03       		.uleb128 0x3
 2190 0017 08       		.uleb128 0x8
 2191 0018 3A       		.uleb128 0x3a
 2192 0019 0B       		.uleb128 0xb
 2193 001a 3B       		.uleb128 0x3b
 2194 001b 0B       		.uleb128 0xb
 2195 001c 49       		.uleb128 0x49
 2196 001d 13       		.uleb128 0x13
 2197 001e 00       		.byte	0
 2198 001f 00       		.byte	0
 2199 0020 03       		.uleb128 0x3
 2200 0021 24       		.uleb128 0x24
 2201 0022 00       		.byte	0
 2202 0023 0B       		.uleb128 0xb
 2203 0024 0B       		.uleb128 0xb
 2204 0025 3E       		.uleb128 0x3e
 2205 0026 0B       		.uleb128 0xb
 2206 0027 03       		.uleb128 0x3
 2207 0028 0E       		.uleb128 0xe
 2208 0029 00       		.byte	0
 2209 002a 00       		.byte	0
 2210 002b 04       		.uleb128 0x4
 2211 002c 16       		.uleb128 0x16
 2212 002d 00       		.byte	0
 2213 002e 03       		.uleb128 0x3
 2214 002f 0E       		.uleb128 0xe
 2215 0030 3A       		.uleb128 0x3a
 2216 0031 0B       		.uleb128 0xb
 2217 0032 3B       		.uleb128 0x3b
 2218 0033 0B       		.uleb128 0xb
 2219 0034 49       		.uleb128 0x49
 2220 0035 13       		.uleb128 0x13
 2221 0036 00       		.byte	0
 2222 0037 00       		.byte	0
 2223 0038 05       		.uleb128 0x5
 2224 0039 24       		.uleb128 0x24
 2225 003a 00       		.byte	0
 2226 003b 0B       		.uleb128 0xb
 2227 003c 0B       		.uleb128 0xb
 2228 003d 3E       		.uleb128 0x3e
 2229 003e 0B       		.uleb128 0xb
 2230 003f 03       		.uleb128 0x3
 2231 0040 08       		.uleb128 0x8
 2232 0041 00       		.byte	0
 2233 0042 00       		.byte	0
 2234 0043 06       		.uleb128 0x6
 2235 0044 0F       		.uleb128 0xf
 2236 0045 00       		.byte	0
 2237 0046 0B       		.uleb128 0xb
 2238 0047 0B       		.uleb128 0xb
 2239 0048 49       		.uleb128 0x49
 2240 0049 13       		.uleb128 0x13
 2241 004a 00       		.byte	0
 2242 004b 00       		.byte	0
 2243 004c 07       		.uleb128 0x7
ARM GAS  C:\Users\embedded\AppData\Local\Temp\cccVPpSy.s 			page 45


 2244 004d 13       		.uleb128 0x13
 2245 004e 00       		.byte	0
 2246 004f 03       		.uleb128 0x3
 2247 0050 0E       		.uleb128 0xe
 2248 0051 3C       		.uleb128 0x3c
 2249 0052 0C       		.uleb128 0xc
 2250 0053 00       		.byte	0
 2251 0054 00       		.byte	0
 2252 0055 08       		.uleb128 0x8
 2253 0056 16       		.uleb128 0x16
 2254 0057 00       		.byte	0
 2255 0058 03       		.uleb128 0x3
 2256 0059 0E       		.uleb128 0xe
 2257 005a 3A       		.uleb128 0x3a
 2258 005b 0B       		.uleb128 0xb
 2259 005c 3B       		.uleb128 0x3b
 2260 005d 05       		.uleb128 0x5
 2261 005e 49       		.uleb128 0x49
 2262 005f 13       		.uleb128 0x13
 2263 0060 00       		.byte	0
 2264 0061 00       		.byte	0
 2265 0062 09       		.uleb128 0x9
 2266 0063 17       		.uleb128 0x17
 2267 0064 01       		.byte	0x1
 2268 0065 0B       		.uleb128 0xb
 2269 0066 0B       		.uleb128 0xb
 2270 0067 3A       		.uleb128 0x3a
 2271 0068 0B       		.uleb128 0xb
 2272 0069 3B       		.uleb128 0x3b
 2273 006a 0B       		.uleb128 0xb
 2274 006b 01       		.uleb128 0x1
 2275 006c 13       		.uleb128 0x13
 2276 006d 00       		.byte	0
 2277 006e 00       		.byte	0
 2278 006f 0A       		.uleb128 0xa
 2279 0070 0D       		.uleb128 0xd
 2280 0071 00       		.byte	0
 2281 0072 03       		.uleb128 0x3
 2282 0073 0E       		.uleb128 0xe
 2283 0074 3A       		.uleb128 0x3a
 2284 0075 0B       		.uleb128 0xb
 2285 0076 3B       		.uleb128 0x3b
 2286 0077 0B       		.uleb128 0xb
 2287 0078 49       		.uleb128 0x49
 2288 0079 13       		.uleb128 0x13
 2289 007a 00       		.byte	0
 2290 007b 00       		.byte	0
 2291 007c 0B       		.uleb128 0xb
 2292 007d 01       		.uleb128 0x1
 2293 007e 01       		.byte	0x1
 2294 007f 49       		.uleb128 0x49
 2295 0080 13       		.uleb128 0x13
 2296 0081 01       		.uleb128 0x1
 2297 0082 13       		.uleb128 0x13
 2298 0083 00       		.byte	0
 2299 0084 00       		.byte	0
 2300 0085 0C       		.uleb128 0xc
ARM GAS  C:\Users\embedded\AppData\Local\Temp\cccVPpSy.s 			page 46


 2301 0086 21       		.uleb128 0x21
 2302 0087 00       		.byte	0
 2303 0088 49       		.uleb128 0x49
 2304 0089 13       		.uleb128 0x13
 2305 008a 2F       		.uleb128 0x2f
 2306 008b 0B       		.uleb128 0xb
 2307 008c 00       		.byte	0
 2308 008d 00       		.byte	0
 2309 008e 0D       		.uleb128 0xd
 2310 008f 13       		.uleb128 0x13
 2311 0090 01       		.byte	0x1
 2312 0091 0B       		.uleb128 0xb
 2313 0092 0B       		.uleb128 0xb
 2314 0093 3A       		.uleb128 0x3a
 2315 0094 0B       		.uleb128 0xb
 2316 0095 3B       		.uleb128 0x3b
 2317 0096 0B       		.uleb128 0xb
 2318 0097 01       		.uleb128 0x1
 2319 0098 13       		.uleb128 0x13
 2320 0099 00       		.byte	0
 2321 009a 00       		.byte	0
 2322 009b 0E       		.uleb128 0xe
 2323 009c 0D       		.uleb128 0xd
 2324 009d 00       		.byte	0
 2325 009e 03       		.uleb128 0x3
 2326 009f 0E       		.uleb128 0xe
 2327 00a0 3A       		.uleb128 0x3a
 2328 00a1 0B       		.uleb128 0xb
 2329 00a2 3B       		.uleb128 0x3b
 2330 00a3 0B       		.uleb128 0xb
 2331 00a4 49       		.uleb128 0x49
 2332 00a5 13       		.uleb128 0x13
 2333 00a6 38       		.uleb128 0x38
 2334 00a7 0A       		.uleb128 0xa
 2335 00a8 00       		.byte	0
 2336 00a9 00       		.byte	0
 2337 00aa 0F       		.uleb128 0xf
 2338 00ab 0F       		.uleb128 0xf
 2339 00ac 00       		.byte	0
 2340 00ad 0B       		.uleb128 0xb
 2341 00ae 0B       		.uleb128 0xb
 2342 00af 00       		.byte	0
 2343 00b0 00       		.byte	0
 2344 00b1 10       		.uleb128 0x10
 2345 00b2 26       		.uleb128 0x26
 2346 00b3 00       		.byte	0
 2347 00b4 49       		.uleb128 0x49
 2348 00b5 13       		.uleb128 0x13
 2349 00b6 00       		.byte	0
 2350 00b7 00       		.byte	0
 2351 00b8 11       		.uleb128 0x11
 2352 00b9 13       		.uleb128 0x13
 2353 00ba 01       		.byte	0x1
 2354 00bb 03       		.uleb128 0x3
 2355 00bc 0E       		.uleb128 0xe
 2356 00bd 0B       		.uleb128 0xb
 2357 00be 0B       		.uleb128 0xb
ARM GAS  C:\Users\embedded\AppData\Local\Temp\cccVPpSy.s 			page 47


 2358 00bf 3A       		.uleb128 0x3a
 2359 00c0 0B       		.uleb128 0xb
 2360 00c1 3B       		.uleb128 0x3b
 2361 00c2 0B       		.uleb128 0xb
 2362 00c3 01       		.uleb128 0x1
 2363 00c4 13       		.uleb128 0x13
 2364 00c5 00       		.byte	0
 2365 00c6 00       		.byte	0
 2366 00c7 12       		.uleb128 0x12
 2367 00c8 0D       		.uleb128 0xd
 2368 00c9 00       		.byte	0
 2369 00ca 03       		.uleb128 0x3
 2370 00cb 08       		.uleb128 0x8
 2371 00cc 3A       		.uleb128 0x3a
 2372 00cd 0B       		.uleb128 0xb
 2373 00ce 3B       		.uleb128 0x3b
 2374 00cf 0B       		.uleb128 0xb
 2375 00d0 49       		.uleb128 0x49
 2376 00d1 13       		.uleb128 0x13
 2377 00d2 38       		.uleb128 0x38
 2378 00d3 0A       		.uleb128 0xa
 2379 00d4 00       		.byte	0
 2380 00d5 00       		.byte	0
 2381 00d6 13       		.uleb128 0x13
 2382 00d7 13       		.uleb128 0x13
 2383 00d8 01       		.byte	0x1
 2384 00d9 03       		.uleb128 0x3
 2385 00da 0E       		.uleb128 0xe
 2386 00db 0B       		.uleb128 0xb
 2387 00dc 05       		.uleb128 0x5
 2388 00dd 3A       		.uleb128 0x3a
 2389 00de 0B       		.uleb128 0xb
 2390 00df 3B       		.uleb128 0x3b
 2391 00e0 0B       		.uleb128 0xb
 2392 00e1 01       		.uleb128 0x1
 2393 00e2 13       		.uleb128 0x13
 2394 00e3 00       		.byte	0
 2395 00e4 00       		.byte	0
 2396 00e5 14       		.uleb128 0x14
 2397 00e6 15       		.uleb128 0x15
 2398 00e7 00       		.byte	0
 2399 00e8 27       		.uleb128 0x27
 2400 00e9 0C       		.uleb128 0xc
 2401 00ea 00       		.byte	0
 2402 00eb 00       		.byte	0
 2403 00ec 15       		.uleb128 0x15
 2404 00ed 15       		.uleb128 0x15
 2405 00ee 01       		.byte	0x1
 2406 00ef 27       		.uleb128 0x27
 2407 00f0 0C       		.uleb128 0xc
 2408 00f1 49       		.uleb128 0x49
 2409 00f2 13       		.uleb128 0x13
 2410 00f3 01       		.uleb128 0x1
 2411 00f4 13       		.uleb128 0x13
 2412 00f5 00       		.byte	0
 2413 00f6 00       		.byte	0
 2414 00f7 16       		.uleb128 0x16
ARM GAS  C:\Users\embedded\AppData\Local\Temp\cccVPpSy.s 			page 48


 2415 00f8 05       		.uleb128 0x5
 2416 00f9 00       		.byte	0
 2417 00fa 49       		.uleb128 0x49
 2418 00fb 13       		.uleb128 0x13
 2419 00fc 00       		.byte	0
 2420 00fd 00       		.byte	0
 2421 00fe 17       		.uleb128 0x17
 2422 00ff 13       		.uleb128 0x13
 2423 0100 01       		.byte	0x1
 2424 0101 03       		.uleb128 0x3
 2425 0102 0E       		.uleb128 0xe
 2426 0103 0B       		.uleb128 0xb
 2427 0104 05       		.uleb128 0x5
 2428 0105 3A       		.uleb128 0x3a
 2429 0106 0B       		.uleb128 0xb
 2430 0107 3B       		.uleb128 0x3b
 2431 0108 05       		.uleb128 0x5
 2432 0109 01       		.uleb128 0x1
 2433 010a 13       		.uleb128 0x13
 2434 010b 00       		.byte	0
 2435 010c 00       		.byte	0
 2436 010d 18       		.uleb128 0x18
 2437 010e 0D       		.uleb128 0xd
 2438 010f 00       		.byte	0
 2439 0110 03       		.uleb128 0x3
 2440 0111 0E       		.uleb128 0xe
 2441 0112 3A       		.uleb128 0x3a
 2442 0113 0B       		.uleb128 0xb
 2443 0114 3B       		.uleb128 0x3b
 2444 0115 05       		.uleb128 0x5
 2445 0116 49       		.uleb128 0x49
 2446 0117 13       		.uleb128 0x13
 2447 0118 38       		.uleb128 0x38
 2448 0119 0A       		.uleb128 0xa
 2449 011a 00       		.byte	0
 2450 011b 00       		.byte	0
 2451 011c 19       		.uleb128 0x19
 2452 011d 13       		.uleb128 0x13
 2453 011e 01       		.byte	0x1
 2454 011f 03       		.uleb128 0x3
 2455 0120 0E       		.uleb128 0xe
 2456 0121 0B       		.uleb128 0xb
 2457 0122 0B       		.uleb128 0xb
 2458 0123 3A       		.uleb128 0x3a
 2459 0124 0B       		.uleb128 0xb
 2460 0125 3B       		.uleb128 0x3b
 2461 0126 05       		.uleb128 0x5
 2462 0127 01       		.uleb128 0x1
 2463 0128 13       		.uleb128 0x13
 2464 0129 00       		.byte	0
 2465 012a 00       		.byte	0
 2466 012b 1A       		.uleb128 0x1a
 2467 012c 13       		.uleb128 0x13
 2468 012d 01       		.byte	0x1
 2469 012e 0B       		.uleb128 0xb
 2470 012f 0B       		.uleb128 0xb
 2471 0130 3A       		.uleb128 0x3a
ARM GAS  C:\Users\embedded\AppData\Local\Temp\cccVPpSy.s 			page 49


 2472 0131 0B       		.uleb128 0xb
 2473 0132 3B       		.uleb128 0x3b
 2474 0133 05       		.uleb128 0x5
 2475 0134 01       		.uleb128 0x1
 2476 0135 13       		.uleb128 0x13
 2477 0136 00       		.byte	0
 2478 0137 00       		.byte	0
 2479 0138 1B       		.uleb128 0x1b
 2480 0139 17       		.uleb128 0x17
 2481 013a 01       		.byte	0x1
 2482 013b 0B       		.uleb128 0xb
 2483 013c 0B       		.uleb128 0xb
 2484 013d 3A       		.uleb128 0x3a
 2485 013e 0B       		.uleb128 0xb
 2486 013f 3B       		.uleb128 0x3b
 2487 0140 05       		.uleb128 0x5
 2488 0141 01       		.uleb128 0x1
 2489 0142 13       		.uleb128 0x13
 2490 0143 00       		.byte	0
 2491 0144 00       		.byte	0
 2492 0145 1C       		.uleb128 0x1c
 2493 0146 0D       		.uleb128 0xd
 2494 0147 00       		.byte	0
 2495 0148 03       		.uleb128 0x3
 2496 0149 0E       		.uleb128 0xe
 2497 014a 3A       		.uleb128 0x3a
 2498 014b 0B       		.uleb128 0xb
 2499 014c 3B       		.uleb128 0x3b
 2500 014d 05       		.uleb128 0x5
 2501 014e 49       		.uleb128 0x49
 2502 014f 13       		.uleb128 0x13
 2503 0150 00       		.byte	0
 2504 0151 00       		.byte	0
 2505 0152 1D       		.uleb128 0x1d
 2506 0153 15       		.uleb128 0x15
 2507 0154 01       		.byte	0x1
 2508 0155 27       		.uleb128 0x27
 2509 0156 0C       		.uleb128 0xc
 2510 0157 01       		.uleb128 0x1
 2511 0158 13       		.uleb128 0x13
 2512 0159 00       		.byte	0
 2513 015a 00       		.byte	0
 2514 015b 1E       		.uleb128 0x1e
 2515 015c 34       		.uleb128 0x34
 2516 015d 00       		.byte	0
 2517 015e 03       		.uleb128 0x3
 2518 015f 0E       		.uleb128 0xe
 2519 0160 3A       		.uleb128 0x3a
 2520 0161 0B       		.uleb128 0xb
 2521 0162 3B       		.uleb128 0x3b
 2522 0163 05       		.uleb128 0x5
 2523 0164 49       		.uleb128 0x49
 2524 0165 13       		.uleb128 0x13
 2525 0166 3F       		.uleb128 0x3f
 2526 0167 0C       		.uleb128 0xc
 2527 0168 3C       		.uleb128 0x3c
 2528 0169 0C       		.uleb128 0xc
ARM GAS  C:\Users\embedded\AppData\Local\Temp\cccVPpSy.s 			page 50


 2529 016a 00       		.byte	0
 2530 016b 00       		.byte	0
 2531 016c 1F       		.uleb128 0x1f
 2532 016d 04       		.uleb128 0x4
 2533 016e 01       		.byte	0x1
 2534 016f 03       		.uleb128 0x3
 2535 0170 0E       		.uleb128 0xe
 2536 0171 3E       		.uleb128 0x3e
 2537 0172 0B       		.uleb128 0xb
 2538 0173 0B       		.uleb128 0xb
 2539 0174 0B       		.uleb128 0xb
 2540 0175 49       		.uleb128 0x49
 2541 0176 13       		.uleb128 0x13
 2542 0177 3A       		.uleb128 0x3a
 2543 0178 0B       		.uleb128 0xb
 2544 0179 3B       		.uleb128 0x3b
 2545 017a 05       		.uleb128 0x5
 2546 017b 01       		.uleb128 0x1
 2547 017c 13       		.uleb128 0x13
 2548 017d 00       		.byte	0
 2549 017e 00       		.byte	0
 2550 017f 20       		.uleb128 0x20
 2551 0180 28       		.uleb128 0x28
 2552 0181 00       		.byte	0
 2553 0182 03       		.uleb128 0x3
 2554 0183 0E       		.uleb128 0xe
 2555 0184 1C       		.uleb128 0x1c
 2556 0185 0D       		.uleb128 0xd
 2557 0186 00       		.byte	0
 2558 0187 00       		.byte	0
 2559 0188 21       		.uleb128 0x21
 2560 0189 28       		.uleb128 0x28
 2561 018a 00       		.byte	0
 2562 018b 03       		.uleb128 0x3
 2563 018c 0E       		.uleb128 0xe
 2564 018d 1C       		.uleb128 0x1c
 2565 018e 0B       		.uleb128 0xb
 2566 018f 00       		.byte	0
 2567 0190 00       		.byte	0
 2568 0191 22       		.uleb128 0x22
 2569 0192 2E       		.uleb128 0x2e
 2570 0193 01       		.byte	0x1
 2571 0194 3F       		.uleb128 0x3f
 2572 0195 0C       		.uleb128 0xc
 2573 0196 03       		.uleb128 0x3
 2574 0197 0E       		.uleb128 0xe
 2575 0198 3A       		.uleb128 0x3a
 2576 0199 0B       		.uleb128 0xb
 2577 019a 3B       		.uleb128 0x3b
 2578 019b 0B       		.uleb128 0xb
 2579 019c 27       		.uleb128 0x27
 2580 019d 0C       		.uleb128 0xc
 2581 019e 49       		.uleb128 0x49
 2582 019f 13       		.uleb128 0x13
 2583 01a0 11       		.uleb128 0x11
 2584 01a1 01       		.uleb128 0x1
 2585 01a2 12       		.uleb128 0x12
ARM GAS  C:\Users\embedded\AppData\Local\Temp\cccVPpSy.s 			page 51


 2586 01a3 01       		.uleb128 0x1
 2587 01a4 40       		.uleb128 0x40
 2588 01a5 06       		.uleb128 0x6
 2589 01a6 9642     		.uleb128 0x2116
 2590 01a8 0C       		.uleb128 0xc
 2591 01a9 01       		.uleb128 0x1
 2592 01aa 13       		.uleb128 0x13
 2593 01ab 00       		.byte	0
 2594 01ac 00       		.byte	0
 2595 01ad 23       		.uleb128 0x23
 2596 01ae 34       		.uleb128 0x34
 2597 01af 00       		.byte	0
 2598 01b0 03       		.uleb128 0x3
 2599 01b1 0E       		.uleb128 0xe
 2600 01b2 3A       		.uleb128 0x3a
 2601 01b3 0B       		.uleb128 0xb
 2602 01b4 3B       		.uleb128 0x3b
 2603 01b5 0B       		.uleb128 0xb
 2604 01b6 49       		.uleb128 0x49
 2605 01b7 13       		.uleb128 0x13
 2606 01b8 02       		.uleb128 0x2
 2607 01b9 0A       		.uleb128 0xa
 2608 01ba 00       		.byte	0
 2609 01bb 00       		.byte	0
 2610 01bc 24       		.uleb128 0x24
 2611 01bd 2E       		.uleb128 0x2e
 2612 01be 01       		.byte	0x1
 2613 01bf 3F       		.uleb128 0x3f
 2614 01c0 0C       		.uleb128 0xc
 2615 01c1 03       		.uleb128 0x3
 2616 01c2 0E       		.uleb128 0xe
 2617 01c3 3A       		.uleb128 0x3a
 2618 01c4 0B       		.uleb128 0xb
 2619 01c5 3B       		.uleb128 0x3b
 2620 01c6 0B       		.uleb128 0xb
 2621 01c7 49       		.uleb128 0x49
 2622 01c8 13       		.uleb128 0x13
 2623 01c9 3C       		.uleb128 0x3c
 2624 01ca 0C       		.uleb128 0xc
 2625 01cb 01       		.uleb128 0x1
 2626 01cc 13       		.uleb128 0x13
 2627 01cd 00       		.byte	0
 2628 01ce 00       		.byte	0
 2629 01cf 25       		.uleb128 0x25
 2630 01d0 18       		.uleb128 0x18
 2631 01d1 00       		.byte	0
 2632 01d2 00       		.byte	0
 2633 01d3 00       		.byte	0
 2634 01d4 26       		.uleb128 0x26
 2635 01d5 34       		.uleb128 0x34
 2636 01d6 00       		.byte	0
 2637 01d7 03       		.uleb128 0x3
 2638 01d8 0E       		.uleb128 0xe
 2639 01d9 3A       		.uleb128 0x3a
 2640 01da 0B       		.uleb128 0xb
 2641 01db 3B       		.uleb128 0x3b
 2642 01dc 05       		.uleb128 0x5
ARM GAS  C:\Users\embedded\AppData\Local\Temp\cccVPpSy.s 			page 52


 2643 01dd 49       		.uleb128 0x49
 2644 01de 13       		.uleb128 0x13
 2645 01df 02       		.uleb128 0x2
 2646 01e0 0A       		.uleb128 0xa
 2647 01e1 00       		.byte	0
 2648 01e2 00       		.byte	0
 2649 01e3 27       		.uleb128 0x27
 2650 01e4 2E       		.uleb128 0x2e
 2651 01e5 01       		.byte	0x1
 2652 01e6 3F       		.uleb128 0x3f
 2653 01e7 0C       		.uleb128 0xc
 2654 01e8 03       		.uleb128 0x3
 2655 01e9 0E       		.uleb128 0xe
 2656 01ea 3A       		.uleb128 0x3a
 2657 01eb 0B       		.uleb128 0xb
 2658 01ec 3B       		.uleb128 0x3b
 2659 01ed 0B       		.uleb128 0xb
 2660 01ee 27       		.uleb128 0x27
 2661 01ef 0C       		.uleb128 0xc
 2662 01f0 49       		.uleb128 0x49
 2663 01f1 13       		.uleb128 0x13
 2664 01f2 11       		.uleb128 0x11
 2665 01f3 01       		.uleb128 0x1
 2666 01f4 12       		.uleb128 0x12
 2667 01f5 01       		.uleb128 0x1
 2668 01f6 40       		.uleb128 0x40
 2669 01f7 06       		.uleb128 0x6
 2670 01f8 9642     		.uleb128 0x2116
 2671 01fa 0C       		.uleb128 0xc
 2672 01fb 00       		.byte	0
 2673 01fc 00       		.byte	0
 2674 01fd 28       		.uleb128 0x28
 2675 01fe 05       		.uleb128 0x5
 2676 01ff 00       		.byte	0
 2677 0200 03       		.uleb128 0x3
 2678 0201 0E       		.uleb128 0xe
 2679 0202 3A       		.uleb128 0x3a
 2680 0203 0B       		.uleb128 0xb
 2681 0204 3B       		.uleb128 0x3b
 2682 0205 0B       		.uleb128 0xb
 2683 0206 49       		.uleb128 0x49
 2684 0207 13       		.uleb128 0x13
 2685 0208 02       		.uleb128 0x2
 2686 0209 0A       		.uleb128 0xa
 2687 020a 00       		.byte	0
 2688 020b 00       		.byte	0
 2689 020c 00       		.byte	0
 2690              		.section	.debug_loc,"",%progbits
 2691              	.Ldebug_loc0:
 2692              	.LLST1:
 2693 0000 C0020000 		.4byte	.LFB1-.Ltext0
 2694 0004 C2020000 		.4byte	.LCFI3-.Ltext0
 2695 0008 0200     		.2byte	0x2
 2696 000a 7D       		.byte	0x7d
 2697 000b 00       		.sleb128 0
 2698 000c C2020000 		.4byte	.LCFI3-.Ltext0
 2699 0010 C4020000 		.4byte	.LCFI4-.Ltext0
ARM GAS  C:\Users\embedded\AppData\Local\Temp\cccVPpSy.s 			page 53


 2700 0014 0200     		.2byte	0x2
 2701 0016 7D       		.byte	0x7d
 2702 0017 14       		.sleb128 20
 2703 0018 C4020000 		.4byte	.LCFI4-.Ltext0
 2704 001c C6020000 		.4byte	.LCFI5-.Ltext0
 2705 0020 0200     		.2byte	0x2
 2706 0022 7D       		.byte	0x7d
 2707 0023 30       		.sleb128 48
 2708 0024 C6020000 		.4byte	.LCFI5-.Ltext0
 2709 0028 A2040000 		.4byte	.LFE1-.Ltext0
 2710 002c 0200     		.2byte	0x2
 2711 002e 77       		.byte	0x77
 2712 002f 30       		.sleb128 48
 2713 0030 00000000 		.4byte	0
 2714 0034 00000000 		.4byte	0
 2715              	.LLST0:
 2716 0038 00000000 		.4byte	.LFB0-.Ltext0
 2717 003c 02000000 		.4byte	.LCFI0-.Ltext0
 2718 0040 0200     		.2byte	0x2
 2719 0042 7D       		.byte	0x7d
 2720 0043 00       		.sleb128 0
 2721 0044 02000000 		.4byte	.LCFI0-.Ltext0
 2722 0048 04000000 		.4byte	.LCFI1-.Ltext0
 2723 004c 0200     		.2byte	0x2
 2724 004e 7D       		.byte	0x7d
 2725 004f 14       		.sleb128 20
 2726 0050 04000000 		.4byte	.LCFI1-.Ltext0
 2727 0054 06000000 		.4byte	.LCFI2-.Ltext0
 2728 0058 0200     		.2byte	0x2
 2729 005a 7D       		.byte	0x7d
 2730 005b 38       		.sleb128 56
 2731 005c 06000000 		.4byte	.LCFI2-.Ltext0
 2732 0060 C0020000 		.4byte	.LFE0-.Ltext0
 2733 0064 0200     		.2byte	0x2
 2734 0066 77       		.byte	0x77
 2735 0067 38       		.sleb128 56
 2736 0068 00000000 		.4byte	0
 2737 006c 00000000 		.4byte	0
 2738              		.section	.debug_aranges,"",%progbits
 2739 0000 1C000000 		.4byte	0x1c
 2740 0004 0200     		.2byte	0x2
 2741 0006 00000000 		.4byte	.Ldebug_info0
 2742 000a 04       		.byte	0x4
 2743 000b 00       		.byte	0
 2744 000c 0000     		.2byte	0
 2745 000e 0000     		.2byte	0
 2746 0010 00000000 		.4byte	.Ltext0
 2747 0014 A2040000 		.4byte	.Letext0-.Ltext0
 2748 0018 00000000 		.4byte	0
 2749 001c 00000000 		.4byte	0
 2750              		.section	.debug_line,"",%progbits
 2751              	.Ldebug_line0:
 2752 0000 60010000 		.section	.debug_str,"MS",%progbits,1
 2752      0200EE00 
 2752      00000201 
 2752      FB0E0D00 
 2752      01010101 
ARM GAS  C:\Users\embedded\AppData\Local\Temp\cccVPpSy.s 			page 54


 2753              	.LASF41:
 2754 0000 5F64736F 		.ascii	"_dso_handle\000"
 2754      5F68616E 
 2754      646C6500 
 2755              	.LASF49:
 2756 000c 5F73697A 		.ascii	"_size\000"
 2756      6500
 2757              	.LASF93:
 2758 0012 5F72616E 		.ascii	"_rand48\000"
 2758      64343800 
 2759              	.LASF132:
 2760 001a 72656164 		.ascii	"readValue\000"
 2760      56616C75 
 2760      6500
 2761              	.LASF73:
 2762 0024 5F656D65 		.ascii	"_emergency\000"
 2762      7267656E 
 2762      637900
 2763              	.LASF135:
 2764 002f 6368616E 		.ascii	"channel0\000"
 2764      6E656C30 
 2764      00
 2765              	.LASF136:
 2766 0038 6368616E 		.ascii	"channel1\000"
 2766      6E656C31 
 2766      00
 2767              	.LASF63:
 2768 0041 5F646174 		.ascii	"_data\000"
 2768      6100
 2769              	.LASF113:
 2770 0047 5F776372 		.ascii	"_wcrtomb_state\000"
 2770      746F6D62 
 2770      5F737461 
 2770      746500
 2771              	.LASF114:
 2772 0056 5F776373 		.ascii	"_wcsrtombs_state\000"
 2772      72746F6D 
 2772      62735F73 
 2772      74617465 
 2772      00
 2773              	.LASF5:
 2774 0067 6C6F6E67 		.ascii	"long long unsigned int\000"
 2774      206C6F6E 
 2774      6720756E 
 2774      7369676E 
 2774      65642069 
 2775              	.LASF128:
 2776 007e 5F5F6664 		.ascii	"__fdlibm_posix\000"
 2776      6C69626D 
 2776      5F706F73 
 2776      697800
 2777              	.LASF53:
 2778 008d 5F6C6266 		.ascii	"_lbfsize\000"
 2778      73697A65 
 2778      00
 2779              	.LASF120:
 2780 0096 5F5F6C6F 		.ascii	"__locale_t\000"
ARM GAS  C:\Users\embedded\AppData\Local\Temp\cccVPpSy.s 			page 55


 2780      63616C65 
 2780      5F7400
 2781              	.LASF133:
 2782 00a1 74736C57 		.ascii	"tslWriteAddress\000"
 2782      72697465 
 2782      41646472 
 2782      65737300 
 2783              	.LASF127:
 2784 00b1 5F5F6664 		.ascii	"__fdlibm_xopen\000"
 2784      6C69626D 
 2784      5F786F70 
 2784      656E00
 2785              	.LASF111:
 2786 00c0 5F6D6272 		.ascii	"_mbrtowc_state\000"
 2786      746F7763 
 2786      5F737461 
 2786      746500
 2787              	.LASF30:
 2788 00cf 5F5F746D 		.ascii	"__tm_sec\000"
 2788      5F736563 
 2788      00
 2789              	.LASF8:
 2790 00d8 6C6F6E67 		.ascii	"long long int\000"
 2790      206C6F6E 
 2790      6720696E 
 2790      7400
 2791              	.LASF6:
 2792 00e6 7369676E 		.ascii	"signed char\000"
 2792      65642063 
 2792      68617200 
 2793              	.LASF59:
 2794 00f2 5F756275 		.ascii	"_ubuf\000"
 2794      6600
 2795              	.LASF48:
 2796 00f8 5F626173 		.ascii	"_base\000"
 2796      6500
 2797              	.LASF32:
 2798 00fe 5F5F746D 		.ascii	"__tm_hour\000"
 2798      5F686F75 
 2798      7200
 2799              	.LASF88:
 2800 0108 5F5F7366 		.ascii	"__sf\000"
 2800      00
 2801              	.LASF39:
 2802 010d 5F6F6E5F 		.ascii	"_on_exit_args\000"
 2802      65786974 
 2802      5F617267 
 2802      7300
 2803              	.LASF54:
 2804 011b 5F636F6F 		.ascii	"_cookie\000"
 2804      6B696500 
 2805              	.LASF87:
 2806 0123 5F5F7367 		.ascii	"__sglue\000"
 2806      6C756500 
 2807              	.LASF0:
 2808 012b 74553136 		.ascii	"tU16\000"
 2808      00
ARM GAS  C:\Users\embedded\AppData\Local\Temp\cccVPpSy.s 			page 56


 2809              	.LASF10:
 2810 0130 6C6F6E67 		.ascii	"long int\000"
 2810      20696E74 
 2810      00
 2811              	.LASF145:
 2812 0139 7364656C 		.ascii	"sdelay\000"
 2812      617900
 2813              	.LASF51:
 2814 0140 5F666C61 		.ascii	"_flags\000"
 2814      677300
 2815              	.LASF43:
 2816 0147 5F69735F 		.ascii	"_is_cxa\000"
 2816      63786100 
 2817              	.LASF69:
 2818 014f 5F737464 		.ascii	"_stdin\000"
 2818      696E00
 2819              	.LASF126:
 2820 0156 5F5F6664 		.ascii	"__fdlibm_svid\000"
 2820      6C69626D 
 2820      5F737669 
 2820      6400
 2821              	.LASF61:
 2822 0164 5F626C6B 		.ascii	"_blksize\000"
 2822      73697A65 
 2822      00
 2823              	.LASF119:
 2824 016d 5F5F6C6F 		.ascii	"__lock\000"
 2824      636B00
 2825              	.LASF124:
 2826 0174 646F7562 		.ascii	"double\000"
 2826      6C6500
 2827              	.LASF83:
 2828 017b 5F637674 		.ascii	"_cvtbuf\000"
 2828      62756600 
 2829              	.LASF62:
 2830 0183 5F6F6666 		.ascii	"_offset\000"
 2830      73657400 
 2831              	.LASF112:
 2832 018b 5F6D6273 		.ascii	"_mbsrtowcs_state\000"
 2832      72746F77 
 2832      63735F73 
 2832      74617465 
 2832      00
 2833              	.LASF110:
 2834 019c 5F6D6272 		.ascii	"_mbrlen_state\000"
 2834      6C656E5F 
 2834      73746174 
 2834      6500
 2835              	.LASF40:
 2836 01aa 5F666E61 		.ascii	"_fnargs\000"
 2836      72677300 
 2837              	.LASF46:
 2838 01b2 5F666E73 		.ascii	"_fns\000"
 2838      00
 2839              	.LASF26:
 2840 01b7 5F736967 		.ascii	"_sign\000"
 2840      6E00
ARM GAS  C:\Users\embedded\AppData\Local\Temp\cccVPpSy.s 			page 57


 2841              	.LASF21:
 2842 01bd 5F666C6F 		.ascii	"_flock_t\000"
 2842      636B5F74 
 2842      00
 2843              	.LASF71:
 2844 01c6 5F737464 		.ascii	"_stderr\000"
 2844      65727200 
 2845              	.LASF28:
 2846 01ce 5F426967 		.ascii	"_Bigint\000"
 2846      696E7400 
 2847              	.LASF101:
 2848 01d6 5F67616D 		.ascii	"_gamma_signgam\000"
 2848      6D615F73 
 2848      69676E67 
 2848      616D00
 2849              	.LASF55:
 2850 01e5 5F726561 		.ascii	"_read\000"
 2850      6400
 2851              	.LASF79:
 2852 01eb 5F726573 		.ascii	"_result_k\000"
 2852      756C745F 
 2852      6B00
 2853              	.LASF29:
 2854 01f5 5F5F746D 		.ascii	"__tm\000"
 2854      00
 2855              	.LASF3:
 2856 01fa 756E7369 		.ascii	"unsigned int\000"
 2856      676E6564 
 2856      20696E74 
 2856      00
 2857              	.LASF17:
 2858 0207 5F5F7763 		.ascii	"__wchb\000"
 2858      686200
 2859              	.LASF70:
 2860 020e 5F737464 		.ascii	"_stdout\000"
 2860      6F757400 
 2861              	.LASF82:
 2862 0216 5F637674 		.ascii	"_cvtlen\000"
 2862      6C656E00 
 2863              	.LASF11:
 2864 021e 6C6F6E67 		.ascii	"long unsigned int\000"
 2864      20756E73 
 2864      69676E65 
 2864      6420696E 
 2864      7400
 2865              	.LASF52:
 2866 0230 5F66696C 		.ascii	"_file\000"
 2866      6500
 2867              	.LASF91:
 2868 0236 5F6E696F 		.ascii	"_niobs\000"
 2868      627300
 2869              	.LASF2:
 2870 023d 73686F72 		.ascii	"short unsigned int\000"
 2870      7420756E 
 2870      7369676E 
 2870      65642069 
 2870      6E7400
ARM GAS  C:\Users\embedded\AppData\Local\Temp\cccVPpSy.s 			page 58


 2871              	.LASF108:
 2872 0250 5F736967 		.ascii	"_signal_buf\000"
 2872      6E616C5F 
 2872      62756600 
 2873              	.LASF99:
 2874 025c 5F617363 		.ascii	"_asctime_buf\000"
 2874      74696D65 
 2874      5F627566 
 2874      00
 2875              	.LASF138:
 2876 0269 66696E61 		.ascii	"finalResult\000"
 2876      6C526573 
 2876      756C7400 
 2877              	.LASF78:
 2878 0275 5F726573 		.ascii	"_result\000"
 2878      756C7400 
 2879              	.LASF16:
 2880 027d 5F5F7763 		.ascii	"__wch\000"
 2880      6800
 2881              	.LASF12:
 2882 0283 5F4C4F43 		.ascii	"_LOCK_T\000"
 2882      4B5F5400 
 2883              	.LASF15:
 2884 028b 77696E74 		.ascii	"wint_t\000"
 2884      5F7400
 2885              	.LASF64:
 2886 0292 5F6C6F63 		.ascii	"_lock\000"
 2886      6B00
 2887              	.LASF66:
 2888 0298 5F666C61 		.ascii	"_flags2\000"
 2888      67733200 
 2889              	.LASF56:
 2890 02a0 5F777269 		.ascii	"_write\000"
 2890      746500
 2891              	.LASF35:
 2892 02a7 5F5F746D 		.ascii	"__tm_year\000"
 2892      5F796561 
 2892      7200
 2893              	.LASF9:
 2894 02b1 6C6F6E67 		.ascii	"long double\000"
 2894      20646F75 
 2894      626C6500 
 2895              	.LASF116:
 2896 02bd 5F6E6578 		.ascii	"_nextf\000"
 2896      746600
 2897              	.LASF134:
 2898 02c4 74736C52 		.ascii	"tslReadAddress\000"
 2898      65616441 
 2898      64647265 
 2898      737300
 2899              	.LASF34:
 2900 02d3 5F5F746D 		.ascii	"__tm_mon\000"
 2900      5F6D6F6E 
 2900      00
 2901              	.LASF44:
 2902 02dc 5F617465 		.ascii	"_atexit\000"
 2902      78697400 
ARM GAS  C:\Users\embedded\AppData\Local\Temp\cccVPpSy.s 			page 59


 2903              	.LASF76:
 2904 02e4 5F5F7364 		.ascii	"__sdidinit\000"
 2904      6964696E 
 2904      697400
 2905              	.LASF13:
 2906 02ef 5F6F6666 		.ascii	"_off_t\000"
 2906      5F7400
 2907              	.LASF142:
 2908 02f6 433A5C45 		.ascii	"C:\\Embedded\\2138MiniDemo\\2138\000"
 2908      6D626564 
 2908      6465645C 
 2908      32313338 
 2908      4D696E69 
 2909              	.LASF123:
 2910 0314 666C6F61 		.ascii	"float\000"
 2910      7400
 2911              	.LASF140:
 2912 031a 474E5520 		.ascii	"GNU C11 7.3.1 20180622 (release) [ARM/embedded-7-br"
 2912      43313120 
 2912      372E332E 
 2912      31203230 
 2912      31383036 
 2913 034d 616E6368 		.ascii	"anch revision 261907] -mcpu=arm7tdmi -mthumb -mthum"
 2913      20726576 
 2913      6973696F 
 2913      6E203236 
 2913      31393037 
 2914 0380 622D696E 		.ascii	"b-interwork -gdwarf-2 -O0\000"
 2914      74657277 
 2914      6F726B20 
 2914      2D676477 
 2914      6172662D 
 2915              	.LASF106:
 2916 039a 5F776374 		.ascii	"_wctomb_state\000"
 2916      6F6D625F 
 2916      73746174 
 2916      6500
 2917              	.LASF104:
 2918 03a8 5F6D626C 		.ascii	"_mblen_state\000"
 2918      656E5F73 
 2918      74617465 
 2918      00
 2919              	.LASF137:
 2920 03b5 62726967 		.ascii	"brightnessValue\000"
 2920      68746E65 
 2920      73735661 
 2920      6C756500 
 2921              	.LASF1:
 2922 03c5 756E7369 		.ascii	"unsigned char\000"
 2922      676E6564 
 2922      20636861 
 2922      7200
 2923              	.LASF84:
 2924 03d3 5F6E6577 		.ascii	"_new\000"
 2924      00
 2925              	.LASF115:
 2926 03d8 5F685F65 		.ascii	"_h_errno\000"
ARM GAS  C:\Users\embedded\AppData\Local\Temp\cccVPpSy.s 			page 60


 2926      72726E6F 
 2926      00
 2927              	.LASF7:
 2928 03e1 73686F72 		.ascii	"short int\000"
 2928      7420696E 
 2928      7400
 2929              	.LASF37:
 2930 03eb 5F5F746D 		.ascii	"__tm_yday\000"
 2930      5F796461 
 2930      7900
 2931              	.LASF47:
 2932 03f5 5F5F7362 		.ascii	"__sbuf\000"
 2932      756600
 2933              	.LASF81:
 2934 03fc 5F667265 		.ascii	"_freelist\000"
 2934      656C6973 
 2934      7400
 2935              	.LASF89:
 2936 0406 5F5F4649 		.ascii	"__FILE\000"
 2936      4C4500
 2937              	.LASF20:
 2938 040d 5F6D6273 		.ascii	"_mbstate_t\000"
 2938      74617465 
 2938      5F7400
 2939              	.LASF50:
 2940 0418 5F5F7346 		.ascii	"__sFILE\000"
 2940      494C4500 
 2941              	.LASF65:
 2942 0420 5F6D6273 		.ascii	"_mbstate\000"
 2942      74617465 
 2942      00
 2943              	.LASF102:
 2944 0429 5F72616E 		.ascii	"_rand_next\000"
 2944      645F6E65 
 2944      787400
 2945              	.LASF92:
 2946 0434 5F696F62 		.ascii	"_iobs\000"
 2946      7300
 2947              	.LASF72:
 2948 043a 5F696E63 		.ascii	"_inc\000"
 2948      00
 2949              	.LASF45:
 2950 043f 5F696E64 		.ascii	"_ind\000"
 2950      00
 2951              	.LASF75:
 2952 0444 5F6C6F63 		.ascii	"_locale\000"
 2952      616C6500 
 2953              	.LASF77:
 2954 044c 5F5F636C 		.ascii	"__cleanup\000"
 2954      65616E75 
 2954      7000
 2955              	.LASF74:
 2956 0456 5F756E73 		.ascii	"_unspecified_locale_info\000"
 2956      70656369 
 2956      66696564 
 2956      5F6C6F63 
 2956      616C655F 
ARM GAS  C:\Users\embedded\AppData\Local\Temp\cccVPpSy.s 			page 61


 2957              	.LASF25:
 2958 046f 5F6D6178 		.ascii	"_maxwds\000"
 2958      77647300 
 2959              	.LASF67:
 2960 0477 5F726565 		.ascii	"_reent\000"
 2960      6E7400
 2961              	.LASF94:
 2962 047e 5F736565 		.ascii	"_seed\000"
 2962      6400
 2963              	.LASF85:
 2964 0484 5F617465 		.ascii	"_atexit0\000"
 2964      78697430 
 2964      00
 2965              	.LASF18:
 2966 048d 5F5F636F 		.ascii	"__count\000"
 2966      756E7400 
 2967              	.LASF141:
 2968 0495 74736C32 		.ascii	"tsl2561.c\000"
 2968      3536312E 
 2968      6300
 2969              	.LASF19:
 2970 049f 5F5F7661 		.ascii	"__value\000"
 2970      6C756500 
 2971              	.LASF146:
 2972 04a7 63616C63 		.ascii	"calculateBrightness\000"
 2972      756C6174 
 2972      65427269 
 2972      6768746E 
 2972      65737300 
 2973              	.LASF57:
 2974 04bb 5F736565 		.ascii	"_seek\000"
 2974      6B00
 2975              	.LASF121:
 2976 04c1 5F696D70 		.ascii	"_impure_ptr\000"
 2976      7572655F 
 2976      70747200 
 2977              	.LASF14:
 2978 04cd 5F66706F 		.ascii	"_fpos_t\000"
 2978      735F7400 
 2979              	.LASF68:
 2980 04d5 5F657272 		.ascii	"_errno\000"
 2980      6E6F00
 2981              	.LASF22:
 2982 04dc 63686172 		.ascii	"char\000"
 2982      00
 2983              	.LASF31:
 2984 04e1 5F5F746D 		.ascii	"__tm_min\000"
 2984      5F6D696E 
 2984      00
 2985              	.LASF131:
 2986 04ea 636F6D6D 		.ascii	"command\000"
 2986      616E6400 
 2987              	.LASF95:
 2988 04f2 5F6D756C 		.ascii	"_mult\000"
 2988      7400
 2989              	.LASF24:
 2990 04f8 5F6E6578 		.ascii	"_next\000"
ARM GAS  C:\Users\embedded\AppData\Local\Temp\cccVPpSy.s 			page 62


 2990      7400
 2991              	.LASF98:
 2992 04fe 5F737472 		.ascii	"_strtok_last\000"
 2992      746F6B5F 
 2992      6C617374 
 2992      00
 2993              	.LASF42:
 2994 050b 5F666E74 		.ascii	"_fntypes\000"
 2994      79706573 
 2994      00
 2995              	.LASF96:
 2996 0514 5F616464 		.ascii	"_add\000"
 2996      00
 2997              	.LASF23:
 2998 0519 5F5F554C 		.ascii	"__ULong\000"
 2998      6F6E6700 
 2999              	.LASF109:
 3000 0521 5F676574 		.ascii	"_getdate_err\000"
 3000      64617465 
 3000      5F657272 
 3000      00
 3001              	.LASF4:
 3002 052e 74553634 		.ascii	"tU64\000"
 3002      00
 3003              	.LASF143:
 3004 0533 5F5F6664 		.ascii	"__fdlibm_version\000"
 3004      6C69626D 
 3004      5F766572 
 3004      73696F6E 
 3004      00
 3005              	.LASF122:
 3006 0544 5F676C6F 		.ascii	"_global_impure_ptr\000"
 3006      62616C5F 
 3006      696D7075 
 3006      72655F70 
 3006      747200
 3007              	.LASF125:
 3008 0557 5F5F6664 		.ascii	"__fdlibm_ieee\000"
 3008      6C69626D 
 3008      5F696565 
 3008      6500
 3009              	.LASF97:
 3010 0565 5F756E75 		.ascii	"_unused_rand\000"
 3010      7365645F 
 3010      72616E64 
 3010      00
 3011              	.LASF27:
 3012 0572 5F776473 		.ascii	"_wds\000"
 3012      00
 3013              	.LASF36:
 3014 0577 5F5F746D 		.ascii	"__tm_wday\000"
 3014      5F776461 
 3014      7900
 3015              	.LASF90:
 3016 0581 5F676C75 		.ascii	"_glue\000"
 3016      6500
 3017              	.LASF144:
ARM GAS  C:\Users\embedded\AppData\Local\Temp\cccVPpSy.s 			page 63


 3018 0587 6D656173 		.ascii	"measureBrightness\000"
 3018      75726542 
 3018      72696768 
 3018      746E6573 
 3018      7300
 3019              	.LASF129:
 3020 0599 5F5F6664 		.ascii	"__fdlib_version\000"
 3020      6C69625F 
 3020      76657273 
 3020      696F6E00 
 3021              	.LASF117:
 3022 05a9 5F6E6D61 		.ascii	"_nmalloc\000"
 3022      6C6C6F63 
 3022      00
 3023              	.LASF107:
 3024 05b2 5F6C3634 		.ascii	"_l64a_buf\000"
 3024      615F6275 
 3024      6600
 3025              	.LASF86:
 3026 05bc 5F736967 		.ascii	"_sig_func\000"
 3026      5F66756E 
 3026      6300
 3027              	.LASF60:
 3028 05c6 5F6E6275 		.ascii	"_nbuf\000"
 3028      6600
 3029              	.LASF118:
 3030 05cc 5F756E75 		.ascii	"_unused\000"
 3030      73656400 
 3031              	.LASF38:
 3032 05d4 5F5F746D 		.ascii	"__tm_isdst\000"
 3032      5F697364 
 3032      737400
 3033              	.LASF100:
 3034 05df 5F6C6F63 		.ascii	"_localtime_buf\000"
 3034      616C7469 
 3034      6D655F62 
 3034      756600
 3035              	.LASF58:
 3036 05ee 5F636C6F 		.ascii	"_close\000"
 3036      736500
 3037              	.LASF103:
 3038 05f5 5F723438 		.ascii	"_r48\000"
 3038      00
 3039              	.LASF105:
 3040 05fa 5F6D6274 		.ascii	"_mbtowc_state\000"
 3040      6F77635F 
 3040      73746174 
 3040      6500
 3041              	.LASF80:
 3042 0608 5F703573 		.ascii	"_p5s\000"
 3042      00
 3043              	.LASF139:
 3044 060d 72657375 		.ascii	"result\000"
 3044      6C7400
 3045              	.LASF33:
 3046 0614 5F5F746D 		.ascii	"__tm_mday\000"
 3046      5F6D6461 
ARM GAS  C:\Users\embedded\AppData\Local\Temp\cccVPpSy.s 			page 64


 3046      7900
 3047              	.LASF130:
 3048 061e 72657443 		.ascii	"retCode\000"
 3048      6F646500 
 3049              		.ident	"GCC: (GNU Tools for Arm Embedded Processors 7-2018-q2-update) 7.3.1 20180622 (release) [AR
ARM GAS  C:\Users\embedded\AppData\Local\Temp\cccVPpSy.s 			page 65


DEFINED SYMBOLS
                            *ABS*:00000000 tsl2561.c
C:\Users\embedded\AppData\Local\Temp\cccVPpSy.s:33     .text:00000000 calculateBrightness
C:\Users\embedded\AppData\Local\Temp\cccVPpSy.s:41     .text:00000000 $t
C:\Users\embedded\AppData\Local\Temp\cccVPpSy.s:379    .text:0000025c $d
C:\Users\embedded\AppData\Local\Temp\cccVPpSy.s:407    .text:000002c0 $t
C:\Users\embedded\AppData\Local\Temp\cccVPpSy.s:414    .text:000002c0 measureBrightness

UNDEFINED SYMBOLS
__aeabi_ui2f
__aeabi_i2f
__aeabi_fdiv
__aeabi_fcmpgt
__aeabi_f2d
__aeabi_dcmple
__aeabi_i2d
__aeabi_dmul
__aeabi_dsub
__aeabi_d2ulz
__aeabi_dcmpgt
pow
i2cWrite
i2cRead
sdelay
