ARM GAS  C:\Users\embedded\AppData\Local\Temp\ccluNwz2.s 			page 1


   1              		.cpu arm7tdmi
   2              		.eabi_attribute 20, 1
   3              		.eabi_attribute 21, 1
   4              		.eabi_attribute 23, 3
   5              		.eabi_attribute 24, 1
   6              		.eabi_attribute 25, 1
   7              		.eabi_attribute 26, 1
   8              		.eabi_attribute 30, 6
   9              		.eabi_attribute 34, 0
  10              		.eabi_attribute 18, 4
  11              		.file	"tsl2561.c"
  12              		.text
  13              	.Ltext0:
  14              		.cfi_sections	.debug_frame
  15              		.global	__aeabi_uidiv
  16              		.global	__aeabi_i2d
  17              		.global	__aeabi_dcmple
  18              		.global	__aeabi_dmul
  19              		.global	__aeabi_dsub
  20              		.global	__aeabi_d2uiz
  21              		.global	__aeabi_dcmpgt
  22              		.align	1
  23              		.global	calculateBrightness
  24              		.syntax unified
  25              		.code	16
  26              		.thumb_func
  27              		.fpu softvfp
  28              		.type	calculateBrightness, %function
  29              	calculateBrightness:
  30              	.LFB0:
  31              		.file 1 "tsl2561.c"
   1:tsl2561.c     **** /*
   2:tsl2561.c     ****     Plik z kodem źródłowym funkcji, przeznaczonych do obsługi
   3:tsl2561.c     ****     czujnika oświetlenia TLS2561.
   4:tsl2561.c     **** */
   5:tsl2561.c     **** 
   6:tsl2561.c     **** #include "general.h"
   7:tsl2561.c     **** #include "math.h"
   8:tsl2561.c     **** 
   9:tsl2561.c     **** tU16 calculateBrightness(tU16 channel0, tU16 channel1)
  10:tsl2561.c     **** {
  32              		.loc 1 10 0
  33              		.cfi_startproc
  34              		@ Function supports interworking.
  35              		@ args = 0, pretend = 0, frame = 24
  36              		@ frame_needed = 1, uses_anonymous_args = 0
  37 0000 F0B5     		push	{r4, r5, r6, r7, lr}
  38              	.LCFI0:
  39              		.cfi_def_cfa_offset 20
  40              		.cfi_offset 4, -20
  41              		.cfi_offset 5, -16
  42              		.cfi_offset 6, -12
  43              		.cfi_offset 7, -8
  44              		.cfi_offset 14, -4
  45 0002 87B0     		sub	sp, sp, #28
  46              	.LCFI1:
  47              		.cfi_def_cfa_offset 48
ARM GAS  C:\Users\embedded\AppData\Local\Temp\ccluNwz2.s 			page 2


  48 0004 00AF     		add	r7, sp, #0
  49              	.LCFI2:
  50              		.cfi_def_cfa_register 7
  51 0006 0200     		movs	r2, r0
  52 0008 0E24     		movs	r4, #14
  53 000a 3B19     		adds	r3, r7, r4
  54 000c 1A80     		strh	r2, [r3]
  55 000e 0C20     		movs	r0, #12
  56 0010 3B18     		adds	r3, r7, r0
  57 0012 0A1C     		adds	r2, r1, #0
  58 0014 1A80     		strh	r2, [r3]
  11:tsl2561.c     ****     // Conversion of result to result in lux, according to TLS2561 manual, page: 23
  12:tsl2561.c     ****     tU16 finalResult;
  13:tsl2561.c     ****     if ((channel1 / channel0) > 0 && (channel1 / channel0) <= 0.52)
  59              		.loc 1 13 0
  60 0016 3A18     		adds	r2, r7, r0
  61 0018 3B19     		adds	r3, r7, r4
  62 001a 1288     		ldrh	r2, [r2]
  63 001c 1B88     		ldrh	r3, [r3]
  64 001e 1900     		movs	r1, r3
  65 0020 1000     		movs	r0, r2
  66 0022 FFF7FEFF 		bl	__aeabi_uidiv
  67              	.LVL0:
  68 0026 0300     		movs	r3, r0
  69 0028 1B04     		lsls	r3, r3, #16
  70 002a 1B0C     		lsrs	r3, r3, #16
  71 002c 66D0     		beq	.L2
  72              		.loc 1 13 0 is_stmt 0 discriminator 1
  73 002e 0C23     		movs	r3, #12
  74 0030 FA18     		adds	r2, r7, r3
  75 0032 0E23     		movs	r3, #14
  76 0034 FB18     		adds	r3, r7, r3
  77 0036 1288     		ldrh	r2, [r2]
  78 0038 1B88     		ldrh	r3, [r3]
  79 003a 1900     		movs	r1, r3
  80 003c 1000     		movs	r0, r2
  81 003e FFF7FEFF 		bl	__aeabi_uidiv
  82              	.LVL1:
  83 0042 0300     		movs	r3, r0
  84 0044 1B04     		lsls	r3, r3, #16
  85 0046 1B0C     		lsrs	r3, r3, #16
  86 0048 1800     		movs	r0, r3
  87 004a FFF7FEFF 		bl	__aeabi_i2d
  88              	.LVL2:
  89 004e C54A     		ldr	r2, .L24
  90 0050 C54B     		ldr	r3, .L24+4
  91 0052 FFF7FEFF 		bl	__aeabi_dcmple
  92              	.LVL3:
  93 0056 031E     		subs	r3, r0, #0
  94 0058 50D0     		beq	.L2
  14:tsl2561.c     ****     {
  15:tsl2561.c     ****         finalResult = 0.0315 * channel0 - 0.0593 * channel0 * pow((channel1 / channel0), 1.4);
  95              		.loc 1 15 0 is_stmt 1
  96 005a 0E23     		movs	r3, #14
  97 005c FB18     		adds	r3, r7, r3
  98 005e 1B88     		ldrh	r3, [r3]
  99 0060 1800     		movs	r0, r3
ARM GAS  C:\Users\embedded\AppData\Local\Temp\ccluNwz2.s 			page 3


 100 0062 FFF7FEFF 		bl	__aeabi_i2d
 101              	.LVL4:
 102 0066 C14A     		ldr	r2, .L24+8
 103 0068 C14B     		ldr	r3, .L24+12
 104 006a FFF7FEFF 		bl	__aeabi_dmul
 105              	.LVL5:
 106 006e 0300     		movs	r3, r0
 107 0070 0C00     		movs	r4, r1
 108 0072 1D00     		movs	r5, r3
 109 0074 2600     		movs	r6, r4
 110 0076 0E23     		movs	r3, #14
 111 0078 FB18     		adds	r3, r7, r3
 112 007a 1B88     		ldrh	r3, [r3]
 113 007c 1800     		movs	r0, r3
 114 007e FFF7FEFF 		bl	__aeabi_i2d
 115              	.LVL6:
 116 0082 BC4A     		ldr	r2, .L24+16
 117 0084 BC4B     		ldr	r3, .L24+20
 118 0086 FFF7FEFF 		bl	__aeabi_dmul
 119              	.LVL7:
 120 008a 0300     		movs	r3, r0
 121 008c 0C00     		movs	r4, r1
 122 008e 3B60     		str	r3, [r7]
 123 0090 7C60     		str	r4, [r7, #4]
 124 0092 0C22     		movs	r2, #12
 125 0094 BA18     		adds	r2, r7, r2
 126 0096 0E23     		movs	r3, #14
 127 0098 FB18     		adds	r3, r7, r3
 128 009a 1288     		ldrh	r2, [r2]
 129 009c 1B88     		ldrh	r3, [r3]
 130 009e 1900     		movs	r1, r3
 131 00a0 1000     		movs	r0, r2
 132 00a2 FFF7FEFF 		bl	__aeabi_uidiv
 133              	.LVL8:
 134 00a6 0300     		movs	r3, r0
 135 00a8 1B04     		lsls	r3, r3, #16
 136 00aa 1B0C     		lsrs	r3, r3, #16
 137 00ac 1800     		movs	r0, r3
 138 00ae FFF7FEFF 		bl	__aeabi_i2d
 139              	.LVL9:
 140 00b2 B24B     		ldr	r3, .L24+24
 141 00b4 B24C     		ldr	r4, .L24+28
 142 00b6 1A00     		movs	r2, r3
 143 00b8 2300     		movs	r3, r4
 144 00ba FFF7FEFF 		bl	pow
 145 00be 0300     		movs	r3, r0
 146 00c0 0C00     		movs	r4, r1
 147 00c2 1A00     		movs	r2, r3
 148 00c4 2300     		movs	r3, r4
 149 00c6 3868     		ldr	r0, [r7]
 150 00c8 7968     		ldr	r1, [r7, #4]
 151 00ca FFF7FEFF 		bl	__aeabi_dmul
 152              	.LVL10:
 153 00ce 0300     		movs	r3, r0
 154 00d0 0C00     		movs	r4, r1
 155 00d2 1A00     		movs	r2, r3
 156 00d4 2300     		movs	r3, r4
ARM GAS  C:\Users\embedded\AppData\Local\Temp\ccluNwz2.s 			page 4


 157 00d6 2800     		movs	r0, r5
 158 00d8 3100     		movs	r1, r6
 159 00da FFF7FEFF 		bl	__aeabi_dsub
 160              	.LVL11:
 161 00de 0300     		movs	r3, r0
 162 00e0 0C00     		movs	r4, r1
 163 00e2 1A00     		movs	r2, r3
 164 00e4 2300     		movs	r3, r4
 165 00e6 0E21     		movs	r1, #14
 166 00e8 0820     		movs	r0, #8
 167 00ea 3818     		adds	r0, r7, r0
 168 00ec 4418     		adds	r4, r0, r1
 169 00ee 1000     		movs	r0, r2
 170 00f0 1900     		movs	r1, r3
 171 00f2 FFF7FEFF 		bl	__aeabi_d2uiz
 172              	.LVL12:
 173 00f6 0300     		movs	r3, r0
 174 00f8 2380     		strh	r3, [r4]
 175 00fa 27E1     		b	.L4
 176              	.L2:
  16:tsl2561.c     ****     }
  17:tsl2561.c     ****     else if ((channel1 / channel0) > 0.52 && (channel1 / channel0) <= 0.65)
 177              		.loc 1 17 0
 178 00fc 0C23     		movs	r3, #12
 179 00fe FA18     		adds	r2, r7, r3
 180 0100 0E23     		movs	r3, #14
 181 0102 FB18     		adds	r3, r7, r3
 182 0104 1288     		ldrh	r2, [r2]
 183 0106 1B88     		ldrh	r3, [r3]
 184 0108 1900     		movs	r1, r3
 185 010a 1000     		movs	r0, r2
 186 010c FFF7FEFF 		bl	__aeabi_uidiv
 187              	.LVL13:
 188 0110 0300     		movs	r3, r0
 189 0112 1B04     		lsls	r3, r3, #16
 190 0114 1B0C     		lsrs	r3, r3, #16
 191 0116 1800     		movs	r0, r3
 192 0118 FFF7FEFF 		bl	__aeabi_i2d
 193              	.LVL14:
 194 011c 914A     		ldr	r2, .L24
 195 011e 924B     		ldr	r3, .L24+4
 196 0120 FFF7FEFF 		bl	__aeabi_dcmpgt
 197              	.LVL15:
 198 0124 031E     		subs	r3, r0, #0
 199 0126 42D0     		beq	.L5
 200              		.loc 1 17 0 is_stmt 0 discriminator 1
 201 0128 0C23     		movs	r3, #12
 202 012a FA18     		adds	r2, r7, r3
 203 012c 0E23     		movs	r3, #14
 204 012e FB18     		adds	r3, r7, r3
 205 0130 1288     		ldrh	r2, [r2]
 206 0132 1B88     		ldrh	r3, [r3]
 207 0134 1900     		movs	r1, r3
 208 0136 1000     		movs	r0, r2
 209 0138 FFF7FEFF 		bl	__aeabi_uidiv
 210              	.LVL16:
 211 013c 0300     		movs	r3, r0
ARM GAS  C:\Users\embedded\AppData\Local\Temp\ccluNwz2.s 			page 5


 212 013e 1B04     		lsls	r3, r3, #16
 213 0140 1B0C     		lsrs	r3, r3, #16
 214 0142 1800     		movs	r0, r3
 215 0144 FFF7FEFF 		bl	__aeabi_i2d
 216              	.LVL17:
 217 0148 8E4A     		ldr	r2, .L24+32
 218 014a 8F4B     		ldr	r3, .L24+36
 219 014c FFF7FEFF 		bl	__aeabi_dcmple
 220              	.LVL18:
 221 0150 031E     		subs	r3, r0, #0
 222 0152 2CD0     		beq	.L5
  18:tsl2561.c     ****     {
  19:tsl2561.c     ****         finalResult = 0.0229 * channel0 - 0.0291 * channel1;
 223              		.loc 1 19 0 is_stmt 1
 224 0154 0E23     		movs	r3, #14
 225 0156 FB18     		adds	r3, r7, r3
 226 0158 1B88     		ldrh	r3, [r3]
 227 015a 1800     		movs	r0, r3
 228 015c FFF7FEFF 		bl	__aeabi_i2d
 229              	.LVL19:
 230 0160 8A4A     		ldr	r2, .L24+40
 231 0162 8B4B     		ldr	r3, .L24+44
 232 0164 FFF7FEFF 		bl	__aeabi_dmul
 233              	.LVL20:
 234 0168 0300     		movs	r3, r0
 235 016a 0C00     		movs	r4, r1
 236 016c 2500     		movs	r5, r4
 237 016e 1C00     		movs	r4, r3
 238 0170 0C23     		movs	r3, #12
 239 0172 FB18     		adds	r3, r7, r3
 240 0174 1B88     		ldrh	r3, [r3]
 241 0176 1800     		movs	r0, r3
 242 0178 FFF7FEFF 		bl	__aeabi_i2d
 243              	.LVL21:
 244 017c 854A     		ldr	r2, .L24+48
 245 017e 864B     		ldr	r3, .L24+52
 246 0180 FFF7FEFF 		bl	__aeabi_dmul
 247              	.LVL22:
 248 0184 0200     		movs	r2, r0
 249 0186 0B00     		movs	r3, r1
 250 0188 2000     		movs	r0, r4
 251 018a 2900     		movs	r1, r5
 252 018c FFF7FEFF 		bl	__aeabi_dsub
 253              	.LVL23:
 254 0190 0300     		movs	r3, r0
 255 0192 0C00     		movs	r4, r1
 256 0194 1A00     		movs	r2, r3
 257 0196 2300     		movs	r3, r4
 258 0198 0E21     		movs	r1, #14
 259 019a 0820     		movs	r0, #8
 260 019c 3818     		adds	r0, r7, r0
 261 019e 4418     		adds	r4, r0, r1
 262 01a0 1000     		movs	r0, r2
 263 01a2 1900     		movs	r1, r3
 264 01a4 FFF7FEFF 		bl	__aeabi_d2uiz
 265              	.LVL24:
 266 01a8 0300     		movs	r3, r0
ARM GAS  C:\Users\embedded\AppData\Local\Temp\ccluNwz2.s 			page 6


 267 01aa 2380     		strh	r3, [r4]
 268 01ac CEE0     		b	.L4
 269              	.L5:
  20:tsl2561.c     ****     }
  21:tsl2561.c     ****     else if((channel1 / channel0) > 0.65 && (channel1 / channel0) <= 0.80)
 270              		.loc 1 21 0
 271 01ae 0C23     		movs	r3, #12
 272 01b0 FA18     		adds	r2, r7, r3
 273 01b2 0E23     		movs	r3, #14
 274 01b4 FB18     		adds	r3, r7, r3
 275 01b6 1288     		ldrh	r2, [r2]
 276 01b8 1B88     		ldrh	r3, [r3]
 277 01ba 1900     		movs	r1, r3
 278 01bc 1000     		movs	r0, r2
 279 01be FFF7FEFF 		bl	__aeabi_uidiv
 280              	.LVL25:
 281 01c2 0300     		movs	r3, r0
 282 01c4 1B04     		lsls	r3, r3, #16
 283 01c6 1B0C     		lsrs	r3, r3, #16
 284 01c8 1800     		movs	r0, r3
 285 01ca FFF7FEFF 		bl	__aeabi_i2d
 286              	.LVL26:
 287 01ce 6D4A     		ldr	r2, .L24+32
 288 01d0 6D4B     		ldr	r3, .L24+36
 289 01d2 FFF7FEFF 		bl	__aeabi_dcmpgt
 290              	.LVL27:
 291 01d6 031E     		subs	r3, r0, #0
 292 01d8 42D0     		beq	.L8
 293              		.loc 1 21 0 is_stmt 0 discriminator 1
 294 01da 0C23     		movs	r3, #12
 295 01dc FA18     		adds	r2, r7, r3
 296 01de 0E23     		movs	r3, #14
 297 01e0 FB18     		adds	r3, r7, r3
 298 01e2 1288     		ldrh	r2, [r2]
 299 01e4 1B88     		ldrh	r3, [r3]
 300 01e6 1900     		movs	r1, r3
 301 01e8 1000     		movs	r0, r2
 302 01ea FFF7FEFF 		bl	__aeabi_uidiv
 303              	.LVL28:
 304 01ee 0300     		movs	r3, r0
 305 01f0 1B04     		lsls	r3, r3, #16
 306 01f2 1B0C     		lsrs	r3, r3, #16
 307 01f4 1800     		movs	r0, r3
 308 01f6 FFF7FEFF 		bl	__aeabi_i2d
 309              	.LVL29:
 310 01fa 684A     		ldr	r2, .L24+56
 311 01fc 684B     		ldr	r3, .L24+60
 312 01fe FFF7FEFF 		bl	__aeabi_dcmple
 313              	.LVL30:
 314 0202 031E     		subs	r3, r0, #0
 315 0204 2CD0     		beq	.L8
  22:tsl2561.c     ****     {
  23:tsl2561.c     ****         finalResult = 0.0157 * channel0 - 0.0180 * channel1;
 316              		.loc 1 23 0 is_stmt 1
 317 0206 0E23     		movs	r3, #14
 318 0208 FB18     		adds	r3, r7, r3
 319 020a 1B88     		ldrh	r3, [r3]
ARM GAS  C:\Users\embedded\AppData\Local\Temp\ccluNwz2.s 			page 7


 320 020c 1800     		movs	r0, r3
 321 020e FFF7FEFF 		bl	__aeabi_i2d
 322              	.LVL31:
 323 0212 644A     		ldr	r2, .L24+64
 324 0214 644B     		ldr	r3, .L24+68
 325 0216 FFF7FEFF 		bl	__aeabi_dmul
 326              	.LVL32:
 327 021a 0300     		movs	r3, r0
 328 021c 0C00     		movs	r4, r1
 329 021e 2500     		movs	r5, r4
 330 0220 1C00     		movs	r4, r3
 331 0222 0C23     		movs	r3, #12
 332 0224 FB18     		adds	r3, r7, r3
 333 0226 1B88     		ldrh	r3, [r3]
 334 0228 1800     		movs	r0, r3
 335 022a FFF7FEFF 		bl	__aeabi_i2d
 336              	.LVL33:
 337 022e 5F4A     		ldr	r2, .L24+72
 338 0230 5F4B     		ldr	r3, .L24+76
 339 0232 FFF7FEFF 		bl	__aeabi_dmul
 340              	.LVL34:
 341 0236 0200     		movs	r2, r0
 342 0238 0B00     		movs	r3, r1
 343 023a 2000     		movs	r0, r4
 344 023c 2900     		movs	r1, r5
 345 023e FFF7FEFF 		bl	__aeabi_dsub
 346              	.LVL35:
 347 0242 0300     		movs	r3, r0
 348 0244 0C00     		movs	r4, r1
 349 0246 1A00     		movs	r2, r3
 350 0248 2300     		movs	r3, r4
 351 024a 0E21     		movs	r1, #14
 352 024c 0820     		movs	r0, #8
 353 024e 3818     		adds	r0, r7, r0
 354 0250 4418     		adds	r4, r0, r1
 355 0252 1000     		movs	r0, r2
 356 0254 1900     		movs	r1, r3
 357 0256 FFF7FEFF 		bl	__aeabi_d2uiz
 358              	.LVL36:
 359 025a 0300     		movs	r3, r0
 360 025c 2380     		strh	r3, [r4]
 361 025e 75E0     		b	.L4
 362              	.L8:
  24:tsl2561.c     ****     }
  25:tsl2561.c     ****     else if ((channel1 / channel0) > 0.80 && (channel1 / channel0) <= 1.3)
 363              		.loc 1 25 0
 364 0260 0C23     		movs	r3, #12
 365 0262 FA18     		adds	r2, r7, r3
 366 0264 0E23     		movs	r3, #14
 367 0266 FB18     		adds	r3, r7, r3
 368 0268 1288     		ldrh	r2, [r2]
 369 026a 1B88     		ldrh	r3, [r3]
 370 026c 1900     		movs	r1, r3
 371 026e 1000     		movs	r0, r2
 372 0270 FFF7FEFF 		bl	__aeabi_uidiv
 373              	.LVL37:
 374 0274 0300     		movs	r3, r0
ARM GAS  C:\Users\embedded\AppData\Local\Temp\ccluNwz2.s 			page 8


 375 0276 1B04     		lsls	r3, r3, #16
 376 0278 1B0C     		lsrs	r3, r3, #16
 377 027a 1800     		movs	r0, r3
 378 027c FFF7FEFF 		bl	__aeabi_i2d
 379              	.LVL38:
 380 0280 464A     		ldr	r2, .L24+56
 381 0282 474B     		ldr	r3, .L24+60
 382 0284 FFF7FEFF 		bl	__aeabi_dcmpgt
 383              	.LVL39:
 384 0288 031E     		subs	r3, r0, #0
 385 028a 42D0     		beq	.L11
 386              		.loc 1 25 0 is_stmt 0 discriminator 1
 387 028c 0C23     		movs	r3, #12
 388 028e FA18     		adds	r2, r7, r3
 389 0290 0E23     		movs	r3, #14
 390 0292 FB18     		adds	r3, r7, r3
 391 0294 1288     		ldrh	r2, [r2]
 392 0296 1B88     		ldrh	r3, [r3]
 393 0298 1900     		movs	r1, r3
 394 029a 1000     		movs	r0, r2
 395 029c FFF7FEFF 		bl	__aeabi_uidiv
 396              	.LVL40:
 397 02a0 0300     		movs	r3, r0
 398 02a2 1B04     		lsls	r3, r3, #16
 399 02a4 1B0C     		lsrs	r3, r3, #16
 400 02a6 1800     		movs	r0, r3
 401 02a8 FFF7FEFF 		bl	__aeabi_i2d
 402              	.LVL41:
 403 02ac 354A     		ldr	r2, .L24+32
 404 02ae 414B     		ldr	r3, .L24+80
 405 02b0 FFF7FEFF 		bl	__aeabi_dcmple
 406              	.LVL42:
 407 02b4 031E     		subs	r3, r0, #0
 408 02b6 2CD0     		beq	.L11
  26:tsl2561.c     ****     {
  27:tsl2561.c     ****         finalResult = 0.00388 * channel0 - 0.00260 * channel1;
 409              		.loc 1 27 0 is_stmt 1
 410 02b8 0E23     		movs	r3, #14
 411 02ba FB18     		adds	r3, r7, r3
 412 02bc 1B88     		ldrh	r3, [r3]
 413 02be 1800     		movs	r0, r3
 414 02c0 FFF7FEFF 		bl	__aeabi_i2d
 415              	.LVL43:
 416 02c4 3C4A     		ldr	r2, .L24+84
 417 02c6 3D4B     		ldr	r3, .L24+88
 418 02c8 FFF7FEFF 		bl	__aeabi_dmul
 419              	.LVL44:
 420 02cc 0300     		movs	r3, r0
 421 02ce 0C00     		movs	r4, r1
 422 02d0 2500     		movs	r5, r4
 423 02d2 1C00     		movs	r4, r3
 424 02d4 0C23     		movs	r3, #12
 425 02d6 FB18     		adds	r3, r7, r3
 426 02d8 1B88     		ldrh	r3, [r3]
 427 02da 1800     		movs	r0, r3
 428 02dc FFF7FEFF 		bl	__aeabi_i2d
 429              	.LVL45:
ARM GAS  C:\Users\embedded\AppData\Local\Temp\ccluNwz2.s 			page 9


 430 02e0 374A     		ldr	r2, .L24+92
 431 02e2 384B     		ldr	r3, .L24+96
 432 02e4 FFF7FEFF 		bl	__aeabi_dmul
 433              	.LVL46:
 434 02e8 0200     		movs	r2, r0
 435 02ea 0B00     		movs	r3, r1
 436 02ec 2000     		movs	r0, r4
 437 02ee 2900     		movs	r1, r5
 438 02f0 FFF7FEFF 		bl	__aeabi_dsub
 439              	.LVL47:
 440 02f4 0300     		movs	r3, r0
 441 02f6 0C00     		movs	r4, r1
 442 02f8 1A00     		movs	r2, r3
 443 02fa 2300     		movs	r3, r4
 444 02fc 0E21     		movs	r1, #14
 445 02fe 0820     		movs	r0, #8
 446 0300 3818     		adds	r0, r7, r0
 447 0302 4418     		adds	r4, r0, r1
 448 0304 1000     		movs	r0, r2
 449 0306 1900     		movs	r1, r3
 450 0308 FFF7FEFF 		bl	__aeabi_d2uiz
 451              	.LVL48:
 452 030c 0300     		movs	r3, r0
 453 030e 2380     		strh	r3, [r4]
 454 0310 1CE0     		b	.L4
 455              	.L11:
  28:tsl2561.c     ****     }
  29:tsl2561.c     ****     else if ((channel1 / channel0) > 1.3) {
 456              		.loc 1 29 0
 457 0312 0C23     		movs	r3, #12
 458 0314 FA18     		adds	r2, r7, r3
 459 0316 0E23     		movs	r3, #14
 460 0318 FB18     		adds	r3, r7, r3
 461 031a 1288     		ldrh	r2, [r2]
 462 031c 1B88     		ldrh	r3, [r3]
 463 031e 1900     		movs	r1, r3
 464 0320 1000     		movs	r0, r2
 465 0322 FFF7FEFF 		bl	__aeabi_uidiv
 466              	.LVL49:
 467 0326 0300     		movs	r3, r0
 468 0328 1B04     		lsls	r3, r3, #16
 469 032a 1B0C     		lsrs	r3, r3, #16
 470 032c 1800     		movs	r0, r3
 471 032e FFF7FEFF 		bl	__aeabi_i2d
 472              	.LVL50:
 473 0332 144A     		ldr	r2, .L24+32
 474 0334 1F4B     		ldr	r3, .L24+80
 475 0336 FFF7FEFF 		bl	__aeabi_dcmpgt
 476              	.LVL51:
 477 033a 031E     		subs	r3, r0, #0
 478 033c 06D0     		beq	.L4
  30:tsl2561.c     ****         finalResult = 0;
 479              		.loc 1 30 0
 480 033e 0E23     		movs	r3, #14
 481 0340 0822     		movs	r2, #8
 482 0342 9446     		mov	ip, r2
 483 0344 BC44     		add	ip, ip, r7
ARM GAS  C:\Users\embedded\AppData\Local\Temp\ccluNwz2.s 			page 10


 484 0346 6344     		add	r3, r3, ip
 485 0348 0022     		movs	r2, #0
 486 034a 1A80     		strh	r2, [r3]
 487              	.L4:
  31:tsl2561.c     ****     }
  32:tsl2561.c     ****     return finalResult;
 488              		.loc 1 32 0
 489 034c 0E23     		movs	r3, #14
 490 034e 0822     		movs	r2, #8
 491 0350 9446     		mov	ip, r2
 492 0352 BC44     		add	ip, ip, r7
 493 0354 6344     		add	r3, r3, ip
 494 0356 1B88     		ldrh	r3, [r3]
  33:tsl2561.c     **** }
 495              		.loc 1 33 0
 496 0358 1800     		movs	r0, r3
 497 035a BD46     		mov	sp, r7
 498 035c 07B0     		add	sp, sp, #28
 499              		@ sp needed
 500 035e F0BC     		pop	{r4, r5, r6, r7}
 501 0360 02BC     		pop	{r1}
 502 0362 0847     		bx	r1
 503              	.L25:
 504              		.align	2
 505              	.L24:
 506 0364 A4703D0A 		.word	171798692
 507 0368 D7A3E03F 		.word	1071686615
 508 036c 54E3A59B 		.word	-1683627180
 509 0370 C420A03F 		.word	1067458756
 510 0374 CD3B4ED1 		.word	-783402035
 511 0378 915CAE3F 		.word	1068391569
 512 037c 66666666 		.word	1717986918
 513 0380 6666F63F 		.word	1073112678
 514 0384 CDCCCCCC 		.word	-858993459
 515 0388 CCCCE43F 		.word	1071959244
 516 038c 174850FC 		.word	-61847529
 517 0390 1873973F 		.word	1066890008
 518 0394 5C2041F1 		.word	-247390116
 519 0398 63CC9D3F 		.word	1067306083
 520 039c 9A999999 		.word	-1717986918
 521 03a0 9999E93F 		.word	1072273817
 522 03a4 3255302A 		.word	707810610
 523 03a8 A913903F 		.word	1066406825
 524 03ac 3BDF4F8D 		.word	-1924145349
 525 03b0 976E923F 		.word	1066561175
 526 03b4 CCCCF43F 		.word	1073007820
 527 03b8 0DAB7823 		.word	595110669
 528 03bc F3C86F3F 		.word	1064290547
 529 03c0 94F6065F 		.word	1594291860
 530 03c4 984C653F 		.word	1063603352
 531              		.cfi_endproc
 532              	.LFE0:
 533              		.size	calculateBrightness, .-calculateBrightness
 534              		.align	1
 535              		.global	measureBrightness
 536              		.syntax unified
 537              		.code	16
ARM GAS  C:\Users\embedded\AppData\Local\Temp\ccluNwz2.s 			page 11


 538              		.thumb_func
 539              		.fpu softvfp
 540              		.type	measureBrightness, %function
 541              	measureBrightness:
 542              	.LFB1:
  34:tsl2561.c     **** 
  35:tsl2561.c     **** tU16 measureBrightness()
  36:tsl2561.c     **** {
 543              		.loc 1 36 0
 544              		.cfi_startproc
 545              		@ Function supports interworking.
 546              		@ args = 0, pretend = 0, frame = 24
 547              		@ frame_needed = 1, uses_anonymous_args = 0
 548 03c8 F0B5     		push	{r4, r5, r6, r7, lr}
 549              	.LCFI3:
 550              		.cfi_def_cfa_offset 20
 551              		.cfi_offset 4, -20
 552              		.cfi_offset 5, -16
 553              		.cfi_offset 6, -12
 554              		.cfi_offset 7, -8
 555              		.cfi_offset 14, -4
 556 03ca 87B0     		sub	sp, sp, #28
 557              	.LCFI4:
 558              		.cfi_def_cfa_offset 48
 559 03cc 00AF     		add	r7, sp, #0
 560              	.LCFI5:
 561              		.cfi_def_cfa_register 7
  37:tsl2561.c     ****     tU8 command[2] = {};
 562              		.loc 1 37 0
 563 03ce 0821     		movs	r1, #8
 564 03d0 7B18     		adds	r3, r7, r1
 565 03d2 0022     		movs	r2, #0
 566 03d4 1A80     		strh	r2, [r3]
  38:tsl2561.c     ****     tU8 *readValue;
  39:tsl2561.c     ****     // Write address for TLS2561
  40:tsl2561.c     ****     tU8 tslWriteAddress = ((0x1C << 1) | 1);
 567              		.loc 1 40 0
 568 03d6 1720     		movs	r0, #23
 569 03d8 3B18     		adds	r3, r7, r0
 570 03da 3922     		movs	r2, #57
 571 03dc 1A70     		strb	r2, [r3]
  41:tsl2561.c     ****     // Read address for TLS2561
  42:tsl2561.c     ****     tU8 tslReadAddress = (0x1C << 1);
 572              		.loc 1 42 0
 573 03de 1626     		movs	r6, #22
 574 03e0 BB19     		adds	r3, r7, r6
 575 03e2 3822     		movs	r2, #56
 576 03e4 1A70     		strb	r2, [r3]
  43:tsl2561.c     ****     tU16 channel0, channel1;
  44:tsl2561.c     **** 
  45:tsl2561.c     ****     // Sending a command to the device to power it up.
  46:tsl2561.c     ****     command[0] = ((0xA0 << 4) | 0x00);  // Change target register to control register
 577              		.loc 1 46 0
 578 03e6 7B18     		adds	r3, r7, r1
 579 03e8 0022     		movs	r2, #0
 580 03ea 1A70     		strb	r2, [r3]
  47:tsl2561.c     ****     command[1] = (0x03);  // Wrtie 0x03 (so power up) the device
ARM GAS  C:\Users\embedded\AppData\Local\Temp\ccluNwz2.s 			page 12


 581              		.loc 1 47 0
 582 03ec 7B18     		adds	r3, r7, r1
 583 03ee 0322     		movs	r2, #3
 584 03f0 5A70     		strb	r2, [r3, #1]
  48:tsl2561.c     ****     i2cWrite(tslWriteAddress, command, 2);
 585              		.loc 1 48 0
 586 03f2 0500     		movs	r5, r0
 587 03f4 3B18     		adds	r3, r7, r0
 588 03f6 1B78     		ldrb	r3, [r3]
 589 03f8 0C00     		movs	r4, r1
 590 03fa 7918     		adds	r1, r7, r1
 591 03fc 0222     		movs	r2, #2
 592 03fe 1800     		movs	r0, r3
 593 0400 FFF7FEFF 		bl	i2cWrite
  49:tsl2561.c     **** 
  50:tsl2561.c     ****     command[0] = ((0x09 << 4) | 0x00);  // Change target register to control register
 594              		.loc 1 50 0
 595 0404 2100     		movs	r1, r4
 596 0406 7B18     		adds	r3, r7, r1
 597 0408 9022     		movs	r2, #144
 598 040a 1A70     		strb	r2, [r3]
  51:tsl2561.c     ****     i2cWrite(tslWriteAddress, command, 1);
 599              		.loc 1 51 0
 600 040c 2800     		movs	r0, r5
 601 040e 3B18     		adds	r3, r7, r0
 602 0410 1B78     		ldrb	r3, [r3]
 603 0412 7918     		adds	r1, r7, r1
 604 0414 0122     		movs	r2, #1
 605 0416 1800     		movs	r0, r3
 606 0418 FFF7FEFF 		bl	i2cWrite
  52:tsl2561.c     ****     tU8 super = 0;
 607              		.loc 1 52 0
 608 041c 1523     		movs	r3, #21
 609 041e FB18     		adds	r3, r7, r3
 610 0420 0022     		movs	r2, #0
 611 0422 1A70     		strb	r2, [r3]
  53:tsl2561.c     ****     tU8 readByte[1] = {};
 612              		.loc 1 53 0
 613 0424 3B1D     		adds	r3, r7, #4
 614 0426 0022     		movs	r2, #0
 615 0428 1A70     		strb	r2, [r3]
  54:tsl2561.c     ****     i2cRead(tslReadAddress, readByte, 1);
 616              		.loc 1 54 0
 617 042a BB19     		adds	r3, r7, r6
 618 042c 1B78     		ldrb	r3, [r3]
 619 042e 391D     		adds	r1, r7, #4
 620 0430 0122     		movs	r2, #1
 621 0432 1800     		movs	r0, r3
 622 0434 FFF7FEFF 		bl	i2cRead
  55:tsl2561.c     ****     if (readByte[0] == 0x03) {
 623              		.loc 1 55 0
 624 0438 3B1D     		adds	r3, r7, #4
 625 043a 1B78     		ldrb	r3, [r3]
 626 043c 032B     		cmp	r3, #3
 627 043e 03D1     		bne	.L27
  56:tsl2561.c     ****     	super = 1;
 628              		.loc 1 56 0
ARM GAS  C:\Users\embedded\AppData\Local\Temp\ccluNwz2.s 			page 13


 629 0440 1523     		movs	r3, #21
 630 0442 FB18     		adds	r3, r7, r3
 631 0444 0122     		movs	r2, #1
 632 0446 1A70     		strb	r2, [r3]
 633              	.L27:
  57:tsl2561.c     ****     }
  58:tsl2561.c     **** 
  59:tsl2561.c     ****     mdelay(403); // Waiting for 403 ms, since it takes 402 ms for both channels to integrate
 634              		.loc 1 59 0
 635 0448 9423     		movs	r3, #148
 636 044a FF33     		adds	r3, r3, #255
 637 044c 1800     		movs	r0, r3
 638 044e FFF7FEFF 		bl	mdelay
  60:tsl2561.c     **** 
  61:tsl2561.c     ****     // Command for reading low byte of 16 bit channel 0
  62:tsl2561.c     ****     command[0] = ((0x09 << 4) | 0x0C);
 639              		.loc 1 62 0
 640 0452 0824     		movs	r4, #8
 641 0454 3B19     		adds	r3, r7, r4
 642 0456 9C22     		movs	r2, #156
 643 0458 1A70     		strb	r2, [r3]
  63:tsl2561.c     ****     i2cWrite(tslWriteAddress, command, 1);
 644              		.loc 1 63 0
 645 045a 1725     		movs	r5, #23
 646 045c 7B19     		adds	r3, r7, r5
 647 045e 1B78     		ldrb	r3, [r3]
 648 0460 3919     		adds	r1, r7, r4
 649 0462 0122     		movs	r2, #1
 650 0464 1800     		movs	r0, r3
 651 0466 FFF7FEFF 		bl	i2cWrite
  64:tsl2561.c     ****     i2cRead(tslReadAddress, readValue, 1);
 652              		.loc 1 64 0
 653 046a 1623     		movs	r3, #22
 654 046c FB18     		adds	r3, r7, r3
 655 046e 1B78     		ldrb	r3, [r3]
 656 0470 3969     		ldr	r1, [r7, #16]
 657 0472 0122     		movs	r2, #1
 658 0474 1800     		movs	r0, r3
 659 0476 FFF7FEFF 		bl	i2cRead
  65:tsl2561.c     ****     channel0 = (channel0 | (*readValue));
 660              		.loc 1 65 0
 661 047a 3B69     		ldr	r3, [r7, #16]
 662 047c 1B78     		ldrb	r3, [r3]
 663 047e 1B04     		lsls	r3, r3, #16
 664 0480 190C     		lsrs	r1, r3, #16
 665 0482 0E26     		movs	r6, #14
 666 0484 BB19     		adds	r3, r7, r6
 667 0486 BA19     		adds	r2, r7, r6
 668 0488 1288     		ldrh	r2, [r2]
 669 048a 0A43     		orrs	r2, r1
 670 048c 1A80     		strh	r2, [r3]
  66:tsl2561.c     **** 
  67:tsl2561.c     ****     // Command for reading high byte of 16 bit channel 0
  68:tsl2561.c     ****     command[0] = ((0x09 << 4) | 0x0D);
 671              		.loc 1 68 0
 672 048e 3B19     		adds	r3, r7, r4
 673 0490 9D22     		movs	r2, #157
ARM GAS  C:\Users\embedded\AppData\Local\Temp\ccluNwz2.s 			page 14


 674 0492 1A70     		strb	r2, [r3]
  69:tsl2561.c     ****     i2cWrite(tslWriteAddress, command, 1);
 675              		.loc 1 69 0
 676 0494 7B19     		adds	r3, r7, r5
 677 0496 1B78     		ldrb	r3, [r3]
 678 0498 3919     		adds	r1, r7, r4
 679 049a 0122     		movs	r2, #1
 680 049c 1800     		movs	r0, r3
 681 049e FFF7FEFF 		bl	i2cWrite
  70:tsl2561.c     ****     i2cRead(tslReadAddress, readValue, 1);
 682              		.loc 1 70 0
 683 04a2 1623     		movs	r3, #22
 684 04a4 FB18     		adds	r3, r7, r3
 685 04a6 1B78     		ldrb	r3, [r3]
 686 04a8 3969     		ldr	r1, [r7, #16]
 687 04aa 0122     		movs	r2, #1
 688 04ac 1800     		movs	r0, r3
 689 04ae FFF7FEFF 		bl	i2cRead
  71:tsl2561.c     ****     channel0 = (channel0 | (*readValue << 8));
 690              		.loc 1 71 0
 691 04b2 3B69     		ldr	r3, [r7, #16]
 692 04b4 1B78     		ldrb	r3, [r3]
 693 04b6 1B02     		lsls	r3, r3, #8
 694 04b8 1B04     		lsls	r3, r3, #16
 695 04ba 1B14     		asrs	r3, r3, #16
 696 04bc BA19     		adds	r2, r7, r6
 697 04be 0021     		movs	r1, #0
 698 04c0 525E     		ldrsh	r2, [r2, r1]
 699 04c2 1343     		orrs	r3, r2
 700 04c4 1B04     		lsls	r3, r3, #16
 701 04c6 1B14     		asrs	r3, r3, #16
 702 04c8 BA19     		adds	r2, r7, r6
 703 04ca 1380     		strh	r3, [r2]
  72:tsl2561.c     **** 
  73:tsl2561.c     ****     // Command for reading low byte of 16 bit channel 1
  74:tsl2561.c     ****     command[0] = ((0x09 << 4) | 0x0E);
 704              		.loc 1 74 0
 705 04cc 3B19     		adds	r3, r7, r4
 706 04ce 9E22     		movs	r2, #158
 707 04d0 1A70     		strb	r2, [r3]
  75:tsl2561.c     ****     i2cWrite(tslWriteAddress, command, 1);
 708              		.loc 1 75 0
 709 04d2 7B19     		adds	r3, r7, r5
 710 04d4 1B78     		ldrb	r3, [r3]
 711 04d6 3919     		adds	r1, r7, r4
 712 04d8 0122     		movs	r2, #1
 713 04da 1800     		movs	r0, r3
 714 04dc FFF7FEFF 		bl	i2cWrite
  76:tsl2561.c     ****     i2cRead(tslReadAddress, readValue, 1);
 715              		.loc 1 76 0
 716 04e0 1623     		movs	r3, #22
 717 04e2 FB18     		adds	r3, r7, r3
 718 04e4 1B78     		ldrb	r3, [r3]
 719 04e6 3969     		ldr	r1, [r7, #16]
 720 04e8 0122     		movs	r2, #1
 721 04ea 1800     		movs	r0, r3
 722 04ec FFF7FEFF 		bl	i2cRead
ARM GAS  C:\Users\embedded\AppData\Local\Temp\ccluNwz2.s 			page 15


  77:tsl2561.c     ****     channel1 = (channel1 | (*readValue));
 723              		.loc 1 77 0
 724 04f0 3B69     		ldr	r3, [r7, #16]
 725 04f2 1B78     		ldrb	r3, [r3]
 726 04f4 1B04     		lsls	r3, r3, #16
 727 04f6 190C     		lsrs	r1, r3, #16
 728 04f8 0C22     		movs	r2, #12
 729 04fa BB18     		adds	r3, r7, r2
 730 04fc BA18     		adds	r2, r7, r2
 731 04fe 1288     		ldrh	r2, [r2]
 732 0500 0A43     		orrs	r2, r1
 733 0502 1A80     		strh	r2, [r3]
  78:tsl2561.c     **** 
  79:tsl2561.c     ****     // Command for reading high byte of 16 bit channel 1
  80:tsl2561.c     ****     command[0] = ((0x09 << 4) | 0x0F);
 734              		.loc 1 80 0
 735 0504 3B19     		adds	r3, r7, r4
 736 0506 9F22     		movs	r2, #159
 737 0508 1A70     		strb	r2, [r3]
  81:tsl2561.c     ****     i2cWrite(tslWriteAddress, command, 1);
 738              		.loc 1 81 0
 739 050a 7B19     		adds	r3, r7, r5
 740 050c 1B78     		ldrb	r3, [r3]
 741 050e 3919     		adds	r1, r7, r4
 742 0510 0122     		movs	r2, #1
 743 0512 1800     		movs	r0, r3
 744 0514 FFF7FEFF 		bl	i2cWrite
  82:tsl2561.c     ****     i2cRead(tslReadAddress, readValue, 1);
 745              		.loc 1 82 0
 746 0518 1623     		movs	r3, #22
 747 051a FB18     		adds	r3, r7, r3
 748 051c 1B78     		ldrb	r3, [r3]
 749 051e 3969     		ldr	r1, [r7, #16]
 750 0520 0122     		movs	r2, #1
 751 0522 1800     		movs	r0, r3
 752 0524 FFF7FEFF 		bl	i2cRead
  83:tsl2561.c     ****     channel1 = (channel1 | (*readValue << 8));
 753              		.loc 1 83 0
 754 0528 3B69     		ldr	r3, [r7, #16]
 755 052a 1B78     		ldrb	r3, [r3]
 756 052c 1B02     		lsls	r3, r3, #8
 757 052e 1B04     		lsls	r3, r3, #16
 758 0530 1B14     		asrs	r3, r3, #16
 759 0532 0C22     		movs	r2, #12
 760 0534 1100     		movs	r1, r2
 761 0536 BA18     		adds	r2, r7, r2
 762 0538 0020     		movs	r0, #0
 763 053a 125E     		ldrsh	r2, [r2, r0]
 764 053c 1343     		orrs	r3, r2
 765 053e 1B04     		lsls	r3, r3, #16
 766 0540 1B14     		asrs	r3, r3, #16
 767 0542 7A18     		adds	r2, r7, r1
 768 0544 1380     		strh	r3, [r2]
  84:tsl2561.c     **** 
  85:tsl2561.c     ****     // Sending a command to the device to power it down.
  86:tsl2561.c     ****     command[0] = ((0xA0 << 4) | 0x00);  // Change target register to control register
 769              		.loc 1 86 0
ARM GAS  C:\Users\embedded\AppData\Local\Temp\ccluNwz2.s 			page 16


 770 0546 3B19     		adds	r3, r7, r4
 771 0548 0022     		movs	r2, #0
 772 054a 1A70     		strb	r2, [r3]
  87:tsl2561.c     ****     command[1] = (0x00);  // Wrtie 0x00 (so power down) the device
 773              		.loc 1 87 0
 774 054c 3B19     		adds	r3, r7, r4
 775 054e 0022     		movs	r2, #0
 776 0550 5A70     		strb	r2, [r3, #1]
  88:tsl2561.c     ****     i2cWrite(tslWriteAddress, command, 2);
 777              		.loc 1 88 0
 778 0552 7B19     		adds	r3, r7, r5
 779 0554 1B78     		ldrb	r3, [r3]
 780 0556 3919     		adds	r1, r7, r4
 781 0558 0222     		movs	r2, #2
 782 055a 1800     		movs	r0, r3
 783 055c FFF7FEFF 		bl	i2cWrite
  89:tsl2561.c     **** 
  90:tsl2561.c     ****     return calculateBrightness(channel0, channel1);
 784              		.loc 1 90 0
 785 0560 0C21     		movs	r1, #12
 786 0562 7B18     		adds	r3, r7, r1
 787 0564 1A88     		ldrh	r2, [r3]
 788 0566 BB19     		adds	r3, r7, r6
 789 0568 1B88     		ldrh	r3, [r3]
 790 056a 1100     		movs	r1, r2
 791 056c 1800     		movs	r0, r3
 792 056e FFF7FEFF 		bl	calculateBrightness
 793 0572 0300     		movs	r3, r0
  91:tsl2561.c     **** }
 794              		.loc 1 91 0
 795 0574 1800     		movs	r0, r3
 796 0576 BD46     		mov	sp, r7
 797 0578 07B0     		add	sp, sp, #28
 798              		@ sp needed
 799 057a F0BC     		pop	{r4, r5, r6, r7}
 800 057c 02BC     		pop	{r1}
 801 057e 0847     		bx	r1
 802              		.cfi_endproc
 803              	.LFE1:
 804              		.size	measureBrightness, .-measureBrightness
 805              	.Letext0:
 806              		.file 2 "general.h"
 807              		.file 3 "c:\\embedded\\tools\\arm-none-eabi\\include\\sys\\lock.h"
 808              		.file 4 "c:\\embedded\\tools\\arm-none-eabi\\include\\sys\\_types.h"
 809              		.file 5 "c:\\embedded\\tools\\lib\\gcc\\arm-none-eabi\\7.3.1\\include\\stddef.h"
 810              		.file 6 "c:\\embedded\\tools\\arm-none-eabi\\include\\sys\\reent.h"
 811              		.file 7 "c:\\embedded\\tools\\arm-none-eabi\\include\\math.h"